ARM GAS  C:\Users\Labeo\AppData\Local\Temp\cc644lUq.s 			page 1


   1              		.syntax unified
   2              		.cpu cortex-m0plus
   3              		.fpu softvfp
   4              		.eabi_attribute 20, 1
   5              		.eabi_attribute 21, 1
   6              		.eabi_attribute 23, 3
   7              		.eabi_attribute 24, 1
   8              		.eabi_attribute 25, 1
   9              		.eabi_attribute 26, 1
  10              		.eabi_attribute 30, 1
  11              		.eabi_attribute 34, 0
  12              		.eabi_attribute 18, 4
  13              		.thumb
  14              		.syntax unified
  15              		.file	"CapSense_1_Processing.c"
  16              		.text
  17              	.Ltext0:
  18              		.cfi_sections	.debug_frame
  19              		.section	.text.CapSense_1_DpInitialize,"ax",%progbits
  20              		.align	2
  21              		.global	CapSense_1_DpInitialize
  22              		.code	16
  23              		.thumb_func
  24              		.type	CapSense_1_DpInitialize, %function
  25              	CapSense_1_DpInitialize:
  26              	.LFB45:
  27              		.file 1 "Generated_Source\\PSoC6\\CapSense_1_Processing.c"
   1:Generated_Source\PSoC6/CapSense_1_Processing.c **** /***************************************************************************//**
   2:Generated_Source\PSoC6/CapSense_1_Processing.c **** * \file CapSense_1_Processing.c
   3:Generated_Source\PSoC6/CapSense_1_Processing.c **** * \version 3.0
   4:Generated_Source\PSoC6/CapSense_1_Processing.c **** *
   5:Generated_Source\PSoC6/CapSense_1_Processing.c **** * \brief
   6:Generated_Source\PSoC6/CapSense_1_Processing.c **** *   This file provides the source code for the Data Processing module APIs
   7:Generated_Source\PSoC6/CapSense_1_Processing.c **** *   of the Component. The Data Processing module is responsible for the
   8:Generated_Source\PSoC6/CapSense_1_Processing.c **** *   low level raw counts processing provided by the sensing module, maintaining
   9:Generated_Source\PSoC6/CapSense_1_Processing.c **** *   baseline and difference values and performing high-level widget processing
  10:Generated_Source\PSoC6/CapSense_1_Processing.c **** *   like updating button status or calculating slider position.
  11:Generated_Source\PSoC6/CapSense_1_Processing.c **** *
  12:Generated_Source\PSoC6/CapSense_1_Processing.c **** * \see CapSense_1 v3.0 Datasheet
  13:Generated_Source\PSoC6/CapSense_1_Processing.c **** *
  14:Generated_Source\PSoC6/CapSense_1_Processing.c **** *//*****************************************************************************
  15:Generated_Source\PSoC6/CapSense_1_Processing.c **** * Copyright (2016-2017), Cypress Semiconductor Corporation.
  16:Generated_Source\PSoC6/CapSense_1_Processing.c **** ********************************************************************************
  17:Generated_Source\PSoC6/CapSense_1_Processing.c **** * This software is owned by Cypress Semiconductor Corporation (Cypress) and is
  18:Generated_Source\PSoC6/CapSense_1_Processing.c **** * protected by and subject to worldwide patent protection (United States and
  19:Generated_Source\PSoC6/CapSense_1_Processing.c **** * foreign), United States copyright laws and international treaty provisions.
  20:Generated_Source\PSoC6/CapSense_1_Processing.c **** * Cypress hereby grants to licensee a personal, non-exclusive, non-transferable
  21:Generated_Source\PSoC6/CapSense_1_Processing.c **** * license to copy, use, modify, create derivative works of, and compile the
  22:Generated_Source\PSoC6/CapSense_1_Processing.c **** * Cypress Source Code and derivative works for the sole purpose of creating
  23:Generated_Source\PSoC6/CapSense_1_Processing.c **** * custom software in support of licensee product to be used only in conjunction
  24:Generated_Source\PSoC6/CapSense_1_Processing.c **** * with a Cypress integrated circuit as specified in the applicable agreement.
  25:Generated_Source\PSoC6/CapSense_1_Processing.c **** * Any reproduction, modification, translation, compilation, or representation of
  26:Generated_Source\PSoC6/CapSense_1_Processing.c **** * this software except as specified above is prohibited without the express
  27:Generated_Source\PSoC6/CapSense_1_Processing.c **** * written permission of Cypress.
  28:Generated_Source\PSoC6/CapSense_1_Processing.c **** *
  29:Generated_Source\PSoC6/CapSense_1_Processing.c **** * Disclaimer: CYPRESS MAKES NO WARRANTY OF ANY KIND, EXPRESS OR IMPLIED, WITH
  30:Generated_Source\PSoC6/CapSense_1_Processing.c **** * REGARD TO THIS MATERIAL, INCLUDING, BUT NOT LIMITED TO, THE IMPLIED
ARM GAS  C:\Users\Labeo\AppData\Local\Temp\cc644lUq.s 			page 2


  31:Generated_Source\PSoC6/CapSense_1_Processing.c **** * WARRANTIES OF MERCHANTABILITY AND FITNESS FOR A PARTICULAR PURPOSE.
  32:Generated_Source\PSoC6/CapSense_1_Processing.c **** * Cypress reserves the right to make changes without further notice to the
  33:Generated_Source\PSoC6/CapSense_1_Processing.c **** * materials described herein. Cypress does not assume any liability arising out
  34:Generated_Source\PSoC6/CapSense_1_Processing.c **** * of the application or use of any product or circuit described herein. Cypress
  35:Generated_Source\PSoC6/CapSense_1_Processing.c **** * does not authorize its products for use as critical components in life-support
  36:Generated_Source\PSoC6/CapSense_1_Processing.c **** * systems where a malfunction or failure may reasonably be expected to result in
  37:Generated_Source\PSoC6/CapSense_1_Processing.c **** * significant injury to the user. The inclusion of Cypress' product in a life-
  38:Generated_Source\PSoC6/CapSense_1_Processing.c **** * support systems application implies that the manufacturer assumes all risk of
  39:Generated_Source\PSoC6/CapSense_1_Processing.c **** * such use and in doing so indemnifies Cypress against all charges. Use may be
  40:Generated_Source\PSoC6/CapSense_1_Processing.c **** * limited by and subject to the applicable Cypress software license agreement.
  41:Generated_Source\PSoC6/CapSense_1_Processing.c **** *******************************************************************************/
  42:Generated_Source\PSoC6/CapSense_1_Processing.c **** 
  43:Generated_Source\PSoC6/CapSense_1_Processing.c **** #include "syslib/cy_syslib.h"
  44:Generated_Source\PSoC6/CapSense_1_Processing.c **** #include <stddef.h>
  45:Generated_Source\PSoC6/CapSense_1_Processing.c **** #include <string.h>
  46:Generated_Source\PSoC6/CapSense_1_Processing.c **** #include "CapSense_1_Configuration.h"
  47:Generated_Source\PSoC6/CapSense_1_Processing.c **** #include "CapSense_1_Processing.h"
  48:Generated_Source\PSoC6/CapSense_1_Processing.c **** #include "CapSense_1_Filter.h"
  49:Generated_Source\PSoC6/CapSense_1_Processing.c **** 
  50:Generated_Source\PSoC6/CapSense_1_Processing.c **** #if (0u != CapSense_1_CENTROID_EN)
  51:Generated_Source\PSoC6/CapSense_1_Processing.c ****     #include "CapSense_1_Centroid_LL.h"
  52:Generated_Source\PSoC6/CapSense_1_Processing.c **** #endif /* (0 != CapSense_1_CENTROID_EN) */
  53:Generated_Source\PSoC6/CapSense_1_Processing.c **** 
  54:Generated_Source\PSoC6/CapSense_1_Processing.c **** #if (0 != (CapSense_1_CSD_AUTOTUNE & CapSense_1_CSD_SS_TH_EN))
  55:Generated_Source\PSoC6/CapSense_1_Processing.c ****     #include "CapSense_1_SmartSense_LL.h"
  56:Generated_Source\PSoC6/CapSense_1_Processing.c **** #endif /* (0 != (CapSense_1_CSD_AUTOTUNE & CapSense_1_CSD_SS_TH_EN)) */
  57:Generated_Source\PSoC6/CapSense_1_Processing.c **** 
  58:Generated_Source\PSoC6/CapSense_1_Processing.c **** #if (CapSense_1_ENABLE == CapSense_1_SELF_TEST_EN)
  59:Generated_Source\PSoC6/CapSense_1_Processing.c ****     #include "CapSense_1_SelfTest.h"
  60:Generated_Source\PSoC6/CapSense_1_Processing.c **** #endif
  61:Generated_Source\PSoC6/CapSense_1_Processing.c **** 
  62:Generated_Source\PSoC6/CapSense_1_Processing.c **** #if (CapSense_1_ENABLE == CapSense_1_CENTROID_5X5_CSD_EN)
  63:Generated_Source\PSoC6/CapSense_1_Processing.c ****     #include "CapSense_1_AdvancedCentroid_LL.h"
  64:Generated_Source\PSoC6/CapSense_1_Processing.c **** #endif
  65:Generated_Source\PSoC6/CapSense_1_Processing.c **** 
  66:Generated_Source\PSoC6/CapSense_1_Processing.c **** #if (CapSense_1_ENABLE == CapSense_1_POS_ADAPTIVE_IIR_FILTER_EN)
  67:Generated_Source\PSoC6/CapSense_1_Processing.c ****     #include "CapSense_1_AdaptiveFilter_LL.h"
  68:Generated_Source\PSoC6/CapSense_1_Processing.c **** #endif
  69:Generated_Source\PSoC6/CapSense_1_Processing.c **** 
  70:Generated_Source\PSoC6/CapSense_1_Processing.c **** #if(CapSense_1_ENABLE == CapSense_1_BALLISTIC_MULTIPLIER_EN)
  71:Generated_Source\PSoC6/CapSense_1_Processing.c ****     #include "CapSense_1_Gesture.h"
  72:Generated_Source\PSoC6/CapSense_1_Processing.c **** #endif
  73:Generated_Source\PSoC6/CapSense_1_Processing.c **** 
  74:Generated_Source\PSoC6/CapSense_1_Processing.c **** /**************************************************************************************************
  75:Generated_Source\PSoC6/CapSense_1_Processing.c **** * Local definition
  76:Generated_Source\PSoC6/CapSense_1_Processing.c **** ***************************************************************************************************
  77:Generated_Source\PSoC6/CapSense_1_Processing.c **** 
  78:Generated_Source\PSoC6/CapSense_1_Processing.c **** /* UINT32 constant with all odd bits set. It is used by the processing function of the Proximity wi
  79:Generated_Source\PSoC6/CapSense_1_Processing.c **** *  determine type of the status bit: odd bits report proximity status; even bits report touch statu
  80:Generated_Source\PSoC6/CapSense_1_Processing.c **** */
  81:Generated_Source\PSoC6/CapSense_1_Processing.c **** #define UINT32_ODD_BITS_CONST       (0x55555555u)
  82:Generated_Source\PSoC6/CapSense_1_Processing.c **** 
  83:Generated_Source\PSoC6/CapSense_1_Processing.c **** /* Default value for the Off Debounce counter when the Off Debounce is disabled */
  84:Generated_Source\PSoC6/CapSense_1_Processing.c **** #define DEFAULT_OFF_DEBOUNCE_VALUE  (1u)
  85:Generated_Source\PSoC6/CapSense_1_Processing.c **** #define PERCENTAGE_100              (100u)
  86:Generated_Source\PSoC6/CapSense_1_Processing.c **** #define TEMP_BUFFER_MSB_SHIFT       (16)
  87:Generated_Source\PSoC6/CapSense_1_Processing.c **** 
ARM GAS  C:\Users\Labeo\AppData\Local\Temp\cc644lUq.s 			page 3


  88:Generated_Source\PSoC6/CapSense_1_Processing.c **** /**************************************************************************************************
  89:Generated_Source\PSoC6/CapSense_1_Processing.c **** * Local variables
  90:Generated_Source\PSoC6/CapSense_1_Processing.c **** ***************************************************************************************************
  91:Generated_Source\PSoC6/CapSense_1_Processing.c **** #if (0u != CapSense_1_CSX_MULTIPHASE_TX_EN)
  92:Generated_Source\PSoC6/CapSense_1_Processing.c ****     static uint16 deconvRowData[CapSense_1_CSX_MAX_TX_PHASE_LENGTH];
  93:Generated_Source\PSoC6/CapSense_1_Processing.c **** #endif
  94:Generated_Source\PSoC6/CapSense_1_Processing.c **** 
  95:Generated_Source\PSoC6/CapSense_1_Processing.c **** 
  96:Generated_Source\PSoC6/CapSense_1_Processing.c **** /**************************************************************************************************
  97:Generated_Source\PSoC6/CapSense_1_Processing.c **** * Static Function Prototypes
  98:Generated_Source\PSoC6/CapSense_1_Processing.c **** ***************************************************************************************************
  99:Generated_Source\PSoC6/CapSense_1_Processing.c **** /**
 100:Generated_Source\PSoC6/CapSense_1_Processing.c **** * \cond SECTION_CYSENSE_INTERNAL
 101:Generated_Source\PSoC6/CapSense_1_Processing.c **** * \addtogroup group_cysense_internal
 102:Generated_Source\PSoC6/CapSense_1_Processing.c **** * \{
 103:Generated_Source\PSoC6/CapSense_1_Processing.c **** */
 104:Generated_Source\PSoC6/CapSense_1_Processing.c **** #if (0u != CapSense_1_TOTAL_LINEAR_SLIDERS)
 105:Generated_Source\PSoC6/CapSense_1_Processing.c ****     __STATIC_INLINE void DpUpdateLinSlider(
 106:Generated_Source\PSoC6/CapSense_1_Processing.c ****                         const uint16 newPos[], uint32 numTouches,
 107:Generated_Source\PSoC6/CapSense_1_Processing.c ****                         CapSense_1_FLASH_WD_STRUCT const *ptrFlashWdgt,
 108:Generated_Source\PSoC6/CapSense_1_Processing.c ****                         CapSense_1_RAM_WD_SLIDER_STRUCT *ptrRamWdgt);
 109:Generated_Source\PSoC6/CapSense_1_Processing.c **** #endif /* #if (0u != CapSense_1_TOTAL_LINEAR_SLIDERS) */
 110:Generated_Source\PSoC6/CapSense_1_Processing.c **** 
 111:Generated_Source\PSoC6/CapSense_1_Processing.c **** #if (0u != CapSense_1_TOTAL_RADIAL_SLIDERS)
 112:Generated_Source\PSoC6/CapSense_1_Processing.c ****     __STATIC_INLINE void DpUpdateRadSlider(
 113:Generated_Source\PSoC6/CapSense_1_Processing.c ****                         const uint16 newPos[], uint32 numTouches,
 114:Generated_Source\PSoC6/CapSense_1_Processing.c ****                         CapSense_1_FLASH_WD_STRUCT const * ptrFlashWdgt,
 115:Generated_Source\PSoC6/CapSense_1_Processing.c ****                         CapSense_1_RAM_WD_SLIDER_STRUCT *ptrRamWdgt);
 116:Generated_Source\PSoC6/CapSense_1_Processing.c **** #endif /* #if (0u != CapSense_1_TOTAL_RADIAL_SLIDERS) */
 117:Generated_Source\PSoC6/CapSense_1_Processing.c **** 
 118:Generated_Source\PSoC6/CapSense_1_Processing.c **** #if (0u != CapSense_1_CSD_TOUCHPAD_WIDGET_EN)
 119:Generated_Source\PSoC6/CapSense_1_Processing.c ****     __STATIC_INLINE void CapSense_1_DpInitCsdTouchpad(CapSense_1_FLASH_WD_STRUCT const * ptrFlashWd
 120:Generated_Source\PSoC6/CapSense_1_Processing.c **** #endif /* #if (0u != CapSense_1_CSD_TOUCHPAD_WIDGET_EN) */
 121:Generated_Source\PSoC6/CapSense_1_Processing.c **** 
 122:Generated_Source\PSoC6/CapSense_1_Processing.c **** #if (0u != CapSense_1_CSX_TOUCHPAD_WIDGET_EN)
 123:Generated_Source\PSoC6/CapSense_1_Processing.c ****     __STATIC_INLINE void CapSense_1_DpInitCsxTouchpad(CapSense_1_FLASH_WD_STRUCT const * ptrFlashWd
 124:Generated_Source\PSoC6/CapSense_1_Processing.c **** #endif /* #if (0u != CapSense_1_CSX_TOUCHPAD_WIDGET_EN) */
 125:Generated_Source\PSoC6/CapSense_1_Processing.c **** 
 126:Generated_Source\PSoC6/CapSense_1_Processing.c **** #if (0u != CapSense_1_SLIDER_WIDGET_EN)
 127:Generated_Source\PSoC6/CapSense_1_Processing.c ****     __STATIC_INLINE void CapSense_1_DpInitSlider(CapSense_1_FLASH_WD_STRUCT const * ptrFlashWdgt);
 128:Generated_Source\PSoC6/CapSense_1_Processing.c **** #endif /* #if (0u != CapSense_1_SLIDER_WIDGET_EN) */
 129:Generated_Source\PSoC6/CapSense_1_Processing.c **** 
 130:Generated_Source\PSoC6/CapSense_1_Processing.c **** #if (0u != CapSense_1_CSD_MATRIX_WIDGET_EN)
 131:Generated_Source\PSoC6/CapSense_1_Processing.c ****     __STATIC_INLINE void CapSense_1_DpInitCsdMatrix(CapSense_1_FLASH_WD_STRUCT const * ptrFlashWdgt
 132:Generated_Source\PSoC6/CapSense_1_Processing.c **** #endif /* #if (0u != CapSense_1_CSD_MATRIX_WIDGET_EN) */
 133:Generated_Source\PSoC6/CapSense_1_Processing.c **** 
 134:Generated_Source\PSoC6/CapSense_1_Processing.c **** /** \}
 135:Generated_Source\PSoC6/CapSense_1_Processing.c **** * \endcond */
 136:Generated_Source\PSoC6/CapSense_1_Processing.c **** 
 137:Generated_Source\PSoC6/CapSense_1_Processing.c **** #if (0u != CapSense_1_CSD_TOUCHPAD_WIDGET_EN)
 138:Generated_Source\PSoC6/CapSense_1_Processing.c **** /*******************************************************************************
 139:Generated_Source\PSoC6/CapSense_1_Processing.c **** * Function Name: CapSense_1_DpInitCsdTouchpad
 140:Generated_Source\PSoC6/CapSense_1_Processing.c **** ****************************************************************************//**
 141:Generated_Source\PSoC6/CapSense_1_Processing.c **** *
 142:Generated_Source\PSoC6/CapSense_1_Processing.c **** * \brief
 143:Generated_Source\PSoC6/CapSense_1_Processing.c **** *  Performs initialization of the CSD touchpad widget.
 144:Generated_Source\PSoC6/CapSense_1_Processing.c **** *   - Resets the position data to NONE
ARM GAS  C:\Users\Labeo\AppData\Local\Temp\cc644lUq.s 			page 4


 145:Generated_Source\PSoC6/CapSense_1_Processing.c **** *   - Initializes the position filter history if enabled.
 146:Generated_Source\PSoC6/CapSense_1_Processing.c **** *
 147:Generated_Source\PSoC6/CapSense_1_Processing.c **** * \details
 148:Generated_Source\PSoC6/CapSense_1_Processing.c **** *  The position data is always reset to the CapSense_1_TOUCHPAD_POS_NONE value.
 149:Generated_Source\PSoC6/CapSense_1_Processing.c **** *  The same happens to the position filter history data if enabled.
 150:Generated_Source\PSoC6/CapSense_1_Processing.c **** *
 151:Generated_Source\PSoC6/CapSense_1_Processing.c **** *******************************************************************************/
 152:Generated_Source\PSoC6/CapSense_1_Processing.c **** __STATIC_INLINE void CapSense_1_DpInitCsdTouchpad(CapSense_1_FLASH_WD_STRUCT const * ptrFlashWdgt)
 153:Generated_Source\PSoC6/CapSense_1_Processing.c **** {
 154:Generated_Source\PSoC6/CapSense_1_Processing.c ****     #if (CapSense_1_ENABLE == CapSense_1_CENTROID_5X5_CSD_EN)
 155:Generated_Source\PSoC6/CapSense_1_Processing.c ****         uint32 touchIndex;
 156:Generated_Source\PSoC6/CapSense_1_Processing.c ****     #endif
 157:Generated_Source\PSoC6/CapSense_1_Processing.c **** 
 158:Generated_Source\PSoC6/CapSense_1_Processing.c ****     CapSense_1_RAM_WD_CSD_TOUCHPAD_STRUCT *ptrWdTouchpad;
 159:Generated_Source\PSoC6/CapSense_1_Processing.c **** 
 160:Generated_Source\PSoC6/CapSense_1_Processing.c ****     #if (0u != CapSense_1_POSITION_FILTER_EN)
 161:Generated_Source\PSoC6/CapSense_1_Processing.c ****         CapSense_1_TOUCHPAD_POS_HISTORY_STRUCT *ptrHistory;
 162:Generated_Source\PSoC6/CapSense_1_Processing.c ****     #endif  /* #if (0u != CapSense_1_POSITION_FILTER_EN) */
 163:Generated_Source\PSoC6/CapSense_1_Processing.c **** 
 164:Generated_Source\PSoC6/CapSense_1_Processing.c ****     #if (0u != CapSense_1_POS_ADAPTIVE_IIR_FILTER_EN)
 165:Generated_Source\PSoC6/CapSense_1_Processing.c ****         ADAPTIVE_FILTER_CONTEXT_STRUCT adpContext;
 166:Generated_Source\PSoC6/CapSense_1_Processing.c ****     #endif /* (0u != CapSense_1_POS_ADAPTIVE_IIR_FILTER_EN) */
 167:Generated_Source\PSoC6/CapSense_1_Processing.c **** 
 168:Generated_Source\PSoC6/CapSense_1_Processing.c ****     ptrWdTouchpad = ptrFlashWdgt->ptr2WdgtRam;
 169:Generated_Source\PSoC6/CapSense_1_Processing.c **** 
 170:Generated_Source\PSoC6/CapSense_1_Processing.c ****     /* Reset position data */
 171:Generated_Source\PSoC6/CapSense_1_Processing.c ****     #if (CapSense_1_ENABLE == CapSense_1_CENTROID_5X5_CSD_EN)
 172:Generated_Source\PSoC6/CapSense_1_Processing.c ****         #if (CapSense_1_ENABLE == CapSense_1_CENTROID_3X3_CSD_EN)
 173:Generated_Source\PSoC6/CapSense_1_Processing.c ****             if (0u != (ptrFlashWdgt->staticConfig & CapSense_1_CENTROID_5X5_MASK))
 174:Generated_Source\PSoC6/CapSense_1_Processing.c ****             {
 175:Generated_Source\PSoC6/CapSense_1_Processing.c ****         #endif
 176:Generated_Source\PSoC6/CapSense_1_Processing.c **** 
 177:Generated_Source\PSoC6/CapSense_1_Processing.c ****         ptrWdTouchpad->position.touchNum = 0u;
 178:Generated_Source\PSoC6/CapSense_1_Processing.c **** 
 179:Generated_Source\PSoC6/CapSense_1_Processing.c ****         #if (0u != CapSense_1_POSITION_FILTER_EN)
 180:Generated_Source\PSoC6/CapSense_1_Processing.c ****             ptrHistory = ptrFlashWdgt->ptr2PosHistory;
 181:Generated_Source\PSoC6/CapSense_1_Processing.c ****         #endif /* (0u != CapSense_1_POSITION_FILTER_EN) */
 182:Generated_Source\PSoC6/CapSense_1_Processing.c **** 
 183:Generated_Source\PSoC6/CapSense_1_Processing.c ****         for (touchIndex = 0u; touchIndex < ADVANCED_CENTROID_MAX_TOUCHES; touchIndex++)
 184:Generated_Source\PSoC6/CapSense_1_Processing.c ****         {
 185:Generated_Source\PSoC6/CapSense_1_Processing.c ****             ptrWdTouchpad->position.pos[touchIndex].x = ADVANCED_CENTROID_POSITION_NONE;
 186:Generated_Source\PSoC6/CapSense_1_Processing.c ****             ptrWdTouchpad->position.pos[touchIndex].y = ADVANCED_CENTROID_POSITION_NONE;
 187:Generated_Source\PSoC6/CapSense_1_Processing.c ****             ptrWdTouchpad->position.pos[touchIndex].zX = ADVANCED_CENTROID_POSITION_NONE;
 188:Generated_Source\PSoC6/CapSense_1_Processing.c ****             ptrWdTouchpad->position.pos[touchIndex].zY = ADVANCED_CENTROID_POSITION_NONE;
 189:Generated_Source\PSoC6/CapSense_1_Processing.c **** 
 190:Generated_Source\PSoC6/CapSense_1_Processing.c ****             /* Clear position filter history data if available */
 191:Generated_Source\PSoC6/CapSense_1_Processing.c ****             #if (0u != CapSense_1_POSITION_FILTER_EN)
 192:Generated_Source\PSoC6/CapSense_1_Processing.c ****                 if (NULL != ptrHistory)
 193:Generated_Source\PSoC6/CapSense_1_Processing.c ****                 {
 194:Generated_Source\PSoC6/CapSense_1_Processing.c ****                     CapSense_1_InitPosFiltersDd(&ptrHistory[touchIndex], CapSense_1_TOUCHPAD_POS_NO
 195:Generated_Source\PSoC6/CapSense_1_Processing.c ****                     #if (0u != CapSense_1_POS_ADAPTIVE_IIR_FILTER_EN)
 196:Generated_Source\PSoC6/CapSense_1_Processing.c ****                         AdaptiveFilter_Initialize(&ptrWdTouchpad->aiirConfig, &adpContext);
 197:Generated_Source\PSoC6/CapSense_1_Processing.c ****                         ptrHistory[touchIndex].xPos.posAIIRCoeff = adpContext.coefficient;
 198:Generated_Source\PSoC6/CapSense_1_Processing.c ****                         ptrHistory[touchIndex].yPos.posAIIRCoeff = adpContext.coefficient;
 199:Generated_Source\PSoC6/CapSense_1_Processing.c ****                     #endif /* (0u != CapSense_1_POS_ADAPTIVE_IIR_FILTER_EN) */
 200:Generated_Source\PSoC6/CapSense_1_Processing.c ****                 }
 201:Generated_Source\PSoC6/CapSense_1_Processing.c ****             #endif /* (0u != CapSense_1_POSITION_FILTER_EN) */
ARM GAS  C:\Users\Labeo\AppData\Local\Temp\cc644lUq.s 			page 5


 202:Generated_Source\PSoC6/CapSense_1_Processing.c ****         }
 203:Generated_Source\PSoC6/CapSense_1_Processing.c **** 
 204:Generated_Source\PSoC6/CapSense_1_Processing.c ****         #if (CapSense_1_ENABLE == CapSense_1_CENTROID_3X3_CSD_EN)
 205:Generated_Source\PSoC6/CapSense_1_Processing.c ****             }
 206:Generated_Source\PSoC6/CapSense_1_Processing.c ****         #endif
 207:Generated_Source\PSoC6/CapSense_1_Processing.c ****     #endif
 208:Generated_Source\PSoC6/CapSense_1_Processing.c **** 
 209:Generated_Source\PSoC6/CapSense_1_Processing.c ****     #if (CapSense_1_ENABLE == CapSense_1_CENTROID_3X3_CSD_EN)
 210:Generated_Source\PSoC6/CapSense_1_Processing.c ****         if (0u != (ptrFlashWdgt->staticConfig & CapSense_1_CENTROID_3X3_MASK))
 211:Generated_Source\PSoC6/CapSense_1_Processing.c ****         {
 212:Generated_Source\PSoC6/CapSense_1_Processing.c ****             ptrWdTouchpad->posX = CapSense_1_TOUCHPAD_POS_NONE;
 213:Generated_Source\PSoC6/CapSense_1_Processing.c ****             ptrWdTouchpad->posY = CapSense_1_TOUCHPAD_POS_NONE;
 214:Generated_Source\PSoC6/CapSense_1_Processing.c **** 
 215:Generated_Source\PSoC6/CapSense_1_Processing.c ****             /* Clear position filter history data if available */
 216:Generated_Source\PSoC6/CapSense_1_Processing.c ****             #if (0u != CapSense_1_POSITION_FILTER_EN)
 217:Generated_Source\PSoC6/CapSense_1_Processing.c ****                 ptrHistory = ptrFlashWdgt->ptr2PosHistory;
 218:Generated_Source\PSoC6/CapSense_1_Processing.c ****                 CapSense_1_InitPosFiltersDd(ptrHistory, CapSense_1_TOUCHPAD_POS_NONE, CapSense_1_TO
 219:Generated_Source\PSoC6/CapSense_1_Processing.c **** 
 220:Generated_Source\PSoC6/CapSense_1_Processing.c ****                 #if (0u != CapSense_1_POS_ADAPTIVE_IIR_FILTER_EN)
 221:Generated_Source\PSoC6/CapSense_1_Processing.c ****                     if (NULL != ptrHistory)
 222:Generated_Source\PSoC6/CapSense_1_Processing.c ****                     {
 223:Generated_Source\PSoC6/CapSense_1_Processing.c ****                         AdaptiveFilter_Initialize(&ptrWdTouchpad->aiirConfig, &adpContext);
 224:Generated_Source\PSoC6/CapSense_1_Processing.c ****                         ptrHistory->xPos.posAIIRCoeff = adpContext.coefficient;
 225:Generated_Source\PSoC6/CapSense_1_Processing.c ****                         ptrHistory->yPos.posAIIRCoeff = adpContext.coefficient;
 226:Generated_Source\PSoC6/CapSense_1_Processing.c ****                     }
 227:Generated_Source\PSoC6/CapSense_1_Processing.c ****                 #endif /* (0u != CapSense_1_POS_ADAPTIVE_IIR_FILTER_EN) */
 228:Generated_Source\PSoC6/CapSense_1_Processing.c ****             #endif /* (0u != CapSense_1_POSITION_FILTER_EN) */
 229:Generated_Source\PSoC6/CapSense_1_Processing.c ****         }
 230:Generated_Source\PSoC6/CapSense_1_Processing.c ****     #endif
 231:Generated_Source\PSoC6/CapSense_1_Processing.c **** }
 232:Generated_Source\PSoC6/CapSense_1_Processing.c **** #endif /* #if (0u != CapSense_1_CSD_TOUCHPAD_WIDGET_EN) */
 233:Generated_Source\PSoC6/CapSense_1_Processing.c **** 
 234:Generated_Source\PSoC6/CapSense_1_Processing.c **** #if (0u != CapSense_1_CSX_TOUCHPAD_WIDGET_EN)
 235:Generated_Source\PSoC6/CapSense_1_Processing.c **** /*******************************************************************************
 236:Generated_Source\PSoC6/CapSense_1_Processing.c **** * Function Name: CapSense_1_DpInitCsxTouchpad
 237:Generated_Source\PSoC6/CapSense_1_Processing.c **** ****************************************************************************//**
 238:Generated_Source\PSoC6/CapSense_1_Processing.c **** *
 239:Generated_Source\PSoC6/CapSense_1_Processing.c **** * \brief
 240:Generated_Source\PSoC6/CapSense_1_Processing.c **** *  Performs initialization of the CSX touchpad widget i.e. Resets the position data to NONE.
 241:Generated_Source\PSoC6/CapSense_1_Processing.c **** *
 242:Generated_Source\PSoC6/CapSense_1_Processing.c **** * \details
 243:Generated_Source\PSoC6/CapSense_1_Processing.c **** *  The position data is always reset to the CapSense_1_TOUCHPAD_POS_NONE value.
 244:Generated_Source\PSoC6/CapSense_1_Processing.c **** *
 245:Generated_Source\PSoC6/CapSense_1_Processing.c **** *******************************************************************************/
 246:Generated_Source\PSoC6/CapSense_1_Processing.c **** __STATIC_INLINE void CapSense_1_DpInitCsxTouchpad(CapSense_1_FLASH_WD_STRUCT const * ptrFlashWdgt)
 247:Generated_Source\PSoC6/CapSense_1_Processing.c **** {
 248:Generated_Source\PSoC6/CapSense_1_Processing.c ****     CapSense_1_RAM_WD_CSX_TOUCHPAD_STRUCT *ptrWdTouchpad;
 249:Generated_Source\PSoC6/CapSense_1_Processing.c **** 
 250:Generated_Source\PSoC6/CapSense_1_Processing.c ****     #if (0u != CapSense_1_POSITION_FILTER_EN)
 251:Generated_Source\PSoC6/CapSense_1_Processing.c ****         uint32 touchIndex;
 252:Generated_Source\PSoC6/CapSense_1_Processing.c ****         CapSense_1_TOUCHPAD_POS_HISTORY_STRUCT *ptrHistory;
 253:Generated_Source\PSoC6/CapSense_1_Processing.c ****     #endif  /* #if (0u != CapSense_1_POSITION_FILTER_EN) */
 254:Generated_Source\PSoC6/CapSense_1_Processing.c **** 
 255:Generated_Source\PSoC6/CapSense_1_Processing.c ****     #if (0u != CapSense_1_POS_ADAPTIVE_IIR_FILTER_EN)
 256:Generated_Source\PSoC6/CapSense_1_Processing.c ****         ADAPTIVE_FILTER_CONTEXT_STRUCT adpContext;
 257:Generated_Source\PSoC6/CapSense_1_Processing.c ****     #endif /* (0u != CapSense_1_POS_ADAPTIVE_IIR_FILTER_EN) */
 258:Generated_Source\PSoC6/CapSense_1_Processing.c **** 
ARM GAS  C:\Users\Labeo\AppData\Local\Temp\cc644lUq.s 			page 6


 259:Generated_Source\PSoC6/CapSense_1_Processing.c ****     ptrWdTouchpad = ptrFlashWdgt->ptr2WdgtRam;
 260:Generated_Source\PSoC6/CapSense_1_Processing.c **** 
 261:Generated_Source\PSoC6/CapSense_1_Processing.c ****     #if (0u != CapSense_1_POSITION_FILTER_EN)
 262:Generated_Source\PSoC6/CapSense_1_Processing.c ****         ptrHistory = ptrFlashWdgt->ptr2PosHistory;
 263:Generated_Source\PSoC6/CapSense_1_Processing.c ****     #endif /* (0u != CapSense_1_POSITION_FILTER_EN) */
 264:Generated_Source\PSoC6/CapSense_1_Processing.c **** 
 265:Generated_Source\PSoC6/CapSense_1_Processing.c ****     /* Reset position data for finger */
 266:Generated_Source\PSoC6/CapSense_1_Processing.c ****     ptrWdTouchpad->touch[0u].x = CapSense_1_TOUCHPAD_POS_NONE;
 267:Generated_Source\PSoC6/CapSense_1_Processing.c ****     ptrWdTouchpad->touch[0u].y = CapSense_1_TOUCHPAD_POS_NONE;
 268:Generated_Source\PSoC6/CapSense_1_Processing.c ****     ptrWdTouchpad->touch[0u].z = CY_LO8(CapSense_1_TOUCHPAD_POS_NONE);
 269:Generated_Source\PSoC6/CapSense_1_Processing.c **** 
 270:Generated_Source\PSoC6/CapSense_1_Processing.c ****     #if (CapSense_1_CSX_MAX_FINGERS > 1u)
 271:Generated_Source\PSoC6/CapSense_1_Processing.c ****         ptrWdTouchpad->touch[1u].x = CapSense_1_TOUCHPAD_POS_NONE;
 272:Generated_Source\PSoC6/CapSense_1_Processing.c ****         ptrWdTouchpad->touch[1u].y = CapSense_1_TOUCHPAD_POS_NONE;
 273:Generated_Source\PSoC6/CapSense_1_Processing.c ****         ptrWdTouchpad->touch[1u].z = CY_LO8(CapSense_1_TOUCHPAD_POS_NONE);
 274:Generated_Source\PSoC6/CapSense_1_Processing.c ****     #endif /* #if (CapSense_1_CSX_MAX_FINGERS > 1u) */
 275:Generated_Source\PSoC6/CapSense_1_Processing.c **** 
 276:Generated_Source\PSoC6/CapSense_1_Processing.c ****     #if (CapSense_1_CSX_MAX_FINGERS > 2u)
 277:Generated_Source\PSoC6/CapSense_1_Processing.c ****         ptrWdTouchpad->touch[2u].x = CapSense_1_TOUCHPAD_POS_NONE;
 278:Generated_Source\PSoC6/CapSense_1_Processing.c ****         ptrWdTouchpad->touch[2u].y = CapSense_1_TOUCHPAD_POS_NONE;
 279:Generated_Source\PSoC6/CapSense_1_Processing.c ****         ptrWdTouchpad->touch[2u].z = CY_LO8(CapSense_1_TOUCHPAD_POS_NONE);
 280:Generated_Source\PSoC6/CapSense_1_Processing.c ****     #endif /* #if (CapSense_1_CSX_MAX_FINGERS > 2u) */
 281:Generated_Source\PSoC6/CapSense_1_Processing.c **** 
 282:Generated_Source\PSoC6/CapSense_1_Processing.c ****     #if (0u != CapSense_1_POSITION_FILTER_EN)
 283:Generated_Source\PSoC6/CapSense_1_Processing.c ****         for (touchIndex = 0u; touchIndex < CapSense_1_CSX_MAX_FINGERS; touchIndex++)
 284:Generated_Source\PSoC6/CapSense_1_Processing.c ****         {
 285:Generated_Source\PSoC6/CapSense_1_Processing.c ****             if (NULL != ptrHistory)
 286:Generated_Source\PSoC6/CapSense_1_Processing.c ****             {
 287:Generated_Source\PSoC6/CapSense_1_Processing.c ****                 /* Clear position filter history data if available */
 288:Generated_Source\PSoC6/CapSense_1_Processing.c ****                 CapSense_1_InitPosFiltersDd(&ptrHistory[touchIndex], CapSense_1_TOUCHPAD_POS_NONE, 
 289:Generated_Source\PSoC6/CapSense_1_Processing.c ****                 #if (0u != CapSense_1_POS_ADAPTIVE_IIR_FILTER_EN)
 290:Generated_Source\PSoC6/CapSense_1_Processing.c ****                     AdaptiveFilter_Initialize(&ptrWdTouchpad->aiirConfig, &adpContext);
 291:Generated_Source\PSoC6/CapSense_1_Processing.c ****                     ptrHistory[touchIndex].xPos.posAIIRCoeff = adpContext.coefficient;
 292:Generated_Source\PSoC6/CapSense_1_Processing.c ****                     ptrHistory[touchIndex].yPos.posAIIRCoeff = adpContext.coefficient;
 293:Generated_Source\PSoC6/CapSense_1_Processing.c ****                 #endif /* (0u != CapSense_1_POS_ADAPTIVE_IIR_FILTER_EN) */
 294:Generated_Source\PSoC6/CapSense_1_Processing.c ****             }
 295:Generated_Source\PSoC6/CapSense_1_Processing.c ****         }
 296:Generated_Source\PSoC6/CapSense_1_Processing.c ****     #endif /* (0u != CapSense_1_POSITION_FILTER_EN) */
 297:Generated_Source\PSoC6/CapSense_1_Processing.c **** }
 298:Generated_Source\PSoC6/CapSense_1_Processing.c **** #endif /* #if (0u != CapSense_1_CSX_TOUCHPAD_WIDGET_EN) */
 299:Generated_Source\PSoC6/CapSense_1_Processing.c **** 
 300:Generated_Source\PSoC6/CapSense_1_Processing.c **** #if (0u != CapSense_1_SLIDER_WIDGET_EN)
 301:Generated_Source\PSoC6/CapSense_1_Processing.c **** /*******************************************************************************
 302:Generated_Source\PSoC6/CapSense_1_Processing.c **** * Function Name: CapSense_1_DpInitSlider
 303:Generated_Source\PSoC6/CapSense_1_Processing.c **** ****************************************************************************//**
 304:Generated_Source\PSoC6/CapSense_1_Processing.c **** *
 305:Generated_Source\PSoC6/CapSense_1_Processing.c **** * \brief
 306:Generated_Source\PSoC6/CapSense_1_Processing.c **** *  Performs initialization of the Radial and Linear Slider widget.
 307:Generated_Source\PSoC6/CapSense_1_Processing.c **** *   - Resets the position data to NONE
 308:Generated_Source\PSoC6/CapSense_1_Processing.c **** *   - Initializes the position filter history to NONE if enabled.
 309:Generated_Source\PSoC6/CapSense_1_Processing.c **** *
 310:Generated_Source\PSoC6/CapSense_1_Processing.c **** * \details
 311:Generated_Source\PSoC6/CapSense_1_Processing.c **** *  Position data is always reset to the CapSense_1_SLIDER_POS_NONE value.
 312:Generated_Source\PSoC6/CapSense_1_Processing.c **** *  The same happens to the position filter history data if enabled.
 313:Generated_Source\PSoC6/CapSense_1_Processing.c **** *
 314:Generated_Source\PSoC6/CapSense_1_Processing.c **** *******************************************************************************/
 315:Generated_Source\PSoC6/CapSense_1_Processing.c **** __STATIC_INLINE void CapSense_1_DpInitSlider(CapSense_1_FLASH_WD_STRUCT const * ptrFlashWdgt)
ARM GAS  C:\Users\Labeo\AppData\Local\Temp\cc644lUq.s 			page 7


 316:Generated_Source\PSoC6/CapSense_1_Processing.c **** {
 317:Generated_Source\PSoC6/CapSense_1_Processing.c ****     uint32 idx;
 318:Generated_Source\PSoC6/CapSense_1_Processing.c ****     CapSense_1_RAM_WD_SLIDER_STRUCT *ptrWdSlider;
 319:Generated_Source\PSoC6/CapSense_1_Processing.c **** 
 320:Generated_Source\PSoC6/CapSense_1_Processing.c ****     #if (0u != CapSense_1_POSITION_FILTER_EN)
 321:Generated_Source\PSoC6/CapSense_1_Processing.c ****         CapSense_1_SLIDER_POS_HISTORY_STRUCT *ptrHistory;
 322:Generated_Source\PSoC6/CapSense_1_Processing.c ****     #endif /* #if (0u != CapSense_1_POSITION_FILTER_EN) */
 323:Generated_Source\PSoC6/CapSense_1_Processing.c **** 
 324:Generated_Source\PSoC6/CapSense_1_Processing.c ****     #if (0u != CapSense_1_POS_ADAPTIVE_IIR_FILTER_EN)
 325:Generated_Source\PSoC6/CapSense_1_Processing.c ****         ADAPTIVE_FILTER_CONTEXT_STRUCT context;
 326:Generated_Source\PSoC6/CapSense_1_Processing.c ****     #endif /* (0u != CapSense_1_POS_ADAPTIVE_IIR_FILTER_EN) */
 327:Generated_Source\PSoC6/CapSense_1_Processing.c **** 
 328:Generated_Source\PSoC6/CapSense_1_Processing.c ****     ptrWdSlider = ptrFlashWdgt->ptr2WdgtRam;
 329:Generated_Source\PSoC6/CapSense_1_Processing.c **** 
 330:Generated_Source\PSoC6/CapSense_1_Processing.c ****     /* Reset slider position data to NONE */
 331:Generated_Source\PSoC6/CapSense_1_Processing.c ****     for (idx = 0u; idx < CapSense_1_NUM_CENTROIDS; idx++)
 332:Generated_Source\PSoC6/CapSense_1_Processing.c ****     {
 333:Generated_Source\PSoC6/CapSense_1_Processing.c ****         ptrWdSlider->position[idx] = CapSense_1_SLIDER_POS_NONE;
 334:Generated_Source\PSoC6/CapSense_1_Processing.c **** 
 335:Generated_Source\PSoC6/CapSense_1_Processing.c ****         #if (0u != CapSense_1_POSITION_FILTER_EN)
 336:Generated_Source\PSoC6/CapSense_1_Processing.c ****             ptrHistory = ptrFlashWdgt->ptr2PosHistory;
 337:Generated_Source\PSoC6/CapSense_1_Processing.c ****             if (NULL != ptrHistory)
 338:Generated_Source\PSoC6/CapSense_1_Processing.c ****             {
 339:Generated_Source\PSoC6/CapSense_1_Processing.c ****                 CapSense_1_InitPosFiltersSd(&ptrHistory[idx], CapSense_1_SLIDER_POS_NONE);
 340:Generated_Source\PSoC6/CapSense_1_Processing.c ****                 #if (0u != CapSense_1_POS_ADAPTIVE_IIR_FILTER_EN)
 341:Generated_Source\PSoC6/CapSense_1_Processing.c ****                     AdaptiveFilter_Initialize(&ptrWdSlider->aiirConfig, &context);
 342:Generated_Source\PSoC6/CapSense_1_Processing.c ****                     ptrHistory->posAIIRCoeff = context.coefficient;
 343:Generated_Source\PSoC6/CapSense_1_Processing.c ****                 #endif /* (0u != CapSense_1_POS_ADAPTIVE_IIR_FILTER_EN) */
 344:Generated_Source\PSoC6/CapSense_1_Processing.c ****             }
 345:Generated_Source\PSoC6/CapSense_1_Processing.c **** 
 346:Generated_Source\PSoC6/CapSense_1_Processing.c ****         #endif /* #if (0u != CapSense_1_POSITION_FILTER_EN) */
 347:Generated_Source\PSoC6/CapSense_1_Processing.c ****     }
 348:Generated_Source\PSoC6/CapSense_1_Processing.c **** }
 349:Generated_Source\PSoC6/CapSense_1_Processing.c **** #endif /* #if (0u != CapSense_1_SLIDER_WIDGET_EN) */
 350:Generated_Source\PSoC6/CapSense_1_Processing.c **** 
 351:Generated_Source\PSoC6/CapSense_1_Processing.c **** #if (0u != CapSense_1_CSD_MATRIX_WIDGET_EN)
 352:Generated_Source\PSoC6/CapSense_1_Processing.c **** /*******************************************************************************
 353:Generated_Source\PSoC6/CapSense_1_Processing.c **** * Function Name: CapSense_1_DpInitCsdMatrix
 354:Generated_Source\PSoC6/CapSense_1_Processing.c **** ****************************************************************************//**
 355:Generated_Source\PSoC6/CapSense_1_Processing.c **** *
 356:Generated_Source\PSoC6/CapSense_1_Processing.c **** * \brief
 357:Generated_Source\PSoC6/CapSense_1_Processing.c **** *  Performs initialization of the CSD Matrix Buttons widget.
 358:Generated_Source\PSoC6/CapSense_1_Processing.c **** *   - Resets the active button position data to NONE.
 359:Generated_Source\PSoC6/CapSense_1_Processing.c **** *
 360:Generated_Source\PSoC6/CapSense_1_Processing.c **** * \details
 361:Generated_Source\PSoC6/CapSense_1_Processing.c **** *  Position data is always reset to the CapSense_1_MATRIX_POS_NONE value.
 362:Generated_Source\PSoC6/CapSense_1_Processing.c **** *
 363:Generated_Source\PSoC6/CapSense_1_Processing.c **** *******************************************************************************/
 364:Generated_Source\PSoC6/CapSense_1_Processing.c **** __STATIC_INLINE void CapSense_1_DpInitCsdMatrix(CapSense_1_FLASH_WD_STRUCT const * ptrFlashWdgt)
 365:Generated_Source\PSoC6/CapSense_1_Processing.c **** {
 366:Generated_Source\PSoC6/CapSense_1_Processing.c ****     CapSense_1_RAM_WD_CSD_MATRIX_STRUCT *ptrRamWdgt;
 367:Generated_Source\PSoC6/CapSense_1_Processing.c **** 
 368:Generated_Source\PSoC6/CapSense_1_Processing.c ****     ptrRamWdgt = (CapSense_1_RAM_WD_CSD_MATRIX_STRUCT *)ptrFlashWdgt->ptr2WdgtRam;
 369:Generated_Source\PSoC6/CapSense_1_Processing.c **** 
 370:Generated_Source\PSoC6/CapSense_1_Processing.c ****     /* Reset sensor id, row and col registers in data structure */
 371:Generated_Source\PSoC6/CapSense_1_Processing.c ****     ptrRamWdgt->posRow   = CapSense_1_MATRIX_POS_NONE;
 372:Generated_Source\PSoC6/CapSense_1_Processing.c ****     ptrRamWdgt->posCol   = CapSense_1_MATRIX_POS_NONE;
ARM GAS  C:\Users\Labeo\AppData\Local\Temp\cc644lUq.s 			page 8


 373:Generated_Source\PSoC6/CapSense_1_Processing.c ****     ptrRamWdgt->posSnsId = CapSense_1_MATRIX_POS_NONE;
 374:Generated_Source\PSoC6/CapSense_1_Processing.c **** }
 375:Generated_Source\PSoC6/CapSense_1_Processing.c **** #endif /* #if (0u != CapSense_1_CSD_MATRIX_WIDGET_EN) */
 376:Generated_Source\PSoC6/CapSense_1_Processing.c **** 
 377:Generated_Source\PSoC6/CapSense_1_Processing.c **** /*******************************************************************************
 378:Generated_Source\PSoC6/CapSense_1_Processing.c **** * Function Name: CapSense_1_DpInitialize
 379:Generated_Source\PSoC6/CapSense_1_Processing.c **** ****************************************************************************//**
 380:Generated_Source\PSoC6/CapSense_1_Processing.c **** *
 381:Generated_Source\PSoC6/CapSense_1_Processing.c **** * \brief
 382:Generated_Source\PSoC6/CapSense_1_Processing.c **** *  Performs initialization of the data processing FW module:
 383:Generated_Source\PSoC6/CapSense_1_Processing.c **** *   - Resets the de-bounce counters of all the widgets
 384:Generated_Source\PSoC6/CapSense_1_Processing.c **** *   - Resets the position filter history for slider and touchpad widgets
 385:Generated_Source\PSoC6/CapSense_1_Processing.c **** *   - Clears widget and sensor statuses
 386:Generated_Source\PSoC6/CapSense_1_Processing.c **** *   - Enables all the widgets.
 387:Generated_Source\PSoC6/CapSense_1_Processing.c **** *
 388:Generated_Source\PSoC6/CapSense_1_Processing.c **** * \details
 389:Generated_Source\PSoC6/CapSense_1_Processing.c **** *  The Button and Matrix Button widgets have individual de-bounce counter per
 390:Generated_Source\PSoC6/CapSense_1_Processing.c **** *  sensor for the CSD widgets and per node for the CSX widgets.
 391:Generated_Source\PSoC6/CapSense_1_Processing.c **** *
 392:Generated_Source\PSoC6/CapSense_1_Processing.c **** *  The Slider and Touchpad widgets have a single de-bounce counter per widget.
 393:Generated_Source\PSoC6/CapSense_1_Processing.c **** *
 394:Generated_Source\PSoC6/CapSense_1_Processing.c **** *  The Proximity widget has two de-bounce counters per sensor. One for the
 395:Generated_Source\PSoC6/CapSense_1_Processing.c **** *  proximity event and second for the touch event.
 396:Generated_Source\PSoC6/CapSense_1_Processing.c **** *
 397:Generated_Source\PSoC6/CapSense_1_Processing.c **** *  All debounce counters during initialization are set to the value of the
 398:Generated_Source\PSoC6/CapSense_1_Processing.c **** *  onDebounce widget parameter.
 399:Generated_Source\PSoC6/CapSense_1_Processing.c **** *
 400:Generated_Source\PSoC6/CapSense_1_Processing.c **** *******************************************************************************/
 401:Generated_Source\PSoC6/CapSense_1_Processing.c **** void CapSense_1_DpInitialize(void)
 402:Generated_Source\PSoC6/CapSense_1_Processing.c **** {
  28              		.loc 1 402 0
  29              		.cfi_startproc
  30              		@ args = 0, pretend = 0, frame = 0
  31              		@ frame_needed = 0, uses_anonymous_args = 0
  32 0000 70B5     		push	{r4, r5, r6, lr}
  33              		.cfi_def_cfa_offset 16
  34              		.cfi_offset 4, -16
  35              		.cfi_offset 5, -12
  36              		.cfi_offset 6, -8
  37              		.cfi_offset 14, -4
  38              	.LVL0:
 403:Generated_Source\PSoC6/CapSense_1_Processing.c ****     uint32 wdgtId;
 404:Generated_Source\PSoC6/CapSense_1_Processing.c ****     CapSense_1_WD_TYPE_ENUM widgetType;
 405:Generated_Source\PSoC6/CapSense_1_Processing.c ****     CapSense_1_RAM_WD_BASE_STRUCT * ptrRamWdgt;
 406:Generated_Source\PSoC6/CapSense_1_Processing.c ****     CapSense_1_FLASH_WD_STRUCT const * ptrFlashWdgt;
 407:Generated_Source\PSoC6/CapSense_1_Processing.c **** 
 408:Generated_Source\PSoC6/CapSense_1_Processing.c ****     for (wdgtId = 0u; wdgtId < CapSense_1_WDGT_STATUS_WORDS; wdgtId++)
  39              		.loc 1 408 0
  40 0002 0023     		movs	r3, #0
  41 0004 09E0     		b	.L2
  42              	.LVL1:
  43              	.L3:
 409:Generated_Source\PSoC6/CapSense_1_Processing.c ****     {
 410:Generated_Source\PSoC6/CapSense_1_Processing.c ****         /* Clear widget status */
 411:Generated_Source\PSoC6/CapSense_1_Processing.c ****         CapSense_1_dsRam.wdgtStatus[wdgtId] = 0u;
  44              		.loc 1 411 0 discriminator 3
  45 0006 1249     		ldr	r1, .L8
ARM GAS  C:\Users\Labeo\AppData\Local\Temp\cc644lUq.s 			page 9


  46 0008 1A1D     		adds	r2, r3, #4
  47 000a 9200     		lsls	r2, r2, #2
  48 000c 8818     		adds	r0, r1, r2
  49 000e 0024     		movs	r4, #0
  50 0010 4460     		str	r4, [r0, #4]
 412:Generated_Source\PSoC6/CapSense_1_Processing.c **** 
 413:Generated_Source\PSoC6/CapSense_1_Processing.c ****         /* Enable all the widgets */
 414:Generated_Source\PSoC6/CapSense_1_Processing.c ****         CapSense_1_dsRam.wdgtEnable[wdgtId] = 0xFFFFFFFFLu;
  51              		.loc 1 414 0 discriminator 3
  52 0012 0120     		movs	r0, #1
  53 0014 4042     		rsbs	r0, r0, #0
  54 0016 5050     		str	r0, [r2, r1]
 408:Generated_Source\PSoC6/CapSense_1_Processing.c ****     {
  55              		.loc 1 408 0 discriminator 3
  56 0018 0133     		adds	r3, r3, #1
  57              	.LVL2:
  58              	.L2:
 408:Generated_Source\PSoC6/CapSense_1_Processing.c ****     {
  59              		.loc 1 408 0 is_stmt 0 discriminator 1
  60 001a 002B     		cmp	r3, #0
  61 001c F3D0     		beq	.L3
  62 001e 0D4C     		ldr	r4, .L8+4
  63 0020 0123     		movs	r3, #1
  64              	.LVL3:
  65 0022 10E0     		b	.L4
  66              	.LVL4:
  67              	.L7:
 415:Generated_Source\PSoC6/CapSense_1_Processing.c **** 
 416:Generated_Source\PSoC6/CapSense_1_Processing.c ****         /* Set all the widgets to working state if the Self-Test is not enabled */
 417:Generated_Source\PSoC6/CapSense_1_Processing.c ****         #if (0u != CapSense_1_SELF_TEST_EN)
 418:Generated_Source\PSoC6/CapSense_1_Processing.c ****             CapSense_1_dsRam.wdgtWorking[wdgtId] = 0xFFFFFFFFLu;
 419:Generated_Source\PSoC6/CapSense_1_Processing.c ****         #endif /* #if (0u == CapSense_1_SELF_TEST_EN) */
 420:Generated_Source\PSoC6/CapSense_1_Processing.c ****     }
 421:Generated_Source\PSoC6/CapSense_1_Processing.c **** 
 422:Generated_Source\PSoC6/CapSense_1_Processing.c ****     ptrFlashWdgt = CapSense_1_dsFlash.wdgtArray;
 423:Generated_Source\PSoC6/CapSense_1_Processing.c **** 
 424:Generated_Source\PSoC6/CapSense_1_Processing.c ****     for (wdgtId = CapSense_1_TOTAL_WIDGETS; wdgtId-- > 0u; )
 425:Generated_Source\PSoC6/CapSense_1_Processing.c ****     {
 426:Generated_Source\PSoC6/CapSense_1_Processing.c ****         ptrRamWdgt = (CapSense_1_RAM_WD_BASE_STRUCT *)ptrFlashWdgt->ptr2WdgtRam;
  68              		.loc 1 426 0 is_stmt 1
  69 0024 6668     		ldr	r6, [r4, #4]
  70              	.LVL5:
 427:Generated_Source\PSoC6/CapSense_1_Processing.c ****         widgetType = (CapSense_1_WD_TYPE_ENUM)ptrFlashWdgt->wdgtType;
  71              		.loc 1 427 0
  72 0026 A27E     		ldrb	r2, [r4, #26]
  73              	.LVL6:
 428:Generated_Source\PSoC6/CapSense_1_Processing.c **** 
 429:Generated_Source\PSoC6/CapSense_1_Processing.c ****         /* Clear all sensor statuses */
 430:Generated_Source\PSoC6/CapSense_1_Processing.c ****         CapSense_1_dsRam.snsStatus[wdgtId] = 0u;
  74              		.loc 1 430 0
  75 0028 094B     		ldr	r3, .L8
  76 002a 5B19     		adds	r3, r3, r5
  77 002c 0021     		movs	r1, #0
  78 002e 1976     		strb	r1, [r3, #24]
 431:Generated_Source\PSoC6/CapSense_1_Processing.c **** 
 432:Generated_Source\PSoC6/CapSense_1_Processing.c ****         /* Reset de-bounce counters */
 433:Generated_Source\PSoC6/CapSense_1_Processing.c ****         switch (widgetType)
ARM GAS  C:\Users\Labeo\AppData\Local\Temp\cc644lUq.s 			page 10


  79              		.loc 1 433 0
  80 0030 012A     		cmp	r2, #1
  81 0032 06D1     		bne	.L5
 434:Generated_Source\PSoC6/CapSense_1_Processing.c ****         {
 435:Generated_Source\PSoC6/CapSense_1_Processing.c ****         #if (0u != CapSense_1_MATRIX_WIDGET_EN)
 436:Generated_Source\PSoC6/CapSense_1_Processing.c ****             case CapSense_1_WD_MATRIX_BUTTON_E:
 437:Generated_Source\PSoC6/CapSense_1_Processing.c ****                 #if (0u != CapSense_1_CSD_MATRIX_WIDGET_EN)
 438:Generated_Source\PSoC6/CapSense_1_Processing.c ****                     if (CapSense_1_SENSE_METHOD_CSD_E == CapSense_1_GET_SENSE_METHOD(ptrFlashWdgt))
 439:Generated_Source\PSoC6/CapSense_1_Processing.c ****                     {
 440:Generated_Source\PSoC6/CapSense_1_Processing.c ****                         CapSense_1_DpInitCsdMatrix(ptrFlashWdgt);
 441:Generated_Source\PSoC6/CapSense_1_Processing.c ****                     }
 442:Generated_Source\PSoC6/CapSense_1_Processing.c ****                 #endif /* #if (0u != CapSense_1_CSD_MATRIX_WIDGET_EN) */
 443:Generated_Source\PSoC6/CapSense_1_Processing.c **** 
 444:Generated_Source\PSoC6/CapSense_1_Processing.c ****                 if (NULL != ptrFlashWdgt->ptr2DebounceArr)
 445:Generated_Source\PSoC6/CapSense_1_Processing.c ****                 {
 446:Generated_Source\PSoC6/CapSense_1_Processing.c ****                     /* Initialize array of debounce counters */
 447:Generated_Source\PSoC6/CapSense_1_Processing.c ****                     (void)memset(ptrFlashWdgt->ptr2DebounceArr,
 448:Generated_Source\PSoC6/CapSense_1_Processing.c ****                                  (int32)ptrRamWdgt->onDebounce,
 449:Generated_Source\PSoC6/CapSense_1_Processing.c ****                                  (size_t)ptrFlashWdgt->totalNumSns);
 450:Generated_Source\PSoC6/CapSense_1_Processing.c ****                 }
 451:Generated_Source\PSoC6/CapSense_1_Processing.c ****                 break;
 452:Generated_Source\PSoC6/CapSense_1_Processing.c ****         #endif /* #if (0u != CapSense_1_MATRIX_WIDGET_EN) */
 453:Generated_Source\PSoC6/CapSense_1_Processing.c **** 
 454:Generated_Source\PSoC6/CapSense_1_Processing.c ****         #if (0u != CapSense_1_BUTTON_WIDGET_EN)
 455:Generated_Source\PSoC6/CapSense_1_Processing.c ****             case CapSense_1_WD_BUTTON_E:
 456:Generated_Source\PSoC6/CapSense_1_Processing.c ****                 if (NULL != ptrFlashWdgt->ptr2DebounceArr)
  82              		.loc 1 456 0
  83 0034 2069     		ldr	r0, [r4, #16]
  84 0036 0028     		cmp	r0, #0
  85 0038 03D0     		beq	.L5
 457:Generated_Source\PSoC6/CapSense_1_Processing.c ****                 {
 458:Generated_Source\PSoC6/CapSense_1_Processing.c ****                     /* Initialize array of debounce counters */
 459:Generated_Source\PSoC6/CapSense_1_Processing.c ****                     (void)memset(ptrFlashWdgt->ptr2DebounceArr,
 460:Generated_Source\PSoC6/CapSense_1_Processing.c ****                                  (int32)ptrRamWdgt->onDebounce,
  86              		.loc 1 460 0
  87 003a F179     		ldrb	r1, [r6, #7]
 461:Generated_Source\PSoC6/CapSense_1_Processing.c ****                                  (size_t)ptrFlashWdgt->totalNumSns);
  88              		.loc 1 461 0
  89 003c 228B     		ldrh	r2, [r4, #24]
  90              	.LVL7:
 459:Generated_Source\PSoC6/CapSense_1_Processing.c ****                                  (int32)ptrRamWdgt->onDebounce,
  91              		.loc 1 459 0
  92 003e FFF7FEFF 		bl	memset
  93              	.LVL8:
  94              	.L5:
 462:Generated_Source\PSoC6/CapSense_1_Processing.c ****                 }
 463:Generated_Source\PSoC6/CapSense_1_Processing.c ****                 break;
 464:Generated_Source\PSoC6/CapSense_1_Processing.c ****         #endif /* #if (0u != CapSense_1_BUTTON_WIDGET_EN) */
 465:Generated_Source\PSoC6/CapSense_1_Processing.c **** 
 466:Generated_Source\PSoC6/CapSense_1_Processing.c ****         #if (0u != CapSense_1_SLIDER_WIDGET_EN)
 467:Generated_Source\PSoC6/CapSense_1_Processing.c ****             case CapSense_1_WD_LINEAR_SLIDER_E:
 468:Generated_Source\PSoC6/CapSense_1_Processing.c ****             case CapSense_1_WD_RADIAL_SLIDER_E:
 469:Generated_Source\PSoC6/CapSense_1_Processing.c ****                 if (NULL != ptrFlashWdgt->ptr2DebounceArr)
 470:Generated_Source\PSoC6/CapSense_1_Processing.c ****                 {
 471:Generated_Source\PSoC6/CapSense_1_Processing.c ****                     /* Initialize single debounce counter of slider */
 472:Generated_Source\PSoC6/CapSense_1_Processing.c ****                     *(uint8 *)(ptrFlashWdgt->ptr2DebounceArr) = ptrRamWdgt->onDebounce;
 473:Generated_Source\PSoC6/CapSense_1_Processing.c ****                 }
ARM GAS  C:\Users\Labeo\AppData\Local\Temp\cc644lUq.s 			page 11


 474:Generated_Source\PSoC6/CapSense_1_Processing.c **** 
 475:Generated_Source\PSoC6/CapSense_1_Processing.c ****                 CapSense_1_DpInitSlider(ptrFlashWdgt);
 476:Generated_Source\PSoC6/CapSense_1_Processing.c **** 
 477:Generated_Source\PSoC6/CapSense_1_Processing.c ****                 break;
 478:Generated_Source\PSoC6/CapSense_1_Processing.c ****         #endif /* #if (0u != CapSense_1_SLIDER_WIDGET_EN) */
 479:Generated_Source\PSoC6/CapSense_1_Processing.c **** 
 480:Generated_Source\PSoC6/CapSense_1_Processing.c ****         #if (0u != CapSense_1_TOUCHPAD_WIDGET_EN)
 481:Generated_Source\PSoC6/CapSense_1_Processing.c ****             case CapSense_1_WD_TOUCHPAD_E:
 482:Generated_Source\PSoC6/CapSense_1_Processing.c ****                 if (NULL != ptrFlashWdgt->ptr2DebounceArr)
 483:Generated_Source\PSoC6/CapSense_1_Processing.c ****                 {
 484:Generated_Source\PSoC6/CapSense_1_Processing.c ****                     /* Initialize single debounce counter of touchpad */
 485:Generated_Source\PSoC6/CapSense_1_Processing.c ****                     *(uint8 *)(ptrFlashWdgt->ptr2DebounceArr) = ptrRamWdgt->onDebounce;
 486:Generated_Source\PSoC6/CapSense_1_Processing.c ****                 }
 487:Generated_Source\PSoC6/CapSense_1_Processing.c **** 
 488:Generated_Source\PSoC6/CapSense_1_Processing.c ****                 #if (0u != CapSense_1_CSD_TOUCHPAD_WIDGET_EN)
 489:Generated_Source\PSoC6/CapSense_1_Processing.c ****                     if (CapSense_1_SENSE_METHOD_CSD_E == CapSense_1_GET_SENSE_METHOD(ptrFlashWdgt))
 490:Generated_Source\PSoC6/CapSense_1_Processing.c ****                     {
 491:Generated_Source\PSoC6/CapSense_1_Processing.c ****                         CapSense_1_DpInitCsdTouchpad(ptrFlashWdgt);
 492:Generated_Source\PSoC6/CapSense_1_Processing.c ****                     }
 493:Generated_Source\PSoC6/CapSense_1_Processing.c ****                 #endif /* #if (0u != CapSense_1_CSD_TOUCHPAD_WIDGET_EN) */
 494:Generated_Source\PSoC6/CapSense_1_Processing.c **** 
 495:Generated_Source\PSoC6/CapSense_1_Processing.c ****                 #if (0u != CapSense_1_CSX_TOUCHPAD_WIDGET_EN)
 496:Generated_Source\PSoC6/CapSense_1_Processing.c ****                     if (CapSense_1_SENSE_METHOD_CSX_E == CapSense_1_GET_SENSE_METHOD(ptrFlashWdgt))
 497:Generated_Source\PSoC6/CapSense_1_Processing.c ****                     {
 498:Generated_Source\PSoC6/CapSense_1_Processing.c ****                         CapSense_1_DpInitCsxTouchpad(ptrFlashWdgt);
 499:Generated_Source\PSoC6/CapSense_1_Processing.c ****                     }
 500:Generated_Source\PSoC6/CapSense_1_Processing.c ****                 #endif /* #if (0u != CapSense_1_CSX_TOUCHPAD_WIDGET_EN) */
 501:Generated_Source\PSoC6/CapSense_1_Processing.c **** 
 502:Generated_Source\PSoC6/CapSense_1_Processing.c ****                 break;
 503:Generated_Source\PSoC6/CapSense_1_Processing.c ****         #endif /* #if (0u != CapSense_1_TOUCHPAD_WIDGET_EN) */
 504:Generated_Source\PSoC6/CapSense_1_Processing.c **** 
 505:Generated_Source\PSoC6/CapSense_1_Processing.c ****         #if (0u != CapSense_1_PROXIMITY_WIDGET_EN)
 506:Generated_Source\PSoC6/CapSense_1_Processing.c ****             case CapSense_1_WD_PROXIMITY_E:
 507:Generated_Source\PSoC6/CapSense_1_Processing.c ****                 if (NULL != ptrFlashWdgt->ptr2DebounceArr)
 508:Generated_Source\PSoC6/CapSense_1_Processing.c ****                 {
 509:Generated_Source\PSoC6/CapSense_1_Processing.c ****                     /* Proximity widgets have 2 de-bounce counters per sensor.
 510:Generated_Source\PSoC6/CapSense_1_Processing.c ****                      * Therefore the number of sensors is multiplied by 2.
 511:Generated_Source\PSoC6/CapSense_1_Processing.c ****                      */
 512:Generated_Source\PSoC6/CapSense_1_Processing.c ****                    (void)memset(ptrFlashWdgt->ptr2DebounceArr,
 513:Generated_Source\PSoC6/CapSense_1_Processing.c ****                                 (int32)ptrRamWdgt->onDebounce,
 514:Generated_Source\PSoC6/CapSense_1_Processing.c ****                                 (size_t)ptrFlashWdgt->totalNumSns * 2u);
 515:Generated_Source\PSoC6/CapSense_1_Processing.c ****                 }
 516:Generated_Source\PSoC6/CapSense_1_Processing.c ****                 break;
 517:Generated_Source\PSoC6/CapSense_1_Processing.c ****         #endif /* #if (0u != CapSense_1_PROXIMITY_WIDGET_EN) */
 518:Generated_Source\PSoC6/CapSense_1_Processing.c **** 
 519:Generated_Source\PSoC6/CapSense_1_Processing.c ****             default:
 520:Generated_Source\PSoC6/CapSense_1_Processing.c ****                 break;
 521:Generated_Source\PSoC6/CapSense_1_Processing.c ****         }
 522:Generated_Source\PSoC6/CapSense_1_Processing.c **** 
 523:Generated_Source\PSoC6/CapSense_1_Processing.c ****         /* Move to next widget */
 524:Generated_Source\PSoC6/CapSense_1_Processing.c ****         ptrFlashWdgt++;
  95              		.loc 1 524 0
  96 0042 2034     		adds	r4, r4, #32
  97              	.LVL9:
 424:Generated_Source\PSoC6/CapSense_1_Processing.c ****     {
  98              		.loc 1 424 0
  99 0044 2B00     		movs	r3, r5
ARM GAS  C:\Users\Labeo\AppData\Local\Temp\cc644lUq.s 			page 12


 100              	.LVL10:
 101              	.L4:
 424:Generated_Source\PSoC6/CapSense_1_Processing.c ****     {
 102              		.loc 1 424 0 is_stmt 0 discriminator 1
 103 0046 5D1E     		subs	r5, r3, #1
 104              	.LVL11:
 105 0048 002B     		cmp	r3, #0
 106 004a EBD1     		bne	.L7
 525:Generated_Source\PSoC6/CapSense_1_Processing.c ****     }
 526:Generated_Source\PSoC6/CapSense_1_Processing.c **** }
 107              		.loc 1 526 0 is_stmt 1
 108              		@ sp needed
 109              	.LVL12:
 110              	.LVL13:
 111 004c 70BD     		pop	{r4, r5, r6, pc}
 112              	.L9:
 113 004e C046     		.align	2
 114              	.L8:
 115 0050 00000000 		.word	CapSense_1_dsRam
 116 0054 00000000 		.word	CapSense_1_dsFlash
 117              		.cfi_endproc
 118              	.LFE45:
 119              		.size	CapSense_1_DpInitialize, .-CapSense_1_DpInitialize
 120              		.section	.text.CapSense_1_DpUpdateThresholds,"ax",%progbits
 121              		.align	2
 122              		.global	CapSense_1_DpUpdateThresholds
 123              		.code	16
 124              		.thumb_func
 125              		.type	CapSense_1_DpUpdateThresholds, %function
 126              	CapSense_1_DpUpdateThresholds:
 127              	.LFB49:
 527:Generated_Source\PSoC6/CapSense_1_Processing.c **** 
 528:Generated_Source\PSoC6/CapSense_1_Processing.c **** #if (0u != CapSense_1_TOTAL_CSX_WIDGETS)
 529:Generated_Source\PSoC6/CapSense_1_Processing.c **** /*******************************************************************************
 530:Generated_Source\PSoC6/CapSense_1_Processing.c **** * Function Name: CapSense_1_DpProcessCsxWidgetRawCounts
 531:Generated_Source\PSoC6/CapSense_1_Processing.c **** ****************************************************************************//**
 532:Generated_Source\PSoC6/CapSense_1_Processing.c **** *
 533:Generated_Source\PSoC6/CapSense_1_Processing.c **** * \brief
 534:Generated_Source\PSoC6/CapSense_1_Processing.c **** *  Performs default processing of the CSX raw counts.
 535:Generated_Source\PSoC6/CapSense_1_Processing.c **** *
 536:Generated_Source\PSoC6/CapSense_1_Processing.c **** * \details
 537:Generated_Source\PSoC6/CapSense_1_Processing.c **** *  Performs default processing of the CSX raw counts:
 538:Generated_Source\PSoC6/CapSense_1_Processing.c **** *   - Run Filters
 539:Generated_Source\PSoC6/CapSense_1_Processing.c **** *   - Update Baselines
 540:Generated_Source\PSoC6/CapSense_1_Processing.c **** *   - Update Differences
 541:Generated_Source\PSoC6/CapSense_1_Processing.c **** *   - Update Status.
 542:Generated_Source\PSoC6/CapSense_1_Processing.c **** *  The same process is applied to all the sensors of the specified widget.
 543:Generated_Source\PSoC6/CapSense_1_Processing.c **** *
 544:Generated_Source\PSoC6/CapSense_1_Processing.c **** * \param ptrFlashWdgt The pointer to the Flash widget structure.
 545:Generated_Source\PSoC6/CapSense_1_Processing.c **** *
 546:Generated_Source\PSoC6/CapSense_1_Processing.c **** * \return
 547:Generated_Source\PSoC6/CapSense_1_Processing.c **** *  Returns the status of the specified widget processing operation:
 548:Generated_Source\PSoC6/CapSense_1_Processing.c **** *  - CY_RET_SUCCESS if operation was successfully completed;
 549:Generated_Source\PSoC6/CapSense_1_Processing.c **** *  - CapSense_1_PROCESS_BASELINE_FAILED if baseline processing of any
 550:Generated_Source\PSoC6/CapSense_1_Processing.c **** *    sensor of the specified widget failed. The result is concatenated with the index
 551:Generated_Source\PSoC6/CapSense_1_Processing.c **** *    of failed sensor.
 552:Generated_Source\PSoC6/CapSense_1_Processing.c **** *
ARM GAS  C:\Users\Labeo\AppData\Local\Temp\cc644lUq.s 			page 13


 553:Generated_Source\PSoC6/CapSense_1_Processing.c **** *******************************************************************************/
 554:Generated_Source\PSoC6/CapSense_1_Processing.c **** uint32 CapSense_1_DpProcessCsxWidgetRawCounts(CapSense_1_FLASH_WD_STRUCT const *ptrFlashWdgt)
 555:Generated_Source\PSoC6/CapSense_1_Processing.c **** {
 556:Generated_Source\PSoC6/CapSense_1_Processing.c ****     uint32 result = CY_RET_SUCCESS;
 557:Generated_Source\PSoC6/CapSense_1_Processing.c ****     uint32 widgetType;
 558:Generated_Source\PSoC6/CapSense_1_Processing.c ****     uint32 snsCount;
 559:Generated_Source\PSoC6/CapSense_1_Processing.c ****     CapSense_1_RAM_SNS_STRUCT *ptrSnsTmp;
 560:Generated_Source\PSoC6/CapSense_1_Processing.c ****     CapSense_1_RAM_WD_BASE_STRUCT *ptrRamWdgt;
 561:Generated_Source\PSoC6/CapSense_1_Processing.c **** 
 562:Generated_Source\PSoC6/CapSense_1_Processing.c ****     #if (CapSense_1_ENABLE == CapSense_1_RC_FILTER_EN)
 563:Generated_Source\PSoC6/CapSense_1_Processing.c ****         CapSense_1_PTR_FILTER_VARIANT fltrHistV;
 564:Generated_Source\PSoC6/CapSense_1_Processing.c **** 
 565:Generated_Source\PSoC6/CapSense_1_Processing.c ****         fltrHistV.ptr = ptrFlashWdgt->ptr2FltrHistory;
 566:Generated_Source\PSoC6/CapSense_1_Processing.c ****     #endif /* #if (CapSense_1_ENABLE == CapSense_1_RC_FILTER_EN) */
 567:Generated_Source\PSoC6/CapSense_1_Processing.c **** 
 568:Generated_Source\PSoC6/CapSense_1_Processing.c ****     ptrSnsTmp = ptrFlashWdgt->ptr2SnsRam;
 569:Generated_Source\PSoC6/CapSense_1_Processing.c ****     snsCount = ptrFlashWdgt->totalNumSns;
 570:Generated_Source\PSoC6/CapSense_1_Processing.c ****     ptrRamWdgt = (CapSense_1_RAM_WD_BASE_STRUCT *)ptrFlashWdgt->ptr2WdgtRam;
 571:Generated_Source\PSoC6/CapSense_1_Processing.c ****     widgetType = ptrFlashWdgt->wdgtType;
 572:Generated_Source\PSoC6/CapSense_1_Processing.c **** 
 573:Generated_Source\PSoC6/CapSense_1_Processing.c ****     /* Run deconvolution algorithm for the widgets with multiphase TX support */
 574:Generated_Source\PSoC6/CapSense_1_Processing.c ****     #if (0u != CapSense_1_CSX_MULTIPHASE_TX_EN)
 575:Generated_Source\PSoC6/CapSense_1_Processing.c ****         if (0u != (ptrFlashWdgt->staticConfig & CapSense_1_MULTIPHASE_TX_MASK))
 576:Generated_Source\PSoC6/CapSense_1_Processing.c ****         {
 577:Generated_Source\PSoC6/CapSense_1_Processing.c ****             CapSense_1_DpDeconvolution(ptrFlashWdgt);
 578:Generated_Source\PSoC6/CapSense_1_Processing.c ****         }
 579:Generated_Source\PSoC6/CapSense_1_Processing.c ****     #endif  /* #if (0u != CapSense_1_CSX_MULTIPHASE_TX_EN) */
 580:Generated_Source\PSoC6/CapSense_1_Processing.c **** 
 581:Generated_Source\PSoC6/CapSense_1_Processing.c ****     for (;snsCount-- > 0u;)
 582:Generated_Source\PSoC6/CapSense_1_Processing.c ****     {
 583:Generated_Source\PSoC6/CapSense_1_Processing.c ****         #if (CapSense_1_ENABLE == CapSense_1_RC_FILTER_EN)
 584:Generated_Source\PSoC6/CapSense_1_Processing.c ****             CapSense_1_FtRunEnabledFiltersInternal(fltrHistV, ptrSnsTmp, widgetType);
 585:Generated_Source\PSoC6/CapSense_1_Processing.c ****             #if (CapSense_1_ALP_FILTER_EN)
 586:Generated_Source\PSoC6/CapSense_1_Processing.c ****                 CapSense_1_ConfigRunALPInternal(fltrHistV, ptrRamWdgt, ptrSnsTmp, widgetType);
 587:Generated_Source\PSoC6/CapSense_1_Processing.c ****             #endif
 588:Generated_Source\PSoC6/CapSense_1_Processing.c ****         #endif /* #if (CapSense_1_ENABLE == CapSense_1_RC_FILTER_EN) */
 589:Generated_Source\PSoC6/CapSense_1_Processing.c **** 
 590:Generated_Source\PSoC6/CapSense_1_Processing.c ****         result = CapSense_1_FtUpdateBaseline(ptrRamWdgt, ptrSnsTmp, widgetType);
 591:Generated_Source\PSoC6/CapSense_1_Processing.c **** 
 592:Generated_Source\PSoC6/CapSense_1_Processing.c ****         #if (CapSense_1_ENABLE == CapSense_1_TST_BSLN_DUPLICATION_EN)
 593:Generated_Source\PSoC6/CapSense_1_Processing.c ****             if (CY_RET_SUCCESS != result)
 594:Generated_Source\PSoC6/CapSense_1_Processing.c ****             {
 595:Generated_Source\PSoC6/CapSense_1_Processing.c ****                 result = snsCount | CapSense_1_PROCESS_BASELINE_FAILED;
 596:Generated_Source\PSoC6/CapSense_1_Processing.c ****             }
 597:Generated_Source\PSoC6/CapSense_1_Processing.c ****         #endif /* (CapSense_1_ENABLE == CapSense_1_TST_BSLN_DUPLICATION_EN) */
 598:Generated_Source\PSoC6/CapSense_1_Processing.c **** 
 599:Generated_Source\PSoC6/CapSense_1_Processing.c ****         CapSense_1_DpUpdateDifferences(ptrRamWdgt, ptrSnsTmp);
 600:Generated_Source\PSoC6/CapSense_1_Processing.c **** 
 601:Generated_Source\PSoC6/CapSense_1_Processing.c ****         /* Move pointers to the next sensor and filter history objects */
 602:Generated_Source\PSoC6/CapSense_1_Processing.c ****         ptrSnsTmp++;
 603:Generated_Source\PSoC6/CapSense_1_Processing.c ****         
 604:Generated_Source\PSoC6/CapSense_1_Processing.c ****         #if (CapSense_1_ENABLE == CapSense_1_RC_FILTER_EN)
 605:Generated_Source\PSoC6/CapSense_1_Processing.c ****             CapSense_1_INC_REG_FLTR_OBJ(fltrHistV);
 606:Generated_Source\PSoC6/CapSense_1_Processing.c ****         #endif /* #if (CapSense_1_ENABLE == CapSense_1_RC_FILTER_EN) */
 607:Generated_Source\PSoC6/CapSense_1_Processing.c ****     }
 608:Generated_Source\PSoC6/CapSense_1_Processing.c ****     return result;
 609:Generated_Source\PSoC6/CapSense_1_Processing.c **** }
ARM GAS  C:\Users\Labeo\AppData\Local\Temp\cc644lUq.s 			page 14


 610:Generated_Source\PSoC6/CapSense_1_Processing.c **** 
 611:Generated_Source\PSoC6/CapSense_1_Processing.c **** /*******************************************************************************
 612:Generated_Source\PSoC6/CapSense_1_Processing.c **** * Function Name: CapSense_1_DpProcessCsxSensorRawCountsExt
 613:Generated_Source\PSoC6/CapSense_1_Processing.c **** ****************************************************************************//**
 614:Generated_Source\PSoC6/CapSense_1_Processing.c **** *
 615:Generated_Source\PSoC6/CapSense_1_Processing.c **** * \brief
 616:Generated_Source\PSoC6/CapSense_1_Processing.c **** *   Performs customized processing of the CSX sensor raw counts.
 617:Generated_Source\PSoC6/CapSense_1_Processing.c **** *
 618:Generated_Source\PSoC6/CapSense_1_Processing.c **** * \details
 619:Generated_Source\PSoC6/CapSense_1_Processing.c **** *   Performs customized processing of the CSX sensor raw counts.
 620:Generated_Source\PSoC6/CapSense_1_Processing.c **** *
 621:Generated_Source\PSoC6/CapSense_1_Processing.c **** *   If all bits are set at once the default processing order will take place.
 622:Generated_Source\PSoC6/CapSense_1_Processing.c **** *   For the custom order this API can be called multiple times and execute one task at a time.
 623:Generated_Source\PSoC6/CapSense_1_Processing.c **** *
 624:Generated_Source\PSoC6/CapSense_1_Processing.c **** * \param ptrFlashWdgt The pointer to the Flash Widget Object.
 625:Generated_Source\PSoC6/CapSense_1_Processing.c **** * \param curSnsPtr    The pointer to the specific RAM Sensor Object.
 626:Generated_Source\PSoC6/CapSense_1_Processing.c **** * \param fltrHistV    The pointer to the Filter History Object in RAM associated with specific sens
 627:Generated_Source\PSoC6/CapSense_1_Processing.c **** * \param mode         The bit-mask with the data processing tasks to be executed.
 628:Generated_Source\PSoC6/CapSense_1_Processing.c **** *   The mode parameters can take the following values:
 629:Generated_Source\PSoC6/CapSense_1_Processing.c **** *    - CapSense_1_PROCESS_FILTER     (0x01) Run Firmware Filter
 630:Generated_Source\PSoC6/CapSense_1_Processing.c **** *    - CapSense_1_PROCESS_BASELINE   (0x02) Update Baselines
 631:Generated_Source\PSoC6/CapSense_1_Processing.c **** *    - CapSense_1_PROCESS_DIFFCOUNTS (0x04) Update Difference Counts
 632:Generated_Source\PSoC6/CapSense_1_Processing.c **** *    - CapSense_1_PROCESS_ALL               Execute all tasks
 633:Generated_Source\PSoC6/CapSense_1_Processing.c **** *
 634:Generated_Source\PSoC6/CapSense_1_Processing.c **** * \return
 635:Generated_Source\PSoC6/CapSense_1_Processing.c **** *  Returns the status of the specified sensor processing operation:
 636:Generated_Source\PSoC6/CapSense_1_Processing.c **** *  - CY_RET_SUCCESS if operation was successfully completed;
 637:Generated_Source\PSoC6/CapSense_1_Processing.c **** *  - CapSense_1_PROCESS_BASELINE_FAILED if baseline processing of any
 638:Generated_Source\PSoC6/CapSense_1_Processing.c **** *    sensor of the specified widget failed. The result is concatenated with the index
 639:Generated_Source\PSoC6/CapSense_1_Processing.c **** *    of failed sensor.
 640:Generated_Source\PSoC6/CapSense_1_Processing.c **** *
 641:Generated_Source\PSoC6/CapSense_1_Processing.c **** *******************************************************************************/
 642:Generated_Source\PSoC6/CapSense_1_Processing.c **** uint32 CapSense_1_DpProcessCsxSensorRawCountsExt(
 643:Generated_Source\PSoC6/CapSense_1_Processing.c ****                 CapSense_1_FLASH_WD_STRUCT const *ptrFlashWdgt,
 644:Generated_Source\PSoC6/CapSense_1_Processing.c ****                 CapSense_1_RAM_SNS_STRUCT *curSnsPtr,
 645:Generated_Source\PSoC6/CapSense_1_Processing.c ****                 CapSense_1_PTR_FILTER_VARIANT fltrHistV,
 646:Generated_Source\PSoC6/CapSense_1_Processing.c ****                 uint32 mode)
 647:Generated_Source\PSoC6/CapSense_1_Processing.c **** {
 648:Generated_Source\PSoC6/CapSense_1_Processing.c ****     uint32  result = CY_RET_SUCCESS;
 649:Generated_Source\PSoC6/CapSense_1_Processing.c ****     uint32  widgetType;
 650:Generated_Source\PSoC6/CapSense_1_Processing.c ****     CapSense_1_RAM_WD_BASE_STRUCT *ptrRamWdgt;
 651:Generated_Source\PSoC6/CapSense_1_Processing.c **** 
 652:Generated_Source\PSoC6/CapSense_1_Processing.c ****     widgetType = ptrFlashWdgt->wdgtType;
 653:Generated_Source\PSoC6/CapSense_1_Processing.c ****     ptrRamWdgt = (CapSense_1_RAM_WD_BASE_STRUCT *)ptrFlashWdgt->ptr2WdgtRam;
 654:Generated_Source\PSoC6/CapSense_1_Processing.c **** 
 655:Generated_Source\PSoC6/CapSense_1_Processing.c ****     #if (CapSense_1_ENABLE == CapSense_1_RC_FILTER_EN)
 656:Generated_Source\PSoC6/CapSense_1_Processing.c ****         if (0u != (mode & CapSense_1_PROCESS_FILTER))
 657:Generated_Source\PSoC6/CapSense_1_Processing.c ****         {
 658:Generated_Source\PSoC6/CapSense_1_Processing.c ****             CapSense_1_FtRunEnabledFiltersInternal(fltrHistV, curSnsPtr, widgetType);
 659:Generated_Source\PSoC6/CapSense_1_Processing.c ****             #if (CapSense_1_ALP_FILTER_EN)
 660:Generated_Source\PSoC6/CapSense_1_Processing.c ****                 CapSense_1_ConfigRunALPInternal(fltrHistV, ptrRamWdgt, curSnsPtr, widgetType);
 661:Generated_Source\PSoC6/CapSense_1_Processing.c ****             #endif
 662:Generated_Source\PSoC6/CapSense_1_Processing.c ****         }
 663:Generated_Source\PSoC6/CapSense_1_Processing.c ****     #else
 664:Generated_Source\PSoC6/CapSense_1_Processing.c ****         (void)fltrHistV; /* This parameter is unused in such configurations */
 665:Generated_Source\PSoC6/CapSense_1_Processing.c ****     #endif /* #if (CapSense_1_ENABLE == CapSense_1_RC_FILTER_EN) */
 666:Generated_Source\PSoC6/CapSense_1_Processing.c **** 
ARM GAS  C:\Users\Labeo\AppData\Local\Temp\cc644lUq.s 			page 15


 667:Generated_Source\PSoC6/CapSense_1_Processing.c ****     if (0u != (mode & CapSense_1_PROCESS_BASELINE))
 668:Generated_Source\PSoC6/CapSense_1_Processing.c ****     {
 669:Generated_Source\PSoC6/CapSense_1_Processing.c ****         result = CapSense_1_FtUpdateBaseline(ptrRamWdgt, curSnsPtr, widgetType);
 670:Generated_Source\PSoC6/CapSense_1_Processing.c ****     }
 671:Generated_Source\PSoC6/CapSense_1_Processing.c **** 
 672:Generated_Source\PSoC6/CapSense_1_Processing.c ****     if (0u != (mode & CapSense_1_PROCESS_DIFFCOUNTS))
 673:Generated_Source\PSoC6/CapSense_1_Processing.c ****     {
 674:Generated_Source\PSoC6/CapSense_1_Processing.c ****         CapSense_1_DpUpdateDifferences(ptrRamWdgt, curSnsPtr);
 675:Generated_Source\PSoC6/CapSense_1_Processing.c ****     }
 676:Generated_Source\PSoC6/CapSense_1_Processing.c ****     return result;
 677:Generated_Source\PSoC6/CapSense_1_Processing.c **** }
 678:Generated_Source\PSoC6/CapSense_1_Processing.c **** 
 679:Generated_Source\PSoC6/CapSense_1_Processing.c **** 
 680:Generated_Source\PSoC6/CapSense_1_Processing.c **** /*******************************************************************************
 681:Generated_Source\PSoC6/CapSense_1_Processing.c **** * Function Name: CapSense_1_DpProcessCsxWidgetStatus
 682:Generated_Source\PSoC6/CapSense_1_Processing.c **** ****************************************************************************//**
 683:Generated_Source\PSoC6/CapSense_1_Processing.c **** *
 684:Generated_Source\PSoC6/CapSense_1_Processing.c **** * \brief
 685:Generated_Source\PSoC6/CapSense_1_Processing.c **** *   Updates the status of the CSX widget in the Data Structure.
 686:Generated_Source\PSoC6/CapSense_1_Processing.c **** *
 687:Generated_Source\PSoC6/CapSense_1_Processing.c **** * \details
 688:Generated_Source\PSoC6/CapSense_1_Processing.c **** *  This API determines the type of widget and runs the appropriate function
 689:Generated_Source\PSoC6/CapSense_1_Processing.c **** *  that implements the status update algorithm for this type of widget.
 690:Generated_Source\PSoC6/CapSense_1_Processing.c **** *
 691:Generated_Source\PSoC6/CapSense_1_Processing.c **** *  When the widget-specific processing completes this API updates the snsStatus
 692:Generated_Source\PSoC6/CapSense_1_Processing.c **** *  and wdgtStatus registers in the data structure. The wdgtStatus register
 693:Generated_Source\PSoC6/CapSense_1_Processing.c **** *  is a bitmask were each bit corresponds to the specific widget identified by
 694:Generated_Source\PSoC6/CapSense_1_Processing.c **** *  the widget index. When the bit is set the widget is active (touched);
 695:Generated_Source\PSoC6/CapSense_1_Processing.c **** *
 696:Generated_Source\PSoC6/CapSense_1_Processing.c **** *  Depending on the type of widget the snsStatus register may contain either
 697:Generated_Source\PSoC6/CapSense_1_Processing.c **** *  status of each widget node (active/non-active) or in case of the CSX Touchpad
 698:Generated_Source\PSoC6/CapSense_1_Processing.c **** *  is contains the number of touches. In both cases 0 means that widget is not
 699:Generated_Source\PSoC6/CapSense_1_Processing.c **** *  active.
 700:Generated_Source\PSoC6/CapSense_1_Processing.c **** *
 701:Generated_Source\PSoC6/CapSense_1_Processing.c **** * \param widgetId     The widget ID number.
 702:Generated_Source\PSoC6/CapSense_1_Processing.c **** * \param ptrFlashWdgt The pointer to the Flash Widget Object.
 703:Generated_Source\PSoC6/CapSense_1_Processing.c **** *
 704:Generated_Source\PSoC6/CapSense_1_Processing.c **** *******************************************************************************/
 705:Generated_Source\PSoC6/CapSense_1_Processing.c **** void CapSense_1_DpProcessCsxWidgetStatus(uint32 widgetId, CapSense_1_FLASH_WD_STRUCT const *ptrFlas
 706:Generated_Source\PSoC6/CapSense_1_Processing.c **** {
 707:Generated_Source\PSoC6/CapSense_1_Processing.c ****     uint32 sensorStatus;
 708:Generated_Source\PSoC6/CapSense_1_Processing.c ****     uint32 wdStatusIndex;
 709:Generated_Source\PSoC6/CapSense_1_Processing.c ****     uint32 wdStatusMask;
 710:Generated_Source\PSoC6/CapSense_1_Processing.c ****     CapSense_1_WD_TYPE_ENUM widgetType;
 711:Generated_Source\PSoC6/CapSense_1_Processing.c **** 
 712:Generated_Source\PSoC6/CapSense_1_Processing.c ****     widgetType = (CapSense_1_WD_TYPE_ENUM)ptrFlashWdgt->wdgtType;
 713:Generated_Source\PSoC6/CapSense_1_Processing.c ****     sensorStatus = CapSense_1_dsRam.snsStatus[widgetId];
 714:Generated_Source\PSoC6/CapSense_1_Processing.c **** 
 715:Generated_Source\PSoC6/CapSense_1_Processing.c ****     switch (widgetType)
 716:Generated_Source\PSoC6/CapSense_1_Processing.c ****     {
 717:Generated_Source\PSoC6/CapSense_1_Processing.c ****     #if (0u != CapSense_1_BUTTON_WIDGET_EN)
 718:Generated_Source\PSoC6/CapSense_1_Processing.c ****         case CapSense_1_WD_BUTTON_E:
 719:Generated_Source\PSoC6/CapSense_1_Processing.c ****             sensorStatus = CapSense_1_DpProcessButton(sensorStatus, ptrFlashWdgt);
 720:Generated_Source\PSoC6/CapSense_1_Processing.c ****             break;
 721:Generated_Source\PSoC6/CapSense_1_Processing.c ****     #endif /* #if (0u != CapSense_1_BUTTON_WIDGET_EN) */
 722:Generated_Source\PSoC6/CapSense_1_Processing.c **** 
 723:Generated_Source\PSoC6/CapSense_1_Processing.c ****     #if (0u != CapSense_1_CSX_MATRIX_WIDGET_EN)
ARM GAS  C:\Users\Labeo\AppData\Local\Temp\cc644lUq.s 			page 16


 724:Generated_Source\PSoC6/CapSense_1_Processing.c ****         case CapSense_1_WD_MATRIX_BUTTON_E:
 725:Generated_Source\PSoC6/CapSense_1_Processing.c ****             sensorStatus = CapSense_1_DpProcessButton(sensorStatus, ptrFlashWdgt);
 726:Generated_Source\PSoC6/CapSense_1_Processing.c ****             break;
 727:Generated_Source\PSoC6/CapSense_1_Processing.c ****     #endif /* #if (0u != CapSense_1_CSX_MATRIX_WIDGET_EN) */
 728:Generated_Source\PSoC6/CapSense_1_Processing.c **** 
 729:Generated_Source\PSoC6/CapSense_1_Processing.c ****     #if (0u != CapSense_1_CSX_TOUCHPAD_WIDGET_EN)
 730:Generated_Source\PSoC6/CapSense_1_Processing.c ****         case CapSense_1_WD_TOUCHPAD_E:
 731:Generated_Source\PSoC6/CapSense_1_Processing.c ****             sensorStatus = CapSense_1_DpProcessCsxTouchpad(sensorStatus, ptrFlashWdgt);
 732:Generated_Source\PSoC6/CapSense_1_Processing.c ****             break;
 733:Generated_Source\PSoC6/CapSense_1_Processing.c ****     #endif /* #if (0u != CapSense_1_CSX_TOUCHPAD_WIDGET_EN) */
 734:Generated_Source\PSoC6/CapSense_1_Processing.c **** 
 735:Generated_Source\PSoC6/CapSense_1_Processing.c ****     default:
 736:Generated_Source\PSoC6/CapSense_1_Processing.c ****         CY_ASSERT(0 != 0);
 737:Generated_Source\PSoC6/CapSense_1_Processing.c ****         break;
 738:Generated_Source\PSoC6/CapSense_1_Processing.c ****     }
 739:Generated_Source\PSoC6/CapSense_1_Processing.c **** 
 740:Generated_Source\PSoC6/CapSense_1_Processing.c ****     /* Update sensor status in the data structure */
 741:Generated_Source\PSoC6/CapSense_1_Processing.c ****     CapSense_1_dsRam.snsStatus[widgetId] = (CapSense_1_SNS_STS_TYPE)sensorStatus;
 742:Generated_Source\PSoC6/CapSense_1_Processing.c **** 
 743:Generated_Source\PSoC6/CapSense_1_Processing.c ****     /* The next two lines calculate index and bitmask of the widget status bit in the wdgtStatus ar
 744:Generated_Source\PSoC6/CapSense_1_Processing.c ****     wdStatusIndex = CapSense_1_GET_WDGT_STATUS_INDEX(widgetId);
 745:Generated_Source\PSoC6/CapSense_1_Processing.c ****     wdStatusMask = CapSense_1_GET_WDGT_STATUS_MASK(widgetId);
 746:Generated_Source\PSoC6/CapSense_1_Processing.c **** 
 747:Generated_Source\PSoC6/CapSense_1_Processing.c ****     /* Check if there are active sensors and update widget status accordingly */
 748:Generated_Source\PSoC6/CapSense_1_Processing.c ****     if (0u == sensorStatus)
 749:Generated_Source\PSoC6/CapSense_1_Processing.c ****     {
 750:Generated_Source\PSoC6/CapSense_1_Processing.c ****         CapSense_1_dsRam.wdgtStatus[wdStatusIndex] &= ~wdStatusMask;
 751:Generated_Source\PSoC6/CapSense_1_Processing.c ****     }
 752:Generated_Source\PSoC6/CapSense_1_Processing.c ****     else
 753:Generated_Source\PSoC6/CapSense_1_Processing.c ****     {
 754:Generated_Source\PSoC6/CapSense_1_Processing.c ****         CapSense_1_dsRam.wdgtStatus[wdStatusIndex] |= wdStatusMask;
 755:Generated_Source\PSoC6/CapSense_1_Processing.c ****     }
 756:Generated_Source\PSoC6/CapSense_1_Processing.c **** }
 757:Generated_Source\PSoC6/CapSense_1_Processing.c **** #endif /* #if CapSense_1_TOTAL_CSX_WIDGETS */
 758:Generated_Source\PSoC6/CapSense_1_Processing.c **** 
 759:Generated_Source\PSoC6/CapSense_1_Processing.c **** #if (0u != CapSense_1_TOTAL_CSD_WIDGETS)
 760:Generated_Source\PSoC6/CapSense_1_Processing.c **** /*******************************************************************************
 761:Generated_Source\PSoC6/CapSense_1_Processing.c **** * Function Name: CapSense_1_DpProcessCsdWidgetRawCounts
 762:Generated_Source\PSoC6/CapSense_1_Processing.c **** ****************************************************************************//**
 763:Generated_Source\PSoC6/CapSense_1_Processing.c **** *
 764:Generated_Source\PSoC6/CapSense_1_Processing.c **** * \brief
 765:Generated_Source\PSoC6/CapSense_1_Processing.c **** *   Performs default processing for the CSD widget raw counts.
 766:Generated_Source\PSoC6/CapSense_1_Processing.c **** *
 767:Generated_Source\PSoC6/CapSense_1_Processing.c **** * \details
 768:Generated_Source\PSoC6/CapSense_1_Processing.c **** *   Performs default processing for the CSD widget raw counts:
 769:Generated_Source\PSoC6/CapSense_1_Processing.c **** *    - Run Filters
 770:Generated_Source\PSoC6/CapSense_1_Processing.c **** *    - Update Thresholds (FW Auto-tuning)
 771:Generated_Source\PSoC6/CapSense_1_Processing.c **** *    - Update Baselines
 772:Generated_Source\PSoC6/CapSense_1_Processing.c **** *    - Update Differences.
 773:Generated_Source\PSoC6/CapSense_1_Processing.c **** *   The process is applied to all widget's sensors.
 774:Generated_Source\PSoC6/CapSense_1_Processing.c **** *
 775:Generated_Source\PSoC6/CapSense_1_Processing.c **** * \param ptrFlashWdgt The pointer to the Flash Widget Object.
 776:Generated_Source\PSoC6/CapSense_1_Processing.c **** *
 777:Generated_Source\PSoC6/CapSense_1_Processing.c **** * \return
 778:Generated_Source\PSoC6/CapSense_1_Processing.c **** *  Returns the status of the specified widget processing operation:
 779:Generated_Source\PSoC6/CapSense_1_Processing.c **** *  - CY_RET_SUCCESS if operation was successfully completed;
 780:Generated_Source\PSoC6/CapSense_1_Processing.c **** *  - CapSense_1_PROCESS_BASELINE_FAILED if baseline processing of any
ARM GAS  C:\Users\Labeo\AppData\Local\Temp\cc644lUq.s 			page 17


 781:Generated_Source\PSoC6/CapSense_1_Processing.c **** *    sensor of the specified widget failed. The result is concatenated with the index
 782:Generated_Source\PSoC6/CapSense_1_Processing.c **** *    of failed sensor.
 783:Generated_Source\PSoC6/CapSense_1_Processing.c **** *
 784:Generated_Source\PSoC6/CapSense_1_Processing.c **** *******************************************************************************/
 785:Generated_Source\PSoC6/CapSense_1_Processing.c **** uint32 CapSense_1_DpProcessCsdWidgetRawCounts(CapSense_1_FLASH_WD_STRUCT const *ptrFlashWdgt)
 786:Generated_Source\PSoC6/CapSense_1_Processing.c **** {
 787:Generated_Source\PSoC6/CapSense_1_Processing.c ****     uint32  result = CY_RET_SUCCESS;
 788:Generated_Source\PSoC6/CapSense_1_Processing.c **** 
 789:Generated_Source\PSoC6/CapSense_1_Processing.c ****     #if (CapSense_1_ENABLE == CapSense_1_TST_BSLN_DUPLICATION_EN)
 790:Generated_Source\PSoC6/CapSense_1_Processing.c ****         uint32 bslnTstResult = CY_RET_SUCCESS;
 791:Generated_Source\PSoC6/CapSense_1_Processing.c ****     #endif /* (CapSense_1_ENABLE == CapSense_1_TST_BSLN_DUPLICATION_EN) */
 792:Generated_Source\PSoC6/CapSense_1_Processing.c **** 
 793:Generated_Source\PSoC6/CapSense_1_Processing.c ****     uint32  widgetType;
 794:Generated_Source\PSoC6/CapSense_1_Processing.c ****     uint32  snsId;
 795:Generated_Source\PSoC6/CapSense_1_Processing.c ****     CapSense_1_RAM_SNS_STRUCT *ptrSnsTmp;
 796:Generated_Source\PSoC6/CapSense_1_Processing.c ****     CapSense_1_RAM_WD_BASE_STRUCT *ptrRamWdgt;
 797:Generated_Source\PSoC6/CapSense_1_Processing.c **** 
 798:Generated_Source\PSoC6/CapSense_1_Processing.c ****     #if (0u != (CapSense_1_CSD_AUTOTUNE & CapSense_1_CSD_SS_TH_EN))
 799:Generated_Source\PSoC6/CapSense_1_Processing.c ****         /* The noise envelope data is available only when Full CSD Auto-Tuning is enabled */
 800:Generated_Source\PSoC6/CapSense_1_Processing.c ****         SMARTSENSE_CSD_NOISE_ENVELOPE_STRUCT *ptrNoiseEnvelope;
 801:Generated_Source\PSoC6/CapSense_1_Processing.c ****         #if (CapSense_1_ENABLE == CapSense_1_PROXIMITY_WIDGET_EN)
 802:Generated_Source\PSoC6/CapSense_1_Processing.c ****             uint32  proximityThreshold;
 803:Generated_Source\PSoC6/CapSense_1_Processing.c ****         #endif /* (0 != CapSense_1_PROXIMITY_WIDGET_EN) */
 804:Generated_Source\PSoC6/CapSense_1_Processing.c ****     #endif /* #if (0u != (CapSense_1_CSD_AUTOTUNE & CapSense_1_CSD_SS_TH_EN)) */
 805:Generated_Source\PSoC6/CapSense_1_Processing.c **** 
 806:Generated_Source\PSoC6/CapSense_1_Processing.c ****     #if (CapSense_1_ENABLE == CapSense_1_RC_FILTER_EN)
 807:Generated_Source\PSoC6/CapSense_1_Processing.c ****         CapSense_1_PTR_FILTER_VARIANT fltrHistV;
 808:Generated_Source\PSoC6/CapSense_1_Processing.c **** 
 809:Generated_Source\PSoC6/CapSense_1_Processing.c ****         /* Determine if widget type is proximity */
 810:Generated_Source\PSoC6/CapSense_1_Processing.c ****         uint32 isProxWdgt = (CapSense_1_GET_WIDGET_TYPE(ptrFlashWdgt) == CapSense_1_WD_PROXIMITY_E)
 811:Generated_Source\PSoC6/CapSense_1_Processing.c **** 
 812:Generated_Source\PSoC6/CapSense_1_Processing.c ****         /* Get pointer to the filter history object */
 813:Generated_Source\PSoC6/CapSense_1_Processing.c ****         fltrHistV.ptr = ptrFlashWdgt->ptr2FltrHistory;
 814:Generated_Source\PSoC6/CapSense_1_Processing.c ****     #endif /* #if (CapSense_1_ENABLE == CapSense_1_RC_FILTER_EN) */
 815:Generated_Source\PSoC6/CapSense_1_Processing.c **** 
 816:Generated_Source\PSoC6/CapSense_1_Processing.c ****     ptrSnsTmp = ptrFlashWdgt->ptr2SnsRam;
 817:Generated_Source\PSoC6/CapSense_1_Processing.c ****     ptrRamWdgt = (CapSense_1_RAM_WD_BASE_STRUCT *)ptrFlashWdgt->ptr2WdgtRam;
 818:Generated_Source\PSoC6/CapSense_1_Processing.c ****     widgetType = ptrFlashWdgt->wdgtType;
 819:Generated_Source\PSoC6/CapSense_1_Processing.c **** 
 820:Generated_Source\PSoC6/CapSense_1_Processing.c ****     #if (0u != (CapSense_1_CSD_AUTOTUNE & CapSense_1_CSD_SS_TH_EN))
 821:Generated_Source\PSoC6/CapSense_1_Processing.c ****         ptrNoiseEnvelope = ptrFlashWdgt->ptr2NoiseEnvlp;
 822:Generated_Source\PSoC6/CapSense_1_Processing.c ****     #endif /* #if (0u != (CapSense_1_CSD_AUTOTUNE & CapSense_1_CSD_SS_TH_EN)) */
 823:Generated_Source\PSoC6/CapSense_1_Processing.c **** 
 824:Generated_Source\PSoC6/CapSense_1_Processing.c ****     /* Iterate through all widget's sensors */
 825:Generated_Source\PSoC6/CapSense_1_Processing.c ****     for(snsId = 0u; snsId < ptrFlashWdgt->totalNumSns; snsId++)
 826:Generated_Source\PSoC6/CapSense_1_Processing.c ****     {
 827:Generated_Source\PSoC6/CapSense_1_Processing.c ****         /* Run all enabled filter on specified widget's sensor */
 828:Generated_Source\PSoC6/CapSense_1_Processing.c ****         #if (CapSense_1_ENABLE == CapSense_1_RC_FILTER_EN)
 829:Generated_Source\PSoC6/CapSense_1_Processing.c ****             CapSense_1_FtRunEnabledFiltersInternal(fltrHistV, ptrSnsTmp, widgetType);
 830:Generated_Source\PSoC6/CapSense_1_Processing.c ****             #if (CapSense_1_ALP_FILTER_EN)
 831:Generated_Source\PSoC6/CapSense_1_Processing.c ****                 CapSense_1_ConfigRunALPInternal(fltrHistV, ptrRamWdgt, ptrSnsTmp, widgetType);
 832:Generated_Source\PSoC6/CapSense_1_Processing.c ****             #endif
 833:Generated_Source\PSoC6/CapSense_1_Processing.c ****         #endif /* #if (CapSense_1_ENABLE == CapSense_1_RC_FILTER_EN) */
 834:Generated_Source\PSoC6/CapSense_1_Processing.c **** 
 835:Generated_Source\PSoC6/CapSense_1_Processing.c ****         /* Run auto-tuning activities */
 836:Generated_Source\PSoC6/CapSense_1_Processing.c ****         #if (0u != (CapSense_1_CSD_AUTOTUNE & CapSense_1_CSD_SS_TH_EN))
 837:Generated_Source\PSoC6/CapSense_1_Processing.c ****             SmartSense_RunNoiseEnvelope(ptrSnsTmp->raw[0u], ptrRamWdgt->sigPFC, ptrNoiseEnvelope);
ARM GAS  C:\Users\Labeo\AppData\Local\Temp\cc644lUq.s 			page 18


 838:Generated_Source\PSoC6/CapSense_1_Processing.c ****             CapSense_1_DpUpdateThresholds(ptrRamWdgt, ptrNoiseEnvelope, snsId);
 839:Generated_Source\PSoC6/CapSense_1_Processing.c **** 
 840:Generated_Source\PSoC6/CapSense_1_Processing.c ****             /* Calculate Proximity Touch Threshold in SmartSense mode based on Finger Threshold and
 841:Generated_Source\PSoC6/CapSense_1_Processing.c ****             #if (CapSense_1_ENABLE == CapSense_1_PROXIMITY_WIDGET_EN)
 842:Generated_Source\PSoC6/CapSense_1_Processing.c ****                 if (CapSense_1_WD_PROXIMITY_E == CapSense_1_GET_WIDGET_TYPE(ptrFlashWdgt))
 843:Generated_Source\PSoC6/CapSense_1_Processing.c ****                 {
 844:Generated_Source\PSoC6/CapSense_1_Processing.c ****                     proximityThreshold = ((uint32)ptrRamWdgt->fingerTh * CapSense_1_PROX_TOUCH_COEF
 845:Generated_Source\PSoC6/CapSense_1_Processing.c ****                     if ((((1Lu) << CapSense_1_THRESHOLD_SIZE) - 1u) < proximityThreshold)
 846:Generated_Source\PSoC6/CapSense_1_Processing.c ****                     {
 847:Generated_Source\PSoC6/CapSense_1_Processing.c ****                         proximityThreshold = ((1Lu) << CapSense_1_THRESHOLD_SIZE) - 1u;
 848:Generated_Source\PSoC6/CapSense_1_Processing.c ****                     }
 849:Generated_Source\PSoC6/CapSense_1_Processing.c ****                     ((CapSense_1_RAM_WD_PROXIMITY_STRUCT *)ptrFlashWdgt->ptr2WdgtRam)->proxTouchTh 
 850:Generated_Source\PSoC6/CapSense_1_Processing.c ****                         (CapSense_1_THRESHOLD_TYPE)proximityThreshold;
 851:Generated_Source\PSoC6/CapSense_1_Processing.c ****                 }
 852:Generated_Source\PSoC6/CapSense_1_Processing.c ****             #endif /* (0 != CapSense_1_PROXIMITY_WIDGET_EN) */
 853:Generated_Source\PSoC6/CapSense_1_Processing.c **** 
 854:Generated_Source\PSoC6/CapSense_1_Processing.c ****             /* Move to next noise-envelope object */
 855:Generated_Source\PSoC6/CapSense_1_Processing.c ****             ptrNoiseEnvelope++;
 856:Generated_Source\PSoC6/CapSense_1_Processing.c ****         #endif /* (0u != (CapSense_1_CSD_AUTOTUNE & CapSense_1_CSD_SS_TH_EN)) */
 857:Generated_Source\PSoC6/CapSense_1_Processing.c **** 
 858:Generated_Source\PSoC6/CapSense_1_Processing.c ****         #if (CapSense_1_ENABLE == CapSense_1_TST_BSLN_DUPLICATION_EN)
 859:Generated_Source\PSoC6/CapSense_1_Processing.c ****             bslnTstResult = CapSense_1_FtUpdateBaseline(ptrRamWdgt, ptrSnsTmp, widgetType);
 860:Generated_Source\PSoC6/CapSense_1_Processing.c ****             if ((CY_RET_SUCCESS != bslnTstResult) && (CY_RET_SUCCESS == result))
 861:Generated_Source\PSoC6/CapSense_1_Processing.c ****             {
 862:Generated_Source\PSoC6/CapSense_1_Processing.c ****                 result = snsId | CapSense_1_PROCESS_BASELINE_FAILED;
 863:Generated_Source\PSoC6/CapSense_1_Processing.c ****             }
 864:Generated_Source\PSoC6/CapSense_1_Processing.c ****         #else /* (CapSense_1_ENABLE == CapSense_1_TST_BSLN_DUPLICATION_EN) */
 865:Generated_Source\PSoC6/CapSense_1_Processing.c ****             result = CapSense_1_FtUpdateBaseline(ptrRamWdgt, ptrSnsTmp, widgetType);
 866:Generated_Source\PSoC6/CapSense_1_Processing.c ****         #endif /* (CapSense_1_ENABLE == CapSense_1_TST_BSLN_DUPLICATION_EN) */
 867:Generated_Source\PSoC6/CapSense_1_Processing.c **** 
 868:Generated_Source\PSoC6/CapSense_1_Processing.c ****         CapSense_1_DpUpdateDifferences(ptrRamWdgt, ptrSnsTmp);
 869:Generated_Source\PSoC6/CapSense_1_Processing.c **** 
 870:Generated_Source\PSoC6/CapSense_1_Processing.c ****         /* Move to next sensor object */
 871:Generated_Source\PSoC6/CapSense_1_Processing.c ****         ptrSnsTmp++;
 872:Generated_Source\PSoC6/CapSense_1_Processing.c **** 
 873:Generated_Source\PSoC6/CapSense_1_Processing.c ****         #if (CapSense_1_ENABLE == CapSense_1_RC_FILTER_EN)
 874:Generated_Source\PSoC6/CapSense_1_Processing.c ****             /* Move to the next filter history object */
 875:Generated_Source\PSoC6/CapSense_1_Processing.c ****             CapSense_1_INC_FLTR_OBJ_VARIANT(isProxWdgt, fltrHistV);
 876:Generated_Source\PSoC6/CapSense_1_Processing.c ****         #endif /* #if (CapSense_1_ENABLE == CapSense_1_RC_FILTER_EN) */
 877:Generated_Source\PSoC6/CapSense_1_Processing.c ****     }
 878:Generated_Source\PSoC6/CapSense_1_Processing.c ****     return result;
 879:Generated_Source\PSoC6/CapSense_1_Processing.c **** }
 880:Generated_Source\PSoC6/CapSense_1_Processing.c **** 
 881:Generated_Source\PSoC6/CapSense_1_Processing.c **** 
 882:Generated_Source\PSoC6/CapSense_1_Processing.c **** /*******************************************************************************
 883:Generated_Source\PSoC6/CapSense_1_Processing.c **** * Function Name: CapSense_1_DpProcessCsdSensorRawCountsExt
 884:Generated_Source\PSoC6/CapSense_1_Processing.c **** ****************************************************************************//**
 885:Generated_Source\PSoC6/CapSense_1_Processing.c **** *
 886:Generated_Source\PSoC6/CapSense_1_Processing.c **** * \brief
 887:Generated_Source\PSoC6/CapSense_1_Processing.c **** *   Performs customized processing of the CSD sensor raw counts.
 888:Generated_Source\PSoC6/CapSense_1_Processing.c **** *
 889:Generated_Source\PSoC6/CapSense_1_Processing.c **** * \details
 890:Generated_Source\PSoC6/CapSense_1_Processing.c **** *   Performs customized processing of the CSD sensor raw counts.
 891:Generated_Source\PSoC6/CapSense_1_Processing.c **** *
 892:Generated_Source\PSoC6/CapSense_1_Processing.c **** *   Note that this API updates data associated only with the sensor. It cannot be used to update
 893:Generated_Source\PSoC6/CapSense_1_Processing.c **** *   widget status.
 894:Generated_Source\PSoC6/CapSense_1_Processing.c **** *
ARM GAS  C:\Users\Labeo\AppData\Local\Temp\cc644lUq.s 			page 19


 895:Generated_Source\PSoC6/CapSense_1_Processing.c **** * \param ptrFlashWdgt The pointer to the Flash widget structure.
 896:Generated_Source\PSoC6/CapSense_1_Processing.c **** * \param curSnsPtr    The pointer to the sensor object in RAM.
 897:Generated_Source\PSoC6/CapSense_1_Processing.c **** * \param fltrHistV    The pointer to the Filter History Object in RAM.
 898:Generated_Source\PSoC6/CapSense_1_Processing.c **** * \param mode         The bit-mask with the data processing tasks to be executed.
 899:Generated_Source\PSoC6/CapSense_1_Processing.c **** *   The mode parameters can take the following values:
 900:Generated_Source\PSoC6/CapSense_1_Processing.c **** *    - CapSense_1_PROCESS_FILTER     (0x01) Run Firmware Filter
 901:Generated_Source\PSoC6/CapSense_1_Processing.c **** *    - CapSense_1_PROCESS_BASELINE   (0x02) Update Baselines
 902:Generated_Source\PSoC6/CapSense_1_Processing.c **** *    - CapSense_1_PROCESS_DIFFCOUNTS (0x04) Update Difference Counts
 903:Generated_Source\PSoC6/CapSense_1_Processing.c **** *    - CapSense_1_PROCESS_CALC_NOISE (0x08) Calculate Noise (only if FW Tuning is enabled)
 904:Generated_Source\PSoC6/CapSense_1_Processing.c **** *    - CapSense_1_PROCESS_THRESHOLDS (0x10) Update Thresholds (only if FW Tuning is enabled)
 905:Generated_Source\PSoC6/CapSense_1_Processing.c **** *    - CapSense_1_PROCESS_ALL               Execute all tasks
 906:Generated_Source\PSoC6/CapSense_1_Processing.c **** *
 907:Generated_Source\PSoC6/CapSense_1_Processing.c **** * \return
 908:Generated_Source\PSoC6/CapSense_1_Processing.c **** *  Returns the status of the specified sensor processing operation:
 909:Generated_Source\PSoC6/CapSense_1_Processing.c **** *  - CY_RET_SUCCESS if operation was successfully completed;
 910:Generated_Source\PSoC6/CapSense_1_Processing.c **** *  - CapSense_1_PROCESS_BASELINE_FAILED if baseline processing of any
 911:Generated_Source\PSoC6/CapSense_1_Processing.c **** *    sensor of the specified widget failed. The result is concatenated with the index
 912:Generated_Source\PSoC6/CapSense_1_Processing.c **** *    of failed sensor.
 913:Generated_Source\PSoC6/CapSense_1_Processing.c **** *
 914:Generated_Source\PSoC6/CapSense_1_Processing.c **** *******************************************************************************/
 915:Generated_Source\PSoC6/CapSense_1_Processing.c **** uint32 CapSense_1_DpProcessCsdSensorRawCountsExt(
 916:Generated_Source\PSoC6/CapSense_1_Processing.c ****                 CapSense_1_FLASH_WD_STRUCT const *ptrFlashWdgt,
 917:Generated_Source\PSoC6/CapSense_1_Processing.c ****                 CapSense_1_RAM_SNS_STRUCT *curSnsPtr,
 918:Generated_Source\PSoC6/CapSense_1_Processing.c ****                 CapSense_1_PTR_FILTER_VARIANT fltrHistV,
 919:Generated_Source\PSoC6/CapSense_1_Processing.c ****                  uint32 mode)
 920:Generated_Source\PSoC6/CapSense_1_Processing.c **** {
 921:Generated_Source\PSoC6/CapSense_1_Processing.c ****     uint32 result = CY_RET_SUCCESS;
 922:Generated_Source\PSoC6/CapSense_1_Processing.c ****     uint32  widgetType;
 923:Generated_Source\PSoC6/CapSense_1_Processing.c ****     CapSense_1_RAM_WD_BASE_STRUCT *ptrRamWdgt;
 924:Generated_Source\PSoC6/CapSense_1_Processing.c **** 
 925:Generated_Source\PSoC6/CapSense_1_Processing.c ****     #if (0u != (CapSense_1_CSD_AUTOTUNE & CapSense_1_CSD_SS_TH_EN))
 926:Generated_Source\PSoC6/CapSense_1_Processing.c ****         SMARTSENSE_CSD_NOISE_ENVELOPE_STRUCT *ptrNoiseEnvelope;
 927:Generated_Source\PSoC6/CapSense_1_Processing.c ****         #if (CapSense_1_ENABLE == CapSense_1_PROXIMITY_WIDGET_EN)
 928:Generated_Source\PSoC6/CapSense_1_Processing.c ****             uint32  proximityThreshold;
 929:Generated_Source\PSoC6/CapSense_1_Processing.c ****         #endif /* (0 != CapSense_1_PROXIMITY_WIDGET_EN) */
 930:Generated_Source\PSoC6/CapSense_1_Processing.c **** 
 931:Generated_Source\PSoC6/CapSense_1_Processing.c ****         /* Need to specify pointer to corresponding sensor's noise-envelope object.*/
 932:Generated_Source\PSoC6/CapSense_1_Processing.c ****         ptrNoiseEnvelope = ptrFlashWdgt->ptr2NoiseEnvlp;
 933:Generated_Source\PSoC6/CapSense_1_Processing.c ****     #endif /* (0u != (CapSense_1_CSD_AUTOTUNE & CapSense_1_CSD_SS_TH_EN)) */
 934:Generated_Source\PSoC6/CapSense_1_Processing.c **** 
 935:Generated_Source\PSoC6/CapSense_1_Processing.c ****     widgetType = ptrFlashWdgt->wdgtType;
 936:Generated_Source\PSoC6/CapSense_1_Processing.c ****     ptrRamWdgt = (CapSense_1_RAM_WD_BASE_STRUCT *)ptrFlashWdgt->ptr2WdgtRam;
 937:Generated_Source\PSoC6/CapSense_1_Processing.c **** 
 938:Generated_Source\PSoC6/CapSense_1_Processing.c ****     #if (CapSense_1_ENABLE == CapSense_1_RC_FILTER_EN)
 939:Generated_Source\PSoC6/CapSense_1_Processing.c ****         if (0u != (mode & CapSense_1_PROCESS_FILTER))
 940:Generated_Source\PSoC6/CapSense_1_Processing.c ****         {
 941:Generated_Source\PSoC6/CapSense_1_Processing.c ****             CapSense_1_FtRunEnabledFiltersInternal(fltrHistV, curSnsPtr, widgetType);
 942:Generated_Source\PSoC6/CapSense_1_Processing.c ****             #if (CapSense_1_ALP_FILTER_EN)
 943:Generated_Source\PSoC6/CapSense_1_Processing.c ****                 CapSense_1_ConfigRunALPInternal(fltrHistV, ptrRamWdgt, curSnsPtr, widgetType);
 944:Generated_Source\PSoC6/CapSense_1_Processing.c ****             #endif
 945:Generated_Source\PSoC6/CapSense_1_Processing.c ****         }
 946:Generated_Source\PSoC6/CapSense_1_Processing.c ****     #else
 947:Generated_Source\PSoC6/CapSense_1_Processing.c ****         (void)fltrHistV; /* This parameter is unused in such configurations */
 948:Generated_Source\PSoC6/CapSense_1_Processing.c ****     #endif /* #if (CapSense_1_ENABLE == CapSense_1_RC_FILTER_EN) */
 949:Generated_Source\PSoC6/CapSense_1_Processing.c **** 
 950:Generated_Source\PSoC6/CapSense_1_Processing.c ****     #if (0u != (CapSense_1_CSD_AUTOTUNE & CapSense_1_CSD_SS_TH_EN))
 951:Generated_Source\PSoC6/CapSense_1_Processing.c ****         if (0u != (mode & CapSense_1_PROCESS_CALC_NOISE))
ARM GAS  C:\Users\Labeo\AppData\Local\Temp\cc644lUq.s 			page 20


 952:Generated_Source\PSoC6/CapSense_1_Processing.c ****         {
 953:Generated_Source\PSoC6/CapSense_1_Processing.c ****             SmartSense_RunNoiseEnvelope(curSnsPtr->raw[0u], ptrRamWdgt->sigPFC, ptrNoiseEnvelope);
 954:Generated_Source\PSoC6/CapSense_1_Processing.c ****         }
 955:Generated_Source\PSoC6/CapSense_1_Processing.c **** 
 956:Generated_Source\PSoC6/CapSense_1_Processing.c ****         if (0u != (mode & CapSense_1_PROCESS_THRESHOLDS))
 957:Generated_Source\PSoC6/CapSense_1_Processing.c ****         {
 958:Generated_Source\PSoC6/CapSense_1_Processing.c ****             CapSense_1_DpUpdateThresholds(ptrRamWdgt, ptrNoiseEnvelope, 0u);
 959:Generated_Source\PSoC6/CapSense_1_Processing.c **** 
 960:Generated_Source\PSoC6/CapSense_1_Processing.c ****             /* Calculate Proximity Touch Threshold in SmartSense mode based on Finger Threshold and
 961:Generated_Source\PSoC6/CapSense_1_Processing.c ****             #if (CapSense_1_ENABLE == CapSense_1_PROXIMITY_WIDGET_EN)
 962:Generated_Source\PSoC6/CapSense_1_Processing.c ****                 if (CapSense_1_WD_PROXIMITY_E == CapSense_1_GET_WIDGET_TYPE(ptrFlashWdgt))
 963:Generated_Source\PSoC6/CapSense_1_Processing.c ****                 {
 964:Generated_Source\PSoC6/CapSense_1_Processing.c ****                     proximityThreshold = ((uint32)ptrRamWdgt->fingerTh * CapSense_1_PROX_TOUCH_COEF
 965:Generated_Source\PSoC6/CapSense_1_Processing.c ****                     if ((((1Lu) << CapSense_1_THRESHOLD_SIZE) - 1u) < proximityThreshold)
 966:Generated_Source\PSoC6/CapSense_1_Processing.c ****                     {
 967:Generated_Source\PSoC6/CapSense_1_Processing.c ****                         proximityThreshold = ((1Lu) << CapSense_1_THRESHOLD_SIZE) - 1u;
 968:Generated_Source\PSoC6/CapSense_1_Processing.c ****                     }
 969:Generated_Source\PSoC6/CapSense_1_Processing.c ****                     ((CapSense_1_RAM_WD_PROXIMITY_STRUCT *)ptrFlashWdgt->ptr2WdgtRam)->proxTouchTh 
 970:Generated_Source\PSoC6/CapSense_1_Processing.c ****                         (CapSense_1_THRESHOLD_TYPE)proximityThreshold;
 971:Generated_Source\PSoC6/CapSense_1_Processing.c ****                 }
 972:Generated_Source\PSoC6/CapSense_1_Processing.c ****             #endif /* (0 != CapSense_1_PROXIMITY_WIDGET_EN) */
 973:Generated_Source\PSoC6/CapSense_1_Processing.c ****         }
 974:Generated_Source\PSoC6/CapSense_1_Processing.c ****     #endif /* #if (0u != (CapSense_1_CSD_AUTOTUNE & CapSense_1_CSD_SS_TH_EN)) */
 975:Generated_Source\PSoC6/CapSense_1_Processing.c **** 
 976:Generated_Source\PSoC6/CapSense_1_Processing.c ****     if (0u != (mode & CapSense_1_PROCESS_BASELINE))
 977:Generated_Source\PSoC6/CapSense_1_Processing.c ****     {
 978:Generated_Source\PSoC6/CapSense_1_Processing.c ****         result = CapSense_1_FtUpdateBaseline(ptrRamWdgt, curSnsPtr, widgetType);
 979:Generated_Source\PSoC6/CapSense_1_Processing.c ****     }
 980:Generated_Source\PSoC6/CapSense_1_Processing.c **** 
 981:Generated_Source\PSoC6/CapSense_1_Processing.c ****     if (0u != (mode & CapSense_1_PROCESS_DIFFCOUNTS))
 982:Generated_Source\PSoC6/CapSense_1_Processing.c ****     {
 983:Generated_Source\PSoC6/CapSense_1_Processing.c ****         CapSense_1_DpUpdateDifferences(ptrRamWdgt, curSnsPtr);
 984:Generated_Source\PSoC6/CapSense_1_Processing.c ****     }
 985:Generated_Source\PSoC6/CapSense_1_Processing.c ****     return result;
 986:Generated_Source\PSoC6/CapSense_1_Processing.c **** }
 987:Generated_Source\PSoC6/CapSense_1_Processing.c **** 
 988:Generated_Source\PSoC6/CapSense_1_Processing.c **** /*******************************************************************************
 989:Generated_Source\PSoC6/CapSense_1_Processing.c **** * Function Name: CapSense_1_DpProcessCsdWidgetStatus
 990:Generated_Source\PSoC6/CapSense_1_Processing.c **** ****************************************************************************//**
 991:Generated_Source\PSoC6/CapSense_1_Processing.c **** *
 992:Generated_Source\PSoC6/CapSense_1_Processing.c **** * \brief
 993:Generated_Source\PSoC6/CapSense_1_Processing.c **** *  Runs the status processing of the CSD widget and updates it in the Data Structure.
 994:Generated_Source\PSoC6/CapSense_1_Processing.c **** *
 995:Generated_Source\PSoC6/CapSense_1_Processing.c **** * \details
 996:Generated_Source\PSoC6/CapSense_1_Processing.c **** *  This API determines the widget type and calls the appropriate low-level processing
 997:Generated_Source\PSoC6/CapSense_1_Processing.c **** *  function. Based on the returned results it updates the widget and sensor
 998:Generated_Source\PSoC6/CapSense_1_Processing.c **** *  status in the data structure. Any widget specific registers like the centroid
 999:Generated_Source\PSoC6/CapSense_1_Processing.c **** *  position are updated directly in the low-level processing function.
1000:Generated_Source\PSoC6/CapSense_1_Processing.c **** *
1001:Generated_Source\PSoC6/CapSense_1_Processing.c **** *  When the widget-specific processing completes this API updates the snsStatus
1002:Generated_Source\PSoC6/CapSense_1_Processing.c **** *  and wdgtStatus registers in the data structure. The wdgtStatus register
1003:Generated_Source\PSoC6/CapSense_1_Processing.c **** *  is a bitmask were each bit corresponds to the specific widget identified by
1004:Generated_Source\PSoC6/CapSense_1_Processing.c **** *  the widget index. When the bit is set the widget is active (touched);
1005:Generated_Source\PSoC6/CapSense_1_Processing.c **** *
1006:Generated_Source\PSoC6/CapSense_1_Processing.c **** *  The snsStatus register for CSD widgets contains status of each widget sensor
1007:Generated_Source\PSoC6/CapSense_1_Processing.c **** *  (active/non-active). Each bit corresponds to one sensor. In case of the
1008:Generated_Source\PSoC6/CapSense_1_Processing.c **** *  Proximity widget two bits are used per sensor: one for proximity status and
ARM GAS  C:\Users\Labeo\AppData\Local\Temp\cc644lUq.s 			page 21


1009:Generated_Source\PSoC6/CapSense_1_Processing.c **** *  second for the touch status.
1010:Generated_Source\PSoC6/CapSense_1_Processing.c **** *
1011:Generated_Source\PSoC6/CapSense_1_Processing.c **** * \param widgetId      The widget index number.
1012:Generated_Source\PSoC6/CapSense_1_Processing.c **** * \param ptrFlashWdgt  The pointer to the Flash widget structure.
1013:Generated_Source\PSoC6/CapSense_1_Processing.c **** *
1014:Generated_Source\PSoC6/CapSense_1_Processing.c **** *******************************************************************************/
1015:Generated_Source\PSoC6/CapSense_1_Processing.c **** void CapSense_1_DpProcessCsdWidgetStatus(uint32 widgetId, CapSense_1_FLASH_WD_STRUCT const *ptrFlas
1016:Generated_Source\PSoC6/CapSense_1_Processing.c **** {
1017:Generated_Source\PSoC6/CapSense_1_Processing.c ****     uint32 sensorStatus;
1018:Generated_Source\PSoC6/CapSense_1_Processing.c ****     uint32 wdStatusIndex;
1019:Generated_Source\PSoC6/CapSense_1_Processing.c ****     uint32 wdStatusMask;
1020:Generated_Source\PSoC6/CapSense_1_Processing.c ****     CapSense_1_WD_TYPE_ENUM widgetType;
1021:Generated_Source\PSoC6/CapSense_1_Processing.c **** 
1022:Generated_Source\PSoC6/CapSense_1_Processing.c ****     widgetType = (CapSense_1_WD_TYPE_ENUM)ptrFlashWdgt->wdgtType;
1023:Generated_Source\PSoC6/CapSense_1_Processing.c ****     sensorStatus = CapSense_1_dsRam.snsStatus[widgetId];
1024:Generated_Source\PSoC6/CapSense_1_Processing.c **** 
1025:Generated_Source\PSoC6/CapSense_1_Processing.c ****     switch (widgetType)
1026:Generated_Source\PSoC6/CapSense_1_Processing.c ****     {
1027:Generated_Source\PSoC6/CapSense_1_Processing.c ****     #if (0u != CapSense_1_BUTTON_WIDGET_EN)
1028:Generated_Source\PSoC6/CapSense_1_Processing.c ****         case CapSense_1_WD_BUTTON_E:
1029:Generated_Source\PSoC6/CapSense_1_Processing.c ****             sensorStatus = CapSense_1_DpProcessButton(sensorStatus, ptrFlashWdgt);
1030:Generated_Source\PSoC6/CapSense_1_Processing.c ****             break;
1031:Generated_Source\PSoC6/CapSense_1_Processing.c ****     #endif /* #if (0u != CapSense_1_BUTTON_WIDGET_EN) */
1032:Generated_Source\PSoC6/CapSense_1_Processing.c **** 
1033:Generated_Source\PSoC6/CapSense_1_Processing.c ****     #if (0u != CapSense_1_SLIDER_WIDGET_EN)
1034:Generated_Source\PSoC6/CapSense_1_Processing.c ****         case CapSense_1_WD_LINEAR_SLIDER_E:
1035:Generated_Source\PSoC6/CapSense_1_Processing.c ****         case CapSense_1_WD_RADIAL_SLIDER_E:
1036:Generated_Source\PSoC6/CapSense_1_Processing.c ****             sensorStatus = CapSense_1_DpProcessSlider(sensorStatus, ptrFlashWdgt);
1037:Generated_Source\PSoC6/CapSense_1_Processing.c ****             break;
1038:Generated_Source\PSoC6/CapSense_1_Processing.c ****     #endif /* #if (0u != CapSense_1_SLIDER_WIDGET_EN) */
1039:Generated_Source\PSoC6/CapSense_1_Processing.c **** 
1040:Generated_Source\PSoC6/CapSense_1_Processing.c ****     #if (0u != CapSense_1_CSD_MATRIX_WIDGET_EN)
1041:Generated_Source\PSoC6/CapSense_1_Processing.c ****         case CapSense_1_WD_MATRIX_BUTTON_E:
1042:Generated_Source\PSoC6/CapSense_1_Processing.c ****             sensorStatus = CapSense_1_DpProcessCsdMatrix(sensorStatus, ptrFlashWdgt);
1043:Generated_Source\PSoC6/CapSense_1_Processing.c ****             break;
1044:Generated_Source\PSoC6/CapSense_1_Processing.c ****     #endif /* #if (0u != CapSense_1_CSD_MATRIX_WIDGET_EN) */
1045:Generated_Source\PSoC6/CapSense_1_Processing.c **** 
1046:Generated_Source\PSoC6/CapSense_1_Processing.c ****     #if (0u != CapSense_1_CSD_TOUCHPAD_WIDGET_EN)
1047:Generated_Source\PSoC6/CapSense_1_Processing.c ****         case CapSense_1_WD_TOUCHPAD_E:
1048:Generated_Source\PSoC6/CapSense_1_Processing.c ****             sensorStatus = CapSense_1_DpProcessCsdTouchpad(sensorStatus, ptrFlashWdgt);
1049:Generated_Source\PSoC6/CapSense_1_Processing.c ****             #if (0u != CapSense_1_BALLISTIC_MULTIPLIER_EN)
1050:Generated_Source\PSoC6/CapSense_1_Processing.c ****                 CapSense_1_RunBallisticMultiplier(widgetId);
1051:Generated_Source\PSoC6/CapSense_1_Processing.c ****             #endif /* (0u != CapSense_1_BALLISTIC_MULTIPLIER_EN) */
1052:Generated_Source\PSoC6/CapSense_1_Processing.c ****             break;
1053:Generated_Source\PSoC6/CapSense_1_Processing.c ****     #endif /* #if (0u != CapSense_1_CSD_TOUCHPAD_WIDGET_EN) */
1054:Generated_Source\PSoC6/CapSense_1_Processing.c **** 
1055:Generated_Source\PSoC6/CapSense_1_Processing.c ****     #if (0u != CapSense_1_PROXIMITY_WIDGET_EN)
1056:Generated_Source\PSoC6/CapSense_1_Processing.c ****         case CapSense_1_WD_PROXIMITY_E:
1057:Generated_Source\PSoC6/CapSense_1_Processing.c ****             sensorStatus = CapSense_1_DpProcessProximity(sensorStatus, ptrFlashWdgt);
1058:Generated_Source\PSoC6/CapSense_1_Processing.c ****             break;
1059:Generated_Source\PSoC6/CapSense_1_Processing.c ****     #endif /* #if (0u != CapSense_1_PROXIMITY_WIDGET_EN) */
1060:Generated_Source\PSoC6/CapSense_1_Processing.c **** 
1061:Generated_Source\PSoC6/CapSense_1_Processing.c ****     default:
1062:Generated_Source\PSoC6/CapSense_1_Processing.c ****         CY_ASSERT(0 != 0);
1063:Generated_Source\PSoC6/CapSense_1_Processing.c ****         break;
1064:Generated_Source\PSoC6/CapSense_1_Processing.c ****     }
1065:Generated_Source\PSoC6/CapSense_1_Processing.c **** 
ARM GAS  C:\Users\Labeo\AppData\Local\Temp\cc644lUq.s 			page 22


1066:Generated_Source\PSoC6/CapSense_1_Processing.c ****     CapSense_1_dsRam.snsStatus[widgetId] = (CapSense_1_SNS_STS_TYPE)sensorStatus;
1067:Generated_Source\PSoC6/CapSense_1_Processing.c **** 
1068:Generated_Source\PSoC6/CapSense_1_Processing.c ****     /* The next two lines calculate index and bitmask of the widget status bit in the wdgtStatus ar
1069:Generated_Source\PSoC6/CapSense_1_Processing.c ****     wdStatusIndex = CapSense_1_GET_WDGT_STATUS_INDEX(widgetId);
1070:Generated_Source\PSoC6/CapSense_1_Processing.c ****     wdStatusMask = CapSense_1_GET_WDGT_STATUS_MASK(widgetId);
1071:Generated_Source\PSoC6/CapSense_1_Processing.c **** 
1072:Generated_Source\PSoC6/CapSense_1_Processing.c ****     /* Check if there are active sensors and update widget status accordingly */
1073:Generated_Source\PSoC6/CapSense_1_Processing.c ****     if (0u == sensorStatus)
1074:Generated_Source\PSoC6/CapSense_1_Processing.c ****     {
1075:Generated_Source\PSoC6/CapSense_1_Processing.c ****         CapSense_1_dsRam.wdgtStatus[wdStatusIndex] &= ~wdStatusMask;
1076:Generated_Source\PSoC6/CapSense_1_Processing.c ****     }
1077:Generated_Source\PSoC6/CapSense_1_Processing.c ****     else
1078:Generated_Source\PSoC6/CapSense_1_Processing.c ****     {
1079:Generated_Source\PSoC6/CapSense_1_Processing.c ****         CapSense_1_dsRam.wdgtStatus[wdStatusIndex] |= wdStatusMask;
1080:Generated_Source\PSoC6/CapSense_1_Processing.c ****     }
1081:Generated_Source\PSoC6/CapSense_1_Processing.c **** }
1082:Generated_Source\PSoC6/CapSense_1_Processing.c **** #endif /* #if (0u != CapSense_1_TOTAL_CSD_WIDGETS) */
1083:Generated_Source\PSoC6/CapSense_1_Processing.c **** 
1084:Generated_Source\PSoC6/CapSense_1_Processing.c **** 
1085:Generated_Source\PSoC6/CapSense_1_Processing.c **** #if (0 != (CapSense_1_CSD_AUTOTUNE & CapSense_1_CSD_SS_TH_EN))
1086:Generated_Source\PSoC6/CapSense_1_Processing.c **** /*******************************************************************************
1087:Generated_Source\PSoC6/CapSense_1_Processing.c **** * Function Name: CapSense_1_DpUpdateThresholds
1088:Generated_Source\PSoC6/CapSense_1_Processing.c **** ****************************************************************************//**
1089:Generated_Source\PSoC6/CapSense_1_Processing.c **** *
1090:Generated_Source\PSoC6/CapSense_1_Processing.c **** * \brief
1091:Generated_Source\PSoC6/CapSense_1_Processing.c **** *   Updates noise and finger thresholds for a specified widget.
1092:Generated_Source\PSoC6/CapSense_1_Processing.c **** *
1093:Generated_Source\PSoC6/CapSense_1_Processing.c **** * \details
1094:Generated_Source\PSoC6/CapSense_1_Processing.c **** *   Updates noise and finger thresholds for a specified widget.
1095:Generated_Source\PSoC6/CapSense_1_Processing.c **** *   This algorithm is a part of Auto-tuning feature.
1096:Generated_Source\PSoC6/CapSense_1_Processing.c **** *
1097:Generated_Source\PSoC6/CapSense_1_Processing.c **** * \param ptrRamWdgt       The pointer to the RAM widget object.
1098:Generated_Source\PSoC6/CapSense_1_Processing.c **** * \param ptrNoiseEnvelope The pointer to the noise-envelope object in RAM.
1099:Generated_Source\PSoC6/CapSense_1_Processing.c **** * \param startFlag        The flag indicates when new widget is processed.
1100:Generated_Source\PSoC6/CapSense_1_Processing.c **** *
1101:Generated_Source\PSoC6/CapSense_1_Processing.c **** *******************************************************************************/
1102:Generated_Source\PSoC6/CapSense_1_Processing.c **** void CapSense_1_DpUpdateThresholds(CapSense_1_RAM_WD_BASE_STRUCT *ptrRamWdgt,
1103:Generated_Source\PSoC6/CapSense_1_Processing.c ****                                          SMARTSENSE_CSD_NOISE_ENVELOPE_STRUCT *ptrNoiseEnvelope,
1104:Generated_Source\PSoC6/CapSense_1_Processing.c ****                                          uint32 startFlag)
1105:Generated_Source\PSoC6/CapSense_1_Processing.c **** {
 128              		.loc 1 1105 0
 129              		.cfi_startproc
 130              		@ args = 0, pretend = 0, frame = 8
 131              		@ frame_needed = 0, uses_anonymous_args = 0
 132              	.LVL14:
 133 0000 10B5     		push	{r4, lr}
 134              		.cfi_def_cfa_offset 8
 135              		.cfi_offset 4, -8
 136              		.cfi_offset 14, -4
 137 0002 82B0     		sub	sp, sp, #8
 138              		.cfi_def_cfa_offset 16
 139 0004 0400     		movs	r4, r0
 140 0006 0800     		movs	r0, r1
 141              	.LVL15:
 142 0008 1300     		movs	r3, r2
 143              	.LVL16:
1106:Generated_Source\PSoC6/CapSense_1_Processing.c ****     SMARTSENSE_UPDATE_THRESHOLDS_STRUCT thresholds;
ARM GAS  C:\Users\Labeo\AppData\Local\Temp\cc644lUq.s 			page 23


1107:Generated_Source\PSoC6/CapSense_1_Processing.c ****     SMARTSENSE_UPDATE_THRESHOLDS_STRUCT *ptrThresholds = &thresholds;
1108:Generated_Source\PSoC6/CapSense_1_Processing.c ****     ptrThresholds->fingerTh = ptrRamWdgt->fingerTh;
 144              		.loc 1 1108 0
 145 000a 6288     		ldrh	r2, [r4, #2]
 146              	.LVL17:
 147 000c 6946     		mov	r1, sp
 148              	.LVL18:
 149 000e 0A80     		strh	r2, [r1]
1109:Generated_Source\PSoC6/CapSense_1_Processing.c **** 
1110:Generated_Source\PSoC6/CapSense_1_Processing.c ****     SmartSense_UpdateThresholds(ptrNoiseEnvelope, ptrThresholds, ptrRamWdgt->sigPFC, startFlag);
 150              		.loc 1 1110 0
 151 0010 228A     		ldrh	r2, [r4, #16]
 152 0012 FFF7FEFF 		bl	SmartSense_UpdateThresholds
 153              	.LVL19:
1111:Generated_Source\PSoC6/CapSense_1_Processing.c **** 
1112:Generated_Source\PSoC6/CapSense_1_Processing.c ****     ptrRamWdgt->fingerTh = ptrThresholds->fingerTh;
 154              		.loc 1 1112 0
 155 0016 6B46     		mov	r3, sp
 156 0018 1B88     		ldrh	r3, [r3]
 157 001a 6380     		strh	r3, [r4, #2]
1113:Generated_Source\PSoC6/CapSense_1_Processing.c ****     ptrRamWdgt->noiseTh = ptrThresholds->noiseTh;
 158              		.loc 1 1113 0
 159 001c 6B46     		mov	r3, sp
 160 001e 9B78     		ldrb	r3, [r3, #2]
 161 0020 2371     		strb	r3, [r4, #4]
1114:Generated_Source\PSoC6/CapSense_1_Processing.c ****     ptrRamWdgt->nNoiseTh = ptrThresholds->nNoiseTh;
 162              		.loc 1 1114 0
 163 0022 6B46     		mov	r3, sp
 164 0024 DB78     		ldrb	r3, [r3, #3]
 165 0026 6371     		strb	r3, [r4, #5]
1115:Generated_Source\PSoC6/CapSense_1_Processing.c ****     ptrRamWdgt->hysteresis = ptrThresholds->hysteresis;
 166              		.loc 1 1115 0
 167 0028 6B46     		mov	r3, sp
 168 002a 1B79     		ldrb	r3, [r3, #4]
 169 002c A371     		strb	r3, [r4, #6]
1116:Generated_Source\PSoC6/CapSense_1_Processing.c **** }
 170              		.loc 1 1116 0
 171 002e 02B0     		add	sp, sp, #8
 172              	.LVL20:
 173              		@ sp needed
 174              	.LVL21:
 175 0030 10BD     		pop	{r4, pc}
 176              		.cfi_endproc
 177              	.LFE49:
 178              		.size	CapSense_1_DpUpdateThresholds, .-CapSense_1_DpUpdateThresholds
 179 0032 C046     		.section	.text.CapSense_1_DpUpdateDifferences,"ax",%progbits
 180              		.align	2
 181              		.global	CapSense_1_DpUpdateDifferences
 182              		.code	16
 183              		.thumb_func
 184              		.type	CapSense_1_DpUpdateDifferences, %function
 185              	CapSense_1_DpUpdateDifferences:
 186              	.LFB50:
1117:Generated_Source\PSoC6/CapSense_1_Processing.c **** #endif /* #if (0u != (CapSense_1_CSD_AUTOTUNE & CapSense_1_CSD_SS_TH_EN)) */
1118:Generated_Source\PSoC6/CapSense_1_Processing.c **** 
1119:Generated_Source\PSoC6/CapSense_1_Processing.c **** 
1120:Generated_Source\PSoC6/CapSense_1_Processing.c **** /*******************************************************************************
ARM GAS  C:\Users\Labeo\AppData\Local\Temp\cc644lUq.s 			page 24


1121:Generated_Source\PSoC6/CapSense_1_Processing.c **** * Function Name: CapSense_1_DpUpdateDifferences
1122:Generated_Source\PSoC6/CapSense_1_Processing.c **** ****************************************************************************//**
1123:Generated_Source\PSoC6/CapSense_1_Processing.c **** *
1124:Generated_Source\PSoC6/CapSense_1_Processing.c **** * \brief
1125:Generated_Source\PSoC6/CapSense_1_Processing.c **** *   Calculates new difference values.
1126:Generated_Source\PSoC6/CapSense_1_Processing.c **** *   Also, executes the multi-frequency scan algorithm if it is enabled.
1127:Generated_Source\PSoC6/CapSense_1_Processing.c **** *
1128:Generated_Source\PSoC6/CapSense_1_Processing.c **** * \details
1129:Generated_Source\PSoC6/CapSense_1_Processing.c **** *   This API calculates the difference between the baseline and raw counts.
1130:Generated_Source\PSoC6/CapSense_1_Processing.c **** *   If the difference is positive (raw > baseline), and higher than the widget
1131:Generated_Source\PSoC6/CapSense_1_Processing.c **** *   noise threshold, it is saved into the data structure for further processing.
1132:Generated_Source\PSoC6/CapSense_1_Processing.c **** *   Otherwise the difference is set to zero. The final difference value is saved
1133:Generated_Source\PSoC6/CapSense_1_Processing.c **** *   with the subtracted noise threshold value.
1134:Generated_Source\PSoC6/CapSense_1_Processing.c **** *
1135:Generated_Source\PSoC6/CapSense_1_Processing.c **** *   If the multi-frequency scan algorithm is enabled, the difference is calculated
1136:Generated_Source\PSoC6/CapSense_1_Processing.c **** *   for the three sets of data available for each sensor. Then
1137:Generated_Source\PSoC6/CapSense_1_Processing.c **** *   the median filter selects the final difference value.
1138:Generated_Source\PSoC6/CapSense_1_Processing.c **** *
1139:Generated_Source\PSoC6/CapSense_1_Processing.c **** * \param ptrRamWdgt The pointer to the RAR Widget Object.
1140:Generated_Source\PSoC6/CapSense_1_Processing.c **** * \param curSnsPtr  The pointer to the sensor object in RAM.
1141:Generated_Source\PSoC6/CapSense_1_Processing.c **** *
1142:Generated_Source\PSoC6/CapSense_1_Processing.c **** *******************************************************************************/
1143:Generated_Source\PSoC6/CapSense_1_Processing.c **** void CapSense_1_DpUpdateDifferences(
1144:Generated_Source\PSoC6/CapSense_1_Processing.c ****                         CapSense_1_RAM_WD_BASE_STRUCT *ptrRamWdgt,
1145:Generated_Source\PSoC6/CapSense_1_Processing.c ****                         CapSense_1_RAM_SNS_STRUCT *curSnsPtr)
1146:Generated_Source\PSoC6/CapSense_1_Processing.c **** {
 187              		.loc 1 1146 0
 188              		.cfi_startproc
 189              		@ args = 0, pretend = 0, frame = 0
 190              		@ frame_needed = 0, uses_anonymous_args = 0
 191              	.LVL22:
 192 0000 30B5     		push	{r4, r5, lr}
 193              		.cfi_def_cfa_offset 12
 194              		.cfi_offset 4, -12
 195              		.cfi_offset 5, -8
 196              		.cfi_offset 14, -4
 197              	.LVL23:
1147:Generated_Source\PSoC6/CapSense_1_Processing.c ****     register int32 diffValue = 0;
1148:Generated_Source\PSoC6/CapSense_1_Processing.c **** 
1149:Generated_Source\PSoC6/CapSense_1_Processing.c ****     #if (0u != CapSense_1_MULTI_FREQ_SCAN_EN)
1150:Generated_Source\PSoC6/CapSense_1_Processing.c ****         register int32 diffValue_0 = 0;
1151:Generated_Source\PSoC6/CapSense_1_Processing.c ****         register int32 diffValue_2 = 0;
1152:Generated_Source\PSoC6/CapSense_1_Processing.c ****     #endif /* #if (0u != CapSense_1_MULTI_FREQ_SCAN_EN) */
1153:Generated_Source\PSoC6/CapSense_1_Processing.c **** 
1154:Generated_Source\PSoC6/CapSense_1_Processing.c ****     /* Calculate difference */
1155:Generated_Source\PSoC6/CapSense_1_Processing.c ****     diffValue = (int32)curSnsPtr->raw[0u] - (int32)curSnsPtr->bsln[0u];
 198              		.loc 1 1155 0
 199 0002 0B88     		ldrh	r3, [r1]
 200 0004 4A88     		ldrh	r2, [r1, #2]
 201 0006 9C1A     		subs	r4, r3, r2
 202              	.LVL24:
1156:Generated_Source\PSoC6/CapSense_1_Processing.c **** 
1157:Generated_Source\PSoC6/CapSense_1_Processing.c ****     #if (0u != CapSense_1_MULTI_FREQ_SCAN_EN)
1158:Generated_Source\PSoC6/CapSense_1_Processing.c ****         diffValue_0 = (int32)curSnsPtr->raw[1u] - (int32)curSnsPtr->bsln[1u];
1159:Generated_Source\PSoC6/CapSense_1_Processing.c ****         diffValue_2 = (int32)curSnsPtr->raw[2u] - (int32)curSnsPtr->bsln[2u];
1160:Generated_Source\PSoC6/CapSense_1_Processing.c **** 
1161:Generated_Source\PSoC6/CapSense_1_Processing.c ****         /* Find median and put it into [0u] element */
ARM GAS  C:\Users\Labeo\AppData\Local\Temp\cc644lUq.s 			page 25


1162:Generated_Source\PSoC6/CapSense_1_Processing.c ****         if (diffValue_0 > diffValue)
1163:Generated_Source\PSoC6/CapSense_1_Processing.c ****         {
1164:Generated_Source\PSoC6/CapSense_1_Processing.c ****             register int32 swapv = diffValue_0;
1165:Generated_Source\PSoC6/CapSense_1_Processing.c ****             diffValue_0 = diffValue;
1166:Generated_Source\PSoC6/CapSense_1_Processing.c ****             diffValue = swapv;
1167:Generated_Source\PSoC6/CapSense_1_Processing.c ****         }
1168:Generated_Source\PSoC6/CapSense_1_Processing.c **** 
1169:Generated_Source\PSoC6/CapSense_1_Processing.c ****         if (diffValue > diffValue_2)
1170:Generated_Source\PSoC6/CapSense_1_Processing.c ****         {
1171:Generated_Source\PSoC6/CapSense_1_Processing.c ****             register int32 swapv = diffValue;
1172:Generated_Source\PSoC6/CapSense_1_Processing.c ****             diffValue = diffValue_2;
1173:Generated_Source\PSoC6/CapSense_1_Processing.c ****             diffValue_2 = swapv;
1174:Generated_Source\PSoC6/CapSense_1_Processing.c ****         }
1175:Generated_Source\PSoC6/CapSense_1_Processing.c **** 
1176:Generated_Source\PSoC6/CapSense_1_Processing.c ****         if (diffValue_0 > diffValue)
1177:Generated_Source\PSoC6/CapSense_1_Processing.c ****         {
1178:Generated_Source\PSoC6/CapSense_1_Processing.c ****             register int32 swapv = diffValue_0;
1179:Generated_Source\PSoC6/CapSense_1_Processing.c ****             diffValue_0 = diffValue;
1180:Generated_Source\PSoC6/CapSense_1_Processing.c ****             diffValue = swapv;
1181:Generated_Source\PSoC6/CapSense_1_Processing.c ****         }
1182:Generated_Source\PSoC6/CapSense_1_Processing.c ****     #endif /* #if (0u != CapSense_1_MULTI_FREQ_SCAN_EN) */
1183:Generated_Source\PSoC6/CapSense_1_Processing.c **** 
1184:Generated_Source\PSoC6/CapSense_1_Processing.c ****     curSnsPtr->diff = 0u;
 203              		.loc 1 1184 0
 204 0008 0025     		movs	r5, #0
 205 000a CD80     		strh	r5, [r1, #6]
1185:Generated_Source\PSoC6/CapSense_1_Processing.c **** 
1186:Generated_Source\PSoC6/CapSense_1_Processing.c ****     if (diffValue > (int32)ptrRamWdgt->noiseTh)
 206              		.loc 1 1186 0
 207 000c 0079     		ldrb	r0, [r0, #4]
 208              	.LVL25:
 209 000e 8442     		cmp	r4, r0
 210 0010 00DD     		ble	.L11
1187:Generated_Source\PSoC6/CapSense_1_Processing.c ****     {
1188:Generated_Source\PSoC6/CapSense_1_Processing.c ****         curSnsPtr->diff = (CapSense_1_THRESHOLD_TYPE) diffValue;
 211              		.loc 1 1188 0
 212 0012 CC80     		strh	r4, [r1, #6]
 213              	.L11:
1189:Generated_Source\PSoC6/CapSense_1_Processing.c ****     }
1190:Generated_Source\PSoC6/CapSense_1_Processing.c **** }
 214              		.loc 1 1190 0
 215              		@ sp needed
 216              	.LVL26:
 217 0014 30BD     		pop	{r4, r5, pc}
 218              		.cfi_endproc
 219              	.LFE50:
 220              		.size	CapSense_1_DpUpdateDifferences, .-CapSense_1_DpUpdateDifferences
 221 0016 C046     		.section	.text.CapSense_1_DpProcessCsdWidgetRawCounts,"ax",%progbits
 222              		.align	2
 223              		.global	CapSense_1_DpProcessCsdWidgetRawCounts
 224              		.code	16
 225              		.thumb_func
 226              		.type	CapSense_1_DpProcessCsdWidgetRawCounts, %function
 227              	CapSense_1_DpProcessCsdWidgetRawCounts:
 228              	.LFB46:
 786:Generated_Source\PSoC6/CapSense_1_Processing.c ****     uint32  result = CY_RET_SUCCESS;
 229              		.loc 1 786 0
ARM GAS  C:\Users\Labeo\AppData\Local\Temp\cc644lUq.s 			page 26


 230              		.cfi_startproc
 231              		@ args = 0, pretend = 0, frame = 8
 232              		@ frame_needed = 0, uses_anonymous_args = 0
 233              	.LVL27:
 234 0000 F0B5     		push	{r4, r5, r6, r7, lr}
 235              		.cfi_def_cfa_offset 20
 236              		.cfi_offset 4, -20
 237              		.cfi_offset 5, -16
 238              		.cfi_offset 6, -12
 239              		.cfi_offset 7, -8
 240              		.cfi_offset 14, -4
 241 0002 5746     		mov	r7, r10
 242 0004 80B4     		push	{r7}
 243              		.cfi_def_cfa_offset 24
 244              		.cfi_offset 10, -24
 245 0006 82B0     		sub	sp, sp, #8
 246              		.cfi_def_cfa_offset 32
 247 0008 8246     		mov	r10, r0
 248              	.LVL28:
 816:Generated_Source\PSoC6/CapSense_1_Processing.c ****     ptrRamWdgt = (CapSense_1_RAM_WD_BASE_STRUCT *)ptrFlashWdgt->ptr2WdgtRam;
 249              		.loc 1 816 0
 250 000a 8468     		ldr	r4, [r0, #8]
 251              	.LVL29:
 817:Generated_Source\PSoC6/CapSense_1_Processing.c ****     widgetType = ptrFlashWdgt->wdgtType;
 252              		.loc 1 817 0
 253 000c 4568     		ldr	r5, [r0, #4]
 254              	.LVL30:
 818:Generated_Source\PSoC6/CapSense_1_Processing.c **** 
 255              		.loc 1 818 0
 256 000e 837E     		ldrb	r3, [r0, #26]
 257 0010 0193     		str	r3, [sp, #4]
 258              	.LVL31:
 821:Generated_Source\PSoC6/CapSense_1_Processing.c ****     #endif /* #if (0u != (CapSense_1_CSD_AUTOTUNE & CapSense_1_CSD_SS_TH_EN)) */
 259              		.loc 1 821 0
 260 0012 C769     		ldr	r7, [r0, #28]
 261              	.LVL32:
 825:Generated_Source\PSoC6/CapSense_1_Processing.c ****     {
 262              		.loc 1 825 0
 263 0014 0026     		movs	r6, #0
 787:Generated_Source\PSoC6/CapSense_1_Processing.c **** 
 264              		.loc 1 787 0
 265 0016 0023     		movs	r3, #0
 266              	.LVL33:
 267 0018 0093     		str	r3, [sp]
 825:Generated_Source\PSoC6/CapSense_1_Processing.c ****     {
 268              		.loc 1 825 0
 269 001a 16E0     		b	.L14
 270              	.LVL34:
 271              	.L15:
 837:Generated_Source\PSoC6/CapSense_1_Processing.c ****             CapSense_1_DpUpdateThresholds(ptrRamWdgt, ptrNoiseEnvelope, snsId);
 272              		.loc 1 837 0 discriminator 3
 273 001c 298A     		ldrh	r1, [r5, #16]
 274 001e 2088     		ldrh	r0, [r4]
 275 0020 3A00     		movs	r2, r7
 276 0022 FFF7FEFF 		bl	SmartSense_RunNoiseEnvelope
 277              	.LVL35:
 838:Generated_Source\PSoC6/CapSense_1_Processing.c **** 
ARM GAS  C:\Users\Labeo\AppData\Local\Temp\cc644lUq.s 			page 27


 278              		.loc 1 838 0 discriminator 3
 279 0026 3200     		movs	r2, r6
 280 0028 3900     		movs	r1, r7
 281 002a 2800     		movs	r0, r5
 282 002c FFF7FEFF 		bl	CapSense_1_DpUpdateThresholds
 283              	.LVL36:
 855:Generated_Source\PSoC6/CapSense_1_Processing.c ****         #endif /* (0u != (CapSense_1_CSD_AUTOTUNE & CapSense_1_CSD_SS_TH_EN)) */
 284              		.loc 1 855 0 discriminator 3
 285 0030 0C37     		adds	r7, r7, #12
 286              	.LVL37:
 865:Generated_Source\PSoC6/CapSense_1_Processing.c ****         #endif /* (CapSense_1_ENABLE == CapSense_1_TST_BSLN_DUPLICATION_EN) */
 287              		.loc 1 865 0 discriminator 3
 288 0032 019A     		ldr	r2, [sp, #4]
 289 0034 2100     		movs	r1, r4
 290 0036 2800     		movs	r0, r5
 291 0038 FFF7FEFF 		bl	CapSense_1_FtUpdateBaseline
 292              	.LVL38:
 293 003c 0090     		str	r0, [sp]
 294              	.LVL39:
 868:Generated_Source\PSoC6/CapSense_1_Processing.c **** 
 295              		.loc 1 868 0 discriminator 3
 296 003e 2100     		movs	r1, r4
 297 0040 2800     		movs	r0, r5
 298              	.LVL40:
 299 0042 FFF7FEFF 		bl	CapSense_1_DpUpdateDifferences
 300              	.LVL41:
 871:Generated_Source\PSoC6/CapSense_1_Processing.c **** 
 301              		.loc 1 871 0 discriminator 3
 302 0046 0A34     		adds	r4, r4, #10
 303              	.LVL42:
 825:Generated_Source\PSoC6/CapSense_1_Processing.c ****     {
 304              		.loc 1 825 0 discriminator 3
 305 0048 0136     		adds	r6, r6, #1
 306              	.LVL43:
 307              	.L14:
 825:Generated_Source\PSoC6/CapSense_1_Processing.c ****     {
 308              		.loc 1 825 0 is_stmt 0 discriminator 1
 309 004a 5346     		mov	r3, r10
 310 004c 1B8B     		ldrh	r3, [r3, #24]
 311 004e 9E42     		cmp	r6, r3
 312 0050 E4D3     		bcc	.L15
 879:Generated_Source\PSoC6/CapSense_1_Processing.c **** 
 313              		.loc 1 879 0 is_stmt 1
 314 0052 0098     		ldr	r0, [sp]
 315 0054 02B0     		add	sp, sp, #8
 316              	.LVL44:
 317              		@ sp needed
 318              	.LVL45:
 319              	.LVL46:
 320              	.LVL47:
 321              	.LVL48:
 322              	.LVL49:
 323 0056 04BC     		pop	{r2}
 324 0058 9246     		mov	r10, r2
 325 005a F0BD     		pop	{r4, r5, r6, r7, pc}
 326              		.cfi_endproc
 327              	.LFE46:
ARM GAS  C:\Users\Labeo\AppData\Local\Temp\cc644lUq.s 			page 28


 328              		.size	CapSense_1_DpProcessCsdWidgetRawCounts, .-CapSense_1_DpProcessCsdWidgetRawCounts
 329              		.section	.text.CapSense_1_DpProcessCsdSensorRawCountsExt,"ax",%progbits
 330              		.align	2
 331              		.global	CapSense_1_DpProcessCsdSensorRawCountsExt
 332              		.code	16
 333              		.thumb_func
 334              		.type	CapSense_1_DpProcessCsdSensorRawCountsExt, %function
 335              	CapSense_1_DpProcessCsdSensorRawCountsExt:
 336              	.LFB47:
 920:Generated_Source\PSoC6/CapSense_1_Processing.c ****     uint32 result = CY_RET_SUCCESS;
 337              		.loc 1 920 0
 338              		.cfi_startproc
 339              		@ args = 0, pretend = 0, frame = 8
 340              		@ frame_needed = 0, uses_anonymous_args = 0
 341              	.LVL50:
 342 0000 F0B5     		push	{r4, r5, r6, r7, lr}
 343              		.cfi_def_cfa_offset 20
 344              		.cfi_offset 4, -20
 345              		.cfi_offset 5, -16
 346              		.cfi_offset 6, -12
 347              		.cfi_offset 7, -8
 348              		.cfi_offset 14, -4
 349 0002 83B0     		sub	sp, sp, #12
 350              		.cfi_def_cfa_offset 32
 351 0004 0191     		str	r1, [sp, #4]
 352 0006 1C00     		movs	r4, r3
 353              	.LVL51:
 932:Generated_Source\PSoC6/CapSense_1_Processing.c ****     #endif /* (0u != (CapSense_1_CSD_AUTOTUNE & CapSense_1_CSD_SS_TH_EN)) */
 354              		.loc 1 932 0
 355 0008 C769     		ldr	r7, [r0, #28]
 356              	.LVL52:
 935:Generated_Source\PSoC6/CapSense_1_Processing.c ****     ptrRamWdgt = (CapSense_1_RAM_WD_BASE_STRUCT *)ptrFlashWdgt->ptr2WdgtRam;
 357              		.loc 1 935 0
 358 000a 867E     		ldrb	r6, [r0, #26]
 359              	.LVL53:
 936:Generated_Source\PSoC6/CapSense_1_Processing.c **** 
 360              		.loc 1 936 0
 361 000c 4568     		ldr	r5, [r0, #4]
 362              	.LVL54:
 951:Generated_Source\PSoC6/CapSense_1_Processing.c ****         {
 363              		.loc 1 951 0
 364 000e 2307     		lsls	r3, r4, #28
 365 0010 05D5     		bpl	.L17
 366              	.LVL55:
 953:Generated_Source\PSoC6/CapSense_1_Processing.c ****         }
 367              		.loc 1 953 0
 368 0012 298A     		ldrh	r1, [r5, #16]
 369              	.LVL56:
 370 0014 019B     		ldr	r3, [sp, #4]
 371 0016 1888     		ldrh	r0, [r3]
 372              	.LVL57:
 373 0018 3A00     		movs	r2, r7
 374              	.LVL58:
 375 001a FFF7FEFF 		bl	SmartSense_RunNoiseEnvelope
 376              	.LVL59:
 377              	.L17:
 956:Generated_Source\PSoC6/CapSense_1_Processing.c ****         {
ARM GAS  C:\Users\Labeo\AppData\Local\Temp\cc644lUq.s 			page 29


 378              		.loc 1 956 0
 379 001e E306     		lsls	r3, r4, #27
 380 0020 04D5     		bpl	.L18
 958:Generated_Source\PSoC6/CapSense_1_Processing.c **** 
 381              		.loc 1 958 0
 382 0022 0022     		movs	r2, #0
 383              	.LVL60:
 384 0024 3900     		movs	r1, r7
 385 0026 2800     		movs	r0, r5
 386 0028 FFF7FEFF 		bl	CapSense_1_DpUpdateThresholds
 387              	.LVL61:
 388              	.L18:
 976:Generated_Source\PSoC6/CapSense_1_Processing.c ****     {
 389              		.loc 1 976 0
 390 002c A307     		lsls	r3, r4, #30
 391 002e 06D5     		bpl	.L21
 978:Generated_Source\PSoC6/CapSense_1_Processing.c ****     }
 392              		.loc 1 978 0
 393 0030 3200     		movs	r2, r6
 394              	.LVL62:
 395 0032 0199     		ldr	r1, [sp, #4]
 396 0034 2800     		movs	r0, r5
 397 0036 FFF7FEFF 		bl	CapSense_1_FtUpdateBaseline
 398              	.LVL63:
 399 003a 0700     		movs	r7, r0
 400              	.LVL64:
 401 003c 00E0     		b	.L19
 402              	.LVL65:
 403              	.L21:
 921:Generated_Source\PSoC6/CapSense_1_Processing.c ****     uint32  widgetType;
 404              		.loc 1 921 0
 405 003e 0027     		movs	r7, #0
 406              	.LVL66:
 407              	.L19:
 981:Generated_Source\PSoC6/CapSense_1_Processing.c ****     {
 408              		.loc 1 981 0
 409 0040 6307     		lsls	r3, r4, #29
 410 0042 03D5     		bpl	.L20
 983:Generated_Source\PSoC6/CapSense_1_Processing.c ****     }
 411              		.loc 1 983 0
 412 0044 0199     		ldr	r1, [sp, #4]
 413 0046 2800     		movs	r0, r5
 414 0048 FFF7FEFF 		bl	CapSense_1_DpUpdateDifferences
 415              	.LVL67:
 416              	.L20:
 986:Generated_Source\PSoC6/CapSense_1_Processing.c **** 
 417              		.loc 1 986 0
 418 004c 3800     		movs	r0, r7
 419 004e 03B0     		add	sp, sp, #12
 420              		@ sp needed
 421              	.LVL68:
 422              	.LVL69:
 423              	.LVL70:
 424              	.LVL71:
 425 0050 F0BD     		pop	{r4, r5, r6, r7, pc}
 426              		.cfi_endproc
 427              	.LFE47:
ARM GAS  C:\Users\Labeo\AppData\Local\Temp\cc644lUq.s 			page 30


 428              		.size	CapSense_1_DpProcessCsdSensorRawCountsExt, .-CapSense_1_DpProcessCsdSensorRawCountsExt
 429 0052 C046     		.section	.text.CapSense_1_DpProcessButton,"ax",%progbits
 430              		.align	2
 431              		.global	CapSense_1_DpProcessButton
 432              		.code	16
 433              		.thumb_func
 434              		.type	CapSense_1_DpProcessButton, %function
 435              	CapSense_1_DpProcessButton:
 436              	.LFB51:
1191:Generated_Source\PSoC6/CapSense_1_Processing.c **** 
1192:Generated_Source\PSoC6/CapSense_1_Processing.c **** 
1193:Generated_Source\PSoC6/CapSense_1_Processing.c **** #if ((0u != CapSense_1_BUTTON_WIDGET_EN) || (0u != CapSense_1_CSX_MATRIX_WIDGET_EN))
1194:Generated_Source\PSoC6/CapSense_1_Processing.c **** /*******************************************************************************
1195:Generated_Source\PSoC6/CapSense_1_Processing.c **** * Function Name: CapSense_1_DpProcessButton
1196:Generated_Source\PSoC6/CapSense_1_Processing.c **** ****************************************************************************//**
1197:Generated_Source\PSoC6/CapSense_1_Processing.c **** *
1198:Generated_Source\PSoC6/CapSense_1_Processing.c **** * \brief
1199:Generated_Source\PSoC6/CapSense_1_Processing.c **** *   Processes the status of the Button widget.
1200:Generated_Source\PSoC6/CapSense_1_Processing.c **** *
1201:Generated_Source\PSoC6/CapSense_1_Processing.c **** * \details
1202:Generated_Source\PSoC6/CapSense_1_Processing.c **** *   This API processes the status of the CSD/CSX Button widget and
1203:Generated_Source\PSoC6/CapSense_1_Processing.c **** *   CSX Matrix Button widget. It applies the hysteresis and de-bounce algorithm
1204:Generated_Source\PSoC6/CapSense_1_Processing.c **** *   to each sensor difference value. This API is expected to be called
1205:Generated_Source\PSoC6/CapSense_1_Processing.c **** *   after each new widget scan. If it is called multiple times for the same
1206:Generated_Source\PSoC6/CapSense_1_Processing.c **** *   scan data, the de-bounce algorithm will not work properly.
1207:Generated_Source\PSoC6/CapSense_1_Processing.c **** *
1208:Generated_Source\PSoC6/CapSense_1_Processing.c **** *   This API does not update any Data Structure registers
1209:Generated_Source\PSoC6/CapSense_1_Processing.c **** *   except the de-bounce counters.
1210:Generated_Source\PSoC6/CapSense_1_Processing.c **** *
1211:Generated_Source\PSoC6/CapSense_1_Processing.c **** * \param currStatus   The current status of the widget sensors.
1212:Generated_Source\PSoC6/CapSense_1_Processing.c **** * \param ptrFlashWdgt The pointer to the Flash Widget Object.
1213:Generated_Source\PSoC6/CapSense_1_Processing.c **** *
1214:Generated_Source\PSoC6/CapSense_1_Processing.c **** * \return Returns the status of the widget's sensors. Bit #0 - corresponds to Sensor #0.
1215:Generated_Source\PSoC6/CapSense_1_Processing.c **** *
1216:Generated_Source\PSoC6/CapSense_1_Processing.c **** *******************************************************************************/
1217:Generated_Source\PSoC6/CapSense_1_Processing.c **** uint32 CapSense_1_DpProcessButton(uint32 currStatus, CapSense_1_FLASH_WD_STRUCT const *ptrFlashWdgt
1218:Generated_Source\PSoC6/CapSense_1_Processing.c **** {
 437              		.loc 1 1218 0
 438              		.cfi_startproc
 439              		@ args = 0, pretend = 0, frame = 0
 440              		@ frame_needed = 0, uses_anonymous_args = 0
 441              	.LVL72:
 442 0000 F0B5     		push	{r4, r5, r6, r7, lr}
 443              		.cfi_def_cfa_offset 20
 444              		.cfi_offset 4, -20
 445              		.cfi_offset 5, -16
 446              		.cfi_offset 6, -12
 447              		.cfi_offset 7, -8
 448              		.cfi_offset 14, -4
1219:Generated_Source\PSoC6/CapSense_1_Processing.c ****     uint32 snsCnt;
1220:Generated_Source\PSoC6/CapSense_1_Processing.c ****     uint32 snsMask;
1221:Generated_Source\PSoC6/CapSense_1_Processing.c ****     uint32 newStatus;
1222:Generated_Source\PSoC6/CapSense_1_Processing.c ****     uint32 touchTh;
1223:Generated_Source\PSoC6/CapSense_1_Processing.c ****     CapSense_1_RAM_SNS_STRUCT *ptrSnsTmp;
1224:Generated_Source\PSoC6/CapSense_1_Processing.c ****     CapSense_1_RAM_WD_BASE_STRUCT *ptrRamWdgt;
1225:Generated_Source\PSoC6/CapSense_1_Processing.c ****     uint8 * ptrDebounceCnt;
1226:Generated_Source\PSoC6/CapSense_1_Processing.c **** 
ARM GAS  C:\Users\Labeo\AppData\Local\Temp\cc644lUq.s 			page 31


1227:Generated_Source\PSoC6/CapSense_1_Processing.c ****     snsCnt = ptrFlashWdgt->totalNumSns;
 449              		.loc 1 1227 0
 450 0002 0A8B     		ldrh	r2, [r1, #24]
 451              	.LVL73:
1228:Generated_Source\PSoC6/CapSense_1_Processing.c ****     ptrSnsTmp = ptrFlashWdgt->ptr2SnsRam;
 452              		.loc 1 1228 0
 453 0004 8D68     		ldr	r5, [r1, #8]
 454              	.LVL74:
1229:Generated_Source\PSoC6/CapSense_1_Processing.c ****     ptrRamWdgt = (CapSense_1_RAM_WD_BASE_STRUCT *)ptrFlashWdgt->ptr2WdgtRam;
 455              		.loc 1 1229 0
 456 0006 4F68     		ldr	r7, [r1, #4]
 457              	.LVL75:
1230:Generated_Source\PSoC6/CapSense_1_Processing.c ****     ptrDebounceCnt = ptrFlashWdgt->ptr2DebounceArr;
 458              		.loc 1 1230 0
 459 0008 0B69     		ldr	r3, [r1, #16]
 460              	.LVL76:
1231:Generated_Source\PSoC6/CapSense_1_Processing.c **** 
1232:Generated_Source\PSoC6/CapSense_1_Processing.c ****     /* Go through all widget's sensors */
1233:Generated_Source\PSoC6/CapSense_1_Processing.c ****     snsMask = 1Lu;
 461              		.loc 1 1233 0
 462 000a 0121     		movs	r1, #1
 463              	.LVL77:
1234:Generated_Source\PSoC6/CapSense_1_Processing.c ****     for (; snsCnt-- > 0u; )
 464              		.loc 1 1234 0
 465 000c 25E0     		b	.L23
 466              	.LVL78:
 467              	.L31:
1235:Generated_Source\PSoC6/CapSense_1_Processing.c ****     {
1236:Generated_Source\PSoC6/CapSense_1_Processing.c ****         /* Calculate touch threshold taking into account hysteresis
1237:Generated_Source\PSoC6/CapSense_1_Processing.c ****            and current sensor state. */
1238:Generated_Source\PSoC6/CapSense_1_Processing.c ****         touchTh = (0u == (currStatus & snsMask)) ?
 468              		.loc 1 1238 0
 469 000e 0C00     		movs	r4, r1
 470              	.LVL79:
 471 0010 0440     		ands	r4, r0
1239:Generated_Source\PSoC6/CapSense_1_Processing.c ****                   ((uint32)ptrRamWdgt->fingerTh + ptrRamWdgt->hysteresis) :
 472              		.loc 1 1239 0
 473 0012 03D1     		bne	.L24
 474              		.loc 1 1239 0 is_stmt 0 discriminator 1
 475 0014 7E88     		ldrh	r6, [r7, #2]
 476 0016 BA79     		ldrb	r2, [r7, #6]
 477 0018 B218     		adds	r2, r6, r2
 478 001a 02E0     		b	.L25
 479              	.L24:
1240:Generated_Source\PSoC6/CapSense_1_Processing.c ****                   ((uint32)ptrRamWdgt->fingerTh - ptrRamWdgt->hysteresis);
 480              		.loc 1 1240 0 is_stmt 1 discriminator 2
 481 001c 7A88     		ldrh	r2, [r7, #2]
 482 001e BE79     		ldrb	r6, [r7, #6]
1239:Generated_Source\PSoC6/CapSense_1_Processing.c ****                   ((uint32)ptrRamWdgt->fingerTh + ptrRamWdgt->hysteresis) :
 483              		.loc 1 1239 0 discriminator 2
 484 0020 921B     		subs	r2, r2, r6
 485              	.L25:
 486              	.LVL80:
1241:Generated_Source\PSoC6/CapSense_1_Processing.c **** 
1242:Generated_Source\PSoC6/CapSense_1_Processing.c ****         /* Determine new potential sensor state */
1243:Generated_Source\PSoC6/CapSense_1_Processing.c ****         newStatus = (ptrSnsTmp->diff > touchTh) ? snsMask : 0u;
 487              		.loc 1 1243 0
ARM GAS  C:\Users\Labeo\AppData\Local\Temp\cc644lUq.s 			page 32


 488 0022 EE88     		ldrh	r6, [r5, #6]
 489 0024 B242     		cmp	r2, r6
 490 0026 01D3     		bcc	.L32
 491 0028 0022     		movs	r2, #0
 492              	.LVL81:
 493 002a 00E0     		b	.L26
 494              	.LVL82:
 495              	.L32:
 496 002c 0A00     		movs	r2, r1
 497              	.LVL83:
 498              	.L26:
1244:Generated_Source\PSoC6/CapSense_1_Processing.c **** 
1245:Generated_Source\PSoC6/CapSense_1_Processing.c ****         /* Sensor state changed ? */
1246:Generated_Source\PSoC6/CapSense_1_Processing.c ****         if (newStatus != (currStatus & snsMask))
 499              		.loc 1 1246 0 discriminator 4
 500 002e A242     		cmp	r2, r4
 501 0030 02D0     		beq	.L27
1247:Generated_Source\PSoC6/CapSense_1_Processing.c ****         {
1248:Generated_Source\PSoC6/CapSense_1_Processing.c ****             /* Decrement de-bounce counter */
1249:Generated_Source\PSoC6/CapSense_1_Processing.c ****             (*ptrDebounceCnt)--;
 502              		.loc 1 1249 0
 503 0032 1E78     		ldrb	r6, [r3]
 504 0034 013E     		subs	r6, r6, #1
 505 0036 1E70     		strb	r6, [r3]
 506              	.L27:
1250:Generated_Source\PSoC6/CapSense_1_Processing.c ****         }
1251:Generated_Source\PSoC6/CapSense_1_Processing.c **** 
1252:Generated_Source\PSoC6/CapSense_1_Processing.c ****         /*
1253:Generated_Source\PSoC6/CapSense_1_Processing.c ****         *  This piece of code has two objectives:
1254:Generated_Source\PSoC6/CapSense_1_Processing.c ****         *  1. Reset de-bounce counter if the sensor state did not change.
1255:Generated_Source\PSoC6/CapSense_1_Processing.c ****         *     (It is possible that during previous processing cycles sensor
1256:Generated_Source\PSoC6/CapSense_1_Processing.c ****         *     was active and de-bounce counter was decremented.)
1257:Generated_Source\PSoC6/CapSense_1_Processing.c ****         *  2. Set new sensor state after successful de-bounce.
1258:Generated_Source\PSoC6/CapSense_1_Processing.c ****         */
1259:Generated_Source\PSoC6/CapSense_1_Processing.c ****         if ((newStatus == (currStatus & snsMask)) || (0u == (*ptrDebounceCnt)))
 507              		.loc 1 1259 0
 508 0038 A242     		cmp	r2, r4
 509 003a 02D0     		beq	.L28
 510              		.loc 1 1259 0 is_stmt 0 discriminator 1
 511 003c 1C78     		ldrb	r4, [r3]
 512 003e 002C     		cmp	r4, #0
 513 0040 07D1     		bne	.L29
 514              	.L28:
1260:Generated_Source\PSoC6/CapSense_1_Processing.c ****         {
1261:Generated_Source\PSoC6/CapSense_1_Processing.c ****             /* Set new sensor status */
1262:Generated_Source\PSoC6/CapSense_1_Processing.c ****             currStatus &= ~snsMask;
 515              		.loc 1 1262 0 is_stmt 1
 516 0042 8843     		bics	r0, r1
 517              	.LVL84:
1263:Generated_Source\PSoC6/CapSense_1_Processing.c ****             currStatus |= newStatus;
 518              		.loc 1 1263 0
 519 0044 1043     		orrs	r0, r2
 520              	.LVL85:
1264:Generated_Source\PSoC6/CapSense_1_Processing.c **** 
1265:Generated_Source\PSoC6/CapSense_1_Processing.c ****             /* Reset de-bounce counter */
1266:Generated_Source\PSoC6/CapSense_1_Processing.c ****             #if (0u != CapSense_1_OFF_DEBOUNCE_EN)
1267:Generated_Source\PSoC6/CapSense_1_Processing.c ****                 *ptrDebounceCnt = (0Lu == newStatus) ? ptrRamWdgt->onDebounce : ptrRamWdgt->offDebo
ARM GAS  C:\Users\Labeo\AppData\Local\Temp\cc644lUq.s 			page 33


1268:Generated_Source\PSoC6/CapSense_1_Processing.c ****             #else
1269:Generated_Source\PSoC6/CapSense_1_Processing.c ****                 *ptrDebounceCnt = (0Lu == newStatus) ? ptrRamWdgt->onDebounce : DEFAULT_OFF_DEBOUNC
 521              		.loc 1 1269 0
 522 0046 002A     		cmp	r2, #0
 523 0048 01D1     		bne	.L33
 524              		.loc 1 1269 0 is_stmt 0 discriminator 1
 525 004a FA79     		ldrb	r2, [r7, #7]
 526              	.LVL86:
 527 004c 00E0     		b	.L30
 528              	.LVL87:
 529              	.L33:
 530              		.loc 1 1269 0
 531 004e 0122     		movs	r2, #1
 532              	.LVL88:
 533              	.L30:
 534              		.loc 1 1269 0 discriminator 4
 535 0050 1A70     		strb	r2, [r3]
 536              	.L29:
1270:Generated_Source\PSoC6/CapSense_1_Processing.c ****             #endif /* #if (0u != CapSense_1_OFF_DEBOUNCE_EN) */
1271:Generated_Source\PSoC6/CapSense_1_Processing.c ****         }
1272:Generated_Source\PSoC6/CapSense_1_Processing.c **** 
1273:Generated_Source\PSoC6/CapSense_1_Processing.c ****         /* Move mask to the next sensor */
1274:Generated_Source\PSoC6/CapSense_1_Processing.c ****         snsMask <<= 1u;
 537              		.loc 1 1274 0 is_stmt 1
 538 0052 4900     		lsls	r1, r1, #1
 539              	.LVL89:
1275:Generated_Source\PSoC6/CapSense_1_Processing.c **** 
1276:Generated_Source\PSoC6/CapSense_1_Processing.c ****         ptrSnsTmp++;
 540              		.loc 1 1276 0
 541 0054 0A35     		adds	r5, r5, #10
 542              	.LVL90:
1277:Generated_Source\PSoC6/CapSense_1_Processing.c ****         ptrDebounceCnt++;
 543              		.loc 1 1277 0
 544 0056 0133     		adds	r3, r3, #1
 545              	.LVL91:
1234:Generated_Source\PSoC6/CapSense_1_Processing.c ****     {
 546              		.loc 1 1234 0
 547 0058 6246     		mov	r2, ip
 548              	.LVL92:
 549              	.L23:
 550 005a 541E     		subs	r4, r2, #1
 551 005c A446     		mov	ip, r4
 552              	.LVL93:
 553 005e 002A     		cmp	r2, #0
 554 0060 D5D1     		bne	.L31
1278:Generated_Source\PSoC6/CapSense_1_Processing.c ****     }
1279:Generated_Source\PSoC6/CapSense_1_Processing.c **** 
1280:Generated_Source\PSoC6/CapSense_1_Processing.c ****     return currStatus;
1281:Generated_Source\PSoC6/CapSense_1_Processing.c **** }
 555              		.loc 1 1281 0
 556              		@ sp needed
 557              	.LVL94:
 558              	.LVL95:
 559              	.LVL96:
 560 0062 F0BD     		pop	{r4, r5, r6, r7, pc}
 561              		.cfi_endproc
 562              	.LFE51:
ARM GAS  C:\Users\Labeo\AppData\Local\Temp\cc644lUq.s 			page 34


 563              		.size	CapSense_1_DpProcessButton, .-CapSense_1_DpProcessButton
 564              		.section	.text.CapSense_1_DpProcessCsdWidgetStatus,"ax",%progbits
 565              		.align	2
 566              		.global	CapSense_1_DpProcessCsdWidgetStatus
 567              		.code	16
 568              		.thumb_func
 569              		.type	CapSense_1_DpProcessCsdWidgetStatus, %function
 570              	CapSense_1_DpProcessCsdWidgetStatus:
 571              	.LFB48:
1016:Generated_Source\PSoC6/CapSense_1_Processing.c ****     uint32 sensorStatus;
 572              		.loc 1 1016 0
 573              		.cfi_startproc
 574              		@ args = 0, pretend = 0, frame = 0
 575              		@ frame_needed = 0, uses_anonymous_args = 0
 576              	.LVL97:
 577 0000 70B5     		push	{r4, r5, r6, lr}
 578              		.cfi_def_cfa_offset 16
 579              		.cfi_offset 4, -16
 580              		.cfi_offset 5, -12
 581              		.cfi_offset 6, -8
 582              		.cfi_offset 14, -4
 583 0002 0400     		movs	r4, r0
1022:Generated_Source\PSoC6/CapSense_1_Processing.c ****     sensorStatus = CapSense_1_dsRam.snsStatus[widgetId];
 584              		.loc 1 1022 0
 585 0004 8A7E     		ldrb	r2, [r1, #26]
 586              	.LVL98:
1023:Generated_Source\PSoC6/CapSense_1_Processing.c **** 
 587              		.loc 1 1023 0
 588 0006 144B     		ldr	r3, .L41
 589 0008 1B18     		adds	r3, r3, r0
 590 000a 1D7E     		ldrb	r5, [r3, #24]
 591              	.LVL99:
1025:Generated_Source\PSoC6/CapSense_1_Processing.c ****     {
 592              		.loc 1 1025 0
 593 000c 012A     		cmp	r2, #1
 594 000e 04D1     		bne	.L40
1029:Generated_Source\PSoC6/CapSense_1_Processing.c ****             break;
 595              		.loc 1 1029 0
 596 0010 2800     		movs	r0, r5
 597              	.LVL100:
 598 0012 FFF7FEFF 		bl	CapSense_1_DpProcessButton
 599              	.LVL101:
 600 0016 0500     		movs	r5, r0
 601              	.LVL102:
1030:Generated_Source\PSoC6/CapSense_1_Processing.c ****     #endif /* #if (0u != CapSense_1_BUTTON_WIDGET_EN) */
 602              		.loc 1 1030 0
 603 0018 03E0     		b	.L37
 604              	.LVL103:
 605              	.L40:
1062:Generated_Source\PSoC6/CapSense_1_Processing.c ****         break;
 606              		.loc 1 1062 0 discriminator 1
 607 001a 1049     		ldr	r1, .L41+4
 608              	.LVL104:
 609 001c 1048     		ldr	r0, .L41+8
 610              	.LVL105:
 611 001e FFF7FEFF 		bl	Cy_SysLib_AssertFailed
 612              	.LVL106:
ARM GAS  C:\Users\Labeo\AppData\Local\Temp\cc644lUq.s 			page 35


 613              	.L37:
1066:Generated_Source\PSoC6/CapSense_1_Processing.c **** 
 614              		.loc 1 1066 0
 615 0022 0D4B     		ldr	r3, .L41
 616 0024 1B19     		adds	r3, r3, r4
 617 0026 1D76     		strb	r5, [r3, #24]
1069:Generated_Source\PSoC6/CapSense_1_Processing.c ****     wdStatusMask = CapSense_1_GET_WDGT_STATUS_MASK(widgetId);
 618              		.loc 1 1069 0
 619 0028 6309     		lsrs	r3, r4, #5
 620              	.LVL107:
1070:Generated_Source\PSoC6/CapSense_1_Processing.c **** 
 621              		.loc 1 1070 0
 622 002a 1F22     		movs	r2, #31
 623 002c 1440     		ands	r4, r2
 624              	.LVL108:
 625 002e 1E3A     		subs	r2, r2, #30
 626 0030 A240     		lsls	r2, r2, r4
 627              	.LVL109:
1073:Generated_Source\PSoC6/CapSense_1_Processing.c ****     {
 628              		.loc 1 1073 0
 629 0032 002D     		cmp	r5, #0
 630 0034 07D1     		bne	.L38
1075:Generated_Source\PSoC6/CapSense_1_Processing.c ****     }
 631              		.loc 1 1075 0
 632 0036 0433     		adds	r3, r3, #4
 633              	.LVL110:
 634 0038 9B00     		lsls	r3, r3, #2
 635              	.LVL111:
 636 003a 0749     		ldr	r1, .L41
 637 003c CB18     		adds	r3, r1, r3
 638 003e 5968     		ldr	r1, [r3, #4]
 639 0040 9143     		bics	r1, r2
 640 0042 5960     		str	r1, [r3, #4]
 641 0044 06E0     		b	.L34
 642              	.LVL112:
 643              	.L38:
1079:Generated_Source\PSoC6/CapSense_1_Processing.c ****     }
 644              		.loc 1 1079 0
 645 0046 0433     		adds	r3, r3, #4
 646              	.LVL113:
 647 0048 9B00     		lsls	r3, r3, #2
 648              	.LVL114:
 649 004a 0349     		ldr	r1, .L41
 650 004c CB18     		adds	r3, r1, r3
 651 004e 5968     		ldr	r1, [r3, #4]
 652 0050 0A43     		orrs	r2, r1
 653              	.LVL115:
 654 0052 5A60     		str	r2, [r3, #4]
 655              	.L34:
1081:Generated_Source\PSoC6/CapSense_1_Processing.c **** #endif /* #if (0u != CapSense_1_TOTAL_CSD_WIDGETS) */
 656              		.loc 1 1081 0
 657              		@ sp needed
 658              	.LVL116:
 659              	.LVL117:
 660 0054 70BD     		pop	{r4, r5, r6, pc}
 661              	.L42:
 662 0056 C046     		.align	2
ARM GAS  C:\Users\Labeo\AppData\Local\Temp\cc644lUq.s 			page 36


 663              	.L41:
 664 0058 00000000 		.word	CapSense_1_dsRam
 665 005c 26040000 		.word	1062
 666 0060 00000000 		.word	.LC3
 667              		.cfi_endproc
 668              	.LFE48:
 669              		.size	CapSense_1_DpProcessCsdWidgetStatus, .-CapSense_1_DpProcessCsdWidgetStatus
 670              		.section	.rodata.str1.4,"aMS",%progbits,1
 671              		.align	2
 672              	.LC3:
 673 0000 47656E65 		.ascii	"Generated_Source\\PSoC6\\CapSense_1_Processing.c\000"
 673      72617465 
 673      645F536F 
 673      75726365 
 673      5C50536F 
 674              		.text
 675              	.Letext0:
 676              		.file 2 "c:\\program files (x86)\\cypress\\psoc creator\\4.4\\psoc creator\\import\\gnu\\arm\\5.4.
 677              		.file 3 "c:\\program files (x86)\\cypress\\psoc creator\\4.4\\psoc creator\\import\\gnu\\arm\\5.4.
 678              		.file 4 "c:\\program files (x86)\\cypress\\psoc creator\\4.4\\psoc creator\\import\\gnu\\arm\\5.4.
 679              		.file 5 "Generated_Source\\PSoC6\\pdl\\drivers/peripheral/syslib/cy_syslib.h"
 680              		.file 6 "Generated_Source\\PSoC6\\CapSense_1_Configuration.h"
 681              		.file 7 "Generated_Source\\PSoC6\\CapSense_1_SmartSense_LL.h"
 682              		.file 8 "Generated_Source\\PSoC6\\CapSense_1_Structure.h"
 683              		.file 9 "c:\\program files (x86)\\cypress\\psoc creator\\4.4\\psoc creator\\import\\gnu\\arm\\5.4.
 684              		.file 10 "Generated_Source\\PSoC6\\CapSense_1_Filter.h"