ARM GAS  C:\Users\nicpa\AppData\Local\Temp\cceOSKlL.s 			page 1


   1              		.syntax unified
   2              		.cpu cortex-m0plus
   3              		.fpu softvfp
   4              		.eabi_attribute 20, 1
   5              		.eabi_attribute 21, 1
   6              		.eabi_attribute 23, 3
   7              		.eabi_attribute 24, 1
   8              		.eabi_attribute 25, 1
   9              		.eabi_attribute 26, 1
  10              		.eabi_attribute 30, 1
  11              		.eabi_attribute 34, 0
  12              		.eabi_attribute 18, 4
  13              		.thumb
  14              		.syntax unified
  15              		.file	"CapSense_Structure.c"
  16              		.text
  17              	.Ltext0:
  18              		.cfi_sections	.debug_frame
  19              		.section	.text.DsParseParamId,"ax",%progbits
  20              		.align	2
  21              		.code	16
  22              		.thumb_func
  23              		.type	DsParseParamId, %function
  24              	DsParseParamId:
  25              	.LFB46:
  26              		.file 1 "Generated_Source\\PSoC6\\CapSense_Structure.c"
   1:Generated_Source\PSoC6/CapSense_Structure.c **** /***************************************************************************//**
   2:Generated_Source\PSoC6/CapSense_Structure.c **** * \file CapSense_Structure.c
   3:Generated_Source\PSoC6/CapSense_Structure.c **** * \version 3.0
   4:Generated_Source\PSoC6/CapSense_Structure.c **** *
   5:Generated_Source\PSoC6/CapSense_Structure.c **** * \brief
   6:Generated_Source\PSoC6/CapSense_Structure.c **** *   This file defines the data structure global variables and provides implementation
   7:Generated_Source\PSoC6/CapSense_Structure.c **** *   for the high-level and low-level APIs of the Data Structure module.
   8:Generated_Source\PSoC6/CapSense_Structure.c **** *
   9:Generated_Source\PSoC6/CapSense_Structure.c **** * \see CapSense v3.0 Datasheet
  10:Generated_Source\PSoC6/CapSense_Structure.c **** *
  11:Generated_Source\PSoC6/CapSense_Structure.c **** *//*****************************************************************************
  12:Generated_Source\PSoC6/CapSense_Structure.c **** * Copyright (2016-2017), Cypress Semiconductor Corporation.
  13:Generated_Source\PSoC6/CapSense_Structure.c **** ********************************************************************************
  14:Generated_Source\PSoC6/CapSense_Structure.c **** * This software is owned by Cypress Semiconductor Corporation (Cypress) and is
  15:Generated_Source\PSoC6/CapSense_Structure.c **** * protected by and subject to worldwide patent protection (United States and
  16:Generated_Source\PSoC6/CapSense_Structure.c **** * foreign), United States copyright laws and international treaty provisions.
  17:Generated_Source\PSoC6/CapSense_Structure.c **** * Cypress hereby grants to licensee a personal, non-exclusive, non-transferable
  18:Generated_Source\PSoC6/CapSense_Structure.c **** * license to copy, use, modify, create derivative works of, and compile the
  19:Generated_Source\PSoC6/CapSense_Structure.c **** * Cypress Source Code and derivative works for the sole purpose of creating
  20:Generated_Source\PSoC6/CapSense_Structure.c **** * custom software in support of licensee product to be used only in conjunction
  21:Generated_Source\PSoC6/CapSense_Structure.c **** * with a Cypress integrated circuit as specified in the applicable agreement.
  22:Generated_Source\PSoC6/CapSense_Structure.c **** * Any reproduction, modification, translation, compilation, or representation of
  23:Generated_Source\PSoC6/CapSense_Structure.c **** * this software except as specified above is prohibited without the express
  24:Generated_Source\PSoC6/CapSense_Structure.c **** * written permission of Cypress.
  25:Generated_Source\PSoC6/CapSense_Structure.c **** *
  26:Generated_Source\PSoC6/CapSense_Structure.c **** * Disclaimer: CYPRESS MAKES NO WARRANTY OF ANY KIND, EXPRESS OR IMPLIED, WITH
  27:Generated_Source\PSoC6/CapSense_Structure.c **** * REGARD TO THIS MATERIAL, INCLUDING, BUT NOT LIMITED TO, THE IMPLIED
  28:Generated_Source\PSoC6/CapSense_Structure.c **** * WARRANTIES OF MERCHANTABILITY AND FITNESS FOR A PARTICULAR PURPOSE.
  29:Generated_Source\PSoC6/CapSense_Structure.c **** * Cypress reserves the right to make changes without further notice to the
  30:Generated_Source\PSoC6/CapSense_Structure.c **** * materials described herein. Cypress does not assume any liability arising out
  31:Generated_Source\PSoC6/CapSense_Structure.c **** * of the application or use of any product or circuit described herein. Cypress
ARM GAS  C:\Users\nicpa\AppData\Local\Temp\cceOSKlL.s 			page 2


  32:Generated_Source\PSoC6/CapSense_Structure.c **** * does not authorize its products for use as critical components in life-support
  33:Generated_Source\PSoC6/CapSense_Structure.c **** * systems where a malfunction or failure may reasonably be expected to result in
  34:Generated_Source\PSoC6/CapSense_Structure.c **** * significant injury to the user. The inclusion of Cypress' product in a life-
  35:Generated_Source\PSoC6/CapSense_Structure.c **** * support systems application implies that the manufacturer assumes all risk of
  36:Generated_Source\PSoC6/CapSense_Structure.c **** * such use and in doing so indemnifies Cypress against all charges. Use may be
  37:Generated_Source\PSoC6/CapSense_Structure.c **** * limited by and subject to the applicable Cypress software license agreement.
  38:Generated_Source\PSoC6/CapSense_Structure.c **** *******************************************************************************/
  39:Generated_Source\PSoC6/CapSense_Structure.c **** 
  40:Generated_Source\PSoC6/CapSense_Structure.c **** #include "syslib/cy_syslib.h"
  41:Generated_Source\PSoC6/CapSense_Structure.c **** #include <stddef.h>
  42:Generated_Source\PSoC6/CapSense_Structure.c **** #include <string.h>
  43:Generated_Source\PSoC6/CapSense_Structure.c **** #include "cyfitter_gpio.h"
  44:Generated_Source\PSoC6/CapSense_Structure.c **** 
  45:Generated_Source\PSoC6/CapSense_Structure.c **** #include "CapSense_Structure.h"
  46:Generated_Source\PSoC6/CapSense_Structure.c **** #include "CapSense_Configuration.h"
  47:Generated_Source\PSoC6/CapSense_Structure.c **** 
  48:Generated_Source\PSoC6/CapSense_Structure.c **** #if (0u != CapSense_ADC_EN)
  49:Generated_Source\PSoC6/CapSense_Structure.c ****     #include "CapSense_Adc.h"
  50:Generated_Source\PSoC6/CapSense_Structure.c **** #endif /* (0u != CapSense_ADC_EN) */
  51:Generated_Source\PSoC6/CapSense_Structure.c **** 
  52:Generated_Source\PSoC6/CapSense_Structure.c **** #if (CapSense_ENABLE == CapSense_SELF_TEST_EN)
  53:Generated_Source\PSoC6/CapSense_Structure.c ****     #include "CapSense_SelfTest.h"
  54:Generated_Source\PSoC6/CapSense_Structure.c **** #endif
  55:Generated_Source\PSoC6/CapSense_Structure.c **** 
  56:Generated_Source\PSoC6/CapSense_Structure.c **** #if (CapSense_ENABLE == CapSense_CENTROID_5X5_CSD_EN)
  57:Generated_Source\PSoC6/CapSense_Structure.c ****     #include "CapSense_AdvancedCentroid_LL.h"
  58:Generated_Source\PSoC6/CapSense_Structure.c **** #endif
  59:Generated_Source\PSoC6/CapSense_Structure.c **** 
  60:Generated_Source\PSoC6/CapSense_Structure.c **** #if (CapSense_ENABLE == CapSense_GES_GLOBAL_EN)
  61:Generated_Source\PSoC6/CapSense_Structure.c ****     #include "CapSense_Gesture.h"
  62:Generated_Source\PSoC6/CapSense_Structure.c **** #endif /* (CapSense_ENABLE == CapSense_GES_GLOBAL_EN) */
  63:Generated_Source\PSoC6/CapSense_Structure.c **** 
  64:Generated_Source\PSoC6/CapSense_Structure.c **** /*******************************************************************************
  65:Generated_Source\PSoC6/CapSense_Structure.c **** * Defines the RAM Data Structure variables and their init data in flash
  66:Generated_Source\PSoC6/CapSense_Structure.c **** *******************************************************************************/
  67:Generated_Source\PSoC6/CapSense_Structure.c **** /**
  68:Generated_Source\PSoC6/CapSense_Structure.c **** * \cond SECTION_GLOBAL_VARIABLES
  69:Generated_Source\PSoC6/CapSense_Structure.c **** * \addtogroup group_global_variables
  70:Generated_Source\PSoC6/CapSense_Structure.c **** * \{
  71:Generated_Source\PSoC6/CapSense_Structure.c **** */
  72:Generated_Source\PSoC6/CapSense_Structure.c **** 
  73:Generated_Source\PSoC6/CapSense_Structure.c **** /**
  74:Generated_Source\PSoC6/CapSense_Structure.c **** * The variable that contains the CapSense configuration, settings and
  75:Generated_Source\PSoC6/CapSense_Structure.c **** * scanning results. CapSense_dsRam represents RAM Data Structure.
  76:Generated_Source\PSoC6/CapSense_Structure.c **** */
  77:Generated_Source\PSoC6/CapSense_Structure.c **** CapSense_RAM_STRUCT CapSense_dsRam;
  78:Generated_Source\PSoC6/CapSense_Structure.c **** /** \}
  79:Generated_Source\PSoC6/CapSense_Structure.c **** * \endcond */
  80:Generated_Source\PSoC6/CapSense_Structure.c **** 
  81:Generated_Source\PSoC6/CapSense_Structure.c **** /*******************************************************************************
  82:Generated_Source\PSoC6/CapSense_Structure.c **** * Declares Widget's De-bounce Counters
  83:Generated_Source\PSoC6/CapSense_Structure.c **** *******************************************************************************/
  84:Generated_Source\PSoC6/CapSense_Structure.c **** static uint8 CapSense_debounceButtonR[CapSense_BUTTONR_NUM_SENSORS];
  85:Generated_Source\PSoC6/CapSense_Structure.c **** static uint8 CapSense_debounceButtonL[CapSense_BUTTONL_NUM_SENSORS];
  86:Generated_Source\PSoC6/CapSense_Structure.c **** static uint8 CapSense_debounceLinearSlider0[1u];
  87:Generated_Source\PSoC6/CapSense_Structure.c **** 
  88:Generated_Source\PSoC6/CapSense_Structure.c **** 
ARM GAS  C:\Users\nicpa\AppData\Local\Temp\cceOSKlL.s 			page 3


  89:Generated_Source\PSoC6/CapSense_Structure.c **** /***************************************************************************//**
  90:Generated_Source\PSoC6/CapSense_Structure.c **** * Declares Noise Envelope data structures
  91:Generated_Source\PSoC6/CapSense_Structure.c **** *******************************************************************************/
  92:Generated_Source\PSoC6/CapSense_Structure.c **** static SMARTSENSE_CSD_NOISE_ENVELOPE_STRUCT CapSense_noiseEnvlpLinearSlider0[CapSense_LINEARSLIDER0
  93:Generated_Source\PSoC6/CapSense_Structure.c **** 
  94:Generated_Source\PSoC6/CapSense_Structure.c **** /*******************************************************************************
  95:Generated_Source\PSoC6/CapSense_Structure.c **** * Defines and initializes the Flash Data Structure
  96:Generated_Source\PSoC6/CapSense_Structure.c **** *******************************************************************************/
  97:Generated_Source\PSoC6/CapSense_Structure.c **** 
  98:Generated_Source\PSoC6/CapSense_Structure.c **** 
  99:Generated_Source\PSoC6/CapSense_Structure.c **** 
 100:Generated_Source\PSoC6/CapSense_Structure.c **** /**
 101:Generated_Source\PSoC6/CapSense_Structure.c **** * \cond SECTION_API_CONSTANTS
 102:Generated_Source\PSoC6/CapSense_Structure.c **** * \addtogroup group_api_constants
 103:Generated_Source\PSoC6/CapSense_Structure.c **** * \{
 104:Generated_Source\PSoC6/CapSense_Structure.c **** */
 105:Generated_Source\PSoC6/CapSense_Structure.c **** /**
 106:Generated_Source\PSoC6/CapSense_Structure.c **** * Constant for the FLASH Data Structure
 107:Generated_Source\PSoC6/CapSense_Structure.c **** */
 108:Generated_Source\PSoC6/CapSense_Structure.c **** const CapSense_FLASH_STRUCT CapSense_dsFlash =
 109:Generated_Source\PSoC6/CapSense_Structure.c **** {
 110:Generated_Source\PSoC6/CapSense_Structure.c ****     /* Flash Widget Initialization Data */
 111:Generated_Source\PSoC6/CapSense_Structure.c ****     {
 112:Generated_Source\PSoC6/CapSense_Structure.c ****         { /* ButtonR */
 113:Generated_Source\PSoC6/CapSense_Structure.c ****             &CapSense_ioList[0u],
 114:Generated_Source\PSoC6/CapSense_Structure.c ****             (void *)&CapSense_dsRam.wdgtList.buttonr,
 115:Generated_Source\PSoC6/CapSense_Structure.c ****             CapSense_dsRam.snsList.buttonr,
 116:Generated_Source\PSoC6/CapSense_Structure.c ****             (void *)0u,
 117:Generated_Source\PSoC6/CapSense_Structure.c ****             CapSense_debounceButtonR,
 118:Generated_Source\PSoC6/CapSense_Structure.c ****             CapSense_BUTTONR_STATIC_CONFIG,
 119:Generated_Source\PSoC6/CapSense_Structure.c ****             CapSense_BUTTONR_NUM_SENSORS,
 120:Generated_Source\PSoC6/CapSense_Structure.c ****             (uint8)CapSense_WD_BUTTON_E,
 121:Generated_Source\PSoC6/CapSense_Structure.c ****             (uint8)CapSense_SENSE_METHOD_CSX_E,
 122:Generated_Source\PSoC6/CapSense_Structure.c ****             CapSense_BUTTONR_NUM_SENSORS,
 123:Generated_Source\PSoC6/CapSense_Structure.c ****             1u,
 124:Generated_Source\PSoC6/CapSense_Structure.c ****             0u,
 125:Generated_Source\PSoC6/CapSense_Structure.c ****             0u,
 126:Generated_Source\PSoC6/CapSense_Structure.c ****             (SMARTSENSE_CSD_NOISE_ENVELOPE_STRUCT *)0u,
 127:Generated_Source\PSoC6/CapSense_Structure.c ****             0u,
 128:Generated_Source\PSoC6/CapSense_Structure.c ****         },
 129:Generated_Source\PSoC6/CapSense_Structure.c ****         { /* ButtonL */
 130:Generated_Source\PSoC6/CapSense_Structure.c ****             &CapSense_ioList[2u],
 131:Generated_Source\PSoC6/CapSense_Structure.c ****             (void *)&CapSense_dsRam.wdgtList.buttonl,
 132:Generated_Source\PSoC6/CapSense_Structure.c ****             CapSense_dsRam.snsList.buttonl,
 133:Generated_Source\PSoC6/CapSense_Structure.c ****             (void *)0u,
 134:Generated_Source\PSoC6/CapSense_Structure.c ****             CapSense_debounceButtonL,
 135:Generated_Source\PSoC6/CapSense_Structure.c ****             CapSense_BUTTONL_STATIC_CONFIG,
 136:Generated_Source\PSoC6/CapSense_Structure.c ****             CapSense_BUTTONL_NUM_SENSORS,
 137:Generated_Source\PSoC6/CapSense_Structure.c ****             (uint8)CapSense_WD_BUTTON_E,
 138:Generated_Source\PSoC6/CapSense_Structure.c ****             (uint8)CapSense_SENSE_METHOD_CSX_E,
 139:Generated_Source\PSoC6/CapSense_Structure.c ****             CapSense_BUTTONL_NUM_SENSORS,
 140:Generated_Source\PSoC6/CapSense_Structure.c ****             1u,
 141:Generated_Source\PSoC6/CapSense_Structure.c ****             0u,
 142:Generated_Source\PSoC6/CapSense_Structure.c ****             0u,
 143:Generated_Source\PSoC6/CapSense_Structure.c ****             (SMARTSENSE_CSD_NOISE_ENVELOPE_STRUCT *)0u,
 144:Generated_Source\PSoC6/CapSense_Structure.c ****             0u,
 145:Generated_Source\PSoC6/CapSense_Structure.c ****         },
ARM GAS  C:\Users\nicpa\AppData\Local\Temp\cceOSKlL.s 			page 4


 146:Generated_Source\PSoC6/CapSense_Structure.c ****         { /* LinearSlider0 */
 147:Generated_Source\PSoC6/CapSense_Structure.c ****             &CapSense_ioList[4u],
 148:Generated_Source\PSoC6/CapSense_Structure.c ****             (void *)&CapSense_dsRam.wdgtList.linearslider0,
 149:Generated_Source\PSoC6/CapSense_Structure.c ****             CapSense_dsRam.snsList.linearslider0,
 150:Generated_Source\PSoC6/CapSense_Structure.c ****             (void *)0u,
 151:Generated_Source\PSoC6/CapSense_Structure.c ****             CapSense_debounceLinearSlider0,
 152:Generated_Source\PSoC6/CapSense_Structure.c ****             CapSense_LINEARSLIDER0_STATIC_CONFIG,
 153:Generated_Source\PSoC6/CapSense_Structure.c ****             CapSense_LINEARSLIDER0_NUM_SENSORS,
 154:Generated_Source\PSoC6/CapSense_Structure.c ****             (uint8)CapSense_WD_LINEAR_SLIDER_E,
 155:Generated_Source\PSoC6/CapSense_Structure.c ****             (uint8)CapSense_SENSE_METHOD_CSD_E,
 156:Generated_Source\PSoC6/CapSense_Structure.c ****             CapSense_LINEARSLIDER0_NUM_SENSORS,
 157:Generated_Source\PSoC6/CapSense_Structure.c ****             0u,
 158:Generated_Source\PSoC6/CapSense_Structure.c ****             CapSense_LINEARSLIDER0_X_RESOLUTION,
 159:Generated_Source\PSoC6/CapSense_Structure.c ****             CapSense_LINEARSLIDER0_X_CENT_MULT,
 160:Generated_Source\PSoC6/CapSense_Structure.c ****             CapSense_noiseEnvlpLinearSlider0,
 161:Generated_Source\PSoC6/CapSense_Structure.c ****             CapSense_LINEARSLIDER0_IIR_FILTER_COEFF,
 162:Generated_Source\PSoC6/CapSense_Structure.c ****         },
 163:Generated_Source\PSoC6/CapSense_Structure.c ****     },
 164:Generated_Source\PSoC6/CapSense_Structure.c **** };
 165:Generated_Source\PSoC6/CapSense_Structure.c **** 
 166:Generated_Source\PSoC6/CapSense_Structure.c **** /**
 167:Generated_Source\PSoC6/CapSense_Structure.c **** * The array of the pointers to the electrode specific register.
 168:Generated_Source\PSoC6/CapSense_Structure.c **** */
 169:Generated_Source\PSoC6/CapSense_Structure.c **** const CapSense_FLASH_IO_STRUCT CapSense_ioList[CapSense_TOTAL_ELECTRODES] =
 170:Generated_Source\PSoC6/CapSense_Structure.c **** {
 171:Generated_Source\PSoC6/CapSense_Structure.c ****     { /* 0: ButtonR_Rx0 */
 172:Generated_Source\PSoC6/CapSense_Structure.c ****         CapSense_Rx_0_PORT,
 173:Generated_Source\PSoC6/CapSense_Structure.c ****         (uint8)CapSense_Rx_0_NUM,
 174:Generated_Source\PSoC6/CapSense_Structure.c ****     },
 175:Generated_Source\PSoC6/CapSense_Structure.c ****     { /* 1: ButtonR_Tx */
 176:Generated_Source\PSoC6/CapSense_Structure.c ****         CapSense_Tx_0_PORT,
 177:Generated_Source\PSoC6/CapSense_Structure.c ****         (uint8)CapSense_Tx_0_NUM,
 178:Generated_Source\PSoC6/CapSense_Structure.c ****     },
 179:Generated_Source\PSoC6/CapSense_Structure.c ****     { /* 2: ButtonL_Rx0 */
 180:Generated_Source\PSoC6/CapSense_Structure.c ****         CapSense_Rx_1_PORT,
 181:Generated_Source\PSoC6/CapSense_Structure.c ****         (uint8)CapSense_Rx_1_NUM,
 182:Generated_Source\PSoC6/CapSense_Structure.c ****     },
 183:Generated_Source\PSoC6/CapSense_Structure.c ****     { /* 3: ButtonR_Tx ganged to ButtonL_Tx */
 184:Generated_Source\PSoC6/CapSense_Structure.c ****         CapSense_Tx_0_PORT,
 185:Generated_Source\PSoC6/CapSense_Structure.c ****         (uint8)CapSense_Tx_0_NUM,
 186:Generated_Source\PSoC6/CapSense_Structure.c ****     },
 187:Generated_Source\PSoC6/CapSense_Structure.c ****     { /* 4: LinearSlider0_Sns0 */
 188:Generated_Source\PSoC6/CapSense_Structure.c ****         CapSense_Sns_0_PORT,
 189:Generated_Source\PSoC6/CapSense_Structure.c ****         (uint8)CapSense_Sns_0_NUM,
 190:Generated_Source\PSoC6/CapSense_Structure.c ****     },
 191:Generated_Source\PSoC6/CapSense_Structure.c ****     { /* 5: LinearSlider0_Sns1 */
 192:Generated_Source\PSoC6/CapSense_Structure.c ****         CapSense_Sns_1_PORT,
 193:Generated_Source\PSoC6/CapSense_Structure.c ****         (uint8)CapSense_Sns_1_NUM,
 194:Generated_Source\PSoC6/CapSense_Structure.c ****     },
 195:Generated_Source\PSoC6/CapSense_Structure.c ****     { /* 6: LinearSlider0_Sns2 */
 196:Generated_Source\PSoC6/CapSense_Structure.c ****         CapSense_Sns_2_PORT,
 197:Generated_Source\PSoC6/CapSense_Structure.c ****         (uint8)CapSense_Sns_2_NUM,
 198:Generated_Source\PSoC6/CapSense_Structure.c ****     },
 199:Generated_Source\PSoC6/CapSense_Structure.c ****     { /* 7: LinearSlider0_Sns3 */
 200:Generated_Source\PSoC6/CapSense_Structure.c ****         CapSense_Sns_3_PORT,
 201:Generated_Source\PSoC6/CapSense_Structure.c ****         (uint8)CapSense_Sns_3_NUM,
 202:Generated_Source\PSoC6/CapSense_Structure.c ****     },
ARM GAS  C:\Users\nicpa\AppData\Local\Temp\cceOSKlL.s 			page 5


 203:Generated_Source\PSoC6/CapSense_Structure.c ****     { /* 8: LinearSlider0_Sns4 */
 204:Generated_Source\PSoC6/CapSense_Structure.c ****         CapSense_Sns_4_PORT,
 205:Generated_Source\PSoC6/CapSense_Structure.c ****         (uint8)CapSense_Sns_4_NUM,
 206:Generated_Source\PSoC6/CapSense_Structure.c ****     },
 207:Generated_Source\PSoC6/CapSense_Structure.c **** };
 208:Generated_Source\PSoC6/CapSense_Structure.c **** 
 209:Generated_Source\PSoC6/CapSense_Structure.c **** 
 210:Generated_Source\PSoC6/CapSense_Structure.c **** 
 211:Generated_Source\PSoC6/CapSense_Structure.c **** /** \}
 212:Generated_Source\PSoC6/CapSense_Structure.c **** * \endcond */
 213:Generated_Source\PSoC6/CapSense_Structure.c **** 
 214:Generated_Source\PSoC6/CapSense_Structure.c **** /* Initialization data for RAM widget list */
 215:Generated_Source\PSoC6/CapSense_Structure.c **** const CapSense_RAM_WD_LIST_STRUCT CapSense_ramWidgetInit =
 216:Generated_Source\PSoC6/CapSense_Structure.c **** {
 217:Generated_Source\PSoC6/CapSense_Structure.c ****     { /* ButtonR */
 218:Generated_Source\PSoC6/CapSense_Structure.c ****         CapSense_BUTTONR_RESOLUTION,
 219:Generated_Source\PSoC6/CapSense_Structure.c ****         CapSense_BUTTONR_FINGER_TH,
 220:Generated_Source\PSoC6/CapSense_Structure.c ****         CapSense_BUTTONR_NOISE_TH,
 221:Generated_Source\PSoC6/CapSense_Structure.c ****         CapSense_BUTTONR_NNOISE_TH,
 222:Generated_Source\PSoC6/CapSense_Structure.c ****         CapSense_BUTTONR_HYSTERESIS,
 223:Generated_Source\PSoC6/CapSense_Structure.c ****         CapSense_BUTTONR_ON_DEBOUNCE,
 224:Generated_Source\PSoC6/CapSense_Structure.c ****         CapSense_BUTTONR_LOW_BSLN_RST,
 225:Generated_Source\PSoC6/CapSense_Structure.c ****         {
 226:Generated_Source\PSoC6/CapSense_Structure.c ****             CapSense_BUTTONR_IDAC_MOD0,
 227:Generated_Source\PSoC6/CapSense_Structure.c ****         },
 228:Generated_Source\PSoC6/CapSense_Structure.c ****         CapSense_BUTTONR_SNS_CLK,
 229:Generated_Source\PSoC6/CapSense_Structure.c ****         CapSense_BUTTONR_SNS_CLK_SOURCE,
 230:Generated_Source\PSoC6/CapSense_Structure.c ****         CapSense_BUTTONR_FINGER_CAP,
 231:Generated_Source\PSoC6/CapSense_Structure.c ****         CapSense_BUTTONR_SIGPFC,
 232:Generated_Source\PSoC6/CapSense_Structure.c ****         CapSense_NO_GESTURE,
 233:Generated_Source\PSoC6/CapSense_Structure.c ****     },
 234:Generated_Source\PSoC6/CapSense_Structure.c ****     { /* ButtonL */
 235:Generated_Source\PSoC6/CapSense_Structure.c ****         CapSense_BUTTONL_RESOLUTION,
 236:Generated_Source\PSoC6/CapSense_Structure.c ****         CapSense_BUTTONL_FINGER_TH,
 237:Generated_Source\PSoC6/CapSense_Structure.c ****         CapSense_BUTTONL_NOISE_TH,
 238:Generated_Source\PSoC6/CapSense_Structure.c ****         CapSense_BUTTONL_NNOISE_TH,
 239:Generated_Source\PSoC6/CapSense_Structure.c ****         CapSense_BUTTONL_HYSTERESIS,
 240:Generated_Source\PSoC6/CapSense_Structure.c ****         CapSense_BUTTONL_ON_DEBOUNCE,
 241:Generated_Source\PSoC6/CapSense_Structure.c ****         CapSense_BUTTONL_LOW_BSLN_RST,
 242:Generated_Source\PSoC6/CapSense_Structure.c ****         {
 243:Generated_Source\PSoC6/CapSense_Structure.c ****             CapSense_BUTTONL_IDAC_MOD0,
 244:Generated_Source\PSoC6/CapSense_Structure.c ****         },
 245:Generated_Source\PSoC6/CapSense_Structure.c ****         CapSense_BUTTONL_SNS_CLK,
 246:Generated_Source\PSoC6/CapSense_Structure.c ****         CapSense_BUTTONL_SNS_CLK_SOURCE,
 247:Generated_Source\PSoC6/CapSense_Structure.c ****         CapSense_BUTTONL_FINGER_CAP,
 248:Generated_Source\PSoC6/CapSense_Structure.c ****         CapSense_BUTTONL_SIGPFC,
 249:Generated_Source\PSoC6/CapSense_Structure.c ****         CapSense_NO_GESTURE,
 250:Generated_Source\PSoC6/CapSense_Structure.c ****     },
 251:Generated_Source\PSoC6/CapSense_Structure.c ****     { /* LinearSlider0 */
 252:Generated_Source\PSoC6/CapSense_Structure.c ****         CapSense_LINEARSLIDER0_RESOLUTION,
 253:Generated_Source\PSoC6/CapSense_Structure.c ****         CapSense_LINEARSLIDER0_FINGER_TH,
 254:Generated_Source\PSoC6/CapSense_Structure.c ****         CapSense_LINEARSLIDER0_NOISE_TH,
 255:Generated_Source\PSoC6/CapSense_Structure.c ****         CapSense_LINEARSLIDER0_NNOISE_TH,
 256:Generated_Source\PSoC6/CapSense_Structure.c ****         CapSense_LINEARSLIDER0_HYSTERESIS,
 257:Generated_Source\PSoC6/CapSense_Structure.c ****         CapSense_LINEARSLIDER0_ON_DEBOUNCE,
 258:Generated_Source\PSoC6/CapSense_Structure.c ****         CapSense_LINEARSLIDER0_LOW_BSLN_RST,
 259:Generated_Source\PSoC6/CapSense_Structure.c ****         {
ARM GAS  C:\Users\nicpa\AppData\Local\Temp\cceOSKlL.s 			page 6


 260:Generated_Source\PSoC6/CapSense_Structure.c ****             CapSense_LINEARSLIDER0_IDAC_MOD0,
 261:Generated_Source\PSoC6/CapSense_Structure.c ****         },
 262:Generated_Source\PSoC6/CapSense_Structure.c ****         CapSense_LINEARSLIDER0_SNS_CLK,
 263:Generated_Source\PSoC6/CapSense_Structure.c ****         CapSense_LINEARSLIDER0_SNS_CLK_SOURCE,
 264:Generated_Source\PSoC6/CapSense_Structure.c ****         CapSense_LINEARSLIDER0_FINGER_CAP,
 265:Generated_Source\PSoC6/CapSense_Structure.c ****         CapSense_LINEARSLIDER0_SIGPFC,
 266:Generated_Source\PSoC6/CapSense_Structure.c ****         CapSense_NO_GESTURE,
 267:Generated_Source\PSoC6/CapSense_Structure.c ****         {
 268:Generated_Source\PSoC6/CapSense_Structure.c ****             CapSense_LINEARSLIDER0_POSITION,
 269:Generated_Source\PSoC6/CapSense_Structure.c ****         },
 270:Generated_Source\PSoC6/CapSense_Structure.c ****     },
 271:Generated_Source\PSoC6/CapSense_Structure.c **** };
 272:Generated_Source\PSoC6/CapSense_Structure.c **** 
 273:Generated_Source\PSoC6/CapSense_Structure.c **** 
 274:Generated_Source\PSoC6/CapSense_Structure.c **** /* IDAC Initialization Data */
 275:Generated_Source\PSoC6/CapSense_Structure.c **** const uint8 CapSense_ramIdacInit[CapSense_TOTAL_SENSORS] =
 276:Generated_Source\PSoC6/CapSense_Structure.c **** {
 277:Generated_Source\PSoC6/CapSense_Structure.c ****     /* ButtonR */
 278:Generated_Source\PSoC6/CapSense_Structure.c ****     CapSense_BUTTONR_RX0_IDAC_COMP0,
 279:Generated_Source\PSoC6/CapSense_Structure.c **** 
 280:Generated_Source\PSoC6/CapSense_Structure.c ****     /* ButtonL */
 281:Generated_Source\PSoC6/CapSense_Structure.c ****     CapSense_BUTTONL_RX0_IDAC_COMP0,
 282:Generated_Source\PSoC6/CapSense_Structure.c **** 
 283:Generated_Source\PSoC6/CapSense_Structure.c ****     /* LinearSlider0 */
 284:Generated_Source\PSoC6/CapSense_Structure.c ****     CapSense_LINEARSLIDER0_SNS0_IDAC_COMP0,
 285:Generated_Source\PSoC6/CapSense_Structure.c ****     CapSense_LINEARSLIDER0_SNS1_IDAC_COMP0,
 286:Generated_Source\PSoC6/CapSense_Structure.c ****     CapSense_LINEARSLIDER0_SNS2_IDAC_COMP0,
 287:Generated_Source\PSoC6/CapSense_Structure.c ****     CapSense_LINEARSLIDER0_SNS3_IDAC_COMP0,
 288:Generated_Source\PSoC6/CapSense_Structure.c ****     CapSense_LINEARSLIDER0_SNS4_IDAC_COMP0,
 289:Generated_Source\PSoC6/CapSense_Structure.c **** };
 290:Generated_Source\PSoC6/CapSense_Structure.c **** 
 291:Generated_Source\PSoC6/CapSense_Structure.c **** 
 292:Generated_Source\PSoC6/CapSense_Structure.c **** 
 293:Generated_Source\PSoC6/CapSense_Structure.c **** /* Gesture Initialization Data */
 294:Generated_Source\PSoC6/CapSense_Structure.c **** const CapSense_TMG_CONFIG_STRUCT CapSense_ramGesturesInit =
 295:Generated_Source\PSoC6/CapSense_Structure.c **** {
 296:Generated_Source\PSoC6/CapSense_Structure.c ****     sizeof(CapSense_TMG_CONFIG_STRUCT),
 297:Generated_Source\PSoC6/CapSense_Structure.c ****     8u,
 298:Generated_Source\PSoC6/CapSense_Structure.c ****     8u,
 299:Generated_Source\PSoC6/CapSense_Structure.c ****     CapSense_LINEARSLIDER0_DTZM_XPOS_TH,
 300:Generated_Source\PSoC6/CapSense_Structure.c ****     CapSense_LINEARSLIDER0_DTZM_YPOS_TH,
 301:Generated_Source\PSoC6/CapSense_Structure.c ****     CapSense_LINEARSLIDER0_STFK_POS_TH,
 302:Generated_Source\PSoC6/CapSense_Structure.c ****     CapSense_LINEARSLIDER0_STFK_YPOS_TH,
 303:Generated_Source\PSoC6/CapSense_Structure.c ****     CapSense_LINEARSLIDER0_STSL_XPOS_TH1,
 304:Generated_Source\PSoC6/CapSense_Structure.c ****     CapSense_LINEARSLIDER0_STSL_XPOS_TH2,
 305:Generated_Source\PSoC6/CapSense_Structure.c ****     CapSense_LINEARSLIDER0_STSL_XPOS_TH3,
 306:Generated_Source\PSoC6/CapSense_Structure.c ****     CapSense_LINEARSLIDER0_STSL_XPOS_TH4,
 307:Generated_Source\PSoC6/CapSense_Structure.c ****     CapSense_LINEARSLIDER0_STSL_YPOS_TH1,
 308:Generated_Source\PSoC6/CapSense_Structure.c ****     CapSense_LINEARSLIDER0_STSL_YPOS_TH2,
 309:Generated_Source\PSoC6/CapSense_Structure.c ****     CapSense_LINEARSLIDER0_STSL_YPOS_TH3,
 310:Generated_Source\PSoC6/CapSense_Structure.c ****     CapSense_LINEARSLIDER0_STSL_YPOS_TH4,
 311:Generated_Source\PSoC6/CapSense_Structure.c ****     CapSense_LINEARSLIDER0_STSL_SCROLL_STEP1,
 312:Generated_Source\PSoC6/CapSense_Structure.c ****     CapSense_LINEARSLIDER0_STSL_SCROLL_STEP2,
 313:Generated_Source\PSoC6/CapSense_Structure.c ****     CapSense_LINEARSLIDER0_STSL_SCROLL_STEP3,
 314:Generated_Source\PSoC6/CapSense_Structure.c ****     CapSense_LINEARSLIDER0_STSL_SCROLL_STEP4,
 315:Generated_Source\PSoC6/CapSense_Structure.c ****     CapSense_LINEARSLIDER0_STSL_DEBOUNCE,
 316:Generated_Source\PSoC6/CapSense_Structure.c ****     CapSense_LINEARSLIDER0_DTSL_XPOS_TH1,
ARM GAS  C:\Users\nicpa\AppData\Local\Temp\cceOSKlL.s 			page 7


 317:Generated_Source\PSoC6/CapSense_Structure.c ****     CapSense_LINEARSLIDER0_DTSL_XPOS_TH2,
 318:Generated_Source\PSoC6/CapSense_Structure.c ****     CapSense_LINEARSLIDER0_DTSL_XPOS_TH3,
 319:Generated_Source\PSoC6/CapSense_Structure.c ****     CapSense_LINEARSLIDER0_DTSL_XPOS_TH4,
 320:Generated_Source\PSoC6/CapSense_Structure.c ****     CapSense_LINEARSLIDER0_DTSL_YPOS_TH1,
 321:Generated_Source\PSoC6/CapSense_Structure.c ****     CapSense_LINEARSLIDER0_DTSL_YPOS_TH2,
 322:Generated_Source\PSoC6/CapSense_Structure.c ****     CapSense_LINEARSLIDER0_DTSL_YPOS_TH3,
 323:Generated_Source\PSoC6/CapSense_Structure.c ****     CapSense_LINEARSLIDER0_DTSL_YPOS_TH4,
 324:Generated_Source\PSoC6/CapSense_Structure.c ****     CapSense_LINEARSLIDER0_DTSL_SCROLL_STEP1,
 325:Generated_Source\PSoC6/CapSense_Structure.c ****     CapSense_LINEARSLIDER0_DTSL_SCROLL_STEP2,
 326:Generated_Source\PSoC6/CapSense_Structure.c ****     CapSense_LINEARSLIDER0_DTSL_SCROLL_STEP3,
 327:Generated_Source\PSoC6/CapSense_Structure.c ****     CapSense_LINEARSLIDER0_DTSL_SCROLL_STEP4,
 328:Generated_Source\PSoC6/CapSense_Structure.c ****     CapSense_LINEARSLIDER0_DTSL_DEBOUNCE,
 329:Generated_Source\PSoC6/CapSense_Structure.c ****     CapSense_LINEARSLIDER0_DTZM_SCROLL_ZOOM_DEBOUNCE,
 330:Generated_Source\PSoC6/CapSense_Structure.c ****     CapSense_LINEARSLIDER0_STSL_XPOS_TH,
 331:Generated_Source\PSoC6/CapSense_Structure.c ****     CapSense_LINEARSLIDER0_STSL_YPOS_TH,
 332:Generated_Source\PSoC6/CapSense_Structure.c ****     CapSense_LINEARSLIDER0_STSL_COUNT_LEVEL,
 333:Generated_Source\PSoC6/CapSense_Structure.c ****     CapSense_LINEARSLIDER0_DTSL_XPOS_TH,
 334:Generated_Source\PSoC6/CapSense_Structure.c ****     CapSense_LINEARSLIDER0_DTSL_YPOS_TH,
 335:Generated_Source\PSoC6/CapSense_Structure.c ****     CapSense_LINEARSLIDER0_DTSL_COUNT_LEVEL,
 336:Generated_Source\PSoC6/CapSense_Structure.c ****     CapSense_LINEARSLIDER0_STES_POS_TH,
 337:Generated_Source\PSoC6/CapSense_Structure.c ****     CapSense_LINEARSLIDER0_STES_TOP_ANGLE_TH,
 338:Generated_Source\PSoC6/CapSense_Structure.c ****     CapSense_LINEARSLIDER0_STES_BOTTOM_ANGLE_TH,
 339:Generated_Source\PSoC6/CapSense_Structure.c ****     CapSense_LINEARSLIDER0_STES_DISAM_AREA_WIDTH,
 340:Generated_Source\PSoC6/CapSense_Structure.c ****     3u,
 341:Generated_Source\PSoC6/CapSense_Structure.c ****     CapSense_LINEARSLIDER0_DTZM_DEBOUNCE,
 342:Generated_Source\PSoC6/CapSense_Structure.c ****     CapSense_LINEARSLIDER0_DTZM_DEBOUNCE,
 343:Generated_Source\PSoC6/CapSense_Structure.c ****     3u,
 344:Generated_Source\PSoC6/CapSense_Structure.c ****     CapSense_LINEARSLIDER0_STRT_ROTATE_DEBOUNCE,
 345:Generated_Source\PSoC6/CapSense_Structure.c ****     0u,
 346:Generated_Source\PSoC6/CapSense_Structure.c ****     CapSense_LINEARSLIDER0_STDC_MAX_RADIUS_DISPLACEMENT,
 347:Generated_Source\PSoC6/CapSense_Structure.c ****     CapSense_LINEARSLIDER0_STSC_XMAX_POS_DISPLACEMENT,
 348:Generated_Source\PSoC6/CapSense_Structure.c ****     CapSense_LINEARSLIDER0_STSC_YMAX_POS_DISPLACEMENT,
 349:Generated_Source\PSoC6/CapSense_Structure.c ****     CapSense_LINEARSLIDER0_DT_SETTLING_TIME,
 350:Generated_Source\PSoC6/CapSense_Structure.c ****     CapSense_LINEARSLIDER0_RESOLUTION,
 351:Generated_Source\PSoC6/CapSense_Structure.c ****     0u,
 352:Generated_Source\PSoC6/CapSense_Structure.c ****     CapSense_LINEARSLIDER0_STFK_MAX_SAMPLE_INTERVAL,
 353:Generated_Source\PSoC6/CapSense_Structure.c ****     CapSense_LINEARSLIDER0_STES_TIMEOUT_INTERVAL,
 354:Generated_Source\PSoC6/CapSense_Structure.c ****     CapSense_LINEARSLIDER0_DTSC_MAX_TOUCH_DURATION,
 355:Generated_Source\PSoC6/CapSense_Structure.c ****     CapSense_LINEARSLIDER0_DTSC_MIN_TOUCH_DURATION,
 356:Generated_Source\PSoC6/CapSense_Structure.c ****     CapSense_LINEARSLIDER0_STSC_MAX_TOUCH_DURATION,
 357:Generated_Source\PSoC6/CapSense_Structure.c ****     CapSense_LINEARSLIDER0_STSC_MIN_TOUCH_DURATION,
 358:Generated_Source\PSoC6/CapSense_Structure.c ****     CapSense_LINEARSLIDER0_STDC_MAX_TOUCH_INTERVAL,
 359:Generated_Source\PSoC6/CapSense_Structure.c ****     CapSense_LINEARSLIDER0_STDC_MIN_TOUCH_INTERVAL,
 360:Generated_Source\PSoC6/CapSense_Structure.c ****     240u,
 361:Generated_Source\PSoC6/CapSense_Structure.c ****     40u,
 362:Generated_Source\PSoC6/CapSense_Structure.c ****     41u,
 363:Generated_Source\PSoC6/CapSense_Structure.c ****     48u,
 364:Generated_Source\PSoC6/CapSense_Structure.c ****     63u,
 365:Generated_Source\PSoC6/CapSense_Structure.c ****     72u,
 366:Generated_Source\PSoC6/CapSense_Structure.c ****     73u,
 367:Generated_Source\PSoC6/CapSense_Structure.c ****     144u,
 368:Generated_Source\PSoC6/CapSense_Structure.c ****     159u,
 369:Generated_Source\PSoC6/CapSense_Structure.c **** };
 370:Generated_Source\PSoC6/CapSense_Structure.c **** 
 371:Generated_Source\PSoC6/CapSense_Structure.c **** /*******************************************************************************
 372:Generated_Source\PSoC6/CapSense_Structure.c **** * Defines internal data types and statements
 373:Generated_Source\PSoC6/CapSense_Structure.c **** *******************************************************************************/
ARM GAS  C:\Users\nicpa\AppData\Local\Temp\cceOSKlL.s 			page 8


 374:Generated_Source\PSoC6/CapSense_Structure.c **** #define PARAM_TYPE_OFFSET       (30u)
 375:Generated_Source\PSoC6/CapSense_Structure.c **** #define PARAM_TYPE_MASK         (3Lu << PARAM_TYPE_OFFSET)
 376:Generated_Source\PSoC6/CapSense_Structure.c **** #define PARAM_RWBIT_OFFSET      (29u)
 377:Generated_Source\PSoC6/CapSense_Structure.c **** #define PARAM_RWBIT_MASK        (1Lu << PARAM_RWBIT_OFFSET)
 378:Generated_Source\PSoC6/CapSense_Structure.c **** #define PARAM_FBIT_OFFSET       (28u)
 379:Generated_Source\PSoC6/CapSense_Structure.c **** #define PARAM_FBIT_MASK         (1Lu << PARAM_FBIT_OFFSET)
 380:Generated_Source\PSoC6/CapSense_Structure.c **** #define PARAM_UBIT_OFFSET       (23u)
 381:Generated_Source\PSoC6/CapSense_Structure.c **** #define PARAM_UBIT_MASK         (1Lu << PARAM_UBIT_OFFSET)
 382:Generated_Source\PSoC6/CapSense_Structure.c **** #define PARAM_WDID_OFFSET       (16u)
 383:Generated_Source\PSoC6/CapSense_Structure.c **** #define PARAM_WDID_MASK         (0x7FLu << PARAM_WDID_OFFSET)
 384:Generated_Source\PSoC6/CapSense_Structure.c **** #define PARAM_CRC_OFFSET        (24u)
 385:Generated_Source\PSoC6/CapSense_Structure.c **** #define PARAM_CRC_MASK          (0x0FLu << PARAM_CRC_OFFSET)
 386:Generated_Source\PSoC6/CapSense_Structure.c **** 
 387:Generated_Source\PSoC6/CapSense_Structure.c **** /* Defines align masks for uint16 and uint32 */
 388:Generated_Source\PSoC6/CapSense_Structure.c **** #define UINT16_ALIGN_MASK       (1Lu)
 389:Generated_Source\PSoC6/CapSense_Structure.c **** #define UINT32_ALIGN_MASK       (3Lu)
 390:Generated_Source\PSoC6/CapSense_Structure.c **** 
 391:Generated_Source\PSoC6/CapSense_Structure.c **** /* Defines supported parameter types */
 392:Generated_Source\PSoC6/CapSense_Structure.c **** #define DS_PARAM_TYPE_UINT8     (0x01u)
 393:Generated_Source\PSoC6/CapSense_Structure.c **** #define DS_PARAM_TYPE_UINT16    (0x02u)
 394:Generated_Source\PSoC6/CapSense_Structure.c **** #define DS_PARAM_TYPE_UINT32    (0x03u)
 395:Generated_Source\PSoC6/CapSense_Structure.c **** 
 396:Generated_Source\PSoC6/CapSense_Structure.c **** 
 397:Generated_Source\PSoC6/CapSense_Structure.c **** /* Defines PARAM_ID structure */
 398:Generated_Source\PSoC6/CapSense_Structure.c **** typedef struct
 399:Generated_Source\PSoC6/CapSense_Structure.c **** {
 400:Generated_Source\PSoC6/CapSense_Structure.c ****     uint16 offset;      /* parameter offset */
 401:Generated_Source\PSoC6/CapSense_Structure.c ****     uint8  widgetId;    /* widget Id parameter belongs to */
 402:Generated_Source\PSoC6/CapSense_Structure.c ****     uint8  affectsCrc;  /* parameter affects widget CRC */
 403:Generated_Source\PSoC6/CapSense_Structure.c ****     uint8  crc;         /* parameter CRC */
 404:Generated_Source\PSoC6/CapSense_Structure.c ****     uint8  flash;       /* parameter located in FLASH flag */
 405:Generated_Source\PSoC6/CapSense_Structure.c ****     uint8  rw;          /* parameter is read/write flag */
 406:Generated_Source\PSoC6/CapSense_Structure.c ****     uint8  type;        /* parameter type: uint8/uint16/uint32 */
 407:Generated_Source\PSoC6/CapSense_Structure.c **** } PARAM_ID_STRUCT;
 408:Generated_Source\PSoC6/CapSense_Structure.c **** 
 409:Generated_Source\PSoC6/CapSense_Structure.c **** 
 410:Generated_Source\PSoC6/CapSense_Structure.c **** /*******************************************************************************
 411:Generated_Source\PSoC6/CapSense_Structure.c **** * Static Function Prototypes
 412:Generated_Source\PSoC6/CapSense_Structure.c **** *******************************************************************************/
 413:Generated_Source\PSoC6/CapSense_Structure.c **** /**
 414:Generated_Source\PSoC6/CapSense_Structure.c **** * \cond SECTION_CYSENSE_INTERNAL
 415:Generated_Source\PSoC6/CapSense_Structure.c **** * \addtogroup group_cysense_internal
 416:Generated_Source\PSoC6/CapSense_Structure.c **** * \{
 417:Generated_Source\PSoC6/CapSense_Structure.c **** */
 418:Generated_Source\PSoC6/CapSense_Structure.c **** 
 419:Generated_Source\PSoC6/CapSense_Structure.c **** 
 420:Generated_Source\PSoC6/CapSense_Structure.c **** 
 421:Generated_Source\PSoC6/CapSense_Structure.c **** static cy_status DsParseParamId(uint32 paramId, PARAM_ID_STRUCT *pData);
 422:Generated_Source\PSoC6/CapSense_Structure.c **** 
 423:Generated_Source\PSoC6/CapSense_Structure.c **** /** \}
 424:Generated_Source\PSoC6/CapSense_Structure.c **** * \endcond */
 425:Generated_Source\PSoC6/CapSense_Structure.c **** 
 426:Generated_Source\PSoC6/CapSense_Structure.c **** 
 427:Generated_Source\PSoC6/CapSense_Structure.c **** /*******************************************************************************
 428:Generated_Source\PSoC6/CapSense_Structure.c **** * Function Name: CapSense_DsInitialize
 429:Generated_Source\PSoC6/CapSense_Structure.c **** ****************************************************************************//**
 430:Generated_Source\PSoC6/CapSense_Structure.c **** *
ARM GAS  C:\Users\nicpa\AppData\Local\Temp\cceOSKlL.s 			page 9


 431:Generated_Source\PSoC6/CapSense_Structure.c **** * \brief
 432:Generated_Source\PSoC6/CapSense_Structure.c **** *   This function initializes the Data Structure storage.
 433:Generated_Source\PSoC6/CapSense_Structure.c **** *
 434:Generated_Source\PSoC6/CapSense_Structure.c **** * \details
 435:Generated_Source\PSoC6/CapSense_Structure.c **** *   This function copies the default widget configuration parameters
 436:Generated_Source\PSoC6/CapSense_Structure.c **** *   from the Flash storage into the RAM Data Structure.
 437:Generated_Source\PSoC6/CapSense_Structure.c **** *
 438:Generated_Source\PSoC6/CapSense_Structure.c **** *******************************************************************************/
 439:Generated_Source\PSoC6/CapSense_Structure.c **** void CapSense_DsInitialize(void)
 440:Generated_Source\PSoC6/CapSense_Structure.c **** {
 441:Generated_Source\PSoC6/CapSense_Structure.c ****     #if ((CapSense_ENABLE == CapSense_CSX_EN) || \
 442:Generated_Source\PSoC6/CapSense_Structure.c ****          (CapSense_ENABLE == CapSense_CSD_IDAC_COMP_EN) || \
 443:Generated_Source\PSoC6/CapSense_Structure.c ****         ((CapSense_ENABLE == CapSense_CSX_EN) && \
 444:Generated_Source\PSoC6/CapSense_Structure.c ****          (CapSense_ENABLE == CapSense_CSX_SKIP_OVSMPL_SPECIFIC_NODES)))
 445:Generated_Source\PSoC6/CapSense_Structure.c ****         uint32 snsId;
 446:Generated_Source\PSoC6/CapSense_Structure.c ****         uint32 wdgtId;
 447:Generated_Source\PSoC6/CapSense_Structure.c ****         CapSense_RAM_SNS_STRUCT * ptrSnsTmp;
 448:Generated_Source\PSoC6/CapSense_Structure.c ****         CapSense_FLASH_WD_STRUCT const * ptrFlashWdgt;
 449:Generated_Source\PSoC6/CapSense_Structure.c ****     #endif
 450:Generated_Source\PSoC6/CapSense_Structure.c **** 
 451:Generated_Source\PSoC6/CapSense_Structure.c ****     #if ((CapSense_ENABLE == CapSense_CSX_EN) && \
 452:Generated_Source\PSoC6/CapSense_Structure.c ****          (CapSense_ENABLE == CapSense_CSX_SKIP_OVSMPL_SPECIFIC_NODES))
 453:Generated_Source\PSoC6/CapSense_Structure.c ****         uint16 subConvNumber;
 454:Generated_Source\PSoC6/CapSense_Structure.c ****     #endif
 455:Generated_Source\PSoC6/CapSense_Structure.c **** 
 456:Generated_Source\PSoC6/CapSense_Structure.c ****     #if (0u != CapSense_CSX_EN) || (0 != CapSense_CSD_IDAC_COMP_EN)
 457:Generated_Source\PSoC6/CapSense_Structure.c ****         uint8 const * ptrIdacInit = CapSense_ramIdacInit;
 458:Generated_Source\PSoC6/CapSense_Structure.c ****     #endif
 459:Generated_Source\PSoC6/CapSense_Structure.c **** 
 460:Generated_Source\PSoC6/CapSense_Structure.c ****     /* Reset RAM data structure content */
 461:Generated_Source\PSoC6/CapSense_Structure.c ****     (void)memset(&CapSense_dsRam, 0, sizeof(CapSense_dsRam));
 462:Generated_Source\PSoC6/CapSense_Structure.c **** 
 463:Generated_Source\PSoC6/CapSense_Structure.c ****     /* Initialize configId, deviceId and hwClock registers */
 464:Generated_Source\PSoC6/CapSense_Structure.c ****     CapSense_dsRam.configId = CapSense_CONFIG_ID;
 465:Generated_Source\PSoC6/CapSense_Structure.c ****     CapSense_dsRam.deviceId = CapSense_DEVICE_ID;
 466:Generated_Source\PSoC6/CapSense_Structure.c ****     CapSense_dsRam.hwClock = CapSense_HW_CLOCK;
 467:Generated_Source\PSoC6/CapSense_Structure.c **** 
 468:Generated_Source\PSoC6/CapSense_Structure.c ****     /* Initialize global RAM data */
 469:Generated_Source\PSoC6/CapSense_Structure.c ****     CapSense_dsRam.csd0Config = CapSense_CSD0_CONFIG;
 470:Generated_Source\PSoC6/CapSense_Structure.c **** 
 471:Generated_Source\PSoC6/CapSense_Structure.c ****     #if (0u != CapSense_TOTAL_CSD_WIDGETS)
 472:Generated_Source\PSoC6/CapSense_Structure.c ****         CapSense_dsRam.modCsdClk = CapSense_CSD_SCANSPEED_DIVIDER;
 473:Generated_Source\PSoC6/CapSense_Structure.c **** 
 474:Generated_Source\PSoC6/CapSense_Structure.c ****         #if (0u != CapSense_CSD_COMMON_SNS_CLK_EN)
 475:Generated_Source\PSoC6/CapSense_Structure.c ****             CapSense_dsRam.snsCsdClk = CapSense_CSD_SNS_CLK_DIVIDER;
 476:Generated_Source\PSoC6/CapSense_Structure.c ****         #endif /* #if (0u != CapSense_CSD_COMMON_SNS_CLK_EN) */
 477:Generated_Source\PSoC6/CapSense_Structure.c ****     #endif /* #if (0u != CapSense_TOTAL_CSD_WIDGETS) */
 478:Generated_Source\PSoC6/CapSense_Structure.c **** 
 479:Generated_Source\PSoC6/CapSense_Structure.c ****     #if (0u != CapSense_CSX_EN)
 480:Generated_Source\PSoC6/CapSense_Structure.c ****         CapSense_dsRam.modCsxClk = CapSense_CSX_SCANSPEED_DIVIDER;
 481:Generated_Source\PSoC6/CapSense_Structure.c **** 
 482:Generated_Source\PSoC6/CapSense_Structure.c ****         #if (0u != CapSense_CSX_COMMON_TX_CLK_EN)
 483:Generated_Source\PSoC6/CapSense_Structure.c ****             CapSense_dsRam.snsCsxClk = CapSense_CSX_TX_CLK_DIVIDER;
 484:Generated_Source\PSoC6/CapSense_Structure.c ****         #endif /* #if (0u != CapSense_CSX_COMMON_TX_CLK_EN) */
 485:Generated_Source\PSoC6/CapSense_Structure.c ****     #endif /* #if (0u != CapSense_CSX_EN) */
 486:Generated_Source\PSoC6/CapSense_Structure.c **** 
 487:Generated_Source\PSoC6/CapSense_Structure.c ****     #if (0u != CapSense_SELF_TEST_EN)
ARM GAS  C:\Users\nicpa\AppData\Local\Temp\cceOSKlL.s 			page 10


 488:Generated_Source\PSoC6/CapSense_Structure.c ****         CapSense_dsRam.glbCrc = CapSense_GLB_CRC;
 489:Generated_Source\PSoC6/CapSense_Structure.c ****     #endif /* #if (0u != CapSense_SELF_TEST_EN) */
 490:Generated_Source\PSoC6/CapSense_Structure.c **** 
 491:Generated_Source\PSoC6/CapSense_Structure.c ****     /* Initialize RAM widget data */
 492:Generated_Source\PSoC6/CapSense_Structure.c ****     CapSense_dsRam.wdgtList = CapSense_ramWidgetInit;
 493:Generated_Source\PSoC6/CapSense_Structure.c **** 
 494:Generated_Source\PSoC6/CapSense_Structure.c ****     /* Initialize Gesture configuration structure */
 495:Generated_Source\PSoC6/CapSense_Structure.c ****     #if ((0u != CapSense_GES_GLOBAL_EN) || (0u != CapSense_BALLISTIC_MULTIPLIER_EN))
 496:Generated_Source\PSoC6/CapSense_Structure.c ****         CapSense_dsRam.timestampInterval = CapSense_TIMESTAMP_INTERVAL;
 497:Generated_Source\PSoC6/CapSense_Structure.c ****     #endif /* ((0u != CapSense_GES_GLOBAL_EN) || (0u != CapSense_BALLISTIC_MULTIPLIER_EN)) */
 498:Generated_Source\PSoC6/CapSense_Structure.c **** 
 499:Generated_Source\PSoC6/CapSense_Structure.c ****     #if (0u != CapSense_GES_GLOBAL_EN)
 500:Generated_Source\PSoC6/CapSense_Structure.c ****         CapSense_dsRam.gestures = CapSense_ramGesturesInit;
 501:Generated_Source\PSoC6/CapSense_Structure.c ****     #endif /* (0u != CapSense_GES_GLOBAL_EN) */
 502:Generated_Source\PSoC6/CapSense_Structure.c **** 
 503:Generated_Source\PSoC6/CapSense_Structure.c ****     #if (0u != CapSense_BALLISTIC_MULTIPLIER_EN)
 504:Generated_Source\PSoC6/CapSense_Structure.c ****         CapSense_dsRam.ballisticConfig = CapSense_ramBallisticInit;
 505:Generated_Source\PSoC6/CapSense_Structure.c ****     #endif /* (0u != CapSense_BALLISTIC_MULTIPLIER_EN) */
 506:Generated_Source\PSoC6/CapSense_Structure.c **** 
 507:Generated_Source\PSoC6/CapSense_Structure.c ****     #if (0u != CapSense_CSX_EN) || (0 != CapSense_CSD_IDAC_COMP_EN)
 508:Generated_Source\PSoC6/CapSense_Structure.c ****         /* Initialize IDAC data */
 509:Generated_Source\PSoC6/CapSense_Structure.c ****         ptrFlashWdgt = CapSense_dsFlash.wdgtArray;
 510:Generated_Source\PSoC6/CapSense_Structure.c **** 
 511:Generated_Source\PSoC6/CapSense_Structure.c ****         for (wdgtId = CapSense_TOTAL_WIDGETS; wdgtId-- > 0u; )
 512:Generated_Source\PSoC6/CapSense_Structure.c ****         {
 513:Generated_Source\PSoC6/CapSense_Structure.c ****             ptrSnsTmp = ptrFlashWdgt->ptr2SnsRam;
 514:Generated_Source\PSoC6/CapSense_Structure.c **** 
 515:Generated_Source\PSoC6/CapSense_Structure.c ****             for (snsId = CapSense_GET_SNS_CNT_BY_PTR(ptrFlashWdgt); snsId-- > 0u;)
 516:Generated_Source\PSoC6/CapSense_Structure.c ****             {
 517:Generated_Source\PSoC6/CapSense_Structure.c ****                 ptrSnsTmp->idacComp[0u] = *ptrIdacInit;
 518:Generated_Source\PSoC6/CapSense_Structure.c ****                 ptrIdacInit++;
 519:Generated_Source\PSoC6/CapSense_Structure.c **** 
 520:Generated_Source\PSoC6/CapSense_Structure.c ****                 #if (0u != CapSense_MULTI_FREQ_SCAN_EN)
 521:Generated_Source\PSoC6/CapSense_Structure.c ****                     ptrSnsTmp->idacComp[1u] = *ptrIdacInit;
 522:Generated_Source\PSoC6/CapSense_Structure.c ****                     ptrIdacInit++;
 523:Generated_Source\PSoC6/CapSense_Structure.c **** 
 524:Generated_Source\PSoC6/CapSense_Structure.c ****                     ptrSnsTmp->idacComp[2u] = *ptrIdacInit;
 525:Generated_Source\PSoC6/CapSense_Structure.c ****                     ptrIdacInit++;
 526:Generated_Source\PSoC6/CapSense_Structure.c ****                 #endif /* #if (0u != CapSense_MULTI_FREQ_SCAN_EN) */
 527:Generated_Source\PSoC6/CapSense_Structure.c **** 
 528:Generated_Source\PSoC6/CapSense_Structure.c ****                 ptrSnsTmp++;
 529:Generated_Source\PSoC6/CapSense_Structure.c ****             }
 530:Generated_Source\PSoC6/CapSense_Structure.c **** 
 531:Generated_Source\PSoC6/CapSense_Structure.c ****             ptrFlashWdgt++; /* Move to next widget */
 532:Generated_Source\PSoC6/CapSense_Structure.c ****         }
 533:Generated_Source\PSoC6/CapSense_Structure.c ****     #endif /*(0u != CapSense_CSX_EN) || (0 != CapSense_CSD_IDAC_COMP_EN)*/
 534:Generated_Source\PSoC6/CapSense_Structure.c **** 
 535:Generated_Source\PSoC6/CapSense_Structure.c ****     #if ((CapSense_ENABLE == CapSense_CSX_EN) && \
 536:Generated_Source\PSoC6/CapSense_Structure.c ****          (CapSense_ENABLE == CapSense_CSX_SKIP_OVSMPL_SPECIFIC_NODES))
 537:Generated_Source\PSoC6/CapSense_Structure.c ****         /* Initialize Sub-Conversion Number for each node of each CSX widget */
 538:Generated_Source\PSoC6/CapSense_Structure.c ****         ptrFlashWdgt = CapSense_dsFlash.wdgtArray;
 539:Generated_Source\PSoC6/CapSense_Structure.c ****         for (wdgtId = CapSense_TOTAL_WIDGETS; wdgtId-- > 0u;)
 540:Generated_Source\PSoC6/CapSense_Structure.c ****         {
 541:Generated_Source\PSoC6/CapSense_Structure.c ****             /* Check for widget sense method */
 542:Generated_Source\PSoC6/CapSense_Structure.c ****             if (CapSense_SENSE_METHOD_CSX_E == CapSense_GET_SENSE_METHOD(ptrFlashWdgt))
 543:Generated_Source\PSoC6/CapSense_Structure.c ****             {
 544:Generated_Source\PSoC6/CapSense_Structure.c ****                 /* Take the sub-convesion number of a CSX widget and initialize each node of this w
ARM GAS  C:\Users\nicpa\AppData\Local\Temp\cceOSKlL.s 			page 11


 545:Generated_Source\PSoC6/CapSense_Structure.c ****                 subConvNumber = ((CapSense_RAM_WD_BASE_STRUCT *)(ptrFlashWdgt->ptr2WdgtRam))->resol
 546:Generated_Source\PSoC6/CapSense_Structure.c ****                 ptrSnsTmp = ptrFlashWdgt->ptr2SnsRam;
 547:Generated_Source\PSoC6/CapSense_Structure.c ****                 for (snsId = CapSense_GET_SNS_CNT_BY_PTR(ptrFlashWdgt); snsId-- > 0u;)
 548:Generated_Source\PSoC6/CapSense_Structure.c ****                 {
 549:Generated_Source\PSoC6/CapSense_Structure.c ****                     ptrSnsTmp->subConvNum = subConvNumber;
 550:Generated_Source\PSoC6/CapSense_Structure.c ****                     ptrSnsTmp++;
 551:Generated_Source\PSoC6/CapSense_Structure.c ****                 }
 552:Generated_Source\PSoC6/CapSense_Structure.c ****             }
 553:Generated_Source\PSoC6/CapSense_Structure.c ****             /* Move to the next widget */
 554:Generated_Source\PSoC6/CapSense_Structure.c ****             ptrFlashWdgt++;
 555:Generated_Source\PSoC6/CapSense_Structure.c ****         }
 556:Generated_Source\PSoC6/CapSense_Structure.c ****     #endif /* ((CapSense_ENABLE == CapSense_CSX_EN) && \
 557:Generated_Source\PSoC6/CapSense_Structure.c ****                (CapSense_ENABLE == CapSense_CSX_SKIP_OVSMPL_SPECIFIC_NODES)) */
 558:Generated_Source\PSoC6/CapSense_Structure.c **** 
 559:Generated_Source\PSoC6/CapSense_Structure.c ****     #if (0u != CapSense_ADC_EN)
 560:Generated_Source\PSoC6/CapSense_Structure.c ****         CapSense_AdcDsInitialize();
 561:Generated_Source\PSoC6/CapSense_Structure.c ****     #endif /* (0u != CapSense_ADC_EN) */
 562:Generated_Source\PSoC6/CapSense_Structure.c **** }
 563:Generated_Source\PSoC6/CapSense_Structure.c **** 
 564:Generated_Source\PSoC6/CapSense_Structure.c **** 
 565:Generated_Source\PSoC6/CapSense_Structure.c **** #if (0u != CapSense_ADC_EN)
 566:Generated_Source\PSoC6/CapSense_Structure.c ****     /*******************************************************************************
 567:Generated_Source\PSoC6/CapSense_Structure.c ****     * Function Name: CapSense_AdcDsInitialize
 568:Generated_Source\PSoC6/CapSense_Structure.c ****     ****************************************************************************//**
 569:Generated_Source\PSoC6/CapSense_Structure.c ****     *
 570:Generated_Source\PSoC6/CapSense_Structure.c ****     * \brief
 571:Generated_Source\PSoC6/CapSense_Structure.c ****     *   Configures the initial Adc datastructure members.
 572:Generated_Source\PSoC6/CapSense_Structure.c ****     *
 573:Generated_Source\PSoC6/CapSense_Structure.c ****     *******************************************************************************/
 574:Generated_Source\PSoC6/CapSense_Structure.c ****     void CapSense_AdcDsInitialize(void)
 575:Generated_Source\PSoC6/CapSense_Structure.c ****     {
 576:Generated_Source\PSoC6/CapSense_Structure.c ****         CapSense_dsRam.adcResolution = CapSense_ADC_RESOLUTION;
 577:Generated_Source\PSoC6/CapSense_Structure.c ****         CapSense_dsRam.adcIdac = (uint8)(CapSense_ADC_IDAC_DEFAULT);
 578:Generated_Source\PSoC6/CapSense_Structure.c ****         CapSense_dsRam.adcActiveCh = CapSense_AdcNO_CHANNEL;
 579:Generated_Source\PSoC6/CapSense_Structure.c ****     }
 580:Generated_Source\PSoC6/CapSense_Structure.c **** #endif /* (0u != CapSense_ADC_EN) */
 581:Generated_Source\PSoC6/CapSense_Structure.c **** 
 582:Generated_Source\PSoC6/CapSense_Structure.c **** 
 583:Generated_Source\PSoC6/CapSense_Structure.c **** /*******************************************************************************
 584:Generated_Source\PSoC6/CapSense_Structure.c **** * Function Name: DsParseParamId
 585:Generated_Source\PSoC6/CapSense_Structure.c **** ****************************************************************************//**
 586:Generated_Source\PSoC6/CapSense_Structure.c **** *
 587:Generated_Source\PSoC6/CapSense_Structure.c **** * \brief
 588:Generated_Source\PSoC6/CapSense_Structure.c **** *   This function parses the parameter ID and checks its correctness.
 589:Generated_Source\PSoC6/CapSense_Structure.c **** *
 590:Generated_Source\PSoC6/CapSense_Structure.c **** * \details
 591:Generated_Source\PSoC6/CapSense_Structure.c **** *   This function checks the parameter CRC if the self-test is enabled,
 592:Generated_Source\PSoC6/CapSense_Structure.c **** *   validates the offset value and parameter type.
 593:Generated_Source\PSoC6/CapSense_Structure.c **** *
 594:Generated_Source\PSoC6/CapSense_Structure.c **** * \param paramId The parameter to parse.
 595:Generated_Source\PSoC6/CapSense_Structure.c **** * \param pData   The pointer to the structure that will hold parsed data.
 596:Generated_Source\PSoC6/CapSense_Structure.c **** *
 597:Generated_Source\PSoC6/CapSense_Structure.c **** * \return CY_RET_SUCCESS     If the parameter is valid
 598:Generated_Source\PSoC6/CapSense_Structure.c **** *         CY_RET_BAD_PARAM   If  the parameter is invalid
 599:Generated_Source\PSoC6/CapSense_Structure.c **** *
 600:Generated_Source\PSoC6/CapSense_Structure.c **** *******************************************************************************/
 601:Generated_Source\PSoC6/CapSense_Structure.c **** static cy_status DsParseParamId(uint32 paramId, PARAM_ID_STRUCT *pData)
ARM GAS  C:\Users\nicpa\AppData\Local\Temp\cceOSKlL.s 			page 12


 602:Generated_Source\PSoC6/CapSense_Structure.c **** {
  27              		.loc 1 602 0
  28              		.cfi_startproc
  29              		@ args = 0, pretend = 0, frame = 0
  30              		@ frame_needed = 0, uses_anonymous_args = 0
  31              	.LVL0:
  32 0000 70B5     		push	{r4, r5, r6, lr}
  33              		.cfi_def_cfa_offset 16
  34              		.cfi_offset 4, -16
  35              		.cfi_offset 5, -12
  36              		.cfi_offset 6, -8
  37              		.cfi_offset 14, -4
  38              	.LVL1:
 603:Generated_Source\PSoC6/CapSense_Structure.c ****     cy_status result = CY_RET_SUCCESS;
 604:Generated_Source\PSoC6/CapSense_Structure.c **** 
 605:Generated_Source\PSoC6/CapSense_Structure.c ****     #if (0u != CapSense_SELF_TEST_EN)
 606:Generated_Source\PSoC6/CapSense_Structure.c ****         const uint8 crcTable[] =
 607:Generated_Source\PSoC6/CapSense_Structure.c ****         {
 608:Generated_Source\PSoC6/CapSense_Structure.c ****             0x00u, 0x09u, 0x0Bu, 0x02u, 0x0Fu, 0x06u, 0x04u, 0x0Du,
 609:Generated_Source\PSoC6/CapSense_Structure.c ****             0x07u, 0x0Eu, 0x0Cu, 0x05u, 0x08u, 0x01u, 0x03u, 0x0Au
 610:Generated_Source\PSoC6/CapSense_Structure.c ****         };
 611:Generated_Source\PSoC6/CapSense_Structure.c **** 
 612:Generated_Source\PSoC6/CapSense_Structure.c ****         uint32 i;
 613:Generated_Source\PSoC6/CapSense_Structure.c ****         uint32 actualCrc = 0u;
 614:Generated_Source\PSoC6/CapSense_Structure.c ****         uint32 crcIndex;
 615:Generated_Source\PSoC6/CapSense_Structure.c ****     #endif /* #if (0u != CapSense_SELF_TEST_EN) */
 616:Generated_Source\PSoC6/CapSense_Structure.c **** 
 617:Generated_Source\PSoC6/CapSense_Structure.c ****     /* Extract parameter data */
 618:Generated_Source\PSoC6/CapSense_Structure.c ****     pData->offset     = CY_LO16(paramId);
  39              		.loc 1 618 0
  40 0002 85B2     		uxth	r5, r0
  41 0004 0D80     		strh	r5, [r1]
 619:Generated_Source\PSoC6/CapSense_Structure.c ****     pData->affectsCrc = CY_LO8((paramId & PARAM_UBIT_MASK)  >> PARAM_UBIT_OFFSET);
  42              		.loc 1 619 0
  43 0006 C30D     		lsrs	r3, r0, #23
  44 0008 0124     		movs	r4, #1
  45 000a 2340     		ands	r3, r4
  46 000c CB70     		strb	r3, [r1, #3]
 620:Generated_Source\PSoC6/CapSense_Structure.c ****     pData->widgetId   = CY_LO8((paramId & PARAM_WDID_MASK)  >> PARAM_WDID_OFFSET);
  47              		.loc 1 620 0
  48 000e 030C     		lsrs	r3, r0, #16
  49 0010 7F22     		movs	r2, #127
  50 0012 1340     		ands	r3, r2
  51 0014 8B70     		strb	r3, [r1, #2]
 621:Generated_Source\PSoC6/CapSense_Structure.c ****     pData->type       = CY_LO8((paramId & PARAM_TYPE_MASK)  >> PARAM_TYPE_OFFSET);
  52              		.loc 1 621 0
  53 0016 860F     		lsrs	r6, r0, #30
  54 0018 CE71     		strb	r6, [r1, #7]
 622:Generated_Source\PSoC6/CapSense_Structure.c ****     pData->flash      = CY_LO8((paramId & PARAM_FBIT_MASK)  >> PARAM_FBIT_OFFSET);
  55              		.loc 1 622 0
  56 001a 030F     		lsrs	r3, r0, #28
  57 001c 2340     		ands	r3, r4
  58 001e 4B71     		strb	r3, [r1, #5]
 623:Generated_Source\PSoC6/CapSense_Structure.c ****     pData->rw         = CY_LO8((paramId & PARAM_RWBIT_MASK) >> PARAM_RWBIT_OFFSET);
  59              		.loc 1 623 0
  60 0020 420F     		lsrs	r2, r0, #29
  61 0022 2240     		ands	r2, r4
ARM GAS  C:\Users\nicpa\AppData\Local\Temp\cceOSKlL.s 			page 13


  62 0024 8A71     		strb	r2, [r1, #6]
 624:Generated_Source\PSoC6/CapSense_Structure.c ****     pData->crc        = CY_LO8((paramId & PARAM_CRC_MASK)   >> PARAM_CRC_OFFSET);
  63              		.loc 1 624 0
  64 0026 000E     		lsrs	r0, r0, #24
  65              	.LVL2:
  66 0028 0E34     		adds	r4, r4, #14
  67 002a 2040     		ands	r0, r4
  68 002c 0871     		strb	r0, [r1, #4]
 625:Generated_Source\PSoC6/CapSense_Structure.c **** 
 626:Generated_Source\PSoC6/CapSense_Structure.c ****     /* Check parameter CRC if self-test is enabled */
 627:Generated_Source\PSoC6/CapSense_Structure.c ****     #if (0u != CapSense_SELF_TEST_EN)
 628:Generated_Source\PSoC6/CapSense_Structure.c **** 
 629:Generated_Source\PSoC6/CapSense_Structure.c ****         /* Calculate CRC for bits 0..24.
 630:Generated_Source\PSoC6/CapSense_Structure.c ****          * The CRC is calculated using nibbles (4-bits).
 631:Generated_Source\PSoC6/CapSense_Structure.c ****          * So for 0..24 bits there are in total 6 nibbles. */
 632:Generated_Source\PSoC6/CapSense_Structure.c ****         for (i = 6u; i > 0u; i--)
 633:Generated_Source\PSoC6/CapSense_Structure.c ****         {
 634:Generated_Source\PSoC6/CapSense_Structure.c ****             crcIndex = actualCrc ^ (paramId & 0x0Fu);
 635:Generated_Source\PSoC6/CapSense_Structure.c ****             actualCrc = crcTable[crcIndex];
 636:Generated_Source\PSoC6/CapSense_Structure.c ****             paramId >>= 4u;
 637:Generated_Source\PSoC6/CapSense_Structure.c ****         }
 638:Generated_Source\PSoC6/CapSense_Structure.c **** 
 639:Generated_Source\PSoC6/CapSense_Structure.c ****         /* Add bits 28..32 */
 640:Generated_Source\PSoC6/CapSense_Structure.c ****         crcIndex = actualCrc ^ ((paramId >> 4u) & 0x0Fu);
 641:Generated_Source\PSoC6/CapSense_Structure.c ****         actualCrc = crcTable[crcIndex];
 642:Generated_Source\PSoC6/CapSense_Structure.c **** 
 643:Generated_Source\PSoC6/CapSense_Structure.c ****         /* Add bits 24..28 (CRC) */
 644:Generated_Source\PSoC6/CapSense_Structure.c ****         crcIndex = actualCrc ^ (paramId & 0x0Fu);
 645:Generated_Source\PSoC6/CapSense_Structure.c ****         actualCrc = crcTable[crcIndex];
 646:Generated_Source\PSoC6/CapSense_Structure.c **** 
 647:Generated_Source\PSoC6/CapSense_Structure.c ****         if (0u != actualCrc)
 648:Generated_Source\PSoC6/CapSense_Structure.c ****         {
 649:Generated_Source\PSoC6/CapSense_Structure.c ****             /* CRC mismatch */
 650:Generated_Source\PSoC6/CapSense_Structure.c ****             result = CY_RET_BAD_PARAM;
 651:Generated_Source\PSoC6/CapSense_Structure.c ****         }
 652:Generated_Source\PSoC6/CapSense_Structure.c **** 
 653:Generated_Source\PSoC6/CapSense_Structure.c ****         if ((CY_RET_SUCCESS == result) &&
 654:Generated_Source\PSoC6/CapSense_Structure.c ****             (0u != pData->affectsCrc) && (pData->widgetId >= CapSense_TOTAL_WIDGETS ))
 655:Generated_Source\PSoC6/CapSense_Structure.c ****         {
 656:Generated_Source\PSoC6/CapSense_Structure.c ****             /* Wrong widgetId for protected parameter */
 657:Generated_Source\PSoC6/CapSense_Structure.c ****             result = CY_RET_BAD_PARAM;
 658:Generated_Source\PSoC6/CapSense_Structure.c ****         }
 659:Generated_Source\PSoC6/CapSense_Structure.c **** 
 660:Generated_Source\PSoC6/CapSense_Structure.c ****         /* Check offset value range */
 661:Generated_Source\PSoC6/CapSense_Structure.c ****         if (CY_RET_SUCCESS == result)
 662:Generated_Source\PSoC6/CapSense_Structure.c ****         {
 663:Generated_Source\PSoC6/CapSense_Structure.c ****             if (0u == pData->flash)
 664:Generated_Source\PSoC6/CapSense_Structure.c ****             {
 665:Generated_Source\PSoC6/CapSense_Structure.c ****                 /* Check offset for RAM Data Structure range */
 666:Generated_Source\PSoC6/CapSense_Structure.c ****                 if (pData->offset >= sizeof(CapSense_dsRam))
 667:Generated_Source\PSoC6/CapSense_Structure.c ****                 {
 668:Generated_Source\PSoC6/CapSense_Structure.c ****                     result = CY_RET_BAD_PARAM;
 669:Generated_Source\PSoC6/CapSense_Structure.c ****                 }
 670:Generated_Source\PSoC6/CapSense_Structure.c ****             }
 671:Generated_Source\PSoC6/CapSense_Structure.c ****             else
 672:Generated_Source\PSoC6/CapSense_Structure.c ****             {
 673:Generated_Source\PSoC6/CapSense_Structure.c ****                 /* Check offset for Flash Data Structure range */
ARM GAS  C:\Users\nicpa\AppData\Local\Temp\cceOSKlL.s 			page 14


 674:Generated_Source\PSoC6/CapSense_Structure.c ****                 if (pData->offset >= sizeof(CapSense_dsFlash))
 675:Generated_Source\PSoC6/CapSense_Structure.c ****                 {
 676:Generated_Source\PSoC6/CapSense_Structure.c ****                     result = CY_RET_BAD_PARAM;
 677:Generated_Source\PSoC6/CapSense_Structure.c ****                 }
 678:Generated_Source\PSoC6/CapSense_Structure.c **** 
 679:Generated_Source\PSoC6/CapSense_Structure.c ****                 /* Check if it is marked as Read Only */
 680:Generated_Source\PSoC6/CapSense_Structure.c ****                 if (0u != pData->rw)
 681:Generated_Source\PSoC6/CapSense_Structure.c ****                 {
 682:Generated_Source\PSoC6/CapSense_Structure.c ****                     result = CY_RET_BAD_PARAM;
 683:Generated_Source\PSoC6/CapSense_Structure.c ****                 }
 684:Generated_Source\PSoC6/CapSense_Structure.c ****             }
 685:Generated_Source\PSoC6/CapSense_Structure.c ****         }
 686:Generated_Source\PSoC6/CapSense_Structure.c ****     #else /* #if (0u != CapSense_SELF_TEST_EN) */
 687:Generated_Source\PSoC6/CapSense_Structure.c ****         /* Check offset value range */
 688:Generated_Source\PSoC6/CapSense_Structure.c ****         if (0u == pData->flash)
  69              		.loc 1 688 0
  70 002e 002B     		cmp	r3, #0
  71 0030 05D1     		bne	.L2
 689:Generated_Source\PSoC6/CapSense_Structure.c ****         {
 690:Generated_Source\PSoC6/CapSense_Structure.c ****             /* Check offset for RAM Data Structure range */
 691:Generated_Source\PSoC6/CapSense_Structure.c ****             if (pData->offset >= sizeof(CapSense_dsRam))
  72              		.loc 1 691 0
  73 0032 0C23     		movs	r3, #12
  74 0034 FF33     		adds	r3, r3, #255
  75 0036 9D42     		cmp	r5, r3
  76 0038 09D8     		bhi	.L9
 603:Generated_Source\PSoC6/CapSense_Structure.c **** 
  77              		.loc 1 603 0
  78 003a 0020     		movs	r0, #0
  79 003c 0AE0     		b	.L3
  80              	.L2:
 692:Generated_Source\PSoC6/CapSense_Structure.c ****             {
 693:Generated_Source\PSoC6/CapSense_Structure.c ****                 result = CY_RET_BAD_PARAM;
 694:Generated_Source\PSoC6/CapSense_Structure.c ****             }
 695:Generated_Source\PSoC6/CapSense_Structure.c ****         }
 696:Generated_Source\PSoC6/CapSense_Structure.c ****         else
 697:Generated_Source\PSoC6/CapSense_Structure.c ****         {
 698:Generated_Source\PSoC6/CapSense_Structure.c ****             /* Check offset for Flash Data Structure range */
 699:Generated_Source\PSoC6/CapSense_Structure.c ****             if (pData->offset >= sizeof(CapSense_dsFlash))
  81              		.loc 1 699 0
  82 003e 832D     		cmp	r5, #131
  83 0040 01D8     		bhi	.L10
 603:Generated_Source\PSoC6/CapSense_Structure.c **** 
  84              		.loc 1 603 0
  85 0042 0020     		movs	r0, #0
  86 0044 00E0     		b	.L4
  87              	.L10:
 700:Generated_Source\PSoC6/CapSense_Structure.c ****             {
 701:Generated_Source\PSoC6/CapSense_Structure.c ****                 result = CY_RET_BAD_PARAM;
  88              		.loc 1 701 0
  89 0046 0120     		movs	r0, #1
  90              	.L4:
  91              	.LVL3:
 702:Generated_Source\PSoC6/CapSense_Structure.c ****             }
 703:Generated_Source\PSoC6/CapSense_Structure.c **** 
 704:Generated_Source\PSoC6/CapSense_Structure.c ****             /* Check if it is marked as Read Only */
 705:Generated_Source\PSoC6/CapSense_Structure.c ****             if (0u != pData->rw)
ARM GAS  C:\Users\nicpa\AppData\Local\Temp\cceOSKlL.s 			page 15


  92              		.loc 1 705 0
  93 0048 002A     		cmp	r2, #0
  94 004a 02D1     		bne	.L11
  95 004c 02E0     		b	.L3
  96              	.LVL4:
  97              	.L9:
 693:Generated_Source\PSoC6/CapSense_Structure.c ****             }
  98              		.loc 1 693 0
  99 004e 0120     		movs	r0, #1
 100 0050 00E0     		b	.L3
 101              	.LVL5:
 102              	.L11:
 706:Generated_Source\PSoC6/CapSense_Structure.c ****             {
 707:Generated_Source\PSoC6/CapSense_Structure.c ****                 result = CY_RET_BAD_PARAM;
 103              		.loc 1 707 0
 104 0052 0120     		movs	r0, #1
 105              	.LVL6:
 106              	.L3:
 708:Generated_Source\PSoC6/CapSense_Structure.c ****             }
 709:Generated_Source\PSoC6/CapSense_Structure.c ****         }
 710:Generated_Source\PSoC6/CapSense_Structure.c ****     #endif /* #if (0u != CapSense_SELF_TEST_EN) */
 711:Generated_Source\PSoC6/CapSense_Structure.c **** 
 712:Generated_Source\PSoC6/CapSense_Structure.c ****     if (CY_RET_SUCCESS == result)
 107              		.loc 1 712 0
 108 0054 0028     		cmp	r0, #0
 109 0056 11D1     		bne	.L5
 713:Generated_Source\PSoC6/CapSense_Structure.c ****     {
 714:Generated_Source\PSoC6/CapSense_Structure.c ****         /* Check parameter type, offset alignment */
 715:Generated_Source\PSoC6/CapSense_Structure.c ****         switch (pData->type)
 110              		.loc 1 715 0
 111 0058 022E     		cmp	r6, #2
 112 005a 04D0     		beq	.L6
 113 005c 032E     		cmp	r6, #3
 114 005e 05D0     		beq	.L7
 115 0060 012E     		cmp	r6, #1
 116 0062 06D1     		bne	.L15
 117 0064 0AE0     		b	.L5
 118              	.L6:
 716:Generated_Source\PSoC6/CapSense_Structure.c ****         {
 717:Generated_Source\PSoC6/CapSense_Structure.c ****         case DS_PARAM_TYPE_UINT16:
 718:Generated_Source\PSoC6/CapSense_Structure.c ****             if (0u != (pData->offset & UINT16_ALIGN_MASK))
 119              		.loc 1 718 0
 120 0066 EB07     		lsls	r3, r5, #31
 121 0068 05D4     		bmi	.L13
 122 006a 07E0     		b	.L5
 123              	.L7:
 719:Generated_Source\PSoC6/CapSense_Structure.c ****             {
 720:Generated_Source\PSoC6/CapSense_Structure.c ****                 result = CY_RET_BAD_PARAM;
 721:Generated_Source\PSoC6/CapSense_Structure.c ****             }
 722:Generated_Source\PSoC6/CapSense_Structure.c ****             break;
 723:Generated_Source\PSoC6/CapSense_Structure.c **** 
 724:Generated_Source\PSoC6/CapSense_Structure.c ****         case DS_PARAM_TYPE_UINT32:
 725:Generated_Source\PSoC6/CapSense_Structure.c ****             if (0u != (pData->offset & UINT32_ALIGN_MASK))
 124              		.loc 1 725 0
 125 006c AB07     		lsls	r3, r5, #30
 126 006e 04D1     		bne	.L14
 127 0070 04E0     		b	.L5
ARM GAS  C:\Users\nicpa\AppData\Local\Temp\cceOSKlL.s 			page 16


 128              	.L15:
 726:Generated_Source\PSoC6/CapSense_Structure.c ****             {
 727:Generated_Source\PSoC6/CapSense_Structure.c ****                 result = CY_RET_BAD_PARAM;
 728:Generated_Source\PSoC6/CapSense_Structure.c ****             }
 729:Generated_Source\PSoC6/CapSense_Structure.c ****             break;
 730:Generated_Source\PSoC6/CapSense_Structure.c **** 
 731:Generated_Source\PSoC6/CapSense_Structure.c ****         case DS_PARAM_TYPE_UINT8:
 732:Generated_Source\PSoC6/CapSense_Structure.c ****             break;
 733:Generated_Source\PSoC6/CapSense_Structure.c **** 
 734:Generated_Source\PSoC6/CapSense_Structure.c ****         default:
 735:Generated_Source\PSoC6/CapSense_Structure.c ****             result = CY_RET_BAD_PARAM;
 129              		.loc 1 735 0
 130 0072 0120     		movs	r0, #1
 131              	.LVL7:
 132 0074 02E0     		b	.L5
 133              	.LVL8:
 134              	.L13:
 720:Generated_Source\PSoC6/CapSense_Structure.c ****             }
 135              		.loc 1 720 0
 136 0076 0120     		movs	r0, #1
 137              	.LVL9:
 138 0078 00E0     		b	.L5
 139              	.LVL10:
 140              	.L14:
 727:Generated_Source\PSoC6/CapSense_Structure.c ****             }
 141              		.loc 1 727 0
 142 007a 0120     		movs	r0, #1
 143              	.LVL11:
 144              	.L5:
 736:Generated_Source\PSoC6/CapSense_Structure.c ****             break;
 737:Generated_Source\PSoC6/CapSense_Structure.c ****         }
 738:Generated_Source\PSoC6/CapSense_Structure.c ****     }
 739:Generated_Source\PSoC6/CapSense_Structure.c **** 
 740:Generated_Source\PSoC6/CapSense_Structure.c ****     return result;
 741:Generated_Source\PSoC6/CapSense_Structure.c **** }
 145              		.loc 1 741 0
 146              		@ sp needed
 147 007c 70BD     		pop	{r4, r5, r6, pc}
 148              		.cfi_endproc
 149              	.LFE46:
 150              		.size	DsParseParamId, .-DsParseParamId
 151 007e C046     		.section	.text.CapSense_DsInitialize,"ax",%progbits
 152              		.align	2
 153              		.global	CapSense_DsInitialize
 154              		.code	16
 155              		.thumb_func
 156              		.type	CapSense_DsInitialize, %function
 157              	CapSense_DsInitialize:
 158              	.LFB45:
 440:Generated_Source\PSoC6/CapSense_Structure.c ****     #if ((CapSense_ENABLE == CapSense_CSX_EN) || \
 159              		.loc 1 440 0
 160              		.cfi_startproc
 161              		@ args = 0, pretend = 0, frame = 0
 162              		@ frame_needed = 0, uses_anonymous_args = 0
 163 0000 70B5     		push	{r4, r5, r6, lr}
 164              		.cfi_def_cfa_offset 16
 165              		.cfi_offset 4, -16
ARM GAS  C:\Users\nicpa\AppData\Local\Temp\cceOSKlL.s 			page 17


 166              		.cfi_offset 5, -12
 167              		.cfi_offset 6, -8
 168              		.cfi_offset 14, -4
 169              	.LVL12:
 461:Generated_Source\PSoC6/CapSense_Structure.c **** 
 170              		.loc 1 461 0
 171 0002 1E4C     		ldr	r4, .L21
 172 0004 8622     		movs	r2, #134
 173 0006 5200     		lsls	r2, r2, #1
 174 0008 0021     		movs	r1, #0
 175 000a 2000     		movs	r0, r4
 176 000c FFF7FEFF 		bl	memset
 177              	.LVL13:
 464:Generated_Source\PSoC6/CapSense_Structure.c ****     CapSense_dsRam.deviceId = CapSense_DEVICE_ID;
 178              		.loc 1 464 0
 179 0010 1B4B     		ldr	r3, .L21+4
 180 0012 2380     		strh	r3, [r4]
 465:Generated_Source\PSoC6/CapSense_Structure.c ****     CapSense_dsRam.hwClock = CapSense_HW_CLOCK;
 181              		.loc 1 465 0
 182 0014 9023     		movs	r3, #144
 183 0016 1B01     		lsls	r3, r3, #4
 184 0018 6380     		strh	r3, [r4, #2]
 466:Generated_Source\PSoC6/CapSense_Structure.c **** 
 185              		.loc 1 466 0
 186 001a 1A4B     		ldr	r3, .L21+8
 187 001c A380     		strh	r3, [r4, #4]
 469:Generated_Source\PSoC6/CapSense_Structure.c **** 
 188              		.loc 1 469 0
 189 001e 0823     		movs	r3, #8
 190 0020 A383     		strh	r3, [r4, #28]
 472:Generated_Source\PSoC6/CapSense_Structure.c **** 
 191              		.loc 1 472 0
 192 0022 063B     		subs	r3, r3, #6
 193 0024 A377     		strb	r3, [r4, #30]
 480:Generated_Source\PSoC6/CapSense_Structure.c **** 
 194              		.loc 1 480 0
 195 0026 0823     		movs	r3, #8
 196 0028 E377     		strb	r3, [r4, #31]
 492:Generated_Source\PSoC6/CapSense_Structure.c **** 
 197              		.loc 1 492 0
 198 002a 174D     		ldr	r5, .L21+12
 199 002c 2000     		movs	r0, r4
 200 002e 2030     		adds	r0, r0, #32
 201 0030 2900     		movs	r1, r5
 202 0032 0C31     		adds	r1, r1, #12
 203 0034 3E22     		movs	r2, #62
 204 0036 FFF7FEFF 		bl	memcpy
 205              	.LVL14:
 496:Generated_Source\PSoC6/CapSense_Structure.c ****     #endif /* ((0u != CapSense_GES_GLOBAL_EN) || (0u != CapSense_BALLISTIC_MULTIPLIER_EN)) */
 206              		.loc 1 496 0
 207 003a 0122     		movs	r2, #1
 208 003c FC23     		movs	r3, #252
 209 003e E250     		str	r2, [r4, r3]
 500:Generated_Source\PSoC6/CapSense_Structure.c ****     #endif /* (0u != CapSense_GES_GLOBAL_EN) */
 210              		.loc 1 500 0
 211 0040 2000     		movs	r0, r4
 212 0042 A430     		adds	r0, r0, #164
ARM GAS  C:\Users\nicpa\AppData\Local\Temp\cceOSKlL.s 			page 18


 213 0044 2900     		movs	r1, r5
 214 0046 4C31     		adds	r1, r1, #76
 215 0048 5532     		adds	r2, r2, #85
 216 004a FFF7FEFF 		bl	memcpy
 217              	.LVL15:
 457:Generated_Source\PSoC6/CapSense_Structure.c ****     #endif
 218              		.loc 1 457 0
 219 004e 0F49     		ldr	r1, .L21+16
 509:Generated_Source\PSoC6/CapSense_Structure.c **** 
 220              		.loc 1 509 0
 221 0050 0C00     		movs	r4, r1
 222 0052 0834     		adds	r4, r4, #8
 511:Generated_Source\PSoC6/CapSense_Structure.c ****         {
 223              		.loc 1 511 0
 224 0054 0323     		movs	r3, #3
 225 0056 0CE0     		b	.L17
 226              	.LVL16:
 227              	.L20:
 513:Generated_Source\PSoC6/CapSense_Structure.c **** 
 228              		.loc 1 513 0
 229 0058 A268     		ldr	r2, [r4, #8]
 230              	.LVL17:
 515:Generated_Source\PSoC6/CapSense_Structure.c ****             {
 231              		.loc 1 515 0
 232 005a 238B     		ldrh	r3, [r4, #24]
 233              	.LVL18:
 234 005c 04E0     		b	.L18
 235              	.LVL19:
 236              	.L19:
 517:Generated_Source\PSoC6/CapSense_Structure.c ****                 ptrIdacInit++;
 237              		.loc 1 517 0
 238 005e 0B78     		ldrb	r3, [r1]
 239 0060 5372     		strb	r3, [r2, #9]
 518:Generated_Source\PSoC6/CapSense_Structure.c **** 
 240              		.loc 1 518 0
 241 0062 0131     		adds	r1, r1, #1
 242              	.LVL20:
 528:Generated_Source\PSoC6/CapSense_Structure.c ****             }
 243              		.loc 1 528 0
 244 0064 0A32     		adds	r2, r2, #10
 245              	.LVL21:
 515:Generated_Source\PSoC6/CapSense_Structure.c ****             {
 246              		.loc 1 515 0
 247 0066 0300     		movs	r3, r0
 248              	.LVL22:
 249              	.L18:
 515:Generated_Source\PSoC6/CapSense_Structure.c ****             {
 250              		.loc 1 515 0 is_stmt 0 discriminator 1
 251 0068 581E     		subs	r0, r3, #1
 252              	.LVL23:
 253 006a 002B     		cmp	r3, #0
 254 006c F7D1     		bne	.L19
 531:Generated_Source\PSoC6/CapSense_Structure.c ****         }
 255              		.loc 1 531 0 is_stmt 1
 256 006e 2C34     		adds	r4, r4, #44
 257              	.LVL24:
 511:Generated_Source\PSoC6/CapSense_Structure.c ****         {
ARM GAS  C:\Users\nicpa\AppData\Local\Temp\cceOSKlL.s 			page 19


 258              		.loc 1 511 0
 259 0070 2B00     		movs	r3, r5
 260              	.LVL25:
 261              	.L17:
 511:Generated_Source\PSoC6/CapSense_Structure.c ****         {
 262              		.loc 1 511 0 is_stmt 0 discriminator 1
 263 0072 5D1E     		subs	r5, r3, #1
 264              	.LVL26:
 265 0074 002B     		cmp	r3, #0
 266 0076 EFD1     		bne	.L20
 562:Generated_Source\PSoC6/CapSense_Structure.c **** 
 267              		.loc 1 562 0 is_stmt 1
 268              		@ sp needed
 269              	.LVL27:
 270              	.LVL28:
 271 0078 70BD     		pop	{r4, r5, r6, pc}
 272              	.L22:
 273 007a C046     		.align	2
 274              	.L21:
 275 007c 00000000 		.word	CapSense_dsRam
 276 0080 A2C5FFFF 		.word	-14942
 277 0084 D4300000 		.word	12500
 278 0088 80000000 		.word	.LANCHOR1
 279 008c 00000000 		.word	.LANCHOR0
 280              		.cfi_endproc
 281              	.LFE45:
 282              		.size	CapSense_DsInitialize, .-CapSense_DsInitialize
 283              		.section	.text.CapSense_GetParam,"ax",%progbits
 284              		.align	2
 285              		.global	CapSense_GetParam
 286              		.code	16
 287              		.thumb_func
 288              		.type	CapSense_GetParam, %function
 289              	CapSense_GetParam:
 290              	.LFB47:
 742:Generated_Source\PSoC6/CapSense_Structure.c **** 
 743:Generated_Source\PSoC6/CapSense_Structure.c **** /*******************************************************************************
 744:Generated_Source\PSoC6/CapSense_Structure.c **** * Function Name: CapSense_GetParam
 745:Generated_Source\PSoC6/CapSense_Structure.c **** ****************************************************************************//**
 746:Generated_Source\PSoC6/CapSense_Structure.c **** *
 747:Generated_Source\PSoC6/CapSense_Structure.c **** * \brief
 748:Generated_Source\PSoC6/CapSense_Structure.c **** *  Gets the specified parameter value from the \ref group_structures.
 749:Generated_Source\PSoC6/CapSense_Structure.c **** *
 750:Generated_Source\PSoC6/CapSense_Structure.c **** * \details
 751:Generated_Source\PSoC6/CapSense_Structure.c **** *  This function gets the value of the specified parameter by the paramId
 752:Generated_Source\PSoC6/CapSense_Structure.c **** *  argument. The paramId for each register is available in the
 753:Generated_Source\PSoC6/CapSense_Structure.c **** *  CapSense RegisterMap header file as
 754:Generated_Source\PSoC6/CapSense_Structure.c **** *  CapSense_<ParameterName>_PARAM_ID. The paramId is a special
 755:Generated_Source\PSoC6/CapSense_Structure.c **** *  enumerated value generated by the customizer. The format of paramId is as
 756:Generated_Source\PSoC6/CapSense_Structure.c **** *  follows:
 757:Generated_Source\PSoC6/CapSense_Structure.c **** *    1. [ byte 3 byte 2 byte 1 byte 0 ]
 758:Generated_Source\PSoC6/CapSense_Structure.c **** *    2. [ TTWFCCCC UIIIIIII MMMMMMMM LLLLLLLL ]
 759:Generated_Source\PSoC6/CapSense_Structure.c **** *    3. T - encodes the parameter type:
 760:Generated_Source\PSoC6/CapSense_Structure.c **** *      - 01b: uint8
 761:Generated_Source\PSoC6/CapSense_Structure.c **** *      - 10b: uint16
 762:Generated_Source\PSoC6/CapSense_Structure.c **** *      - 11b: uint32
 763:Generated_Source\PSoC6/CapSense_Structure.c **** *    4. W - indicates whether the parameter is writable:
ARM GAS  C:\Users\nicpa\AppData\Local\Temp\cceOSKlL.s 			page 20


 764:Generated_Source\PSoC6/CapSense_Structure.c **** *      - 0: ReadOnly
 765:Generated_Source\PSoC6/CapSense_Structure.c **** *      - 1: Read/Write
 766:Generated_Source\PSoC6/CapSense_Structure.c **** *    5. C - 4 bit CRC (X^3 + 1) of the whole paramId word, the C bits are
 767:Generated_Source\PSoC6/CapSense_Structure.c **** *       filled with 0s when the CRC is calculated.
 768:Generated_Source\PSoC6/CapSense_Structure.c **** *    6. U - indicates if the parameter affects the RAM Widget Object CRC.
 769:Generated_Source\PSoC6/CapSense_Structure.c **** *    7. I - specifies that the widgetId parameter belongs to
 770:Generated_Source\PSoC6/CapSense_Structure.c **** *    8. M,L - the parameter offset MSB and LSB accordingly in:
 771:Generated_Source\PSoC6/CapSense_Structure.c **** *      - Flash Data Structure if W bit is 0.
 772:Generated_Source\PSoC6/CapSense_Structure.c **** *      - RAM Data Structure if W bit is 1.
 773:Generated_Source\PSoC6/CapSense_Structure.c **** *
 774:Generated_Source\PSoC6/CapSense_Structure.c **** *  Refer to the \ref group_structures section for details of the data structure
 775:Generated_Source\PSoC6/CapSense_Structure.c **** *  organization and examples of its register access.
 776:Generated_Source\PSoC6/CapSense_Structure.c **** *
 777:Generated_Source\PSoC6/CapSense_Structure.c **** * \param paramId
 778:Generated_Source\PSoC6/CapSense_Structure.c **** *  Specifies the ID of parameter to get its value.
 779:Generated_Source\PSoC6/CapSense_Structure.c **** *  A macro for the parameter ID can be found in the CapSense RegisterMap header
 780:Generated_Source\PSoC6/CapSense_Structure.c **** *  file defined as CapSense_<ParameterName>_PARAM_ID.
 781:Generated_Source\PSoC6/CapSense_Structure.c **** *
 782:Generated_Source\PSoC6/CapSense_Structure.c **** * \param  value
 783:Generated_Source\PSoC6/CapSense_Structure.c **** *  The pointer to a variable to be updated with the obtained value.
 784:Generated_Source\PSoC6/CapSense_Structure.c **** *
 785:Generated_Source\PSoC6/CapSense_Structure.c **** * \return
 786:Generated_Source\PSoC6/CapSense_Structure.c **** *  Returns the status of the operation:
 787:Generated_Source\PSoC6/CapSense_Structure.c **** *    - CY_RET_SUCCESS - The operation is successfully completed.
 788:Generated_Source\PSoC6/CapSense_Structure.c **** *    - CY_RET_BAD_PARAM - The input parameter is invalid.
 789:Generated_Source\PSoC6/CapSense_Structure.c **** *
 790:Generated_Source\PSoC6/CapSense_Structure.c **** *******************************************************************************/
 791:Generated_Source\PSoC6/CapSense_Structure.c **** cy_status CapSense_GetParam(uint32 paramId, uint32 *value)
 792:Generated_Source\PSoC6/CapSense_Structure.c **** {
 291              		.loc 1 792 0
 292              		.cfi_startproc
 293              		@ args = 0, pretend = 0, frame = 8
 294              		@ frame_needed = 0, uses_anonymous_args = 0
 295              	.LVL29:
 296 0000 30B5     		push	{r4, r5, lr}
 297              		.cfi_def_cfa_offset 12
 298              		.cfi_offset 4, -12
 299              		.cfi_offset 5, -8
 300              		.cfi_offset 14, -4
 301 0002 83B0     		sub	sp, sp, #12
 302              		.cfi_def_cfa_offset 24
 303 0004 0D00     		movs	r5, r1
 793:Generated_Source\PSoC6/CapSense_Structure.c ****     PARAM_ID_STRUCT pData;
 794:Generated_Source\PSoC6/CapSense_Structure.c ****     cy_status result;
 795:Generated_Source\PSoC6/CapSense_Structure.c **** 
 796:Generated_Source\PSoC6/CapSense_Structure.c ****     union
 797:Generated_Source\PSoC6/CapSense_Structure.c ****     {
 798:Generated_Source\PSoC6/CapSense_Structure.c ****         volatile void   const * ptr;
 799:Generated_Source\PSoC6/CapSense_Structure.c ****         volatile uint8  const * ptrUint8;
 800:Generated_Source\PSoC6/CapSense_Structure.c ****         volatile uint16 const * ptrUint16;
 801:Generated_Source\PSoC6/CapSense_Structure.c ****         volatile uint32 const * ptrUint32;
 802:Generated_Source\PSoC6/CapSense_Structure.c ****     } ptrData;
 803:Generated_Source\PSoC6/CapSense_Structure.c **** 
 804:Generated_Source\PSoC6/CapSense_Structure.c ****     result = DsParseParamId(paramId, &pData);
 304              		.loc 1 804 0
 305 0006 6946     		mov	r1, sp
 306              	.LVL30:
ARM GAS  C:\Users\nicpa\AppData\Local\Temp\cceOSKlL.s 			page 21


 307 0008 FFF7FEFF 		bl	DsParseParamId
 308              	.LVL31:
 309 000c 041E     		subs	r4, r0, #0
 310              	.LVL32:
 805:Generated_Source\PSoC6/CapSense_Structure.c **** 
 806:Generated_Source\PSoC6/CapSense_Structure.c ****     /* Parse and validate paramId */
 807:Generated_Source\PSoC6/CapSense_Structure.c ****     if (CY_RET_SUCCESS == result)
 311              		.loc 1 807 0
 312 000e 20D1     		bne	.L24
 808:Generated_Source\PSoC6/CapSense_Structure.c ****     {
 809:Generated_Source\PSoC6/CapSense_Structure.c ****         /* Get base address of parameter */
 810:Generated_Source\PSoC6/CapSense_Structure.c ****         if (0u == pData.flash)
 313              		.loc 1 810 0
 314 0010 6B46     		mov	r3, sp
 315 0012 5B79     		ldrb	r3, [r3, #5]
 316 0014 002B     		cmp	r3, #0
 317 0016 01D1     		bne	.L25
 811:Generated_Source\PSoC6/CapSense_Structure.c ****         {
 812:Generated_Source\PSoC6/CapSense_Structure.c ****             ptrData.ptr = &CapSense_dsRam;
 318              		.loc 1 812 0
 319 0018 0F4A     		ldr	r2, .L30
 320              	.LVL33:
 321 001a 02E0     		b	.L26
 322              	.L25:
 813:Generated_Source\PSoC6/CapSense_Structure.c ****         }
 814:Generated_Source\PSoC6/CapSense_Structure.c ****         else
 815:Generated_Source\PSoC6/CapSense_Structure.c ****         {
 816:Generated_Source\PSoC6/CapSense_Structure.c ****             ptrData.ptr = &CapSense_dsFlash;
 323              		.loc 1 816 0
 324 001c 0F4B     		ldr	r3, .L30+4
 325 001e 0833     		adds	r3, r3, #8
 326 0020 1A00     		movs	r2, r3
 327              	.L26:
 817:Generated_Source\PSoC6/CapSense_Structure.c ****         }
 818:Generated_Source\PSoC6/CapSense_Structure.c **** 
 819:Generated_Source\PSoC6/CapSense_Structure.c ****         /* Add offset to base address */
 820:Generated_Source\PSoC6/CapSense_Structure.c ****         ptrData.ptrUint8 += pData.offset;
 328              		.loc 1 820 0
 329 0022 6B46     		mov	r3, sp
 330 0024 1B88     		ldrh	r3, [r3]
 331              	.LVL34:
 332 0026 D318     		adds	r3, r2, r3
 821:Generated_Source\PSoC6/CapSense_Structure.c **** 
 822:Generated_Source\PSoC6/CapSense_Structure.c ****         /* Read data */
 823:Generated_Source\PSoC6/CapSense_Structure.c ****         if (DS_PARAM_TYPE_UINT8 == pData.type)
 333              		.loc 1 823 0
 334 0028 6A46     		mov	r2, sp
 335              	.LVL35:
 336 002a D279     		ldrb	r2, [r2, #7]
 337 002c 012A     		cmp	r2, #1
 338 002e 02D1     		bne	.L27
 824:Generated_Source\PSoC6/CapSense_Structure.c ****         {
 825:Generated_Source\PSoC6/CapSense_Structure.c ****             *value = (uint32) (*ptrData.ptrUint8);
 339              		.loc 1 825 0
 340 0030 1B78     		ldrb	r3, [r3]
 341 0032 2B60     		str	r3, [r5]
 342 0034 0DE0     		b	.L24
ARM GAS  C:\Users\nicpa\AppData\Local\Temp\cceOSKlL.s 			page 22


 343              	.L27:
 826:Generated_Source\PSoC6/CapSense_Structure.c ****         }
 827:Generated_Source\PSoC6/CapSense_Structure.c ****         else if (DS_PARAM_TYPE_UINT16 == pData.type)
 344              		.loc 1 827 0
 345 0036 022A     		cmp	r2, #2
 346 0038 02D1     		bne	.L28
 828:Generated_Source\PSoC6/CapSense_Structure.c ****         {
 829:Generated_Source\PSoC6/CapSense_Structure.c ****             *value = (uint32) (*ptrData.ptrUint16);
 347              		.loc 1 829 0
 348 003a 1B88     		ldrh	r3, [r3]
 349 003c 2B60     		str	r3, [r5]
 350 003e 08E0     		b	.L24
 351              	.L28:
 830:Generated_Source\PSoC6/CapSense_Structure.c ****         }
 831:Generated_Source\PSoC6/CapSense_Structure.c ****         else if (DS_PARAM_TYPE_UINT32 == pData.type)
 352              		.loc 1 831 0
 353 0040 032A     		cmp	r2, #3
 354 0042 02D1     		bne	.L29
 832:Generated_Source\PSoC6/CapSense_Structure.c ****         {
 833:Generated_Source\PSoC6/CapSense_Structure.c ****             *value = *ptrData.ptrUint32;
 355              		.loc 1 833 0
 356 0044 1B68     		ldr	r3, [r3]
 357 0046 2B60     		str	r3, [r5]
 358 0048 03E0     		b	.L24
 359              	.L29:
 834:Generated_Source\PSoC6/CapSense_Structure.c ****         }
 835:Generated_Source\PSoC6/CapSense_Structure.c ****         else
 836:Generated_Source\PSoC6/CapSense_Structure.c ****         {
 837:Generated_Source\PSoC6/CapSense_Structure.c ****             /* Parameter comes here already validated. */
 838:Generated_Source\PSoC6/CapSense_Structure.c ****             CY_ASSERT(0 != 0);
 360              		.loc 1 838 0 discriminator 1
 361 004a 0549     		ldr	r1, .L30+8
 362 004c 0548     		ldr	r0, .L30+12
 363              	.LVL36:
 364 004e FFF7FEFF 		bl	Cy_SysLib_AssertFailed
 365              	.LVL37:
 366              	.L24:
 839:Generated_Source\PSoC6/CapSense_Structure.c ****         }
 840:Generated_Source\PSoC6/CapSense_Structure.c ****     }
 841:Generated_Source\PSoC6/CapSense_Structure.c **** 
 842:Generated_Source\PSoC6/CapSense_Structure.c ****     return result;
 843:Generated_Source\PSoC6/CapSense_Structure.c **** }
 367              		.loc 1 843 0
 368 0052 2000     		movs	r0, r4
 369 0054 03B0     		add	sp, sp, #12
 370              		@ sp needed
 371              	.LVL38:
 372              	.LVL39:
 373 0056 30BD     		pop	{r4, r5, pc}
 374              	.L31:
 375              		.align	2
 376              	.L30:
 377 0058 00000000 		.word	CapSense_dsRam
 378 005c 00000000 		.word	.LANCHOR0
 379 0060 46030000 		.word	838
 380 0064 00000000 		.word	.LC9
 381              		.cfi_endproc
ARM GAS  C:\Users\nicpa\AppData\Local\Temp\cceOSKlL.s 			page 23


 382              	.LFE47:
 383              		.size	CapSense_GetParam, .-CapSense_GetParam
 384              		.section	.text.CapSense_SetParam,"ax",%progbits
 385              		.align	2
 386              		.global	CapSense_SetParam
 387              		.code	16
 388              		.thumb_func
 389              		.type	CapSense_SetParam, %function
 390              	CapSense_SetParam:
 391              	.LFB48:
 844:Generated_Source\PSoC6/CapSense_Structure.c **** 
 845:Generated_Source\PSoC6/CapSense_Structure.c **** 
 846:Generated_Source\PSoC6/CapSense_Structure.c **** /*******************************************************************************
 847:Generated_Source\PSoC6/CapSense_Structure.c **** * Function Name: CapSense_SetParam
 848:Generated_Source\PSoC6/CapSense_Structure.c **** ****************************************************************************//**
 849:Generated_Source\PSoC6/CapSense_Structure.c **** *
 850:Generated_Source\PSoC6/CapSense_Structure.c **** * \brief
 851:Generated_Source\PSoC6/CapSense_Structure.c **** *  Sets a new value for the specified parameter in the \ref group_structures.
 852:Generated_Source\PSoC6/CapSense_Structure.c **** *
 853:Generated_Source\PSoC6/CapSense_Structure.c **** * \details
 854:Generated_Source\PSoC6/CapSense_Structure.c **** *  This function sets the value of the specified parameter by the paramId
 855:Generated_Source\PSoC6/CapSense_Structure.c **** *  argument. The paramId for each register is available in the
 856:Generated_Source\PSoC6/CapSense_Structure.c **** *  CapSense RegisterMap header file as
 857:Generated_Source\PSoC6/CapSense_Structure.c **** *  CapSense_<ParameterName>_PARAM_ID. The paramId is a special
 858:Generated_Source\PSoC6/CapSense_Structure.c **** *  enumerated value generated by the customizer. The format of paramId is as
 859:Generated_Source\PSoC6/CapSense_Structure.c **** *  follows:
 860:Generated_Source\PSoC6/CapSense_Structure.c **** *    1. [ byte 3 byte 2 byte 1 byte 0 ]
 861:Generated_Source\PSoC6/CapSense_Structure.c **** *    2. [ TTWFCCCC UIIIIIII MMMMMMMM LLLLLLLL ]
 862:Generated_Source\PSoC6/CapSense_Structure.c **** *    3. T - encodes the parameter type:
 863:Generated_Source\PSoC6/CapSense_Structure.c **** *      - 01b: uint8
 864:Generated_Source\PSoC6/CapSense_Structure.c **** *      - 10b: uint16
 865:Generated_Source\PSoC6/CapSense_Structure.c **** *      - 11b: uint32
 866:Generated_Source\PSoC6/CapSense_Structure.c **** *    4. W - indicates whether the parameter is writable:
 867:Generated_Source\PSoC6/CapSense_Structure.c **** *      - 0: ReadOnly
 868:Generated_Source\PSoC6/CapSense_Structure.c **** *      - 1: Read/Write
 869:Generated_Source\PSoC6/CapSense_Structure.c **** *    5. C - 4 bit CRC (X^3 + 1) of the whole paramId word, the C bits are
 870:Generated_Source\PSoC6/CapSense_Structure.c **** *       filled with 0s when the CRC is calculated.
 871:Generated_Source\PSoC6/CapSense_Structure.c **** *    6. U - indicates if the parameter affects the RAM Widget Object CRC.
 872:Generated_Source\PSoC6/CapSense_Structure.c **** *    7. I - specifies that the widgetId parameter belongs to
 873:Generated_Source\PSoC6/CapSense_Structure.c **** *    8. M,L - the parameter offset MSB and LSB accordingly in:
 874:Generated_Source\PSoC6/CapSense_Structure.c **** *      - Flash Data Structure if W bit is 0.
 875:Generated_Source\PSoC6/CapSense_Structure.c **** *      - RAM Data Structure if W bit is 1.
 876:Generated_Source\PSoC6/CapSense_Structure.c **** *
 877:Generated_Source\PSoC6/CapSense_Structure.c **** *  Refer to the \ref group_structures section for details of the data structure
 878:Generated_Source\PSoC6/CapSense_Structure.c **** *  organization and examples of its register access.
 879:Generated_Source\PSoC6/CapSense_Structure.c **** *
 880:Generated_Source\PSoC6/CapSense_Structure.c **** *  This function writes specified value into the desired register without
 881:Generated_Source\PSoC6/CapSense_Structure.c **** *  other registers update. It is application layer responsibility to keep all
 882:Generated_Source\PSoC6/CapSense_Structure.c **** *  the data structure registers aligned. Repeated call of
 883:Generated_Source\PSoC6/CapSense_Structure.c **** *  CapSense_Start() function helps aligning dependent register values.
 884:Generated_Source\PSoC6/CapSense_Structure.c **** *
 885:Generated_Source\PSoC6/CapSense_Structure.c **** * \param paramId
 886:Generated_Source\PSoC6/CapSense_Structure.c **** *  Specifies the ID of parameter to set its value.
 887:Generated_Source\PSoC6/CapSense_Structure.c **** *  A macro for the parameter ID can be found in the CapSense RegisterMap header
 888:Generated_Source\PSoC6/CapSense_Structure.c **** *  file defined as CapSense_<ParameterName>_PARAM_ID.
 889:Generated_Source\PSoC6/CapSense_Structure.c **** 
 890:Generated_Source\PSoC6/CapSense_Structure.c **** * \param value
ARM GAS  C:\Users\nicpa\AppData\Local\Temp\cceOSKlL.s 			page 24


 891:Generated_Source\PSoC6/CapSense_Structure.c **** *  Specifies the new parameter's value.
 892:Generated_Source\PSoC6/CapSense_Structure.c **** *
 893:Generated_Source\PSoC6/CapSense_Structure.c **** * \return
 894:Generated_Source\PSoC6/CapSense_Structure.c **** *  Returns the status of the operation:
 895:Generated_Source\PSoC6/CapSense_Structure.c **** *    - CY_RET_SUCCESS - The operation is successfully completed.
 896:Generated_Source\PSoC6/CapSense_Structure.c **** *    - CY_RET_BAD_PARAM - The input parameter is invalid.
 897:Generated_Source\PSoC6/CapSense_Structure.c **** *
 898:Generated_Source\PSoC6/CapSense_Structure.c **** *******************************************************************************/
 899:Generated_Source\PSoC6/CapSense_Structure.c **** cy_status CapSense_SetParam(uint32 paramId, uint32 value)
 900:Generated_Source\PSoC6/CapSense_Structure.c **** {
 392              		.loc 1 900 0
 393              		.cfi_startproc
 394              		@ args = 0, pretend = 0, frame = 8
 395              		@ frame_needed = 0, uses_anonymous_args = 0
 396              	.LVL40:
 397 0000 30B5     		push	{r4, r5, lr}
 398              		.cfi_def_cfa_offset 12
 399              		.cfi_offset 4, -12
 400              		.cfi_offset 5, -8
 401              		.cfi_offset 14, -4
 402 0002 83B0     		sub	sp, sp, #12
 403              		.cfi_def_cfa_offset 24
 404 0004 0D00     		movs	r5, r1
 901:Generated_Source\PSoC6/CapSense_Structure.c ****     cy_status result;
 902:Generated_Source\PSoC6/CapSense_Structure.c ****     PARAM_ID_STRUCT pData;
 903:Generated_Source\PSoC6/CapSense_Structure.c **** 
 904:Generated_Source\PSoC6/CapSense_Structure.c ****     union
 905:Generated_Source\PSoC6/CapSense_Structure.c ****     {
 906:Generated_Source\PSoC6/CapSense_Structure.c ****         volatile void   * ptr;
 907:Generated_Source\PSoC6/CapSense_Structure.c ****         volatile uint8  * ptrUint8;
 908:Generated_Source\PSoC6/CapSense_Structure.c ****         volatile uint16 * ptrUint16;
 909:Generated_Source\PSoC6/CapSense_Structure.c ****         volatile uint32 * ptrUint32;
 910:Generated_Source\PSoC6/CapSense_Structure.c ****     } ptrData;
 911:Generated_Source\PSoC6/CapSense_Structure.c **** 
 912:Generated_Source\PSoC6/CapSense_Structure.c ****     result = DsParseParamId(paramId, &pData);
 405              		.loc 1 912 0
 406 0006 6946     		mov	r1, sp
 407              	.LVL41:
 408 0008 FFF7FEFF 		bl	DsParseParamId
 409              	.LVL42:
 410 000c 041E     		subs	r4, r0, #0
 411              	.LVL43:
 913:Generated_Source\PSoC6/CapSense_Structure.c **** 
 914:Generated_Source\PSoC6/CapSense_Structure.c ****     /* verify if parameter is writable */
 915:Generated_Source\PSoC6/CapSense_Structure.c ****     if (CY_RET_SUCCESS == result)
 412              		.loc 1 915 0
 413 000e 04D1     		bne	.L33
 916:Generated_Source\PSoC6/CapSense_Structure.c ****     {
 917:Generated_Source\PSoC6/CapSense_Structure.c ****         if (0u == pData.rw)
 414              		.loc 1 917 0
 415 0010 6B46     		mov	r3, sp
 416 0012 9B79     		ldrb	r3, [r3, #6]
 417 0014 002B     		cmp	r3, #0
 418 0016 00D1     		bne	.L33
 918:Generated_Source\PSoC6/CapSense_Structure.c ****         {
 919:Generated_Source\PSoC6/CapSense_Structure.c ****             result = CY_RET_BAD_PARAM;
 419              		.loc 1 919 0
ARM GAS  C:\Users\nicpa\AppData\Local\Temp\cceOSKlL.s 			page 25


 420 0018 0134     		adds	r4, r4, #1
 421              	.L33:
 422              	.LVL44:
 920:Generated_Source\PSoC6/CapSense_Structure.c ****         }
 921:Generated_Source\PSoC6/CapSense_Structure.c ****     }
 922:Generated_Source\PSoC6/CapSense_Structure.c **** 
 923:Generated_Source\PSoC6/CapSense_Structure.c ****     /* Parse and validate paramId */
 924:Generated_Source\PSoC6/CapSense_Structure.c ****     if (CY_RET_SUCCESS == result)
 423              		.loc 1 924 0
 424 001a 002C     		cmp	r4, #0
 425 001c 18D1     		bne	.L34
 925:Generated_Source\PSoC6/CapSense_Structure.c ****     {
 926:Generated_Source\PSoC6/CapSense_Structure.c ****         /* Get base address of parameter */
 927:Generated_Source\PSoC6/CapSense_Structure.c ****         ptrData.ptr = &CapSense_dsRam;
 928:Generated_Source\PSoC6/CapSense_Structure.c **** 
 929:Generated_Source\PSoC6/CapSense_Structure.c ****         /* Add offset to base address */
 930:Generated_Source\PSoC6/CapSense_Structure.c ****         ptrData.ptrUint8 += pData.offset;
 426              		.loc 1 930 0
 427 001e 6B46     		mov	r3, sp
 428 0020 1A88     		ldrh	r2, [r3]
 429 0022 0D4B     		ldr	r3, .L39
 430 0024 D318     		adds	r3, r2, r3
 931:Generated_Source\PSoC6/CapSense_Structure.c **** 
 932:Generated_Source\PSoC6/CapSense_Structure.c ****         /* Write data */
 933:Generated_Source\PSoC6/CapSense_Structure.c ****         if (DS_PARAM_TYPE_UINT8 == pData.type)
 431              		.loc 1 933 0
 432 0026 6A46     		mov	r2, sp
 433 0028 D279     		ldrb	r2, [r2, #7]
 434 002a 012A     		cmp	r2, #1
 435 002c 02D1     		bne	.L35
 934:Generated_Source\PSoC6/CapSense_Structure.c ****         {
 935:Generated_Source\PSoC6/CapSense_Structure.c ****             *ptrData.ptrUint8 = CY_LO8(value);
 436              		.loc 1 935 0
 437 002e EDB2     		uxtb	r5, r5
 438              	.LVL45:
 439 0030 1D70     		strb	r5, [r3]
 440 0032 0DE0     		b	.L34
 441              	.LVL46:
 442              	.L35:
 936:Generated_Source\PSoC6/CapSense_Structure.c ****         }
 937:Generated_Source\PSoC6/CapSense_Structure.c ****         else if (DS_PARAM_TYPE_UINT16 == pData.type)
 443              		.loc 1 937 0
 444 0034 022A     		cmp	r2, #2
 445 0036 02D1     		bne	.L36
 938:Generated_Source\PSoC6/CapSense_Structure.c ****         {
 939:Generated_Source\PSoC6/CapSense_Structure.c ****             *ptrData.ptrUint16 = CY_LO16(value);
 446              		.loc 1 939 0
 447 0038 ADB2     		uxth	r5, r5
 448              	.LVL47:
 449 003a 1D80     		strh	r5, [r3]
 450 003c 08E0     		b	.L34
 451              	.LVL48:
 452              	.L36:
 940:Generated_Source\PSoC6/CapSense_Structure.c ****         }
 941:Generated_Source\PSoC6/CapSense_Structure.c ****         else if (DS_PARAM_TYPE_UINT32 == pData.type)
 453              		.loc 1 941 0
 454 003e 032A     		cmp	r2, #3
ARM GAS  C:\Users\nicpa\AppData\Local\Temp\cceOSKlL.s 			page 26


 455 0040 01D1     		bne	.L37
 942:Generated_Source\PSoC6/CapSense_Structure.c ****         {
 943:Generated_Source\PSoC6/CapSense_Structure.c ****             *ptrData.ptrUint32 = value;
 456              		.loc 1 943 0
 457 0042 1D60     		str	r5, [r3]
 458 0044 04E0     		b	.L34
 459              	.L37:
 944:Generated_Source\PSoC6/CapSense_Structure.c ****         }
 945:Generated_Source\PSoC6/CapSense_Structure.c ****         else
 946:Generated_Source\PSoC6/CapSense_Structure.c ****         {
 947:Generated_Source\PSoC6/CapSense_Structure.c ****             /* Parameter comes here already validated. */
 948:Generated_Source\PSoC6/CapSense_Structure.c ****             CY_ASSERT(0 != 0);
 460              		.loc 1 948 0 discriminator 1
 461 0046 ED21     		movs	r1, #237
 462 0048 8900     		lsls	r1, r1, #2
 463 004a 0448     		ldr	r0, .L39+4
 464 004c FFF7FEFF 		bl	Cy_SysLib_AssertFailed
 465              	.LVL49:
 466              	.L34:
 949:Generated_Source\PSoC6/CapSense_Structure.c ****         }
 950:Generated_Source\PSoC6/CapSense_Structure.c **** 
 951:Generated_Source\PSoC6/CapSense_Structure.c ****         #if (CapSense_ENABLE == (CapSense_TST_WDGT_CRC_EN || CapSense_TST_GLOBAL_CRC_EN))
 952:Generated_Source\PSoC6/CapSense_Structure.c ****             /* Update widget or global CRC if self-test is enabled and parameter affects it */
 953:Generated_Source\PSoC6/CapSense_Structure.c ****             if (0u != pData.affectsCrc)
 954:Generated_Source\PSoC6/CapSense_Structure.c ****             {
 955:Generated_Source\PSoC6/CapSense_Structure.c ****                 if ((ptrData.ptrUint16 >= &CapSense_dsRam.csd0Config) &&
 956:Generated_Source\PSoC6/CapSense_Structure.c ****                     (ptrData.ptrUint16 <  &CapSense_dsRam.glbCrc))
 957:Generated_Source\PSoC6/CapSense_Structure.c ****                 {
 958:Generated_Source\PSoC6/CapSense_Structure.c **** 
 959:Generated_Source\PSoC6/CapSense_Structure.c ****                     #if (CapSense_ENABLE == CapSense_TST_GLOBAL_CRC_EN)
 960:Generated_Source\PSoC6/CapSense_Structure.c ****                         CapSense_DsUpdateGlobalCrc();
 961:Generated_Source\PSoC6/CapSense_Structure.c ****                     #endif /* (CapSense_ENABLE == CapSense_TST_GLOBAL_CRC_EN) */
 962:Generated_Source\PSoC6/CapSense_Structure.c **** 
 963:Generated_Source\PSoC6/CapSense_Structure.c ****                 }
 964:Generated_Source\PSoC6/CapSense_Structure.c ****                 else
 965:Generated_Source\PSoC6/CapSense_Structure.c ****                 {
 966:Generated_Source\PSoC6/CapSense_Structure.c ****                     #if (CapSense_ENABLE == CapSense_TST_WDGT_CRC_EN)
 967:Generated_Source\PSoC6/CapSense_Structure.c ****                         CapSense_DsUpdateWidgetCrc((uint32)pData.widgetId);
 968:Generated_Source\PSoC6/CapSense_Structure.c ****                     #endif /* (CapSense_ENABLE == CapSense_TST_WDGT_CRC_EN) */
 969:Generated_Source\PSoC6/CapSense_Structure.c ****                 }
 970:Generated_Source\PSoC6/CapSense_Structure.c ****             }
 971:Generated_Source\PSoC6/CapSense_Structure.c ****         #endif /* (CapSense_ENABLE == (CapSense_TST_WDGT_CRC_EN || CapSense_TST_GLOBAL_CRC_EN)) */
 972:Generated_Source\PSoC6/CapSense_Structure.c ****     }
 973:Generated_Source\PSoC6/CapSense_Structure.c **** 
 974:Generated_Source\PSoC6/CapSense_Structure.c ****     return result;
 975:Generated_Source\PSoC6/CapSense_Structure.c **** }
 467              		.loc 1 975 0
 468 0050 2000     		movs	r0, r4
 469 0052 03B0     		add	sp, sp, #12
 470              		@ sp needed
 471              	.LVL50:
 472 0054 30BD     		pop	{r4, r5, pc}
 473              	.L40:
 474 0056 C046     		.align	2
 475              	.L39:
 476 0058 00000000 		.word	CapSense_dsRam
 477 005c 00000000 		.word	.LC9
ARM GAS  C:\Users\nicpa\AppData\Local\Temp\cceOSKlL.s 			page 27


 478              		.cfi_endproc
 479              	.LFE48:
 480              		.size	CapSense_SetParam, .-CapSense_SetParam
 481              		.section	.text.CapSense_IsAnyWidgetActive,"ax",%progbits
 482              		.align	2
 483              		.global	CapSense_IsAnyWidgetActive
 484              		.code	16
 485              		.thumb_func
 486              		.type	CapSense_IsAnyWidgetActive, %function
 487              	CapSense_IsAnyWidgetActive:
 488              	.LFB49:
 976:Generated_Source\PSoC6/CapSense_Structure.c **** 
 977:Generated_Source\PSoC6/CapSense_Structure.c **** /*******************************************************************************
 978:Generated_Source\PSoC6/CapSense_Structure.c **** * Function Name: CapSense_IsAnyWidgetActive
 979:Generated_Source\PSoC6/CapSense_Structure.c **** ****************************************************************************//**
 980:Generated_Source\PSoC6/CapSense_Structure.c **** *
 981:Generated_Source\PSoC6/CapSense_Structure.c **** * \brief
 982:Generated_Source\PSoC6/CapSense_Structure.c **** *  Reports if any widget has detected a touch.
 983:Generated_Source\PSoC6/CapSense_Structure.c **** *
 984:Generated_Source\PSoC6/CapSense_Structure.c **** * \details
 985:Generated_Source\PSoC6/CapSense_Structure.c **** *  This function reports if any widget has detected a touch or not by extracting
 986:Generated_Source\PSoC6/CapSense_Structure.c **** *  information from the wdgtStatus registers
 987:Generated_Source\PSoC6/CapSense_Structure.c **** *  (CapSense_WDGT_STATUS<X>_VALUE). This function does not process a
 988:Generated_Source\PSoC6/CapSense_Structure.c **** *  widget but extracts processed results from the \ref group_structures.
 989:Generated_Source\PSoC6/CapSense_Structure.c **** *
 990:Generated_Source\PSoC6/CapSense_Structure.c **** * \return
 991:Generated_Source\PSoC6/CapSense_Structure.c **** *   Returns the touch detection status of all the widgets:
 992:Generated_Source\PSoC6/CapSense_Structure.c **** *     - Zero - No touch is detected in all the widgets or sensors.
 993:Generated_Source\PSoC6/CapSense_Structure.c **** *     - Non-zero - At least one widget or sensor detected a touch.
 994:Generated_Source\PSoC6/CapSense_Structure.c **** *
 995:Generated_Source\PSoC6/CapSense_Structure.c **** *******************************************************************************/
 996:Generated_Source\PSoC6/CapSense_Structure.c **** uint32 CapSense_IsAnyWidgetActive(void)
 997:Generated_Source\PSoC6/CapSense_Structure.c **** {
 489              		.loc 1 997 0
 490              		.cfi_startproc
 491              		@ args = 0, pretend = 0, frame = 0
 492              		@ frame_needed = 0, uses_anonymous_args = 0
 493              		@ link register save eliminated.
 494              	.LVL51:
 998:Generated_Source\PSoC6/CapSense_Structure.c ****     uint32 result = 0Lu;
 999:Generated_Source\PSoC6/CapSense_Structure.c ****     uint32 wdWord;
1000:Generated_Source\PSoC6/CapSense_Structure.c **** 
1001:Generated_Source\PSoC6/CapSense_Structure.c ****     for (wdWord = CapSense_WDGT_STATUS_WORDS; wdWord-- > 0u;)
 495              		.loc 1 1001 0
 496 0000 0123     		movs	r3, #1
 998:Generated_Source\PSoC6/CapSense_Structure.c ****     uint32 result = 0Lu;
 497              		.loc 1 998 0
 498 0002 0020     		movs	r0, #0
 499              		.loc 1 1001 0
 500 0004 06E0     		b	.L42
 501              	.LVL52:
 502              	.L43:
1002:Generated_Source\PSoC6/CapSense_Structure.c ****     {
1003:Generated_Source\PSoC6/CapSense_Structure.c ****         result |= CapSense_dsRam.wdgtStatus[wdWord];
 503              		.loc 1 1003 0
 504 0006 131D     		adds	r3, r2, #4
 505 0008 9B00     		lsls	r3, r3, #2
ARM GAS  C:\Users\nicpa\AppData\Local\Temp\cceOSKlL.s 			page 28


 506 000a 0449     		ldr	r1, .L44
 507 000c CB18     		adds	r3, r1, r3
 508 000e 5B68     		ldr	r3, [r3, #4]
 509 0010 1843     		orrs	r0, r3
 510              	.LVL53:
1001:Generated_Source\PSoC6/CapSense_Structure.c ****     {
 511              		.loc 1 1001 0
 512 0012 1300     		movs	r3, r2
 513              	.LVL54:
 514              	.L42:
1001:Generated_Source\PSoC6/CapSense_Structure.c ****     {
 515              		.loc 1 1001 0 is_stmt 0 discriminator 1
 516 0014 5A1E     		subs	r2, r3, #1
 517              	.LVL55:
 518 0016 002B     		cmp	r3, #0
 519 0018 F5D1     		bne	.L43
1004:Generated_Source\PSoC6/CapSense_Structure.c ****     }
1005:Generated_Source\PSoC6/CapSense_Structure.c **** 
1006:Generated_Source\PSoC6/CapSense_Structure.c ****     return result;
1007:Generated_Source\PSoC6/CapSense_Structure.c **** }
 520              		.loc 1 1007 0 is_stmt 1
 521              		@ sp needed
 522 001a 7047     		bx	lr
 523              	.L45:
 524              		.align	2
 525              	.L44:
 526 001c 00000000 		.word	CapSense_dsRam
 527              		.cfi_endproc
 528              	.LFE49:
 529              		.size	CapSense_IsAnyWidgetActive, .-CapSense_IsAnyWidgetActive
 530              		.section	.text.CapSense_IsWidgetActive,"ax",%progbits
 531              		.align	2
 532              		.global	CapSense_IsWidgetActive
 533              		.code	16
 534              		.thumb_func
 535              		.type	CapSense_IsWidgetActive, %function
 536              	CapSense_IsWidgetActive:
 537              	.LFB50:
1008:Generated_Source\PSoC6/CapSense_Structure.c **** 
1009:Generated_Source\PSoC6/CapSense_Structure.c **** 
1010:Generated_Source\PSoC6/CapSense_Structure.c **** /*******************************************************************************
1011:Generated_Source\PSoC6/CapSense_Structure.c **** * Function Name: CapSense_IsWidgetActive
1012:Generated_Source\PSoC6/CapSense_Structure.c **** ****************************************************************************//**
1013:Generated_Source\PSoC6/CapSense_Structure.c **** *
1014:Generated_Source\PSoC6/CapSense_Structure.c **** * \brief
1015:Generated_Source\PSoC6/CapSense_Structure.c **** *  Reports if the specified widget detects a touch on any of its sensors.
1016:Generated_Source\PSoC6/CapSense_Structure.c **** *
1017:Generated_Source\PSoC6/CapSense_Structure.c **** * \details
1018:Generated_Source\PSoC6/CapSense_Structure.c **** *  This function reports if the specified widget has detected a touch or not by
1019:Generated_Source\PSoC6/CapSense_Structure.c **** *  extracting information from the wdgtStatus registers
1020:Generated_Source\PSoC6/CapSense_Structure.c **** *  (CapSense_WDGT_STATUS<X>_VALUE). This function does not process the
1021:Generated_Source\PSoC6/CapSense_Structure.c **** *  widget but extracts processed results from the \ref group_structures.
1022:Generated_Source\PSoC6/CapSense_Structure.c **** *
1023:Generated_Source\PSoC6/CapSense_Structure.c **** * \param widgetId
1024:Generated_Source\PSoC6/CapSense_Structure.c **** *  Specifies the ID number of the widget to get its status.
1025:Generated_Source\PSoC6/CapSense_Structure.c **** *  A macro for the widget ID can be found in the CapSense Configuration header
1026:Generated_Source\PSoC6/CapSense_Structure.c **** *  file defined as CapSense_<WidgetName>_WDGT_ID.
ARM GAS  C:\Users\nicpa\AppData\Local\Temp\cceOSKlL.s 			page 29


1027:Generated_Source\PSoC6/CapSense_Structure.c **** *
1028:Generated_Source\PSoC6/CapSense_Structure.c **** * \return
1029:Generated_Source\PSoC6/CapSense_Structure.c **** *  Returns the touch detection status of the specified widgets:
1030:Generated_Source\PSoC6/CapSense_Structure.c **** *    - Zero - No touch is detected in the specified widget or a wrong widgetId
1031:Generated_Source\PSoC6/CapSense_Structure.c **** *      is specified.
1032:Generated_Source\PSoC6/CapSense_Structure.c **** *    - Non-zero if at least one sensor of the specified widget is active, i.e.
1033:Generated_Source\PSoC6/CapSense_Structure.c **** *      a touch is detected.
1034:Generated_Source\PSoC6/CapSense_Structure.c **** *
1035:Generated_Source\PSoC6/CapSense_Structure.c **** *******************************************************************************/
1036:Generated_Source\PSoC6/CapSense_Structure.c **** uint32 CapSense_IsWidgetActive(uint32 widgetId)
1037:Generated_Source\PSoC6/CapSense_Structure.c **** {
 538              		.loc 1 1037 0
 539              		.cfi_startproc
 540              		@ args = 0, pretend = 0, frame = 0
 541              		@ frame_needed = 0, uses_anonymous_args = 0
 542              		@ link register save eliminated.
 543              	.LVL56:
1038:Generated_Source\PSoC6/CapSense_Structure.c ****     uint32 result = 0Lu;
1039:Generated_Source\PSoC6/CapSense_Structure.c **** 
1040:Generated_Source\PSoC6/CapSense_Structure.c ****     if (widgetId < CapSense_TOTAL_WIDGETS)
 544              		.loc 1 1040 0
 545 0000 0228     		cmp	r0, #2
 546 0002 0BD8     		bhi	.L48
1041:Generated_Source\PSoC6/CapSense_Structure.c ****     {
1042:Generated_Source\PSoC6/CapSense_Structure.c ****         result = CapSense_GET_WIDGET_ACTIVE_STATUS(widgetId);
 547              		.loc 1 1042 0
 548 0004 1F23     		movs	r3, #31
 549 0006 0340     		ands	r3, r0
 550 0008 0122     		movs	r2, #1
 551 000a 9A40     		lsls	r2, r2, r3
 552 000c 4009     		lsrs	r0, r0, #5
 553              	.LVL57:
 554 000e 031D     		adds	r3, r0, #4
 555 0010 9B00     		lsls	r3, r3, #2
 556 0012 0348     		ldr	r0, .L49
 557 0014 C318     		adds	r3, r0, r3
 558 0016 5868     		ldr	r0, [r3, #4]
 559 0018 1040     		ands	r0, r2
 560              	.LVL58:
 561 001a 00E0     		b	.L47
 562              	.LVL59:
 563              	.L48:
1038:Generated_Source\PSoC6/CapSense_Structure.c ****     uint32 result = 0Lu;
 564              		.loc 1 1038 0
 565 001c 0020     		movs	r0, #0
 566              	.LVL60:
 567              	.L47:
1043:Generated_Source\PSoC6/CapSense_Structure.c ****     }
1044:Generated_Source\PSoC6/CapSense_Structure.c ****     return result;
1045:Generated_Source\PSoC6/CapSense_Structure.c **** }
 568              		.loc 1 1045 0
 569              		@ sp needed
 570 001e 7047     		bx	lr
 571              	.L50:
 572              		.align	2
 573              	.L49:
 574 0020 00000000 		.word	CapSense_dsRam
ARM GAS  C:\Users\nicpa\AppData\Local\Temp\cceOSKlL.s 			page 30


 575              		.cfi_endproc
 576              	.LFE50:
 577              		.size	CapSense_IsWidgetActive, .-CapSense_IsWidgetActive
 578              		.section	.text.CapSense_IsSensorActive,"ax",%progbits
 579              		.align	2
 580              		.global	CapSense_IsSensorActive
 581              		.code	16
 582              		.thumb_func
 583              		.type	CapSense_IsSensorActive, %function
 584              	CapSense_IsSensorActive:
 585              	.LFB51:
1046:Generated_Source\PSoC6/CapSense_Structure.c **** 
1047:Generated_Source\PSoC6/CapSense_Structure.c **** 
1048:Generated_Source\PSoC6/CapSense_Structure.c **** /*******************************************************************************
1049:Generated_Source\PSoC6/CapSense_Structure.c **** * Function Name: CapSense_IsSensorActive
1050:Generated_Source\PSoC6/CapSense_Structure.c **** ****************************************************************************//**
1051:Generated_Source\PSoC6/CapSense_Structure.c **** *
1052:Generated_Source\PSoC6/CapSense_Structure.c **** * \brief
1053:Generated_Source\PSoC6/CapSense_Structure.c **** *  Reports if the specified sensor in the widget detects a touch.
1054:Generated_Source\PSoC6/CapSense_Structure.c **** *
1055:Generated_Source\PSoC6/CapSense_Structure.c **** * \details
1056:Generated_Source\PSoC6/CapSense_Structure.c **** *  This function reports if the specified sensor in the widget has detected a
1057:Generated_Source\PSoC6/CapSense_Structure.c **** *  touch or not by extracting information from the wdgtStatus registers
1058:Generated_Source\PSoC6/CapSense_Structure.c **** *  (CapSense_WDGT_STATUS<X>_VALUE). This function does not process the
1059:Generated_Source\PSoC6/CapSense_Structure.c **** *  widget or sensor but extracts processed results from the \ref group_structures.
1060:Generated_Source\PSoC6/CapSense_Structure.c **** *
1061:Generated_Source\PSoC6/CapSense_Structure.c **** *  For proximity sensors, this function returns the proximity detection status. To
1062:Generated_Source\PSoC6/CapSense_Structure.c **** *  get the finger touch status of proximity sensors, use the
1063:Generated_Source\PSoC6/CapSense_Structure.c **** *  CapSense_IsProximitySensorActive() function.
1064:Generated_Source\PSoC6/CapSense_Structure.c **** *
1065:Generated_Source\PSoC6/CapSense_Structure.c **** * \param widgetId
1066:Generated_Source\PSoC6/CapSense_Structure.c **** *  Specifies the ID number of the widget.
1067:Generated_Source\PSoC6/CapSense_Structure.c **** *  A macro for the widget ID can be found in the CapSense Configuration header
1068:Generated_Source\PSoC6/CapSense_Structure.c **** *  file defined as CapSense_<WidgetName>_WDGT_ID.
1069:Generated_Source\PSoC6/CapSense_Structure.c **** 
1070:Generated_Source\PSoC6/CapSense_Structure.c **** * \param sensorId
1071:Generated_Source\PSoC6/CapSense_Structure.c **** *  Specifies the ID number of the sensor within the widget to get its touch
1072:Generated_Source\PSoC6/CapSense_Structure.c **** *  detection status.
1073:Generated_Source\PSoC6/CapSense_Structure.c **** *  A macro for the sensor ID within the specified widget can be found in the
1074:Generated_Source\PSoC6/CapSense_Structure.c **** *  CapSense Configuration header file defined as
1075:Generated_Source\PSoC6/CapSense_Structure.c **** *  CapSense_<WidgetName>_SNS<SensorNumber>_ID.
1076:Generated_Source\PSoC6/CapSense_Structure.c **** *
1077:Generated_Source\PSoC6/CapSense_Structure.c **** * \return
1078:Generated_Source\PSoC6/CapSense_Structure.c **** *  Returns the touch detection status of the specified sensor / widget:
1079:Generated_Source\PSoC6/CapSense_Structure.c **** *    - Zero if no touch is detected in the specified sensor / widget or a wrong
1080:Generated_Source\PSoC6/CapSense_Structure.c **** *      widget ID / sensor ID is specified.
1081:Generated_Source\PSoC6/CapSense_Structure.c **** *    - Non-zero if the specified sensor is active i.e. touch is detected. If the
1082:Generated_Source\PSoC6/CapSense_Structure.c **** *      specific sensor belongs to a proximity widget, the proximity detection
1083:Generated_Source\PSoC6/CapSense_Structure.c **** *      status is returned.
1084:Generated_Source\PSoC6/CapSense_Structure.c **** *
1085:Generated_Source\PSoC6/CapSense_Structure.c **** *******************************************************************************/
1086:Generated_Source\PSoC6/CapSense_Structure.c **** uint32 CapSense_IsSensorActive(uint32 widgetId, uint32 sensorId)
1087:Generated_Source\PSoC6/CapSense_Structure.c **** {
 586              		.loc 1 1087 0
 587              		.cfi_startproc
 588              		@ args = 0, pretend = 0, frame = 0
 589              		@ frame_needed = 0, uses_anonymous_args = 0
ARM GAS  C:\Users\nicpa\AppData\Local\Temp\cceOSKlL.s 			page 31


 590              		@ link register save eliminated.
 591              	.LVL61:
1088:Generated_Source\PSoC6/CapSense_Structure.c ****     uint32 result = 0Lu;
1089:Generated_Source\PSoC6/CapSense_Structure.c **** 
1090:Generated_Source\PSoC6/CapSense_Structure.c ****     if ((widgetId < CapSense_TOTAL_WIDGETS) &&
 592              		.loc 1 1090 0
 593 0000 0228     		cmp	r0, #2
 594 0002 0DD8     		bhi	.L53
1091:Generated_Source\PSoC6/CapSense_Structure.c ****         (sensorId < CapSense_GET_SENSOR_COUNT(widgetId)))
 595              		.loc 1 1091 0 discriminator 1
 596 0004 2C23     		movs	r3, #44
 597 0006 4343     		muls	r3, r0
 598 0008 074A     		ldr	r2, .L55
 599 000a D318     		adds	r3, r2, r3
 600 000c 1B8C     		ldrh	r3, [r3, #32]
1090:Generated_Source\PSoC6/CapSense_Structure.c ****         (sensorId < CapSense_GET_SENSOR_COUNT(widgetId)))
 601              		.loc 1 1090 0 discriminator 1
 602 000e 8B42     		cmp	r3, r1
 603 0010 08D9     		bls	.L54
1092:Generated_Source\PSoC6/CapSense_Structure.c ****     {
1093:Generated_Source\PSoC6/CapSense_Structure.c ****         #if (CapSense_ENABLE == CapSense_PROXIMITY_WIDGET_EN)
1094:Generated_Source\PSoC6/CapSense_Structure.c ****             if (CapSense_WD_PROXIMITY_E ==
1095:Generated_Source\PSoC6/CapSense_Structure.c ****                 (CapSense_WD_TYPE_ENUM)CapSense_dsFlash.wdgtArray[widgetId].wdgtType)
1096:Generated_Source\PSoC6/CapSense_Structure.c ****             {
1097:Generated_Source\PSoC6/CapSense_Structure.c ****                 sensorId = CapSense_PROX_STS_OFFSET(sensorId);
1098:Generated_Source\PSoC6/CapSense_Structure.c ****             }
1099:Generated_Source\PSoC6/CapSense_Structure.c ****         #endif /* (CapSense_ENABLE != CapSense_PROXIMITY_WIDGET_EN) */
1100:Generated_Source\PSoC6/CapSense_Structure.c ****         result = CapSense_dsRam.snsStatus[widgetId] & (1Lu << sensorId);
 604              		.loc 1 1100 0
 605 0012 064B     		ldr	r3, .L55+4
 606 0014 1818     		adds	r0, r3, r0
 607              	.LVL62:
 608 0016 037E     		ldrb	r3, [r0, #24]
 609 0018 0120     		movs	r0, #1
 610 001a 8840     		lsls	r0, r0, r1
 611 001c 1840     		ands	r0, r3
 612              	.LVL63:
 613 001e 02E0     		b	.L52
 614              	.LVL64:
 615              	.L53:
1088:Generated_Source\PSoC6/CapSense_Structure.c **** 
 616              		.loc 1 1088 0
 617 0020 0020     		movs	r0, #0
 618              	.LVL65:
 619 0022 00E0     		b	.L52
 620              	.LVL66:
 621              	.L54:
 622 0024 0020     		movs	r0, #0
 623              	.LVL67:
 624              	.L52:
1101:Generated_Source\PSoC6/CapSense_Structure.c ****     }
1102:Generated_Source\PSoC6/CapSense_Structure.c **** 
1103:Generated_Source\PSoC6/CapSense_Structure.c ****     return result;
1104:Generated_Source\PSoC6/CapSense_Structure.c **** }
 625              		.loc 1 1104 0
 626              		@ sp needed
 627 0026 7047     		bx	lr
ARM GAS  C:\Users\nicpa\AppData\Local\Temp\cceOSKlL.s 			page 32


 628              	.L56:
 629              		.align	2
 630              	.L55:
 631 0028 00000000 		.word	.LANCHOR0
 632 002c 00000000 		.word	CapSense_dsRam
 633              		.cfi_endproc
 634              	.LFE51:
 635              		.size	CapSense_IsSensorActive, .-CapSense_IsSensorActive
 636              		.section	.text.CapSense_GetCentroidPos,"ax",%progbits
 637              		.align	2
 638              		.global	CapSense_GetCentroidPos
 639              		.code	16
 640              		.thumb_func
 641              		.type	CapSense_GetCentroidPos, %function
 642              	CapSense_GetCentroidPos:
 643              	.LFB52:
1105:Generated_Source\PSoC6/CapSense_Structure.c **** 
1106:Generated_Source\PSoC6/CapSense_Structure.c **** #if (0u != CapSense_MATRIX_WIDGET_EN)
1107:Generated_Source\PSoC6/CapSense_Structure.c **** /*******************************************************************************
1108:Generated_Source\PSoC6/CapSense_Structure.c **** * Function Name: CapSense_IsMatrixButtonsActive
1109:Generated_Source\PSoC6/CapSense_Structure.c **** ****************************************************************************//**
1110:Generated_Source\PSoC6/CapSense_Structure.c **** *
1111:Generated_Source\PSoC6/CapSense_Structure.c **** * \brief
1112:Generated_Source\PSoC6/CapSense_Structure.c **** *  Reports the status of the specified matrix button widget.
1113:Generated_Source\PSoC6/CapSense_Structure.c **** *
1114:Generated_Source\PSoC6/CapSense_Structure.c **** * \details
1115:Generated_Source\PSoC6/CapSense_Structure.c **** *  This function reports if the specified matrix widget has detected a touch or
1116:Generated_Source\PSoC6/CapSense_Structure.c **** *  not by extracting information from the wdgtStatus registers
1117:Generated_Source\PSoC6/CapSense_Structure.c **** *  (CapSense_WDGT_STATUS<X>_VALUE for the CSD widgets and
1118:Generated_Source\PSoC6/CapSense_Structure.c **** *  CapSense_SNS_STATUS<WidgetId>_VALUE for CSX widget). In addition, the
1119:Generated_Source\PSoC6/CapSense_Structure.c **** *  function provides details of the active sensor including active rows/columns
1120:Generated_Source\PSoC6/CapSense_Structure.c **** *  for the CSD widgets. This function is used only with the matrix button
1121:Generated_Source\PSoC6/CapSense_Structure.c **** *  widgets. This function does not process the widget but extracts
1122:Generated_Source\PSoC6/CapSense_Structure.c **** *  processed results from the \ref group_structures.
1123:Generated_Source\PSoC6/CapSense_Structure.c **** *
1124:Generated_Source\PSoC6/CapSense_Structure.c **** * \param widgetId
1125:Generated_Source\PSoC6/CapSense_Structure.c **** *  Specifies the ID number of the matrix button widget to check the status of its
1126:Generated_Source\PSoC6/CapSense_Structure.c **** *  sensors.
1127:Generated_Source\PSoC6/CapSense_Structure.c **** *  A macro for the widget ID can be found in the CapSense Configuration header file
1128:Generated_Source\PSoC6/CapSense_Structure.c **** *  defined as CapSense_<WidgetName>_WDGT_ID
1129:Generated_Source\PSoC6/CapSense_Structure.c **** *
1130:Generated_Source\PSoC6/CapSense_Structure.c **** * \return
1131:Generated_Source\PSoC6/CapSense_Structure.c **** *  Returns the touch detection status of the sensors in the specified matrix
1132:Generated_Source\PSoC6/CapSense_Structure.c **** *  buttons widget. Zero indicates that no touch is detected in the specified
1133:Generated_Source\PSoC6/CapSense_Structure.c **** *  widget or a wrong widgetId is specified.
1134:Generated_Source\PSoC6/CapSense_Structure.c **** *    1. For the matrix buttons widgets with the CSD sensing mode:
1135:Generated_Source\PSoC6/CapSense_Structure.c **** *      - Bit [31] if set, indicates that one or more sensors in the widget
1136:Generated_Source\PSoC6/CapSense_Structure.c **** *        detected a touch.
1137:Generated_Source\PSoC6/CapSense_Structure.c **** *      - Bits [30..24] are reserved
1138:Generated_Source\PSoC6/CapSense_Structure.c **** *      - Bits [23..16] indicate the logical sensor number of the sensor that
1139:Generated_Source\PSoC6/CapSense_Structure.c **** *        detected a touch. If more than one sensor detected a touch for the CSD
1140:Generated_Source\PSoC6/CapSense_Structure.c **** *        widget, no status is reported because more than one touch is invalid for the
1141:Generated_Source\PSoC6/CapSense_Structure.c **** *        CSD matrix buttons widgets.
1142:Generated_Source\PSoC6/CapSense_Structure.c **** *      - Bits [15..8] indicate the active row number.
1143:Generated_Source\PSoC6/CapSense_Structure.c **** *      - Bits [7..0] indicate the active column number.
1144:Generated_Source\PSoC6/CapSense_Structure.c **** *    2. For the matrix buttons widgets with the CSX widgets, each bit (31..0)
1145:Generated_Source\PSoC6/CapSense_Structure.c **** *      corresponds to the TX/RX intersection.
ARM GAS  C:\Users\nicpa\AppData\Local\Temp\cceOSKlL.s 			page 33


1146:Generated_Source\PSoC6/CapSense_Structure.c **** *
1147:Generated_Source\PSoC6/CapSense_Structure.c **** *******************************************************************************/
1148:Generated_Source\PSoC6/CapSense_Structure.c **** uint32 CapSense_IsMatrixButtonsActive(uint32 widgetId)
1149:Generated_Source\PSoC6/CapSense_Structure.c **** {
1150:Generated_Source\PSoC6/CapSense_Structure.c ****     uint32 result = 0Lu;
1151:Generated_Source\PSoC6/CapSense_Structure.c ****     cy_status state = CY_RET_SUCCESS;
1152:Generated_Source\PSoC6/CapSense_Structure.c ****     CapSense_FLASH_WD_STRUCT const *ptrFlashWdgt = 0u;
1153:Generated_Source\PSoC6/CapSense_Structure.c **** 
1154:Generated_Source\PSoC6/CapSense_Structure.c ****     #if (0u != CapSense_CSD_MATRIX_WIDGET_EN)
1155:Generated_Source\PSoC6/CapSense_Structure.c ****         CapSense_RAM_WD_CSD_MATRIX_STRUCT *wdCsdMatrix;
1156:Generated_Source\PSoC6/CapSense_Structure.c ****     #endif
1157:Generated_Source\PSoC6/CapSense_Structure.c **** 
1158:Generated_Source\PSoC6/CapSense_Structure.c ****     if (widgetId >= CapSense_TOTAL_WIDGETS)
1159:Generated_Source\PSoC6/CapSense_Structure.c ****     {
1160:Generated_Source\PSoC6/CapSense_Structure.c ****         state = CY_RET_BAD_PARAM;
1161:Generated_Source\PSoC6/CapSense_Structure.c ****     }
1162:Generated_Source\PSoC6/CapSense_Structure.c ****     else
1163:Generated_Source\PSoC6/CapSense_Structure.c ****     {
1164:Generated_Source\PSoC6/CapSense_Structure.c ****         ptrFlashWdgt = &CapSense_dsFlash.wdgtArray[widgetId];
1165:Generated_Source\PSoC6/CapSense_Structure.c **** 
1166:Generated_Source\PSoC6/CapSense_Structure.c ****         if ((CapSense_WD_TYPE_ENUM)ptrFlashWdgt->wdgtType != CapSense_WD_MATRIX_BUTTON_E)
1167:Generated_Source\PSoC6/CapSense_Structure.c ****         {
1168:Generated_Source\PSoC6/CapSense_Structure.c ****             state = CY_RET_BAD_PARAM;
1169:Generated_Source\PSoC6/CapSense_Structure.c ****         }
1170:Generated_Source\PSoC6/CapSense_Structure.c ****         else if (0u == CapSense_GET_WIDGET_ACTIVE_STATUS(widgetId))
1171:Generated_Source\PSoC6/CapSense_Structure.c ****         {
1172:Generated_Source\PSoC6/CapSense_Structure.c ****             state = CY_RET_BAD_PARAM;
1173:Generated_Source\PSoC6/CapSense_Structure.c ****         }
1174:Generated_Source\PSoC6/CapSense_Structure.c ****         else
1175:Generated_Source\PSoC6/CapSense_Structure.c ****         {
1176:Generated_Source\PSoC6/CapSense_Structure.c ****             /* input parameters are OK */
1177:Generated_Source\PSoC6/CapSense_Structure.c ****         }
1178:Generated_Source\PSoC6/CapSense_Structure.c ****     }
1179:Generated_Source\PSoC6/CapSense_Structure.c **** 
1180:Generated_Source\PSoC6/CapSense_Structure.c ****     if (CY_RET_SUCCESS == state)
1181:Generated_Source\PSoC6/CapSense_Structure.c ****     {
1182:Generated_Source\PSoC6/CapSense_Structure.c ****         switch(CapSense_GET_SENSE_METHOD(ptrFlashWdgt))
1183:Generated_Source\PSoC6/CapSense_Structure.c ****         {
1184:Generated_Source\PSoC6/CapSense_Structure.c ****         #if (0u != CapSense_CSD_MATRIX_WIDGET_EN)
1185:Generated_Source\PSoC6/CapSense_Structure.c ****             case CapSense_SENSE_METHOD_CSD_E:
1186:Generated_Source\PSoC6/CapSense_Structure.c ****                 wdCsdMatrix = ptrFlashWdgt->ptr2WdgtRam;
1187:Generated_Source\PSoC6/CapSense_Structure.c **** 
1188:Generated_Source\PSoC6/CapSense_Structure.c ****                 result = CapSense_MATRIX_BUTTONS_TOUCHED |
1189:Generated_Source\PSoC6/CapSense_Structure.c ****                          ((uint32)wdCsdMatrix->posSnsId << 16u)  |
1190:Generated_Source\PSoC6/CapSense_Structure.c ****                          ((uint32)wdCsdMatrix->posRow   << 8u)   |
1191:Generated_Source\PSoC6/CapSense_Structure.c ****                          (uint32)wdCsdMatrix->posCol;
1192:Generated_Source\PSoC6/CapSense_Structure.c ****                 break;
1193:Generated_Source\PSoC6/CapSense_Structure.c ****         #endif /* #if (0u != CapSense_CSD_MATRIX_WIDGET_EN) */
1194:Generated_Source\PSoC6/CapSense_Structure.c **** 
1195:Generated_Source\PSoC6/CapSense_Structure.c ****         #if (0u != CapSense_CSX_MATRIX_WIDGET_EN)
1196:Generated_Source\PSoC6/CapSense_Structure.c ****             case CapSense_SENSE_METHOD_CSX_E:
1197:Generated_Source\PSoC6/CapSense_Structure.c ****                 result = CapSense_dsRam.snsStatus[widgetId];
1198:Generated_Source\PSoC6/CapSense_Structure.c ****                 break;
1199:Generated_Source\PSoC6/CapSense_Structure.c ****         #endif /* #if (0u != CapSense_CSX_MATRIX_WIDGET_EN) */
1200:Generated_Source\PSoC6/CapSense_Structure.c **** 
1201:Generated_Source\PSoC6/CapSense_Structure.c ****         default:
1202:Generated_Source\PSoC6/CapSense_Structure.c ****             CY_ASSERT(0 != 0);
ARM GAS  C:\Users\nicpa\AppData\Local\Temp\cceOSKlL.s 			page 34


1203:Generated_Source\PSoC6/CapSense_Structure.c ****             break;
1204:Generated_Source\PSoC6/CapSense_Structure.c ****         }
1205:Generated_Source\PSoC6/CapSense_Structure.c ****     }
1206:Generated_Source\PSoC6/CapSense_Structure.c **** 
1207:Generated_Source\PSoC6/CapSense_Structure.c ****     return result;
1208:Generated_Source\PSoC6/CapSense_Structure.c **** }
1209:Generated_Source\PSoC6/CapSense_Structure.c **** #endif /* #if (0u != CapSense_MATRIX_WIDGET_EN) */
1210:Generated_Source\PSoC6/CapSense_Structure.c **** 
1211:Generated_Source\PSoC6/CapSense_Structure.c **** #if (0u != CapSense_PROXIMITY_WIDGET_EN)
1212:Generated_Source\PSoC6/CapSense_Structure.c **** /*******************************************************************************
1213:Generated_Source\PSoC6/CapSense_Structure.c **** * Function Name: CapSense_IsProximitySensorActive
1214:Generated_Source\PSoC6/CapSense_Structure.c **** ****************************************************************************//**
1215:Generated_Source\PSoC6/CapSense_Structure.c **** *
1216:Generated_Source\PSoC6/CapSense_Structure.c **** * \brief
1217:Generated_Source\PSoC6/CapSense_Structure.c **** *  Reports the finger detection status of the specified proximity widget/sensor.
1218:Generated_Source\PSoC6/CapSense_Structure.c **** *
1219:Generated_Source\PSoC6/CapSense_Structure.c **** * \details
1220:Generated_Source\PSoC6/CapSense_Structure.c **** *  This function reports if the specified proximity sensor has detected a touch
1221:Generated_Source\PSoC6/CapSense_Structure.c **** *  or not by extracting information from the wdgtStatus registers
1222:Generated_Source\PSoC6/CapSense_Structure.c **** *  (CapSense_SNS_STATUS<WidgetId>_VALUE). This function is used
1223:Generated_Source\PSoC6/CapSense_Structure.c **** *  only with proximity sensor widgets. This function does not process the
1224:Generated_Source\PSoC6/CapSense_Structure.c **** *  widget but extracts processed results from the \ref group_structures.
1225:Generated_Source\PSoC6/CapSense_Structure.c **** *
1226:Generated_Source\PSoC6/CapSense_Structure.c **** * \param widgetId
1227:Generated_Source\PSoC6/CapSense_Structure.c **** *  Specifies the ID number of the proximity widget.
1228:Generated_Source\PSoC6/CapSense_Structure.c **** *  A macro for the widget ID can be found in the CapSense Configuration header
1229:Generated_Source\PSoC6/CapSense_Structure.c **** *  file defined as CapSense_<WidgetName>_WDGT_ID
1230:Generated_Source\PSoC6/CapSense_Structure.c **** *
1231:Generated_Source\PSoC6/CapSense_Structure.c **** * \param proxId
1232:Generated_Source\PSoC6/CapSense_Structure.c **** *  Specifies the ID number of the proximity sensor within the proximity widget to
1233:Generated_Source\PSoC6/CapSense_Structure.c **** *  get its touch detection status.
1234:Generated_Source\PSoC6/CapSense_Structure.c **** *  A macro for the proximity ID within a specified widget can be found in the
1235:Generated_Source\PSoC6/CapSense_Structure.c **** *  CapSense Configuration header file defined as
1236:Generated_Source\PSoC6/CapSense_Structure.c **** *  CapSense_<WidgetName>_SNS<SensorNumber>_ID
1237:Generated_Source\PSoC6/CapSense_Structure.c **** *
1238:Generated_Source\PSoC6/CapSense_Structure.c **** * \return
1239:Generated_Source\PSoC6/CapSense_Structure.c **** *  Returns the status of the specified sensor of the proximity widget. Zero
1240:Generated_Source\PSoC6/CapSense_Structure.c **** *  indicates that no touch is detected in the specified sensor / widget or a
1241:Generated_Source\PSoC6/CapSense_Structure.c **** *  wrong widgetId / proxId is specified.
1242:Generated_Source\PSoC6/CapSense_Structure.c **** *    - Bits [31..2] are reserved.
1243:Generated_Source\PSoC6/CapSense_Structure.c **** *    - Bit [1] indicates that a touch is detected.
1244:Generated_Source\PSoC6/CapSense_Structure.c **** *    - Bit [0] indicates that a proximity is detected.
1245:Generated_Source\PSoC6/CapSense_Structure.c **** *
1246:Generated_Source\PSoC6/CapSense_Structure.c **** *******************************************************************************/
1247:Generated_Source\PSoC6/CapSense_Structure.c **** uint32 CapSense_IsProximitySensorActive(uint32 widgetId, uint32 proxId)
1248:Generated_Source\PSoC6/CapSense_Structure.c **** {
1249:Generated_Source\PSoC6/CapSense_Structure.c ****     uint32 result = 0Lu;
1250:Generated_Source\PSoC6/CapSense_Structure.c **** 
1251:Generated_Source\PSoC6/CapSense_Structure.c ****     if ((widgetId < CapSense_TOTAL_WIDGETS) && (proxId < CapSense_GET_SENSOR_COUNT(widgetId)) &&
1252:Generated_Source\PSoC6/CapSense_Structure.c ****         (CapSense_WD_PROXIMITY_E ==
1253:Generated_Source\PSoC6/CapSense_Structure.c ****             (CapSense_WD_TYPE_ENUM)CapSense_dsFlash.wdgtArray[widgetId].wdgtType))
1254:Generated_Source\PSoC6/CapSense_Structure.c ****     {
1255:Generated_Source\PSoC6/CapSense_Structure.c ****         result = CapSense_dsRam.snsStatus[widgetId];
1256:Generated_Source\PSoC6/CapSense_Structure.c ****         result >>= CapSense_PROX_STS_OFFSET(proxId);
1257:Generated_Source\PSoC6/CapSense_Structure.c ****         result &=  CapSense_PROX_STS_MASK;
1258:Generated_Source\PSoC6/CapSense_Structure.c ****     }
1259:Generated_Source\PSoC6/CapSense_Structure.c **** 
ARM GAS  C:\Users\nicpa\AppData\Local\Temp\cceOSKlL.s 			page 35


1260:Generated_Source\PSoC6/CapSense_Structure.c ****     return result;
1261:Generated_Source\PSoC6/CapSense_Structure.c **** }
1262:Generated_Source\PSoC6/CapSense_Structure.c **** #endif /* #if (0u != CapSense_PROXIMITY_WIDGET_EN) */
1263:Generated_Source\PSoC6/CapSense_Structure.c **** 
1264:Generated_Source\PSoC6/CapSense_Structure.c **** 
1265:Generated_Source\PSoC6/CapSense_Structure.c **** #if (0u != CapSense_SLIDER_WIDGET_EN)
1266:Generated_Source\PSoC6/CapSense_Structure.c **** /*******************************************************************************
1267:Generated_Source\PSoC6/CapSense_Structure.c **** * Function Name: CapSense_GetCentroidPos
1268:Generated_Source\PSoC6/CapSense_Structure.c **** ****************************************************************************//**
1269:Generated_Source\PSoC6/CapSense_Structure.c **** *
1270:Generated_Source\PSoC6/CapSense_Structure.c **** * \brief
1271:Generated_Source\PSoC6/CapSense_Structure.c **** *  Reports the centroid position for the specified slider widget.
1272:Generated_Source\PSoC6/CapSense_Structure.c **** *
1273:Generated_Source\PSoC6/CapSense_Structure.c **** * \details
1274:Generated_Source\PSoC6/CapSense_Structure.c **** *  This function reports the centroid value of a specified radial or linear
1275:Generated_Source\PSoC6/CapSense_Structure.c **** *  slider widget by extracting information from the wdgtStatus registers
1276:Generated_Source\PSoC6/CapSense_Structure.c **** *  (CapSense_<WidgetName>_POSITION<X>_VALUE). This function is
1277:Generated_Source\PSoC6/CapSense_Structure.c **** *  used only with radial or linear slider widgets. This function does not
1278:Generated_Source\PSoC6/CapSense_Structure.c **** *  process the widget but extracts processed results from the \ref group_structures.
1279:Generated_Source\PSoC6/CapSense_Structure.c **** *
1280:Generated_Source\PSoC6/CapSense_Structure.c **** * \param widgetId
1281:Generated_Source\PSoC6/CapSense_Structure.c **** *  Specifies the ID number of a slider widget to get the centroid of the
1282:Generated_Source\PSoC6/CapSense_Structure.c **** *  detected touch.
1283:Generated_Source\PSoC6/CapSense_Structure.c **** *  A macro for the widget ID can be found in the
1284:Generated_Source\PSoC6/CapSense_Structure.c **** *  CapSense Configuration header file defined as
1285:Generated_Source\PSoC6/CapSense_Structure.c **** *  CapSense_<WidgetName>_WDGT_ID
1286:Generated_Source\PSoC6/CapSense_Structure.c **** *
1287:Generated_Source\PSoC6/CapSense_Structure.c **** * \return
1288:Generated_Source\PSoC6/CapSense_Structure.c **** *  Returns the centroid position of a specified slider widget:
1289:Generated_Source\PSoC6/CapSense_Structure.c **** *    - The centroid position if a touch is detected.
1290:Generated_Source\PSoC6/CapSense_Structure.c **** *    - CapSense_SLIDER_NO_TOUCH - No touch is detected or a wrong
1291:Generated_Source\PSoC6/CapSense_Structure.c **** *      widgetId is specified.
1292:Generated_Source\PSoC6/CapSense_Structure.c **** *
1293:Generated_Source\PSoC6/CapSense_Structure.c **** *******************************************************************************/
1294:Generated_Source\PSoC6/CapSense_Structure.c **** uint32 CapSense_GetCentroidPos(uint32 widgetId)
1295:Generated_Source\PSoC6/CapSense_Structure.c **** {
 644              		.loc 1 1295 0
 645              		.cfi_startproc
 646              		@ args = 0, pretend = 0, frame = 0
 647              		@ frame_needed = 0, uses_anonymous_args = 0
 648              		@ link register save eliminated.
 649              	.LVL68:
1296:Generated_Source\PSoC6/CapSense_Structure.c ****     uint32 result = CapSense_SLIDER_NO_TOUCH;
1297:Generated_Source\PSoC6/CapSense_Structure.c ****     CapSense_RAM_WD_SLIDER_STRUCT *wdSlider;
1298:Generated_Source\PSoC6/CapSense_Structure.c **** 
1299:Generated_Source\PSoC6/CapSense_Structure.c ****     if ((widgetId < CapSense_TOTAL_WIDGETS) &&
 650              		.loc 1 1299 0
 651 0000 0228     		cmp	r0, #2
 652 0002 0FD8     		bhi	.L59
1300:Generated_Source\PSoC6/CapSense_Structure.c ****         ((CapSense_WD_LINEAR_SLIDER_E ==
1301:Generated_Source\PSoC6/CapSense_Structure.c ****             (CapSense_WD_TYPE_ENUM)CapSense_dsFlash.wdgtArray[widgetId].wdgtType) ||
 653              		.loc 1 1301 0 discriminator 1
 654 0004 2C23     		movs	r3, #44
 655 0006 4343     		muls	r3, r0
 656 0008 084A     		ldr	r2, .L61
 657 000a D318     		adds	r3, r2, r3
 658 000c 2233     		adds	r3, r3, #34
ARM GAS  C:\Users\nicpa\AppData\Local\Temp\cceOSKlL.s 			page 36


 659 000e 1B78     		ldrb	r3, [r3]
 660 0010 023B     		subs	r3, r3, #2
 661 0012 DBB2     		uxtb	r3, r3
1299:Generated_Source\PSoC6/CapSense_Structure.c ****         ((CapSense_WD_LINEAR_SLIDER_E ==
 662              		.loc 1 1299 0 discriminator 1
 663 0014 012B     		cmp	r3, #1
 664 0016 07D8     		bhi	.L60
1302:Generated_Source\PSoC6/CapSense_Structure.c ****          (CapSense_WD_RADIAL_SLIDER_E ==
1303:Generated_Source\PSoC6/CapSense_Structure.c ****             (CapSense_WD_TYPE_ENUM)CapSense_dsFlash.wdgtArray[widgetId].wdgtType)))
1304:Generated_Source\PSoC6/CapSense_Structure.c ****     {
1305:Generated_Source\PSoC6/CapSense_Structure.c ****         wdSlider = CapSense_dsFlash.wdgtArray[widgetId].ptr2WdgtRam;
 665              		.loc 1 1305 0
 666 0018 2C23     		movs	r3, #44
 667 001a 5843     		muls	r0, r3
 668              	.LVL69:
 669 001c 1018     		adds	r0, r2, r0
 670 001e C368     		ldr	r3, [r0, #12]
 671              	.LVL70:
1306:Generated_Source\PSoC6/CapSense_Structure.c ****         result = (uint32)wdSlider->position[0u];
 672              		.loc 1 1306 0
 673 0020 988A     		ldrh	r0, [r3, #20]
 674              	.LVL71:
 675 0022 02E0     		b	.L58
 676              	.LVL72:
 677              	.L59:
1296:Generated_Source\PSoC6/CapSense_Structure.c ****     CapSense_RAM_WD_SLIDER_STRUCT *wdSlider;
 678              		.loc 1 1296 0
 679 0024 0248     		ldr	r0, .L61+4
 680              	.LVL73:
 681 0026 00E0     		b	.L58
 682              	.LVL74:
 683              	.L60:
 684 0028 0148     		ldr	r0, .L61+4
 685              	.LVL75:
 686              	.L58:
1307:Generated_Source\PSoC6/CapSense_Structure.c ****     }
1308:Generated_Source\PSoC6/CapSense_Structure.c **** 
1309:Generated_Source\PSoC6/CapSense_Structure.c ****     return result;
1310:Generated_Source\PSoC6/CapSense_Structure.c **** }
 687              		.loc 1 1310 0
 688              		@ sp needed
 689 002a 7047     		bx	lr
 690              	.L62:
 691              		.align	2
 692              	.L61:
 693 002c 00000000 		.word	.LANCHOR0
 694 0030 FFFF0000 		.word	65535
 695              		.cfi_endproc
 696              	.LFE52:
 697              		.size	CapSense_GetCentroidPos, .-CapSense_GetCentroidPos
 698              		.global	CapSense_ramGesturesInit
 699              		.global	CapSense_ramIdacInit
 700              		.global	CapSense_ramWidgetInit
 701              		.global	CapSense_ioList
 702              		.global	CapSense_dsFlash
 703              		.comm	CapSense_dsRam,268,4
 704              		.section	.rodata
ARM GAS  C:\Users\nicpa\AppData\Local\Temp\cceOSKlL.s 			page 37


 705              		.align	2
 706              		.set	.LANCHOR0,. + 0
 707              		.set	.LANCHOR1,. + 128
 708              		.type	CapSense_ramIdacInit, %object
 709              		.size	CapSense_ramIdacInit, 7
 710              	CapSense_ramIdacInit:
 711 0000 20       		.byte	32
 712 0001 20       		.byte	32
 713 0002 20       		.byte	32
 714 0003 20       		.byte	32
 715 0004 20       		.byte	32
 716 0005 20       		.byte	32
 717 0006 20       		.byte	32
 718 0007 00       		.space	1
 719              		.type	CapSense_dsFlash, %object
 720              		.size	CapSense_dsFlash, 132
 721              	CapSense_dsFlash:
 722 0008 00000000 		.word	CapSense_ioList
 723 000c 20000000 		.word	CapSense_dsRam+32
 724 0010 5E000000 		.word	CapSense_dsRam+94
 725 0014 00000000 		.word	0
 726 0018 44000000 		.word	CapSense_debounceButtonR
 727 001c 09280000 		.word	10249
 728 0020 0100     		.short	1
 729 0022 01       		.byte	1
 730 0023 02       		.byte	2
 731 0024 01       		.byte	1
 732 0025 01       		.byte	1
 733 0026 0000     		.short	0
 734 0028 00000000 		.word	0
 735 002c 00000000 		.word	0
 736 0030 00       		.byte	0
 737 0031 000000   		.space	3
 738 0034 10000000 		.word	CapSense_ioList+16
 739 0038 34000000 		.word	CapSense_dsRam+52
 740 003c 68000000 		.word	CapSense_dsRam+104
 741 0040 00000000 		.word	0
 742 0044 40000000 		.word	CapSense_debounceButtonL
 743 0048 01280000 		.word	10241
 744 004c 0100     		.short	1
 745 004e 01       		.byte	1
 746 004f 02       		.byte	2
 747 0050 01       		.byte	1
 748 0051 01       		.byte	1
 749 0052 0000     		.short	0
 750 0054 00000000 		.word	0
 751 0058 00000000 		.word	0
 752 005c 00       		.byte	0
 753 005d 000000   		.space	3
 754 0060 20000000 		.word	CapSense_ioList+32
 755 0064 48000000 		.word	CapSense_dsRam+72
 756 0068 72000000 		.word	CapSense_dsRam+114
 757 006c 00000000 		.word	0
 758 0070 3C000000 		.word	CapSense_debounceLinearSlider0
 759 0074 01280000 		.word	10241
 760 0078 0500     		.short	5
 761 007a 02       		.byte	2
ARM GAS  C:\Users\nicpa\AppData\Local\Temp\cceOSKlL.s 			page 38


 762 007b 01       		.byte	1
 763 007c 05       		.byte	5
 764 007d 00       		.byte	0
 765 007e 6400     		.short	100
 766 0080 00190000 		.word	6400
 767 0084 00000000 		.word	CapSense_noiseEnvlpLinearSlider0
 768 0088 80       		.byte	-128
 769 0089 000000   		.space	3
 770              		.type	CapSense_ramWidgetInit, %object
 771              		.size	CapSense_ramWidgetInit, 62
 772              	CapSense_ramWidgetInit:
 773 008c 6400     		.short	100
 774 008e 6400     		.short	100
 775 0090 28       		.byte	40
 776 0091 28       		.byte	40
 777 0092 0A       		.byte	10
 778 0093 03       		.byte	3
 779 0094 1E       		.byte	30
 780 0095 20       		.byte	32
 781 0096 2A00     		.short	42
 782 0098 00       		.byte	0
 783 0099 00       		.space	1
 784 009a A000     		.short	160
 785 009c 0000     		.short	0
 786 009e 00       		.byte	0
 787 009f 00       		.space	1
 788 00a0 6400     		.short	100
 789 00a2 6400     		.short	100
 790 00a4 28       		.byte	40
 791 00a5 28       		.byte	40
 792 00a6 0A       		.byte	10
 793 00a7 03       		.byte	3
 794 00a8 1E       		.byte	30
 795 00a9 20       		.byte	32
 796 00aa 2A00     		.short	42
 797 00ac 00       		.byte	0
 798 00ad 00       		.space	1
 799 00ae A000     		.short	160
 800 00b0 0000     		.short	0
 801 00b2 00       		.byte	0
 802 00b3 00       		.space	1
 803 00b4 0C00     		.short	12
 804 00b6 6400     		.short	100
 805 00b8 28       		.byte	40
 806 00b9 28       		.byte	40
 807 00ba 0A       		.byte	10
 808 00bb 03       		.byte	3
 809 00bc 1E       		.byte	30
 810 00bd 20       		.byte	32
 811 00be 0400     		.short	4
 812 00c0 00       		.byte	0
 813 00c1 00       		.space	1
 814 00c2 C800     		.short	200
 815 00c4 0000     		.short	0
 816 00c6 00       		.byte	0
 817 00c7 00       		.space	1
 818 00c8 FFFF     		.short	-1
ARM GAS  C:\Users\nicpa\AppData\Local\Temp\cceOSKlL.s 			page 39


 819 00ca 0000     		.space	2
 820              		.type	CapSense_ramGesturesInit, %object
 821              		.size	CapSense_ramGesturesInit, 86
 822              	CapSense_ramGesturesInit:
 823 00cc 56       		.byte	86
 824 00cd 08       		.byte	8
 825 00ce 08       		.byte	8
 826 00cf 08       		.byte	8
 827 00d0 00       		.byte	0
 828 00d1 14       		.byte	20
 829 00d2 00       		.byte	0
 830 00d3 14       		.byte	20
 831 00d4 14       		.byte	20
 832 00d5 14       		.byte	20
 833 00d6 14       		.byte	20
 834 00d7 00       		.byte	0
 835 00d8 00       		.byte	0
 836 00d9 00       		.byte	0
 837 00da 00       		.byte	0
 838 00db 03       		.byte	3
 839 00dc 05       		.byte	5
 840 00dd 07       		.byte	7
 841 00de 09       		.byte	9
 842 00df 03       		.byte	3
 843 00e0 14       		.byte	20
 844 00e1 18       		.byte	24
 845 00e2 1E       		.byte	30
 846 00e3 28       		.byte	40
 847 00e4 00       		.byte	0
 848 00e5 00       		.byte	0
 849 00e6 00       		.byte	0
 850 00e7 00       		.byte	0
 851 00e8 03       		.byte	3
 852 00e9 05       		.byte	5
 853 00ea 07       		.byte	7
 854 00eb 09       		.byte	9
 855 00ec 03       		.byte	3
 856 00ed 05       		.byte	5
 857 00ee 32       		.byte	50
 858 00ef 00       		.byte	0
 859 00f0 00       		.byte	0
 860 00f1 32       		.byte	50
 861 00f2 00       		.byte	0
 862 00f3 00       		.byte	0
 863 00f4 64       		.byte	100
 864 00f5 2D       		.byte	45
 865 00f6 2D       		.byte	45
 866 00f7 05       		.byte	5
 867 00f8 03       		.byte	3
 868 00f9 03       		.byte	3
 869 00fa 03       		.byte	3
 870 00fb 03       		.byte	3
 871 00fc 00       		.byte	0
 872 00fd 00       		.byte	0
 873 00fe 14       		.byte	20
 874 00ff 1E       		.byte	30
 875 0100 00       		.byte	0
ARM GAS  C:\Users\nicpa\AppData\Local\Temp\cceOSKlL.s 			page 40


 876 0101 00       		.space	1
 877 0102 0300     		.short	3
 878 0104 0C00     		.short	12
 879 0106 0000     		.short	0
 880 0108 5000     		.short	80
 881 010a D007     		.short	2000
 882 010c E803     		.short	1000
 883 010e 6400     		.short	100
 884 0110 E803     		.short	1000
 885 0112 0A00     		.short	10
 886 0114 E803     		.short	1000
 887 0116 0A00     		.short	10
 888 0118 F0       		.byte	-16
 889 0119 28       		.byte	40
 890 011a 29       		.byte	41
 891 011b 30       		.byte	48
 892 011c 3F       		.byte	63
 893 011d 48       		.byte	72
 894 011e 49       		.byte	73
 895 011f 90       		.byte	-112
 896 0120 9F       		.byte	-97
 897 0121 00       		.space	1
 898 0122 0000     		.space	2
 899              		.type	CapSense_ioList, %object
 900              		.size	CapSense_ioList, 72
 901              	CapSense_ioList:
 902 0124 00043240 		.word	1077019648
 903 0128 01       		.byte	1
 904 0129 000000   		.space	3
 905 012c 80003240 		.word	1077018752
 906 0130 00       		.byte	0
 907 0131 000000   		.space	3
 908 0134 00043240 		.word	1077019648
 909 0138 02       		.byte	2
 910 0139 000000   		.space	3
 911 013c 80003240 		.word	1077018752
 912 0140 00       		.byte	0
 913 0141 000000   		.space	3
 914 0144 00043240 		.word	1077019648
 915 0148 03       		.byte	3
 916 0149 000000   		.space	3
 917 014c 00043240 		.word	1077019648
 918 0150 04       		.byte	4
 919 0151 000000   		.space	3
 920 0154 00043240 		.word	1077019648
 921 0158 05       		.byte	5
 922 0159 000000   		.space	3
 923 015c 00043240 		.word	1077019648
 924 0160 06       		.byte	6
 925 0161 000000   		.space	3
 926 0164 00043240 		.word	1077019648
 927 0168 07       		.byte	7
 928 0169 000000   		.space	3
 929              		.section	.rodata.str1.4,"aMS",%progbits,1
 930              		.align	2
 931              	.LC9:
 932 0000 47656E65 		.ascii	"Generated_Source\\PSoC6\\CapSense_Structure.c\000"
ARM GAS  C:\Users\nicpa\AppData\Local\Temp\cceOSKlL.s 			page 41


 932      72617465 
 932      645F536F 
 932      75726365 
 932      5C50536F 
 933              		.bss
 934              		.align	2
 935              		.type	CapSense_noiseEnvlpLinearSlider0, %object
 936              		.size	CapSense_noiseEnvlpLinearSlider0, 60
 937              	CapSense_noiseEnvlpLinearSlider0:
 938 0000 00000000 		.space	60
 938      00000000 
 938      00000000 
 938      00000000 
 938      00000000 
 939              		.type	CapSense_debounceLinearSlider0, %object
 940              		.size	CapSense_debounceLinearSlider0, 1
 941              	CapSense_debounceLinearSlider0:
 942 003c 00       		.space	1
 943 003d 000000   		.space	3
 944              		.type	CapSense_debounceButtonL, %object
 945              		.size	CapSense_debounceButtonL, 1
 946              	CapSense_debounceButtonL:
 947 0040 00       		.space	1
 948 0041 000000   		.space	3
 949              		.type	CapSense_debounceButtonR, %object
 950              		.size	CapSense_debounceButtonR, 1
 951              	CapSense_debounceButtonR:
 952 0044 00       		.space	1
 953              		.text
 954              	.Letext0:
 955              		.file 2 "c:\\program files (x86)\\cypress\\psoc creator\\4.4\\psoc creator\\import\\gnu\\arm\\5.4.
 956              		.file 3 "c:\\program files (x86)\\cypress\\psoc creator\\4.4\\psoc creator\\import\\gnu\\arm\\5.4.
 957              		.file 4 "Generated_Source\\PSoC6\\pdl\\devices/psoc6/include/ip/cyip_gpio.h"
 958              		.file 5 "Generated_Source\\PSoC6\\pdl\\devices/psoc6/include/psoc6_01_config.h"
 959              		.file 6 "Generated_Source\\PSoC6\\pdl\\drivers/peripheral/syslib/cy_syslib.h"
 960              		.file 7 "Generated_Source\\PSoC6\\CapSense_Configuration.h"
 961              		.file 8 "Generated_Source\\PSoC6\\CapSense_SmartSense_LL.h"
 962              		.file 9 "Generated_Source\\PSoC6\\CapSense_TMG.h"
 963              		.file 10 "Generated_Source\\PSoC6\\CapSense_Structure.h"