ARM GAS  C:\Users\nicpa\AppData\Local\Temp\ccQfdc9j.s 			page 1


   1              		.syntax unified
   2              		.cpu cortex-m0plus
   3              		.fpu softvfp
   4              		.eabi_attribute 20, 1
   5              		.eabi_attribute 21, 1
   6              		.eabi_attribute 23, 3
   7              		.eabi_attribute 24, 1
   8              		.eabi_attribute 25, 1
   9              		.eabi_attribute 26, 1
  10              		.eabi_attribute 30, 1
  11              		.eabi_attribute 34, 0
  12              		.eabi_attribute 18, 4
  13              		.thumb
  14              		.syntax unified
  15              		.file	"LCDConf.c"
  16              		.text
  17              	.Ltext0:
  18              		.cfi_sections	.debug_frame
  19              		.section	.text.LCD_X_Config,"ax",%progbits
  20              		.align	2
  21              		.global	LCD_X_Config
  22              		.code	16
  23              		.thumb_func
  24              		.type	LCD_X_Config, %function
  25              	LCD_X_Config:
  26              	.LFB45:
  27              		.file 1 "LCDConf.c"
   1:LCDConf.c     **** /*********************************************************************
   2:LCDConf.c     **** *                SEGGER Microcontroller GmbH & Co. KG                *
   3:LCDConf.c     **** *        Solutions for real time microcontroller applications        *
   4:LCDConf.c     **** **********************************************************************
   5:LCDConf.c     **** *                                                                    *
   6:LCDConf.c     **** *        (c) 1996 - 2017  SEGGER Microcontroller GmbH & Co. KG       *
   7:LCDConf.c     **** *                                                                    *
   8:LCDConf.c     **** *        Internet: www.segger.com    Support:  support@segger.com    *
   9:LCDConf.c     **** *                                                                    *
  10:LCDConf.c     **** **********************************************************************
  11:LCDConf.c     **** 
  12:LCDConf.c     **** ** emWin V5.46 - Graphical user interface for embedded applications **
  13:LCDConf.c     **** All  Intellectual Property rights  in the Software belongs to  SEGGER.
  14:LCDConf.c     **** emWin is protected by  international copyright laws.  Knowledge of the
  15:LCDConf.c     **** source code may not be used to write a similar product.  This file may
  16:LCDConf.c     **** only be used in accordance with the following terms:
  17:LCDConf.c     **** 
  18:LCDConf.c     **** The software  has been licensed to  Cypress Semiconductor Corporation,
  19:LCDConf.c     **** whose registered  office is situated  at 198 Champion Ct. San Jose, CA 
  20:LCDConf.c     **** 95134 USA  solely for the  purposes of creating  libraries for Cypress
  21:LCDConf.c     **** PSoC3 and  PSoC5 processor-based devices,  sublicensed and distributed
  22:LCDConf.c     **** under  the  terms  and  conditions  of  the  Cypress  End User License
  23:LCDConf.c     **** Agreement.
  24:LCDConf.c     **** Full source code is available at: www.segger.com
  25:LCDConf.c     **** 
  26:LCDConf.c     **** We appreciate your understanding and fairness.
  27:LCDConf.c     **** ----------------------------------------------------------------------
  28:LCDConf.c     **** Licensing information
  29:LCDConf.c     **** Licensor:                 SEGGER Microcontroller Systems LLC
  30:LCDConf.c     **** Licensed to:              Cypress Semiconductor Corp, 198 Champion Ct., San Jose, CA 95134, USA
ARM GAS  C:\Users\nicpa\AppData\Local\Temp\ccQfdc9j.s 			page 2


  31:LCDConf.c     **** Licensed SEGGER software: emWin
  32:LCDConf.c     **** License number:           GUI-00319
  33:LCDConf.c     **** License model:            Services and License Agreement, signed June 10th, 2009
  34:LCDConf.c     **** Licensed platform:        Any Cypress platform (Initial targets are: PSoC3, PSoC5)
  35:LCDConf.c     **** ----------------------------------------------------------------------
  36:LCDConf.c     **** Support and Update Agreement (SUA)
  37:LCDConf.c     **** SUA period:               2009-06-12 - 2022-07-27
  38:LCDConf.c     **** Contact to extend SUA:    sales@segger.com
  39:LCDConf.c     **** ----------------------------------------------------------------------
  40:LCDConf.c     **** File        : LCDConf.c
  41:LCDConf.c     **** Purpose     : Display configuration file for GUIDRV_Bitplains to be
  42:LCDConf.c     ****               used without any display controller. This implementation
  43:LCDConf.c     ****               has been written and tested with the RSKR32C111 with
  44:LCDConf.c     ****               Visualization Add On.
  45:LCDConf.c     **** ---------------------------END-OF-HEADER------------------------------
  46:LCDConf.c     **** */
  47:LCDConf.c     **** 
  48:LCDConf.c     **** #include <stddef.h>
  49:LCDConf.c     **** #include "syslib/cy_syslib.h"
  50:LCDConf.c     **** 
  51:LCDConf.c     **** #include "GUI.h"
  52:LCDConf.c     **** 
  53:LCDConf.c     **** #include "GUIDRV_BitPlains.h"
  54:LCDConf.c     **** 
  55:LCDConf.c     **** /*********************************************************************
  56:LCDConf.c     **** *
  57:LCDConf.c     **** *       Layer configuration
  58:LCDConf.c     **** *
  59:LCDConf.c     **** **********************************************************************
  60:LCDConf.c     **** */
  61:LCDConf.c     **** //
  62:LCDConf.c     **** // Physical display size
  63:LCDConf.c     **** //
  64:LCDConf.c     **** #define XSIZE_PHYS 264
  65:LCDConf.c     **** #define YSIZE_PHYS 176
  66:LCDConf.c     **** 
  67:LCDConf.c     **** //
  68:LCDConf.c     **** // Initial color conversion API
  69:LCDConf.c     **** //
  70:LCDConf.c     **** #define COLOR_CONVERSION GUICC_1
  71:LCDConf.c     **** 
  72:LCDConf.c     **** /*********************************************************************
  73:LCDConf.c     **** *
  74:LCDConf.c     **** *       Configuration checking
  75:LCDConf.c     **** *
  76:LCDConf.c     **** **********************************************************************
  77:LCDConf.c     **** */
  78:LCDConf.c     **** //
  79:LCDConf.c     **** // Checking display driver configuration
  80:LCDConf.c     **** //
  81:LCDConf.c     **** #ifndef   XSIZE_PHYS
  82:LCDConf.c     ****   #error Physical X size of display is not defined!
  83:LCDConf.c     **** #endif
  84:LCDConf.c     **** #ifndef   YSIZE_PHYS
  85:LCDConf.c     ****   #error Physical Y size of display is not defined!
  86:LCDConf.c     **** #endif
  87:LCDConf.c     **** #ifndef   COLOR_CONVERSION
ARM GAS  C:\Users\nicpa\AppData\Local\Temp\ccQfdc9j.s 			page 3


  88:LCDConf.c     ****   #error Color conversion not defined!
  89:LCDConf.c     **** #endif
  90:LCDConf.c     **** 
  91:LCDConf.c     **** //
  92:LCDConf.c     **** // Number of bytes per line
  93:LCDConf.c     **** //
  94:LCDConf.c     **** #define BYTES_PER_LINE ((XSIZE_PHYS + 7) >> 3)
  95:LCDConf.c     **** 
  96:LCDConf.c     **** /*********************************************************************
  97:LCDConf.c     **** *
  98:LCDConf.c     **** *       Static data
  99:LCDConf.c     **** *
 100:LCDConf.c     **** **********************************************************************
 101:LCDConf.c     **** */
 102:LCDConf.c     **** //
 103:LCDConf.c     **** // Data arrays to be used by the display driver
 104:LCDConf.c     **** //
 105:LCDConf.c     **** static U8 _aPlain_0[BYTES_PER_LINE * YSIZE_PHYS];
 106:LCDConf.c     **** 
 107:LCDConf.c     **** //
 108:LCDConf.c     **** // Structure to be passed to the driver
 109:LCDConf.c     **** //
 110:LCDConf.c     **** static struct {
 111:LCDConf.c     ****   U8 * apVRAM[8];
 112:LCDConf.c     **** } _VRAM_Desc = {{
 113:LCDConf.c     ****   _aPlain_0,
 114:LCDConf.c     **** }};
 115:LCDConf.c     **** 
 116:LCDConf.c     **** /*********************************************************************
 117:LCDConf.c     **** *
 118:LCDConf.c     **** *       Public code
 119:LCDConf.c     **** *
 120:LCDConf.c     **** **********************************************************************
 121:LCDConf.c     **** */
 122:LCDConf.c     **** /*********************************************************************
 123:LCDConf.c     **** *
 124:LCDConf.c     **** *       LCD_X_Config
 125:LCDConf.c     **** *
 126:LCDConf.c     **** * Purpose:
 127:LCDConf.c     **** *   Called during the initialization process in order to set up the
 128:LCDConf.c     **** *   display driver configuration.
 129:LCDConf.c     **** *   
 130:LCDConf.c     **** */
 131:LCDConf.c     **** void LCD_X_Config(void) {
  28              		.loc 1 131 0
  29              		.cfi_startproc
  30              		@ args = 0, pretend = 0, frame = 8
  31              		@ frame_needed = 0, uses_anonymous_args = 0
  32 0000 10B5     		push	{r4, lr}
  33              		.cfi_def_cfa_offset 8
  34              		.cfi_offset 4, -8
  35              		.cfi_offset 14, -4
  36 0002 82B0     		sub	sp, sp, #8
  37              		.cfi_def_cfa_offset 16
 132:LCDConf.c     **** 	
 133:LCDConf.c     **** 	GUI_DEVICE * pDevice;
 134:LCDConf.c     **** 	CONFIG_BITPLAINS Config;
ARM GAS  C:\Users\nicpa\AppData\Local\Temp\ccQfdc9j.s 			page 4


 135:LCDConf.c     **** 	
 136:LCDConf.c     **** 	Config.Mirror = 1;
  38              		.loc 1 136 0
  39 0004 0123     		movs	r3, #1
  40 0006 0193     		str	r3, [sp, #4]
 137:LCDConf.c     **** 	
 138:LCDConf.c     **** 	
 139:LCDConf.c     ****   //
 140:LCDConf.c     ****   // Set display driver and color conversion for 1st layer
 141:LCDConf.c     ****   //
 142:LCDConf.c     ****   pDevice = GUI_DEVICE_CreateAndLink(GUIDRV_BITPLAINS, COLOR_CONVERSION, 0, 0);
  41              		.loc 1 142 0
  42 0008 0023     		movs	r3, #0
  43 000a 0022     		movs	r2, #0
  44 000c 1449     		ldr	r1, .L4
  45 000e 1548     		ldr	r0, .L4+4
  46 0010 FFF7FEFF 		bl	GUI_DEVICE_CreateAndLink
  47              	.LVL0:
 143:LCDConf.c     ****   GUIDRV_BitPlains_Config(pDevice, &Config);
  48              		.loc 1 143 0
  49 0014 01A9     		add	r1, sp, #4
  50 0016 FFF7FEFF 		bl	GUIDRV_BitPlains_Config
  51              	.LVL1:
 144:LCDConf.c     **** 
 145:LCDConf.c     ****   //
 146:LCDConf.c     ****   // Display driver configuration
 147:LCDConf.c     ****   //
 148:LCDConf.c     ****   if (LCD_GetSwapXY()) {
  52              		.loc 1 148 0
  53 001a FFF7FEFF 		bl	LCD_GetSwapXY
  54              	.LVL2:
  55 001e 0028     		cmp	r0, #0
  56 0020 0CD0     		beq	.L2
 149:LCDConf.c     ****     LCD_SetSizeEx (0, YSIZE_PHYS, XSIZE_PHYS);
  57              		.loc 1 149 0
  58 0022 8424     		movs	r4, #132
  59 0024 6400     		lsls	r4, r4, #1
  60 0026 2200     		movs	r2, r4
  61 0028 B021     		movs	r1, #176
  62 002a 0020     		movs	r0, #0
  63 002c FFF7FEFF 		bl	LCD_SetSizeEx
  64              	.LVL3:
 150:LCDConf.c     ****     LCD_SetVSizeEx(0, YSIZE_PHYS, XSIZE_PHYS);
  65              		.loc 1 150 0
  66 0030 2200     		movs	r2, r4
  67 0032 B021     		movs	r1, #176
  68 0034 0020     		movs	r0, #0
  69 0036 FFF7FEFF 		bl	LCD_SetVSizeEx
  70              	.LVL4:
  71 003a 0BE0     		b	.L3
  72              	.L2:
 151:LCDConf.c     ****   } else {
 152:LCDConf.c     ****     LCD_SetSizeEx (0, XSIZE_PHYS, YSIZE_PHYS);
  73              		.loc 1 152 0
  74 003c 8424     		movs	r4, #132
  75 003e 6400     		lsls	r4, r4, #1
  76 0040 B022     		movs	r2, #176
ARM GAS  C:\Users\nicpa\AppData\Local\Temp\ccQfdc9j.s 			page 5


  77 0042 2100     		movs	r1, r4
  78 0044 0020     		movs	r0, #0
  79 0046 FFF7FEFF 		bl	LCD_SetSizeEx
  80              	.LVL5:
 153:LCDConf.c     ****     LCD_SetVSizeEx(0, XSIZE_PHYS, YSIZE_PHYS);
  81              		.loc 1 153 0
  82 004a B022     		movs	r2, #176
  83 004c 2100     		movs	r1, r4
  84 004e 0020     		movs	r0, #0
  85 0050 FFF7FEFF 		bl	LCD_SetVSizeEx
  86              	.LVL6:
  87              	.L3:
 154:LCDConf.c     ****   }
 155:LCDConf.c     ****   //
 156:LCDConf.c     ****   // Initialize VRAM access off driver
 157:LCDConf.c     ****   //
 158:LCDConf.c     ****   LCD_SetVRAMAddrEx(0, (void *)&_VRAM_Desc);
  88              		.loc 1 158 0
  89 0054 0449     		ldr	r1, .L4+8
  90 0056 0020     		movs	r0, #0
  91 0058 FFF7FEFF 		bl	LCD_SetVRAMAddrEx
  92              	.LVL7:
 159:LCDConf.c     **** }
  93              		.loc 1 159 0
  94 005c 02B0     		add	sp, sp, #8
  95              		@ sp needed
  96 005e 10BD     		pop	{r4, pc}
  97              	.L5:
  98              		.align	2
  99              	.L4:
 100 0060 00000000 		.word	LCD_API_ColorConv_1
 101 0064 00000000 		.word	GUIDRV_BitPlains_API
 102 0068 00000000 		.word	.LANCHOR0
 103              		.cfi_endproc
 104              	.LFE45:
 105              		.size	LCD_X_Config, .-LCD_X_Config
 106              		.section	.text.LCD_X_DisplayDriver,"ax",%progbits
 107              		.align	2
 108              		.global	LCD_X_DisplayDriver
 109              		.code	16
 110              		.thumb_func
 111              		.type	LCD_X_DisplayDriver, %function
 112              	LCD_X_DisplayDriver:
 113              	.LFB46:
 160:LCDConf.c     **** 
 161:LCDConf.c     **** /*********************************************************************
 162:LCDConf.c     **** *
 163:LCDConf.c     **** *       LCD_X_DisplayDriver
 164:LCDConf.c     **** *
 165:LCDConf.c     **** * Purpose:
 166:LCDConf.c     **** *   This function is called by the display driver for several purposes.
 167:LCDConf.c     **** *   To support the according task the routine needs to be adapted to
 168:LCDConf.c     **** *   the display controller. Please note that the commands marked with
 169:LCDConf.c     **** *   'optional' are not cogently required and should only be adapted if 
 170:LCDConf.c     **** *   the display controller supports these features.
 171:LCDConf.c     **** *
 172:LCDConf.c     **** * Parameter:
ARM GAS  C:\Users\nicpa\AppData\Local\Temp\ccQfdc9j.s 			page 6


 173:LCDConf.c     **** *   LayerIndex - Index of layer to be configured
 174:LCDConf.c     **** *   Cmd        - Please refer to the details in the switch statement below
 175:LCDConf.c     **** *   pData      - Pointer to a LCD_X_DATA structure
 176:LCDConf.c     **** *
 177:LCDConf.c     **** * Return Value:
 178:LCDConf.c     **** *   < -1 - Error
 179:LCDConf.c     **** *     -1 - Command not handled
 180:LCDConf.c     **** *      0 - Ok
 181:LCDConf.c     **** */
 182:LCDConf.c     **** int LCD_X_DisplayDriver(unsigned LayerIndex, unsigned Cmd, void * p) {
 114              		.loc 1 182 0
 115              		.cfi_startproc
 116              		@ args = 0, pretend = 0, frame = 0
 117              		@ frame_needed = 0, uses_anonymous_args = 0
 118              		@ link register save eliminated.
 119              	.LVL8:
 183:LCDConf.c     ****   int r;
 184:LCDConf.c     ****   GUI_USE_PARA(LayerIndex);
 185:LCDConf.c     ****   GUI_USE_PARA(p);
 186:LCDConf.c     **** 
 187:LCDConf.c     ****   switch (Cmd) {
 120              		.loc 1 187 0
 121 0000 0129     		cmp	r1, #1
 122 0002 01D1     		bne	.L10
 188:LCDConf.c     ****   case LCD_X_INITCONTROLLER: {
 189:LCDConf.c     **** 	//
 190:LCDConf.c     ****     // Called during the initialization process in order to set up the
 191:LCDConf.c     ****     // display controller and put it into operation. If the display
 192:LCDConf.c     ****     // controller is not initialized by any external routine this needs
 193:LCDConf.c     ****     // to be adapted by the customer...
 194:LCDConf.c     ****     //
 195:LCDConf.c     ****     return 0;
 123              		.loc 1 195 0
 124 0004 0020     		movs	r0, #0
 125              	.LVL9:
 126 0006 01E0     		b	.L7
 127              	.LVL10:
 128              	.L10:
 196:LCDConf.c     ****   }
 197:LCDConf.c     ****   default:
 198:LCDConf.c     ****     r = -1;
 199:LCDConf.c     ****   }
 200:LCDConf.c     ****   return r;
 129              		.loc 1 200 0
 130 0008 0120     		movs	r0, #1
 131              	.LVL11:
 132 000a 4042     		rsbs	r0, r0, #0
 133              	.L7:
 201:LCDConf.c     **** }
 134              		.loc 1 201 0
 135              		@ sp needed
 136 000c 7047     		bx	lr
 137              		.cfi_endproc
 138              	.LFE46:
 139              		.size	LCD_X_DisplayDriver, .-LCD_X_DisplayDriver
 140 000e C046     		.section	.text.LCD_GetDisplayBuffer,"ax",%progbits
 141              		.align	2
ARM GAS  C:\Users\nicpa\AppData\Local\Temp\ccQfdc9j.s 			page 7


 142              		.global	LCD_GetDisplayBuffer
 143              		.code	16
 144              		.thumb_func
 145              		.type	LCD_GetDisplayBuffer, %function
 146              	LCD_GetDisplayBuffer:
 147              	.LFB47:
 202:LCDConf.c     **** 
 203:LCDConf.c     **** /*********************************************************************
 204:LCDConf.c     **** *
 205:LCDConf.c     **** *       LCD_GetDisplayBuffer
 206:LCDConf.c     **** *
 207:LCDConf.c     **** * Purpose:
 208:LCDConf.c     **** *   This function returns the pointer to EmWin's dispay buffer
 209:LCDConf.c     **** 
 210:LCDConf.c     **** * Parameter:
 211:LCDConf.c     **** *   None
 212:LCDConf.c     **** *
 213:LCDConf.c     **** * Return Value:
 214:LCDConf.c     **** *   U8* - Pointer to the EmWin's display buffer
 215:LCDConf.c     **** */
 216:LCDConf.c     **** U8* LCD_GetDisplayBuffer(void)
 217:LCDConf.c     **** {
 148              		.loc 1 217 0
 149              		.cfi_startproc
 150              		@ args = 0, pretend = 0, frame = 0
 151              		@ frame_needed = 0, uses_anonymous_args = 0
 152              		@ link register save eliminated.
 218:LCDConf.c     ****   /* Copy the Bitplains display buffer to user memory */
 219:LCDConf.c     ****   return _aPlain_0;
 220:LCDConf.c     **** }
 153              		.loc 1 220 0
 154 0000 0048     		ldr	r0, .L12
 155              		@ sp needed
 156 0002 7047     		bx	lr
 157              	.L13:
 158              		.align	2
 159              	.L12:
 160 0004 00000000 		.word	.LANCHOR1
 161              		.cfi_endproc
 162              	.LFE47:
 163              		.size	LCD_GetDisplayBuffer, .-LCD_GetDisplayBuffer
 164              		.data
 165              		.align	2
 166              		.set	.LANCHOR0,. + 0
 167              		.type	_VRAM_Desc, %object
 168              		.size	_VRAM_Desc, 32
 169              	_VRAM_Desc:
 170 0000 00000000 		.word	_aPlain_0
 171 0004 00000000 		.space	28
 171      00000000 
 171      00000000 
 171      00000000 
 171      00000000 
 172              		.bss
 173              		.align	2
 174              		.set	.LANCHOR1,. + 0
 175              		.type	_aPlain_0, %object
ARM GAS  C:\Users\nicpa\AppData\Local\Temp\ccQfdc9j.s 			page 8


 176              		.size	_aPlain_0, 5808
 177              	_aPlain_0:
 178 0000 00000000 		.space	5808
 178      00000000 
 178      00000000 
 178      00000000 
 178      00000000 
 179              		.text
 180              	.Letext0:
 181              		.file 2 "c:\\program files (x86)\\cypress\\psoc creator\\4.4\\psoc creator\\import\\gnu\\arm\\5.4.
 182              		.file 3 "c:\\program files (x86)\\cypress\\psoc creator\\4.4\\psoc creator\\import\\gnu\\arm\\5.4.
 183              		.file 4 "Generated_Source\\PSoC6\\pdl\\middleware/emWin/code/include/LCD.h"
 184              		.file 5 "Generated_Source\\PSoC6\\pdl\\middleware/emWin/code/include/GUI.h"
 185              		.file 6 "Generated_Source\\PSoC6\\pdl\\middleware/emWin/code/drivers/BitPlains/GUIDRV_BitPlains.h"