ARM GAS  C:\Users\nicpa\AppData\Local\Temp\ccIFCjQH.s 			page 1


   1              		.syntax unified
   2              		.cpu cortex-m4
   3              		.eabi_attribute 27, 1
   4              		.fpu fpv4-sp-d16
   5              		.eabi_attribute 20, 1
   6              		.eabi_attribute 21, 1
   7              		.eabi_attribute 23, 3
   8              		.eabi_attribute 24, 1
   9              		.eabi_attribute 25, 1
  10              		.eabi_attribute 26, 1
  11              		.eabi_attribute 30, 1
  12              		.eabi_attribute 34, 1
  13              		.eabi_attribute 18, 4
  14              		.thumb
  15              		.syntax unified
  16              		.file	"CY_EINK_SPIM.c"
  17              		.text
  18              	.Ltext0:
  19              		.cfi_sections	.debug_frame
  20              		.section	.text.CY_EINK_SPIM_Interrupt,"ax",%progbits
  21              		.align	2
  22              		.thumb
  23              		.thumb_func
  24              		.type	CY_EINK_SPIM_Interrupt, %function
  25              	CY_EINK_SPIM_Interrupt:
  26              	.LFB268:
  27              		.file 1 "Generated_Source\\PSoC6\\CY_EINK_SPIM.h"
   1:Generated_Source\PSoC6/CY_EINK_SPIM.h **** /***************************************************************************//**
   2:Generated_Source\PSoC6/CY_EINK_SPIM.h **** * \file CY_EINK_SPIM.h
   3:Generated_Source\PSoC6/CY_EINK_SPIM.h **** * \version 2.0
   4:Generated_Source\PSoC6/CY_EINK_SPIM.h **** *
   5:Generated_Source\PSoC6/CY_EINK_SPIM.h **** *  This file provides constants and parameter values for the SPI component.
   6:Generated_Source\PSoC6/CY_EINK_SPIM.h **** *
   7:Generated_Source\PSoC6/CY_EINK_SPIM.h **** ********************************************************************************
   8:Generated_Source\PSoC6/CY_EINK_SPIM.h **** * \copyright
   9:Generated_Source\PSoC6/CY_EINK_SPIM.h **** * Copyright 2016-2017, Cypress Semiconductor Corporation. All rights reserved.
  10:Generated_Source\PSoC6/CY_EINK_SPIM.h **** * You may use this file only in accordance with the license, terms, conditions,
  11:Generated_Source\PSoC6/CY_EINK_SPIM.h **** * disclaimers, and limitations in the end user license agreement accompanying
  12:Generated_Source\PSoC6/CY_EINK_SPIM.h **** * the software package with which this file was provided.
  13:Generated_Source\PSoC6/CY_EINK_SPIM.h **** *******************************************************************************/
  14:Generated_Source\PSoC6/CY_EINK_SPIM.h **** 
  15:Generated_Source\PSoC6/CY_EINK_SPIM.h **** #if !defined(CY_EINK_SPIM_CY_SCB_SPI_PDL_H)
  16:Generated_Source\PSoC6/CY_EINK_SPIM.h **** #define CY_EINK_SPIM_CY_SCB_SPI_PDL_H
  17:Generated_Source\PSoC6/CY_EINK_SPIM.h **** 
  18:Generated_Source\PSoC6/CY_EINK_SPIM.h **** #include "cyfitter.h"
  19:Generated_Source\PSoC6/CY_EINK_SPIM.h **** #include "scb/cy_scb_spi.h"
  20:Generated_Source\PSoC6/CY_EINK_SPIM.h **** 
  21:Generated_Source\PSoC6/CY_EINK_SPIM.h **** #if defined(__cplusplus)
  22:Generated_Source\PSoC6/CY_EINK_SPIM.h **** extern "C" {
  23:Generated_Source\PSoC6/CY_EINK_SPIM.h **** #endif
  24:Generated_Source\PSoC6/CY_EINK_SPIM.h **** 
  25:Generated_Source\PSoC6/CY_EINK_SPIM.h **** /***************************************
  26:Generated_Source\PSoC6/CY_EINK_SPIM.h **** *        Function Prototypes
  27:Generated_Source\PSoC6/CY_EINK_SPIM.h **** ***************************************/
  28:Generated_Source\PSoC6/CY_EINK_SPIM.h **** /**
  29:Generated_Source\PSoC6/CY_EINK_SPIM.h **** * \addtogroup group_general
  30:Generated_Source\PSoC6/CY_EINK_SPIM.h **** * @{
ARM GAS  C:\Users\nicpa\AppData\Local\Temp\ccIFCjQH.s 			page 2


  31:Generated_Source\PSoC6/CY_EINK_SPIM.h **** */
  32:Generated_Source\PSoC6/CY_EINK_SPIM.h **** /* Component specific functions. */
  33:Generated_Source\PSoC6/CY_EINK_SPIM.h **** void CY_EINK_SPIM_Start(void);
  34:Generated_Source\PSoC6/CY_EINK_SPIM.h **** 
  35:Generated_Source\PSoC6/CY_EINK_SPIM.h **** /* Basic functions. */
  36:Generated_Source\PSoC6/CY_EINK_SPIM.h **** __STATIC_INLINE cy_en_scb_spi_status_t CY_EINK_SPIM_Init(cy_stc_scb_spi_config_t const *config);
  37:Generated_Source\PSoC6/CY_EINK_SPIM.h **** __STATIC_INLINE void CY_EINK_SPIM_DeInit(void);
  38:Generated_Source\PSoC6/CY_EINK_SPIM.h **** __STATIC_INLINE void CY_EINK_SPIM_Enable(void);
  39:Generated_Source\PSoC6/CY_EINK_SPIM.h **** __STATIC_INLINE void CY_EINK_SPIM_Disable(void);
  40:Generated_Source\PSoC6/CY_EINK_SPIM.h **** 
  41:Generated_Source\PSoC6/CY_EINK_SPIM.h **** /* Register callback. */
  42:Generated_Source\PSoC6/CY_EINK_SPIM.h **** __STATIC_INLINE void CY_EINK_SPIM_RegisterCallback(cy_cb_scb_spi_handle_events_t callback);
  43:Generated_Source\PSoC6/CY_EINK_SPIM.h **** 
  44:Generated_Source\PSoC6/CY_EINK_SPIM.h **** /* Bus state. */
  45:Generated_Source\PSoC6/CY_EINK_SPIM.h **** __STATIC_INLINE bool CY_EINK_SPIM_IsBusBusy(void);
  46:Generated_Source\PSoC6/CY_EINK_SPIM.h **** 
  47:Generated_Source\PSoC6/CY_EINK_SPIM.h **** /* Slave select control. */
  48:Generated_Source\PSoC6/CY_EINK_SPIM.h **** __STATIC_INLINE void CY_EINK_SPIM_SetActiveSlaveSelect(cy_en_scb_spi_slave_select_t slaveSelect);
  49:Generated_Source\PSoC6/CY_EINK_SPIM.h **** __STATIC_INLINE void CY_EINK_SPIM_SetActiveSlaveSelectPolarity(cy_en_scb_spi_slave_select_t slaveSe
  50:Generated_Source\PSoC6/CY_EINK_SPIM.h ****                                                                    cy_en_scb_spi_polarity_t polarit
  51:Generated_Source\PSoC6/CY_EINK_SPIM.h **** 
  52:Generated_Source\PSoC6/CY_EINK_SPIM.h **** /* Low level: read. */
  53:Generated_Source\PSoC6/CY_EINK_SPIM.h **** __STATIC_INLINE uint32_t CY_EINK_SPIM_Read(void);
  54:Generated_Source\PSoC6/CY_EINK_SPIM.h **** __STATIC_INLINE uint32_t CY_EINK_SPIM_ReadArray(void *buffer, uint32_t size);
  55:Generated_Source\PSoC6/CY_EINK_SPIM.h **** __STATIC_INLINE uint32_t CY_EINK_SPIM_GetRxFifoStatus(void);
  56:Generated_Source\PSoC6/CY_EINK_SPIM.h **** __STATIC_INLINE void     CY_EINK_SPIM_ClearRxFifoStatus(uint32_t clearMask);
  57:Generated_Source\PSoC6/CY_EINK_SPIM.h **** __STATIC_INLINE uint32_t CY_EINK_SPIM_GetNumInRxFifo(void);
  58:Generated_Source\PSoC6/CY_EINK_SPIM.h **** __STATIC_INLINE void     CY_EINK_SPIM_ClearRxFifo(void);
  59:Generated_Source\PSoC6/CY_EINK_SPIM.h **** 
  60:Generated_Source\PSoC6/CY_EINK_SPIM.h **** /* Low level: write. */
  61:Generated_Source\PSoC6/CY_EINK_SPIM.h **** __STATIC_INLINE uint32_t CY_EINK_SPIM_Write(uint32_t data);
  62:Generated_Source\PSoC6/CY_EINK_SPIM.h **** __STATIC_INLINE uint32_t CY_EINK_SPIM_WriteArray(void *buffer, uint32_t size);
  63:Generated_Source\PSoC6/CY_EINK_SPIM.h **** __STATIC_INLINE void     CY_EINK_SPIM_WriteArrayBlocking(void *buffer, uint32_t size);
  64:Generated_Source\PSoC6/CY_EINK_SPIM.h **** __STATIC_INLINE uint32_t CY_EINK_SPIM_GetTxFifoStatus(void);
  65:Generated_Source\PSoC6/CY_EINK_SPIM.h **** __STATIC_INLINE void     CY_EINK_SPIM_ClearTxFifoStatus(uint32_t clearMask);
  66:Generated_Source\PSoC6/CY_EINK_SPIM.h **** __STATIC_INLINE uint32_t CY_EINK_SPIM_GetNumInTxFifo(void);
  67:Generated_Source\PSoC6/CY_EINK_SPIM.h **** __STATIC_INLINE bool     CY_EINK_SPIM_IsTxComplete(void);
  68:Generated_Source\PSoC6/CY_EINK_SPIM.h **** __STATIC_INLINE void     CY_EINK_SPIM_ClearTxFifo(void);
  69:Generated_Source\PSoC6/CY_EINK_SPIM.h **** 
  70:Generated_Source\PSoC6/CY_EINK_SPIM.h **** /* Master/slave specific status. */
  71:Generated_Source\PSoC6/CY_EINK_SPIM.h **** __STATIC_INLINE uint32_t CY_EINK_SPIM_GetSlaveMasterStatus(void);
  72:Generated_Source\PSoC6/CY_EINK_SPIM.h **** __STATIC_INLINE void     CY_EINK_SPIM_ClearSlaveMasterStatus(uint32_t clearMask);
  73:Generated_Source\PSoC6/CY_EINK_SPIM.h **** 
  74:Generated_Source\PSoC6/CY_EINK_SPIM.h **** /* High level: transfer functions. */
  75:Generated_Source\PSoC6/CY_EINK_SPIM.h **** __STATIC_INLINE cy_en_scb_spi_status_t CY_EINK_SPIM_Transfer(void *txBuffer, void *rxBuffer, uint32
  76:Generated_Source\PSoC6/CY_EINK_SPIM.h **** __STATIC_INLINE void     CY_EINK_SPIM_AbortTransfer(void);
  77:Generated_Source\PSoC6/CY_EINK_SPIM.h **** __STATIC_INLINE uint32_t CY_EINK_SPIM_GetTransferStatus(void);
  78:Generated_Source\PSoC6/CY_EINK_SPIM.h **** __STATIC_INLINE uint32_t CY_EINK_SPIM_GetNumTransfered(void);
  79:Generated_Source\PSoC6/CY_EINK_SPIM.h **** 
  80:Generated_Source\PSoC6/CY_EINK_SPIM.h **** /* Interrupt handler */
  81:Generated_Source\PSoC6/CY_EINK_SPIM.h **** __STATIC_INLINE void CY_EINK_SPIM_Interrupt(void);
  82:Generated_Source\PSoC6/CY_EINK_SPIM.h **** /** @} group_general */
  83:Generated_Source\PSoC6/CY_EINK_SPIM.h **** 
  84:Generated_Source\PSoC6/CY_EINK_SPIM.h **** 
  85:Generated_Source\PSoC6/CY_EINK_SPIM.h **** /***************************************
  86:Generated_Source\PSoC6/CY_EINK_SPIM.h **** *    Variables with External Linkage
  87:Generated_Source\PSoC6/CY_EINK_SPIM.h **** ***************************************/
ARM GAS  C:\Users\nicpa\AppData\Local\Temp\ccIFCjQH.s 			page 3


  88:Generated_Source\PSoC6/CY_EINK_SPIM.h **** /**
  89:Generated_Source\PSoC6/CY_EINK_SPIM.h **** * \addtogroup group_globals
  90:Generated_Source\PSoC6/CY_EINK_SPIM.h **** * @{
  91:Generated_Source\PSoC6/CY_EINK_SPIM.h **** */
  92:Generated_Source\PSoC6/CY_EINK_SPIM.h **** extern uint8_t CY_EINK_SPIM_initVar;
  93:Generated_Source\PSoC6/CY_EINK_SPIM.h **** extern cy_stc_scb_spi_config_t const CY_EINK_SPIM_config;
  94:Generated_Source\PSoC6/CY_EINK_SPIM.h **** extern cy_stc_scb_spi_context_t CY_EINK_SPIM_context;
  95:Generated_Source\PSoC6/CY_EINK_SPIM.h **** /** @} group_globals */
  96:Generated_Source\PSoC6/CY_EINK_SPIM.h **** 
  97:Generated_Source\PSoC6/CY_EINK_SPIM.h **** 
  98:Generated_Source\PSoC6/CY_EINK_SPIM.h **** /***************************************
  99:Generated_Source\PSoC6/CY_EINK_SPIM.h **** *         Preprocessor Macros
 100:Generated_Source\PSoC6/CY_EINK_SPIM.h **** ***************************************/
 101:Generated_Source\PSoC6/CY_EINK_SPIM.h **** /**
 102:Generated_Source\PSoC6/CY_EINK_SPIM.h **** * \addtogroup group_macros
 103:Generated_Source\PSoC6/CY_EINK_SPIM.h **** * @{
 104:Generated_Source\PSoC6/CY_EINK_SPIM.h **** */
 105:Generated_Source\PSoC6/CY_EINK_SPIM.h **** /** The pointer to the base address of the hardware */
 106:Generated_Source\PSoC6/CY_EINK_SPIM.h **** #define CY_EINK_SPIM_HW     ((CySCB_Type *) CY_EINK_SPIM_SCB__HW)
 107:Generated_Source\PSoC6/CY_EINK_SPIM.h **** 
 108:Generated_Source\PSoC6/CY_EINK_SPIM.h **** /** The slave select line 0 constant which takes into account pin placement */
 109:Generated_Source\PSoC6/CY_EINK_SPIM.h **** #define CY_EINK_SPIM_SPI_SLAVE_SELECT0    ( (cy_en_scb_spi_slave_select_t) CY_EINK_SPIM_SCB__SS0_PO
 110:Generated_Source\PSoC6/CY_EINK_SPIM.h **** 
 111:Generated_Source\PSoC6/CY_EINK_SPIM.h **** /** The slave select line 1 constant which takes into account pin placement */
 112:Generated_Source\PSoC6/CY_EINK_SPIM.h **** #define CY_EINK_SPIM_SPI_SLAVE_SELECT1    ( (cy_en_scb_spi_slave_select_t) CY_EINK_SPIM_SCB__SS1_PO
 113:Generated_Source\PSoC6/CY_EINK_SPIM.h **** 
 114:Generated_Source\PSoC6/CY_EINK_SPIM.h **** /** The slave select line 2 constant which takes into account pin placement */
 115:Generated_Source\PSoC6/CY_EINK_SPIM.h **** #define CY_EINK_SPIM_SPI_SLAVE_SELECT2    ( (cy_en_scb_spi_slave_select_t) CY_EINK_SPIM_SCB__SS2_PO
 116:Generated_Source\PSoC6/CY_EINK_SPIM.h **** 
 117:Generated_Source\PSoC6/CY_EINK_SPIM.h **** /** The slave select line 3 constant which takes into account pin placement */
 118:Generated_Source\PSoC6/CY_EINK_SPIM.h **** #define CY_EINK_SPIM_SPI_SLAVE_SELECT3    ((cy_en_scb_spi_slave_select_t) CY_EINK_SPIM_SCB__SS3_POS
 119:Generated_Source\PSoC6/CY_EINK_SPIM.h **** /** @} group_macros */
 120:Generated_Source\PSoC6/CY_EINK_SPIM.h **** 
 121:Generated_Source\PSoC6/CY_EINK_SPIM.h **** 
 122:Generated_Source\PSoC6/CY_EINK_SPIM.h **** /***************************************
 123:Generated_Source\PSoC6/CY_EINK_SPIM.h **** *    In-line Function Implementation
 124:Generated_Source\PSoC6/CY_EINK_SPIM.h **** ***************************************/
 125:Generated_Source\PSoC6/CY_EINK_SPIM.h **** 
 126:Generated_Source\PSoC6/CY_EINK_SPIM.h **** /*******************************************************************************
 127:Generated_Source\PSoC6/CY_EINK_SPIM.h **** * Function Name: CY_EINK_SPIM_Init
 128:Generated_Source\PSoC6/CY_EINK_SPIM.h **** ****************************************************************************//**
 129:Generated_Source\PSoC6/CY_EINK_SPIM.h **** *
 130:Generated_Source\PSoC6/CY_EINK_SPIM.h **** * Invokes the Cy_SCB_SPI_Init() PDL driver function.
 131:Generated_Source\PSoC6/CY_EINK_SPIM.h **** *
 132:Generated_Source\PSoC6/CY_EINK_SPIM.h **** *******************************************************************************/
 133:Generated_Source\PSoC6/CY_EINK_SPIM.h **** __STATIC_INLINE cy_en_scb_spi_status_t CY_EINK_SPIM_Init(cy_stc_scb_spi_config_t const *config)
 134:Generated_Source\PSoC6/CY_EINK_SPIM.h **** {
 135:Generated_Source\PSoC6/CY_EINK_SPIM.h ****     return Cy_SCB_SPI_Init(CY_EINK_SPIM_HW, config, &CY_EINK_SPIM_context);
 136:Generated_Source\PSoC6/CY_EINK_SPIM.h **** }
 137:Generated_Source\PSoC6/CY_EINK_SPIM.h **** 
 138:Generated_Source\PSoC6/CY_EINK_SPIM.h **** 
 139:Generated_Source\PSoC6/CY_EINK_SPIM.h **** /*******************************************************************************
 140:Generated_Source\PSoC6/CY_EINK_SPIM.h **** * Function Name: CY_EINK_SPIM_DeInit
 141:Generated_Source\PSoC6/CY_EINK_SPIM.h **** ****************************************************************************//**
 142:Generated_Source\PSoC6/CY_EINK_SPIM.h **** *
 143:Generated_Source\PSoC6/CY_EINK_SPIM.h **** * Invokes the Cy_SCB_SPI_DeInit() PDL driver function.
 144:Generated_Source\PSoC6/CY_EINK_SPIM.h **** *
ARM GAS  C:\Users\nicpa\AppData\Local\Temp\ccIFCjQH.s 			page 4


 145:Generated_Source\PSoC6/CY_EINK_SPIM.h **** *******************************************************************************/
 146:Generated_Source\PSoC6/CY_EINK_SPIM.h **** __STATIC_INLINE void CY_EINK_SPIM_DeInit(void)
 147:Generated_Source\PSoC6/CY_EINK_SPIM.h **** {
 148:Generated_Source\PSoC6/CY_EINK_SPIM.h ****     Cy_SCB_SPI_DeInit(CY_EINK_SPIM_HW);
 149:Generated_Source\PSoC6/CY_EINK_SPIM.h **** }
 150:Generated_Source\PSoC6/CY_EINK_SPIM.h **** 
 151:Generated_Source\PSoC6/CY_EINK_SPIM.h **** 
 152:Generated_Source\PSoC6/CY_EINK_SPIM.h **** /*******************************************************************************
 153:Generated_Source\PSoC6/CY_EINK_SPIM.h **** * Function Name: CY_EINK_SPIM_Enable
 154:Generated_Source\PSoC6/CY_EINK_SPIM.h **** ****************************************************************************//**
 155:Generated_Source\PSoC6/CY_EINK_SPIM.h **** *
 156:Generated_Source\PSoC6/CY_EINK_SPIM.h **** * Invokes the Cy_SCB_SPI_Enable() PDL driver function.
 157:Generated_Source\PSoC6/CY_EINK_SPIM.h **** *
 158:Generated_Source\PSoC6/CY_EINK_SPIM.h **** *******************************************************************************/
 159:Generated_Source\PSoC6/CY_EINK_SPIM.h **** __STATIC_INLINE void CY_EINK_SPIM_Enable(void)
 160:Generated_Source\PSoC6/CY_EINK_SPIM.h **** {
 161:Generated_Source\PSoC6/CY_EINK_SPIM.h ****     Cy_SCB_SPI_Enable(CY_EINK_SPIM_HW);
 162:Generated_Source\PSoC6/CY_EINK_SPIM.h **** }
 163:Generated_Source\PSoC6/CY_EINK_SPIM.h **** 
 164:Generated_Source\PSoC6/CY_EINK_SPIM.h **** 
 165:Generated_Source\PSoC6/CY_EINK_SPIM.h **** /*******************************************************************************
 166:Generated_Source\PSoC6/CY_EINK_SPIM.h **** * Function Name: CY_EINK_SPIM_Disable
 167:Generated_Source\PSoC6/CY_EINK_SPIM.h **** ****************************************************************************//**
 168:Generated_Source\PSoC6/CY_EINK_SPIM.h **** *
 169:Generated_Source\PSoC6/CY_EINK_SPIM.h **** * Invokes the Cy_SCB_SPI_Disable() PDL driver function.
 170:Generated_Source\PSoC6/CY_EINK_SPIM.h **** *
 171:Generated_Source\PSoC6/CY_EINK_SPIM.h **** *******************************************************************************/
 172:Generated_Source\PSoC6/CY_EINK_SPIM.h **** __STATIC_INLINE void CY_EINK_SPIM_Disable(void)
 173:Generated_Source\PSoC6/CY_EINK_SPIM.h **** {
 174:Generated_Source\PSoC6/CY_EINK_SPIM.h ****     Cy_SCB_SPI_Disable(CY_EINK_SPIM_HW, &CY_EINK_SPIM_context);
 175:Generated_Source\PSoC6/CY_EINK_SPIM.h **** }
 176:Generated_Source\PSoC6/CY_EINK_SPIM.h **** 
 177:Generated_Source\PSoC6/CY_EINK_SPIM.h **** 
 178:Generated_Source\PSoC6/CY_EINK_SPIM.h **** /*******************************************************************************
 179:Generated_Source\PSoC6/CY_EINK_SPIM.h **** * Function Name: CY_EINK_SPIM_RegisterCallback
 180:Generated_Source\PSoC6/CY_EINK_SPIM.h **** ****************************************************************************//**
 181:Generated_Source\PSoC6/CY_EINK_SPIM.h **** *
 182:Generated_Source\PSoC6/CY_EINK_SPIM.h **** * Invokes the Cy_SCB_SPI_RegisterCallback() PDL driver function.
 183:Generated_Source\PSoC6/CY_EINK_SPIM.h **** *
 184:Generated_Source\PSoC6/CY_EINK_SPIM.h **** *******************************************************************************/
 185:Generated_Source\PSoC6/CY_EINK_SPIM.h **** __STATIC_INLINE void CY_EINK_SPIM_RegisterCallback(cy_cb_scb_spi_handle_events_t callback)
 186:Generated_Source\PSoC6/CY_EINK_SPIM.h **** {
 187:Generated_Source\PSoC6/CY_EINK_SPIM.h ****     Cy_SCB_SPI_RegisterCallback(CY_EINK_SPIM_HW, callback, &CY_EINK_SPIM_context);
 188:Generated_Source\PSoC6/CY_EINK_SPIM.h **** }
 189:Generated_Source\PSoC6/CY_EINK_SPIM.h **** 
 190:Generated_Source\PSoC6/CY_EINK_SPIM.h **** 
 191:Generated_Source\PSoC6/CY_EINK_SPIM.h **** /*******************************************************************************
 192:Generated_Source\PSoC6/CY_EINK_SPIM.h **** * Function Name: CY_EINK_SPIM_IsBusBusy
 193:Generated_Source\PSoC6/CY_EINK_SPIM.h **** ****************************************************************************//**
 194:Generated_Source\PSoC6/CY_EINK_SPIM.h **** *
 195:Generated_Source\PSoC6/CY_EINK_SPIM.h **** * Invokes the Cy_SCB_SPI_IsBusBusy() PDL driver function.
 196:Generated_Source\PSoC6/CY_EINK_SPIM.h **** *
 197:Generated_Source\PSoC6/CY_EINK_SPIM.h **** *******************************************************************************/
 198:Generated_Source\PSoC6/CY_EINK_SPIM.h **** __STATIC_INLINE bool CY_EINK_SPIM_IsBusBusy(void)
 199:Generated_Source\PSoC6/CY_EINK_SPIM.h **** {
 200:Generated_Source\PSoC6/CY_EINK_SPIM.h ****     return Cy_SCB_SPI_IsBusBusy(CY_EINK_SPIM_HW);
 201:Generated_Source\PSoC6/CY_EINK_SPIM.h **** }
ARM GAS  C:\Users\nicpa\AppData\Local\Temp\ccIFCjQH.s 			page 5


 202:Generated_Source\PSoC6/CY_EINK_SPIM.h **** 
 203:Generated_Source\PSoC6/CY_EINK_SPIM.h **** 
 204:Generated_Source\PSoC6/CY_EINK_SPIM.h **** /*******************************************************************************
 205:Generated_Source\PSoC6/CY_EINK_SPIM.h **** * Function Name: CY_EINK_SPIM_SetActiveSlaveSelect
 206:Generated_Source\PSoC6/CY_EINK_SPIM.h **** ****************************************************************************//**
 207:Generated_Source\PSoC6/CY_EINK_SPIM.h **** *
 208:Generated_Source\PSoC6/CY_EINK_SPIM.h **** * Invokes the Cy_SCB_SPI_SetActiveSlaveSelect() PDL driver function.
 209:Generated_Source\PSoC6/CY_EINK_SPIM.h **** *
 210:Generated_Source\PSoC6/CY_EINK_SPIM.h **** *******************************************************************************/
 211:Generated_Source\PSoC6/CY_EINK_SPIM.h **** __STATIC_INLINE void CY_EINK_SPIM_SetActiveSlaveSelect(cy_en_scb_spi_slave_select_t slaveSelect)
 212:Generated_Source\PSoC6/CY_EINK_SPIM.h **** {
 213:Generated_Source\PSoC6/CY_EINK_SPIM.h ****     Cy_SCB_SPI_SetActiveSlaveSelect(CY_EINK_SPIM_HW, slaveSelect);
 214:Generated_Source\PSoC6/CY_EINK_SPIM.h **** }
 215:Generated_Source\PSoC6/CY_EINK_SPIM.h **** 
 216:Generated_Source\PSoC6/CY_EINK_SPIM.h **** 
 217:Generated_Source\PSoC6/CY_EINK_SPIM.h **** /*******************************************************************************
 218:Generated_Source\PSoC6/CY_EINK_SPIM.h **** * Function Name: CY_EINK_SPIM_SetActiveSlaveSelectPolarity
 219:Generated_Source\PSoC6/CY_EINK_SPIM.h **** ****************************************************************************//**
 220:Generated_Source\PSoC6/CY_EINK_SPIM.h **** *
 221:Generated_Source\PSoC6/CY_EINK_SPIM.h **** * Invokes the Cy_SCB_SPI_SetActiveSlaveSelectPolarity() PDL driver function.
 222:Generated_Source\PSoC6/CY_EINK_SPIM.h **** *
 223:Generated_Source\PSoC6/CY_EINK_SPIM.h **** *******************************************************************************/
 224:Generated_Source\PSoC6/CY_EINK_SPIM.h **** __STATIC_INLINE void CY_EINK_SPIM_SetActiveSlaveSelectPolarity(cy_en_scb_spi_slave_select_t slaveSe
 225:Generated_Source\PSoC6/CY_EINK_SPIM.h ****                                                                    cy_en_scb_spi_polarity_t polarit
 226:Generated_Source\PSoC6/CY_EINK_SPIM.h **** {
 227:Generated_Source\PSoC6/CY_EINK_SPIM.h ****     Cy_SCB_SPI_SetActiveSlaveSelectPolarity(CY_EINK_SPIM_HW, slaveSelect, polarity);
 228:Generated_Source\PSoC6/CY_EINK_SPIM.h **** }
 229:Generated_Source\PSoC6/CY_EINK_SPIM.h **** 
 230:Generated_Source\PSoC6/CY_EINK_SPIM.h **** 
 231:Generated_Source\PSoC6/CY_EINK_SPIM.h **** /*******************************************************************************
 232:Generated_Source\PSoC6/CY_EINK_SPIM.h **** * Function Name: CY_EINK_SPIM_Read
 233:Generated_Source\PSoC6/CY_EINK_SPIM.h **** ****************************************************************************//**
 234:Generated_Source\PSoC6/CY_EINK_SPIM.h **** *
 235:Generated_Source\PSoC6/CY_EINK_SPIM.h **** * Invokes the Cy_SCB_SPI_Read() PDL driver function.
 236:Generated_Source\PSoC6/CY_EINK_SPIM.h **** *
 237:Generated_Source\PSoC6/CY_EINK_SPIM.h **** *******************************************************************************/
 238:Generated_Source\PSoC6/CY_EINK_SPIM.h **** __STATIC_INLINE uint32_t CY_EINK_SPIM_Read(void)
 239:Generated_Source\PSoC6/CY_EINK_SPIM.h **** {
 240:Generated_Source\PSoC6/CY_EINK_SPIM.h ****     return Cy_SCB_SPI_Read(CY_EINK_SPIM_HW);
 241:Generated_Source\PSoC6/CY_EINK_SPIM.h **** }
 242:Generated_Source\PSoC6/CY_EINK_SPIM.h **** 
 243:Generated_Source\PSoC6/CY_EINK_SPIM.h **** 
 244:Generated_Source\PSoC6/CY_EINK_SPIM.h **** /*******************************************************************************
 245:Generated_Source\PSoC6/CY_EINK_SPIM.h **** * Function Name: CY_EINK_SPIM_ReadArray
 246:Generated_Source\PSoC6/CY_EINK_SPIM.h **** ****************************************************************************//**
 247:Generated_Source\PSoC6/CY_EINK_SPIM.h **** *
 248:Generated_Source\PSoC6/CY_EINK_SPIM.h **** * Invokes the Cy_SCB_SPI_ReadArray() PDL driver function.
 249:Generated_Source\PSoC6/CY_EINK_SPIM.h **** *
 250:Generated_Source\PSoC6/CY_EINK_SPIM.h **** *******************************************************************************/
 251:Generated_Source\PSoC6/CY_EINK_SPIM.h **** __STATIC_INLINE uint32_t CY_EINK_SPIM_ReadArray(void *buffer, uint32_t size)
 252:Generated_Source\PSoC6/CY_EINK_SPIM.h **** {
 253:Generated_Source\PSoC6/CY_EINK_SPIM.h ****     return Cy_SCB_SPI_ReadArray(CY_EINK_SPIM_HW, buffer, size);
 254:Generated_Source\PSoC6/CY_EINK_SPIM.h **** }
 255:Generated_Source\PSoC6/CY_EINK_SPIM.h **** 
 256:Generated_Source\PSoC6/CY_EINK_SPIM.h **** 
 257:Generated_Source\PSoC6/CY_EINK_SPIM.h **** /*******************************************************************************
 258:Generated_Source\PSoC6/CY_EINK_SPIM.h **** * Function Name: CY_EINK_SPIM_GetRxFifoStatus
ARM GAS  C:\Users\nicpa\AppData\Local\Temp\ccIFCjQH.s 			page 6


 259:Generated_Source\PSoC6/CY_EINK_SPIM.h **** ****************************************************************************//**
 260:Generated_Source\PSoC6/CY_EINK_SPIM.h **** *
 261:Generated_Source\PSoC6/CY_EINK_SPIM.h **** * Invokes the Cy_SCB_SPI_GetRxFifoStatus() PDL driver function.
 262:Generated_Source\PSoC6/CY_EINK_SPIM.h **** *
 263:Generated_Source\PSoC6/CY_EINK_SPIM.h **** *******************************************************************************/
 264:Generated_Source\PSoC6/CY_EINK_SPIM.h **** __STATIC_INLINE uint32_t CY_EINK_SPIM_GetRxFifoStatus(void)
 265:Generated_Source\PSoC6/CY_EINK_SPIM.h **** {
 266:Generated_Source\PSoC6/CY_EINK_SPIM.h ****     return Cy_SCB_SPI_GetRxFifoStatus(CY_EINK_SPIM_HW);
 267:Generated_Source\PSoC6/CY_EINK_SPIM.h **** }
 268:Generated_Source\PSoC6/CY_EINK_SPIM.h **** 
 269:Generated_Source\PSoC6/CY_EINK_SPIM.h **** 
 270:Generated_Source\PSoC6/CY_EINK_SPIM.h **** /*******************************************************************************
 271:Generated_Source\PSoC6/CY_EINK_SPIM.h **** * Function Name: CY_EINK_SPIM_ClearRxFifoStatus
 272:Generated_Source\PSoC6/CY_EINK_SPIM.h **** ****************************************************************************//**
 273:Generated_Source\PSoC6/CY_EINK_SPIM.h **** *
 274:Generated_Source\PSoC6/CY_EINK_SPIM.h **** * Invokes the Cy_SCB_SPI_ClearRxFifoStatus() PDL driver function.
 275:Generated_Source\PSoC6/CY_EINK_SPIM.h **** *
 276:Generated_Source\PSoC6/CY_EINK_SPIM.h **** *******************************************************************************/
 277:Generated_Source\PSoC6/CY_EINK_SPIM.h **** __STATIC_INLINE void CY_EINK_SPIM_ClearRxFifoStatus(uint32_t clearMask)
 278:Generated_Source\PSoC6/CY_EINK_SPIM.h **** {
 279:Generated_Source\PSoC6/CY_EINK_SPIM.h ****     Cy_SCB_SPI_ClearRxFifoStatus(CY_EINK_SPIM_HW, clearMask);
 280:Generated_Source\PSoC6/CY_EINK_SPIM.h **** }
 281:Generated_Source\PSoC6/CY_EINK_SPIM.h **** 
 282:Generated_Source\PSoC6/CY_EINK_SPIM.h **** 
 283:Generated_Source\PSoC6/CY_EINK_SPIM.h **** /*******************************************************************************
 284:Generated_Source\PSoC6/CY_EINK_SPIM.h **** * Function Name: CY_EINK_SPIM_GetNumInRxFifo
 285:Generated_Source\PSoC6/CY_EINK_SPIM.h **** ****************************************************************************//**
 286:Generated_Source\PSoC6/CY_EINK_SPIM.h **** *
 287:Generated_Source\PSoC6/CY_EINK_SPIM.h **** * Invokes the Cy_SCB_GetNumInRxFifo() PDL driver function.
 288:Generated_Source\PSoC6/CY_EINK_SPIM.h **** *
 289:Generated_Source\PSoC6/CY_EINK_SPIM.h **** *******************************************************************************/
 290:Generated_Source\PSoC6/CY_EINK_SPIM.h **** __STATIC_INLINE uint32_t CY_EINK_SPIM_GetNumInRxFifo(void)
 291:Generated_Source\PSoC6/CY_EINK_SPIM.h **** {
 292:Generated_Source\PSoC6/CY_EINK_SPIM.h ****     return Cy_SCB_GetNumInRxFifo(CY_EINK_SPIM_HW);
 293:Generated_Source\PSoC6/CY_EINK_SPIM.h **** }
 294:Generated_Source\PSoC6/CY_EINK_SPIM.h **** 
 295:Generated_Source\PSoC6/CY_EINK_SPIM.h **** 
 296:Generated_Source\PSoC6/CY_EINK_SPIM.h **** /*******************************************************************************
 297:Generated_Source\PSoC6/CY_EINK_SPIM.h **** * Function Name: CY_EINK_SPIM_ClearRxFifo
 298:Generated_Source\PSoC6/CY_EINK_SPIM.h **** ****************************************************************************//**
 299:Generated_Source\PSoC6/CY_EINK_SPIM.h **** *
 300:Generated_Source\PSoC6/CY_EINK_SPIM.h **** * Invokes the Cy_SCB_SPI_ClearRxFifo() PDL driver function.
 301:Generated_Source\PSoC6/CY_EINK_SPIM.h **** *
 302:Generated_Source\PSoC6/CY_EINK_SPIM.h **** *******************************************************************************/
 303:Generated_Source\PSoC6/CY_EINK_SPIM.h **** __STATIC_INLINE void CY_EINK_SPIM_ClearRxFifo(void)
 304:Generated_Source\PSoC6/CY_EINK_SPIM.h **** {
 305:Generated_Source\PSoC6/CY_EINK_SPIM.h ****     Cy_SCB_SPI_ClearRxFifo(CY_EINK_SPIM_HW);
 306:Generated_Source\PSoC6/CY_EINK_SPIM.h **** }
 307:Generated_Source\PSoC6/CY_EINK_SPIM.h **** 
 308:Generated_Source\PSoC6/CY_EINK_SPIM.h **** 
 309:Generated_Source\PSoC6/CY_EINK_SPIM.h **** /*******************************************************************************
 310:Generated_Source\PSoC6/CY_EINK_SPIM.h **** * Function Name: CY_EINK_SPIM_Write
 311:Generated_Source\PSoC6/CY_EINK_SPIM.h **** ****************************************************************************//**
 312:Generated_Source\PSoC6/CY_EINK_SPIM.h **** *
 313:Generated_Source\PSoC6/CY_EINK_SPIM.h **** * Invokes the Cy_SCB_SPI_Write() PDL driver function.
 314:Generated_Source\PSoC6/CY_EINK_SPIM.h **** *
 315:Generated_Source\PSoC6/CY_EINK_SPIM.h **** *******************************************************************************/
ARM GAS  C:\Users\nicpa\AppData\Local\Temp\ccIFCjQH.s 			page 7


 316:Generated_Source\PSoC6/CY_EINK_SPIM.h **** __STATIC_INLINE uint32_t CY_EINK_SPIM_Write(uint32_t data)
 317:Generated_Source\PSoC6/CY_EINK_SPIM.h **** {
 318:Generated_Source\PSoC6/CY_EINK_SPIM.h ****     return Cy_SCB_SPI_Write(CY_EINK_SPIM_HW, data);
 319:Generated_Source\PSoC6/CY_EINK_SPIM.h **** }
 320:Generated_Source\PSoC6/CY_EINK_SPIM.h **** 
 321:Generated_Source\PSoC6/CY_EINK_SPIM.h **** 
 322:Generated_Source\PSoC6/CY_EINK_SPIM.h **** /*******************************************************************************
 323:Generated_Source\PSoC6/CY_EINK_SPIM.h **** * Function Name: CY_EINK_SPIM_WriteArray
 324:Generated_Source\PSoC6/CY_EINK_SPIM.h **** ****************************************************************************//**
 325:Generated_Source\PSoC6/CY_EINK_SPIM.h **** *
 326:Generated_Source\PSoC6/CY_EINK_SPIM.h **** * Invokes the Cy_SCB_SPI_WriteArray() PDL driver function.
 327:Generated_Source\PSoC6/CY_EINK_SPIM.h **** *
 328:Generated_Source\PSoC6/CY_EINK_SPIM.h **** *******************************************************************************/
 329:Generated_Source\PSoC6/CY_EINK_SPIM.h **** __STATIC_INLINE uint32_t CY_EINK_SPIM_WriteArray(void *buffer, uint32_t size)
 330:Generated_Source\PSoC6/CY_EINK_SPIM.h **** {
 331:Generated_Source\PSoC6/CY_EINK_SPIM.h ****     return Cy_SCB_SPI_WriteArray(CY_EINK_SPIM_HW, buffer, size);
 332:Generated_Source\PSoC6/CY_EINK_SPIM.h **** }
 333:Generated_Source\PSoC6/CY_EINK_SPIM.h **** 
 334:Generated_Source\PSoC6/CY_EINK_SPIM.h **** 
 335:Generated_Source\PSoC6/CY_EINK_SPIM.h **** /*******************************************************************************
 336:Generated_Source\PSoC6/CY_EINK_SPIM.h **** * Function Name: CY_EINK_SPIM_WriteArrayBlocking
 337:Generated_Source\PSoC6/CY_EINK_SPIM.h **** ****************************************************************************//**
 338:Generated_Source\PSoC6/CY_EINK_SPIM.h **** *
 339:Generated_Source\PSoC6/CY_EINK_SPIM.h **** * Invokes the Cy_SCB_SPI_WriteArrayBlocking() PDL driver function.
 340:Generated_Source\PSoC6/CY_EINK_SPIM.h **** *
 341:Generated_Source\PSoC6/CY_EINK_SPIM.h **** *******************************************************************************/
 342:Generated_Source\PSoC6/CY_EINK_SPIM.h **** __STATIC_INLINE void CY_EINK_SPIM_WriteArrayBlocking(void *buffer, uint32_t size)
 343:Generated_Source\PSoC6/CY_EINK_SPIM.h **** {
 344:Generated_Source\PSoC6/CY_EINK_SPIM.h ****     Cy_SCB_SPI_WriteArrayBlocking(CY_EINK_SPIM_HW, buffer, size);
 345:Generated_Source\PSoC6/CY_EINK_SPIM.h **** }
 346:Generated_Source\PSoC6/CY_EINK_SPIM.h **** 
 347:Generated_Source\PSoC6/CY_EINK_SPIM.h **** 
 348:Generated_Source\PSoC6/CY_EINK_SPIM.h **** /*******************************************************************************
 349:Generated_Source\PSoC6/CY_EINK_SPIM.h **** * Function Name: CY_EINK_SPIM_GetTxFifoStatus
 350:Generated_Source\PSoC6/CY_EINK_SPIM.h **** ****************************************************************************//**
 351:Generated_Source\PSoC6/CY_EINK_SPIM.h **** *
 352:Generated_Source\PSoC6/CY_EINK_SPIM.h **** * Invokes the Cy_SCB_SPI_GetTxFifoStatus() PDL driver function.
 353:Generated_Source\PSoC6/CY_EINK_SPIM.h **** *
 354:Generated_Source\PSoC6/CY_EINK_SPIM.h **** *******************************************************************************/
 355:Generated_Source\PSoC6/CY_EINK_SPIM.h **** __STATIC_INLINE uint32_t CY_EINK_SPIM_GetTxFifoStatus(void)
 356:Generated_Source\PSoC6/CY_EINK_SPIM.h **** {
 357:Generated_Source\PSoC6/CY_EINK_SPIM.h ****     return Cy_SCB_SPI_GetTxFifoStatus(CY_EINK_SPIM_HW);
 358:Generated_Source\PSoC6/CY_EINK_SPIM.h **** }
 359:Generated_Source\PSoC6/CY_EINK_SPIM.h **** 
 360:Generated_Source\PSoC6/CY_EINK_SPIM.h **** 
 361:Generated_Source\PSoC6/CY_EINK_SPIM.h **** /*******************************************************************************
 362:Generated_Source\PSoC6/CY_EINK_SPIM.h **** * Function Name: CY_EINK_SPIM_ClearTxFifoStatus
 363:Generated_Source\PSoC6/CY_EINK_SPIM.h **** ****************************************************************************//**
 364:Generated_Source\PSoC6/CY_EINK_SPIM.h **** *
 365:Generated_Source\PSoC6/CY_EINK_SPIM.h **** * Invokes the Cy_SCB_SPI_ClearTxFifoStatus() PDL driver function.
 366:Generated_Source\PSoC6/CY_EINK_SPIM.h **** *
 367:Generated_Source\PSoC6/CY_EINK_SPIM.h **** *******************************************************************************/
 368:Generated_Source\PSoC6/CY_EINK_SPIM.h **** __STATIC_INLINE void CY_EINK_SPIM_ClearTxFifoStatus(uint32_t clearMask)
 369:Generated_Source\PSoC6/CY_EINK_SPIM.h **** {
 370:Generated_Source\PSoC6/CY_EINK_SPIM.h ****     Cy_SCB_SPI_ClearTxFifoStatus(CY_EINK_SPIM_HW, clearMask);
 371:Generated_Source\PSoC6/CY_EINK_SPIM.h **** }
 372:Generated_Source\PSoC6/CY_EINK_SPIM.h **** 
ARM GAS  C:\Users\nicpa\AppData\Local\Temp\ccIFCjQH.s 			page 8


 373:Generated_Source\PSoC6/CY_EINK_SPIM.h **** 
 374:Generated_Source\PSoC6/CY_EINK_SPIM.h **** /*******************************************************************************
 375:Generated_Source\PSoC6/CY_EINK_SPIM.h **** * Function Name: CY_EINK_SPIM_GetNumInTxFifo
 376:Generated_Source\PSoC6/CY_EINK_SPIM.h **** ****************************************************************************//**
 377:Generated_Source\PSoC6/CY_EINK_SPIM.h **** *
 378:Generated_Source\PSoC6/CY_EINK_SPIM.h **** * Invokes the Cy_SCB_SPI_GetNumInTxFifo() PDL driver function.
 379:Generated_Source\PSoC6/CY_EINK_SPIM.h **** *
 380:Generated_Source\PSoC6/CY_EINK_SPIM.h **** *******************************************************************************/
 381:Generated_Source\PSoC6/CY_EINK_SPIM.h **** __STATIC_INLINE uint32_t CY_EINK_SPIM_GetNumInTxFifo(void)
 382:Generated_Source\PSoC6/CY_EINK_SPIM.h **** {
 383:Generated_Source\PSoC6/CY_EINK_SPIM.h ****     return Cy_SCB_SPI_GetNumInTxFifo(CY_EINK_SPIM_HW);
 384:Generated_Source\PSoC6/CY_EINK_SPIM.h **** }
 385:Generated_Source\PSoC6/CY_EINK_SPIM.h **** 
 386:Generated_Source\PSoC6/CY_EINK_SPIM.h **** 
 387:Generated_Source\PSoC6/CY_EINK_SPIM.h **** /*******************************************************************************
 388:Generated_Source\PSoC6/CY_EINK_SPIM.h **** * Function Name: CY_EINK_SPIM_IsTxComplete
 389:Generated_Source\PSoC6/CY_EINK_SPIM.h **** ****************************************************************************//**
 390:Generated_Source\PSoC6/CY_EINK_SPIM.h **** *
 391:Generated_Source\PSoC6/CY_EINK_SPIM.h **** * Invokes the Cy_SCB_SPI_IsTxComplete() PDL driver function.
 392:Generated_Source\PSoC6/CY_EINK_SPIM.h **** *
 393:Generated_Source\PSoC6/CY_EINK_SPIM.h **** *******************************************************************************/
 394:Generated_Source\PSoC6/CY_EINK_SPIM.h **** __STATIC_INLINE bool CY_EINK_SPIM_IsTxComplete(void)
 395:Generated_Source\PSoC6/CY_EINK_SPIM.h **** {
 396:Generated_Source\PSoC6/CY_EINK_SPIM.h ****     return Cy_SCB_SPI_IsTxComplete(CY_EINK_SPIM_HW);
 397:Generated_Source\PSoC6/CY_EINK_SPIM.h **** }
 398:Generated_Source\PSoC6/CY_EINK_SPIM.h **** 
 399:Generated_Source\PSoC6/CY_EINK_SPIM.h **** 
 400:Generated_Source\PSoC6/CY_EINK_SPIM.h **** /*******************************************************************************
 401:Generated_Source\PSoC6/CY_EINK_SPIM.h **** * Function Name: CY_EINK_SPIM_ClearTxFifo
 402:Generated_Source\PSoC6/CY_EINK_SPIM.h **** ****************************************************************************//**
 403:Generated_Source\PSoC6/CY_EINK_SPIM.h **** *
 404:Generated_Source\PSoC6/CY_EINK_SPIM.h **** * Invokes the Cy_SCB_SPI_ClearTxFifo() PDL driver function.
 405:Generated_Source\PSoC6/CY_EINK_SPIM.h **** *
 406:Generated_Source\PSoC6/CY_EINK_SPIM.h **** *******************************************************************************/
 407:Generated_Source\PSoC6/CY_EINK_SPIM.h **** __STATIC_INLINE void CY_EINK_SPIM_ClearTxFifo(void)
 408:Generated_Source\PSoC6/CY_EINK_SPIM.h **** {
 409:Generated_Source\PSoC6/CY_EINK_SPIM.h ****     Cy_SCB_SPI_ClearTxFifo(CY_EINK_SPIM_HW);
 410:Generated_Source\PSoC6/CY_EINK_SPIM.h **** }
 411:Generated_Source\PSoC6/CY_EINK_SPIM.h **** 
 412:Generated_Source\PSoC6/CY_EINK_SPIM.h **** 
 413:Generated_Source\PSoC6/CY_EINK_SPIM.h **** /*******************************************************************************
 414:Generated_Source\PSoC6/CY_EINK_SPIM.h **** * Function Name: CY_EINK_SPIM_GetSlaveMasterStatus
 415:Generated_Source\PSoC6/CY_EINK_SPIM.h **** ****************************************************************************//**
 416:Generated_Source\PSoC6/CY_EINK_SPIM.h **** *
 417:Generated_Source\PSoC6/CY_EINK_SPIM.h **** * Invokes the Cy_SCB_SPI_GetSlaveMasterStatus() PDL driver function.
 418:Generated_Source\PSoC6/CY_EINK_SPIM.h **** *
 419:Generated_Source\PSoC6/CY_EINK_SPIM.h **** *******************************************************************************/
 420:Generated_Source\PSoC6/CY_EINK_SPIM.h **** __STATIC_INLINE uint32_t CY_EINK_SPIM_GetSlaveMasterStatus(void)
 421:Generated_Source\PSoC6/CY_EINK_SPIM.h **** {
 422:Generated_Source\PSoC6/CY_EINK_SPIM.h ****     return Cy_SCB_SPI_GetSlaveMasterStatus(CY_EINK_SPIM_HW);
 423:Generated_Source\PSoC6/CY_EINK_SPIM.h **** }
 424:Generated_Source\PSoC6/CY_EINK_SPIM.h **** 
 425:Generated_Source\PSoC6/CY_EINK_SPIM.h **** 
 426:Generated_Source\PSoC6/CY_EINK_SPIM.h **** /*******************************************************************************
 427:Generated_Source\PSoC6/CY_EINK_SPIM.h **** * Function Name: CY_EINK_SPIM_ClearSlaveMasterStatus
 428:Generated_Source\PSoC6/CY_EINK_SPIM.h **** ****************************************************************************//**
 429:Generated_Source\PSoC6/CY_EINK_SPIM.h **** *
ARM GAS  C:\Users\nicpa\AppData\Local\Temp\ccIFCjQH.s 			page 9


 430:Generated_Source\PSoC6/CY_EINK_SPIM.h **** * Invokes the Cy_SCB_SPI_ClearSlaveMasterStatus() PDL driver function.
 431:Generated_Source\PSoC6/CY_EINK_SPIM.h **** *
 432:Generated_Source\PSoC6/CY_EINK_SPIM.h **** *******************************************************************************/
 433:Generated_Source\PSoC6/CY_EINK_SPIM.h **** __STATIC_INLINE void CY_EINK_SPIM_ClearSlaveMasterStatus(uint32_t clearMask)
 434:Generated_Source\PSoC6/CY_EINK_SPIM.h **** {
 435:Generated_Source\PSoC6/CY_EINK_SPIM.h ****     Cy_SCB_SPI_ClearSlaveMasterStatus(CY_EINK_SPIM_HW, clearMask);
 436:Generated_Source\PSoC6/CY_EINK_SPIM.h **** }
 437:Generated_Source\PSoC6/CY_EINK_SPIM.h **** 
 438:Generated_Source\PSoC6/CY_EINK_SPIM.h **** 
 439:Generated_Source\PSoC6/CY_EINK_SPIM.h **** /*******************************************************************************
 440:Generated_Source\PSoC6/CY_EINK_SPIM.h **** * Function Name: CY_EINK_SPIM_Transfer
 441:Generated_Source\PSoC6/CY_EINK_SPIM.h **** ****************************************************************************//**
 442:Generated_Source\PSoC6/CY_EINK_SPIM.h **** *
 443:Generated_Source\PSoC6/CY_EINK_SPIM.h **** * Invokes the Cy_SCB_SPI_Transfer() PDL driver function.
 444:Generated_Source\PSoC6/CY_EINK_SPIM.h **** *
 445:Generated_Source\PSoC6/CY_EINK_SPIM.h **** *******************************************************************************/
 446:Generated_Source\PSoC6/CY_EINK_SPIM.h **** __STATIC_INLINE cy_en_scb_spi_status_t CY_EINK_SPIM_Transfer(void *txBuffer, void *rxBuffer, uint32
 447:Generated_Source\PSoC6/CY_EINK_SPIM.h **** {
 448:Generated_Source\PSoC6/CY_EINK_SPIM.h ****     return Cy_SCB_SPI_Transfer(CY_EINK_SPIM_HW, txBuffer, rxBuffer, size, &CY_EINK_SPIM_context);
 449:Generated_Source\PSoC6/CY_EINK_SPIM.h **** }
 450:Generated_Source\PSoC6/CY_EINK_SPIM.h **** 
 451:Generated_Source\PSoC6/CY_EINK_SPIM.h **** /*******************************************************************************
 452:Generated_Source\PSoC6/CY_EINK_SPIM.h **** * Function Name: CY_EINK_SPIM_AbortTransfer
 453:Generated_Source\PSoC6/CY_EINK_SPIM.h **** ****************************************************************************//**
 454:Generated_Source\PSoC6/CY_EINK_SPIM.h **** *
 455:Generated_Source\PSoC6/CY_EINK_SPIM.h **** * Invokes the Cy_SCB_SPI_AbortTransfer() PDL driver function.
 456:Generated_Source\PSoC6/CY_EINK_SPIM.h **** *
 457:Generated_Source\PSoC6/CY_EINK_SPIM.h **** *******************************************************************************/
 458:Generated_Source\PSoC6/CY_EINK_SPIM.h **** __STATIC_INLINE void CY_EINK_SPIM_AbortTransfer(void)
 459:Generated_Source\PSoC6/CY_EINK_SPIM.h **** {
 460:Generated_Source\PSoC6/CY_EINK_SPIM.h ****     Cy_SCB_SPI_AbortTransfer(CY_EINK_SPIM_HW, &CY_EINK_SPIM_context);
 461:Generated_Source\PSoC6/CY_EINK_SPIM.h **** }
 462:Generated_Source\PSoC6/CY_EINK_SPIM.h **** 
 463:Generated_Source\PSoC6/CY_EINK_SPIM.h **** 
 464:Generated_Source\PSoC6/CY_EINK_SPIM.h **** /*******************************************************************************
 465:Generated_Source\PSoC6/CY_EINK_SPIM.h **** * Function Name: CY_EINK_SPIM_GetTransferStatus
 466:Generated_Source\PSoC6/CY_EINK_SPIM.h **** ****************************************************************************//**
 467:Generated_Source\PSoC6/CY_EINK_SPIM.h **** *
 468:Generated_Source\PSoC6/CY_EINK_SPIM.h **** * Invokes the Cy_SCB_SPI_GetTransferStatus() PDL driver function.
 469:Generated_Source\PSoC6/CY_EINK_SPIM.h **** *
 470:Generated_Source\PSoC6/CY_EINK_SPIM.h **** *******************************************************************************/
 471:Generated_Source\PSoC6/CY_EINK_SPIM.h **** __STATIC_INLINE uint32_t CY_EINK_SPIM_GetTransferStatus(void)
 472:Generated_Source\PSoC6/CY_EINK_SPIM.h **** {
 473:Generated_Source\PSoC6/CY_EINK_SPIM.h ****     return Cy_SCB_SPI_GetTransferStatus(CY_EINK_SPIM_HW, &CY_EINK_SPIM_context);
 474:Generated_Source\PSoC6/CY_EINK_SPIM.h **** }
 475:Generated_Source\PSoC6/CY_EINK_SPIM.h **** 
 476:Generated_Source\PSoC6/CY_EINK_SPIM.h **** 
 477:Generated_Source\PSoC6/CY_EINK_SPIM.h **** /*******************************************************************************
 478:Generated_Source\PSoC6/CY_EINK_SPIM.h **** * Function Name: CY_EINK_SPIM_GetNumTransfered
 479:Generated_Source\PSoC6/CY_EINK_SPIM.h **** ****************************************************************************//**
 480:Generated_Source\PSoC6/CY_EINK_SPIM.h **** *
 481:Generated_Source\PSoC6/CY_EINK_SPIM.h **** * Invokes the Cy_SCB_SPI_GetNumTransfered() PDL driver function.
 482:Generated_Source\PSoC6/CY_EINK_SPIM.h **** *
 483:Generated_Source\PSoC6/CY_EINK_SPIM.h **** *******************************************************************************/
 484:Generated_Source\PSoC6/CY_EINK_SPIM.h **** __STATIC_INLINE uint32_t CY_EINK_SPIM_GetNumTransfered(void)
 485:Generated_Source\PSoC6/CY_EINK_SPIM.h **** {
 486:Generated_Source\PSoC6/CY_EINK_SPIM.h ****     return Cy_SCB_SPI_GetNumTransfered(CY_EINK_SPIM_HW, &CY_EINK_SPIM_context);
ARM GAS  C:\Users\nicpa\AppData\Local\Temp\ccIFCjQH.s 			page 10


 487:Generated_Source\PSoC6/CY_EINK_SPIM.h **** }
 488:Generated_Source\PSoC6/CY_EINK_SPIM.h **** 
 489:Generated_Source\PSoC6/CY_EINK_SPIM.h **** 
 490:Generated_Source\PSoC6/CY_EINK_SPIM.h **** /*******************************************************************************
 491:Generated_Source\PSoC6/CY_EINK_SPIM.h **** * Function Name: CY_EINK_SPIM_Interrupt
 492:Generated_Source\PSoC6/CY_EINK_SPIM.h **** ****************************************************************************//**
 493:Generated_Source\PSoC6/CY_EINK_SPIM.h **** *
 494:Generated_Source\PSoC6/CY_EINK_SPIM.h **** * Invokes the Cy_SCB_SPI_Interrupt() PDL driver function.
 495:Generated_Source\PSoC6/CY_EINK_SPIM.h **** *
 496:Generated_Source\PSoC6/CY_EINK_SPIM.h **** *******************************************************************************/
 497:Generated_Source\PSoC6/CY_EINK_SPIM.h **** __STATIC_INLINE void CY_EINK_SPIM_Interrupt(void)
 498:Generated_Source\PSoC6/CY_EINK_SPIM.h **** {
  28              		.loc 1 498 0
  29              		.cfi_startproc
  30              		@ args = 0, pretend = 0, frame = 0
  31              		@ frame_needed = 0, uses_anonymous_args = 0
  32 0000 08B5     		push	{r3, lr}
  33              		.cfi_def_cfa_offset 8
  34              		.cfi_offset 3, -8
  35              		.cfi_offset 14, -4
 499:Generated_Source\PSoC6/CY_EINK_SPIM.h ****     Cy_SCB_SPI_Interrupt(CY_EINK_SPIM_HW, &CY_EINK_SPIM_context);
  36              		.loc 1 499 0
  37 0002 0249     		ldr	r1, .L3
  38 0004 0248     		ldr	r0, .L3+4
  39 0006 FFF7FEFF 		bl	Cy_SCB_SPI_Interrupt
  40              	.LVL0:
  41 000a 08BD     		pop	{r3, pc}
  42              	.L4:
  43              		.align	2
  44              	.L3:
  45 000c 00000000 		.word	CY_EINK_SPIM_context
  46 0010 00006740 		.word	1080492032
  47              		.cfi_endproc
  48              	.LFE268:
  49              		.size	CY_EINK_SPIM_Interrupt, .-CY_EINK_SPIM_Interrupt
  50              		.section	.text.CY_EINK_SPIM_Start,"ax",%progbits
  51              		.align	2
  52              		.global	CY_EINK_SPIM_Start
  53              		.thumb
  54              		.thumb_func
  55              		.type	CY_EINK_SPIM_Start, %function
  56              	CY_EINK_SPIM_Start:
  57              	.LFB272:
  58              		.file 2 "Generated_Source\\PSoC6\\CY_EINK_SPIM.c"
   1:Generated_Source\PSoC6/CY_EINK_SPIM.c **** /***************************************************************************//**
   2:Generated_Source\PSoC6/CY_EINK_SPIM.c **** * \file CY_EINK_SPIM.c
   3:Generated_Source\PSoC6/CY_EINK_SPIM.c **** * \version 2.0
   4:Generated_Source\PSoC6/CY_EINK_SPIM.c **** *
   5:Generated_Source\PSoC6/CY_EINK_SPIM.c **** *  This file provides the source code to the API for the SPI Component.
   6:Generated_Source\PSoC6/CY_EINK_SPIM.c **** *
   7:Generated_Source\PSoC6/CY_EINK_SPIM.c **** ********************************************************************************
   8:Generated_Source\PSoC6/CY_EINK_SPIM.c **** * \copyright
   9:Generated_Source\PSoC6/CY_EINK_SPIM.c **** * Copyright 2016-2017, Cypress Semiconductor Corporation. All rights reserved.
  10:Generated_Source\PSoC6/CY_EINK_SPIM.c **** * You may use this file only in accordance with the license, terms, conditions,
  11:Generated_Source\PSoC6/CY_EINK_SPIM.c **** * disclaimers, and limitations in the end user license agreement accompanying
  12:Generated_Source\PSoC6/CY_EINK_SPIM.c **** * the software package with which this file was provided.
  13:Generated_Source\PSoC6/CY_EINK_SPIM.c **** *******************************************************************************/
ARM GAS  C:\Users\nicpa\AppData\Local\Temp\ccIFCjQH.s 			page 11


  14:Generated_Source\PSoC6/CY_EINK_SPIM.c **** 
  15:Generated_Source\PSoC6/CY_EINK_SPIM.c **** #include "CY_EINK_SPIM.h"
  16:Generated_Source\PSoC6/CY_EINK_SPIM.c **** #include "sysint/cy_sysint.h"
  17:Generated_Source\PSoC6/CY_EINK_SPIM.c **** #include "cyfitter_sysint.h"
  18:Generated_Source\PSoC6/CY_EINK_SPIM.c **** #include "cyfitter_sysint_cfg.h"
  19:Generated_Source\PSoC6/CY_EINK_SPIM.c **** 
  20:Generated_Source\PSoC6/CY_EINK_SPIM.c **** #if defined(__cplusplus)
  21:Generated_Source\PSoC6/CY_EINK_SPIM.c **** extern "C" {
  22:Generated_Source\PSoC6/CY_EINK_SPIM.c **** #endif
  23:Generated_Source\PSoC6/CY_EINK_SPIM.c **** 
  24:Generated_Source\PSoC6/CY_EINK_SPIM.c **** /***************************************
  25:Generated_Source\PSoC6/CY_EINK_SPIM.c **** *     Global variables
  26:Generated_Source\PSoC6/CY_EINK_SPIM.c **** ***************************************/
  27:Generated_Source\PSoC6/CY_EINK_SPIM.c **** 
  28:Generated_Source\PSoC6/CY_EINK_SPIM.c **** /** CY_EINK_SPIM_initVar indicates whether the CY_EINK_SPIM
  29:Generated_Source\PSoC6/CY_EINK_SPIM.c **** *  component has been initialized. The variable is initialized to 0
  30:Generated_Source\PSoC6/CY_EINK_SPIM.c **** *  and set to 1 the first time CY_EINK_SPIM_Start() is called.
  31:Generated_Source\PSoC6/CY_EINK_SPIM.c **** *  This allows  the component to restart without reinitialization
  32:Generated_Source\PSoC6/CY_EINK_SPIM.c **** *  after the first call to the CY_EINK_SPIM_Start() routine.
  33:Generated_Source\PSoC6/CY_EINK_SPIM.c **** *
  34:Generated_Source\PSoC6/CY_EINK_SPIM.c **** *  If re-initialization of the component is required, then the
  35:Generated_Source\PSoC6/CY_EINK_SPIM.c **** *  CY_EINK_SPIM_Init() function can be called before the
  36:Generated_Source\PSoC6/CY_EINK_SPIM.c **** *  CY_EINK_SPIM_Start() or CY_EINK_SPIM_Enable() function.
  37:Generated_Source\PSoC6/CY_EINK_SPIM.c **** */
  38:Generated_Source\PSoC6/CY_EINK_SPIM.c **** uint8_t CY_EINK_SPIM_initVar = 0U;
  39:Generated_Source\PSoC6/CY_EINK_SPIM.c **** 
  40:Generated_Source\PSoC6/CY_EINK_SPIM.c **** /** The instance-specific configuration structure.
  41:Generated_Source\PSoC6/CY_EINK_SPIM.c **** * The pointer to this structure should be passed to Cy_SCB_SPI_Init function
  42:Generated_Source\PSoC6/CY_EINK_SPIM.c **** * to initialize component with GUI selected settings.
  43:Generated_Source\PSoC6/CY_EINK_SPIM.c **** */
  44:Generated_Source\PSoC6/CY_EINK_SPIM.c **** cy_stc_scb_spi_config_t const CY_EINK_SPIM_config =
  45:Generated_Source\PSoC6/CY_EINK_SPIM.c **** {
  46:Generated_Source\PSoC6/CY_EINK_SPIM.c ****     .spiMode  = CY_SCB_SPI_MASTER,
  47:Generated_Source\PSoC6/CY_EINK_SPIM.c ****     .subMode  = CY_SCB_SPI_MOTOROLA,
  48:Generated_Source\PSoC6/CY_EINK_SPIM.c ****     .sclkMode = CY_SCB_SPI_CPHA0_CPOL0,
  49:Generated_Source\PSoC6/CY_EINK_SPIM.c **** 
  50:Generated_Source\PSoC6/CY_EINK_SPIM.c ****     .oversample = 5UL,
  51:Generated_Source\PSoC6/CY_EINK_SPIM.c **** 
  52:Generated_Source\PSoC6/CY_EINK_SPIM.c ****     .rxDataWidth              = 8UL,
  53:Generated_Source\PSoC6/CY_EINK_SPIM.c ****     .txDataWidth              = 8UL,
  54:Generated_Source\PSoC6/CY_EINK_SPIM.c ****     .enableMsbFirst           = true,
  55:Generated_Source\PSoC6/CY_EINK_SPIM.c ****     .enableInputFilter        = false,
  56:Generated_Source\PSoC6/CY_EINK_SPIM.c **** 
  57:Generated_Source\PSoC6/CY_EINK_SPIM.c ****     .enableFreeRunSclk        = false,
  58:Generated_Source\PSoC6/CY_EINK_SPIM.c ****     .enableMisoLateSample     = false,
  59:Generated_Source\PSoC6/CY_EINK_SPIM.c ****     .enableTransferSeperation = false,
  60:Generated_Source\PSoC6/CY_EINK_SPIM.c ****     .ssPolarity               = ((((uint32_t) CY_SCB_SPI_ACTIVE_LOW) << CY_EINK_SPIM_SPI_SLAVE_SELE
  61:Generated_Source\PSoC6/CY_EINK_SPIM.c ****                                  (((uint32_t) CY_SCB_SPI_ACTIVE_LOW) << CY_EINK_SPIM_SPI_SLAVE_SELE
  62:Generated_Source\PSoC6/CY_EINK_SPIM.c ****                                  (((uint32_t) CY_SCB_SPI_ACTIVE_LOW) << CY_EINK_SPIM_SPI_SLAVE_SELE
  63:Generated_Source\PSoC6/CY_EINK_SPIM.c ****                                  (((uint32_t) CY_SCB_SPI_ACTIVE_LOW) << CY_EINK_SPIM_SPI_SLAVE_SELE
  64:Generated_Source\PSoC6/CY_EINK_SPIM.c **** 
  65:Generated_Source\PSoC6/CY_EINK_SPIM.c ****     .enableWakeFromSleep = false,
  66:Generated_Source\PSoC6/CY_EINK_SPIM.c **** 
  67:Generated_Source\PSoC6/CY_EINK_SPIM.c ****     .rxFifoTriggerLevel  = 0UL,
  68:Generated_Source\PSoC6/CY_EINK_SPIM.c ****     .rxFifoIntEnableMask = 0x0UL,
  69:Generated_Source\PSoC6/CY_EINK_SPIM.c **** 
  70:Generated_Source\PSoC6/CY_EINK_SPIM.c ****     .txFifoTriggerLevel  = 0UL,
ARM GAS  C:\Users\nicpa\AppData\Local\Temp\ccIFCjQH.s 			page 12


  71:Generated_Source\PSoC6/CY_EINK_SPIM.c ****     .txFifoIntEnableMask = 0x0UL,
  72:Generated_Source\PSoC6/CY_EINK_SPIM.c **** 
  73:Generated_Source\PSoC6/CY_EINK_SPIM.c ****     .masterSlaveIntEnableMask = 0x0UL
  74:Generated_Source\PSoC6/CY_EINK_SPIM.c **** };
  75:Generated_Source\PSoC6/CY_EINK_SPIM.c **** 
  76:Generated_Source\PSoC6/CY_EINK_SPIM.c **** /** The instance-specific context structure.
  77:Generated_Source\PSoC6/CY_EINK_SPIM.c **** * It is used while the driver operation for internal configuration and
  78:Generated_Source\PSoC6/CY_EINK_SPIM.c **** * data keeping for the SPI. The user should not modify anything in this 
  79:Generated_Source\PSoC6/CY_EINK_SPIM.c **** * structure.
  80:Generated_Source\PSoC6/CY_EINK_SPIM.c **** */
  81:Generated_Source\PSoC6/CY_EINK_SPIM.c **** cy_stc_scb_spi_context_t CY_EINK_SPIM_context;
  82:Generated_Source\PSoC6/CY_EINK_SPIM.c **** 
  83:Generated_Source\PSoC6/CY_EINK_SPIM.c **** 
  84:Generated_Source\PSoC6/CY_EINK_SPIM.c **** /*******************************************************************************
  85:Generated_Source\PSoC6/CY_EINK_SPIM.c **** * Function Name: CY_EINK_SPIM_Start
  86:Generated_Source\PSoC6/CY_EINK_SPIM.c **** ****************************************************************************//**
  87:Generated_Source\PSoC6/CY_EINK_SPIM.c **** *
  88:Generated_Source\PSoC6/CY_EINK_SPIM.c **** * Invokes CY_EINK_SPIM_Init() and CY_EINK_SPIM_Enable().
  89:Generated_Source\PSoC6/CY_EINK_SPIM.c **** * Also configures interrupt if it is internal.
  90:Generated_Source\PSoC6/CY_EINK_SPIM.c **** * After this function call the component is enabled and ready for operation.
  91:Generated_Source\PSoC6/CY_EINK_SPIM.c **** * This is the preferred method to begin component operation.
  92:Generated_Source\PSoC6/CY_EINK_SPIM.c **** *
  93:Generated_Source\PSoC6/CY_EINK_SPIM.c **** * \globalvars
  94:Generated_Source\PSoC6/CY_EINK_SPIM.c **** * \ref CY_EINK_SPIM_initVar - used to check initial configuration,
  95:Generated_Source\PSoC6/CY_EINK_SPIM.c **** * modified  on first function call.
  96:Generated_Source\PSoC6/CY_EINK_SPIM.c **** *
  97:Generated_Source\PSoC6/CY_EINK_SPIM.c **** *******************************************************************************/
  98:Generated_Source\PSoC6/CY_EINK_SPIM.c **** void CY_EINK_SPIM_Start(void)
  99:Generated_Source\PSoC6/CY_EINK_SPIM.c **** {
  59              		.loc 2 99 0
  60              		.cfi_startproc
  61              		@ args = 0, pretend = 0, frame = 0
  62              		@ frame_needed = 0, uses_anonymous_args = 0
  63 0000 10B5     		push	{r4, lr}
  64              		.cfi_def_cfa_offset 8
  65              		.cfi_offset 4, -8
  66              		.cfi_offset 14, -4
 100:Generated_Source\PSoC6/CY_EINK_SPIM.c ****     if (0U == CY_EINK_SPIM_initVar)
  67              		.loc 2 100 0
  68 0002 144B     		ldr	r3, .L9
  69 0004 1B78     		ldrb	r3, [r3]	@ zero_extendqisi2
  70 0006 83B9     		cbnz	r3, .L6
 101:Generated_Source\PSoC6/CY_EINK_SPIM.c ****     {
 102:Generated_Source\PSoC6/CY_EINK_SPIM.c ****         /* Configure component */
 103:Generated_Source\PSoC6/CY_EINK_SPIM.c ****         (void) Cy_SCB_SPI_Init(CY_EINK_SPIM_HW, &CY_EINK_SPIM_config, &CY_EINK_SPIM_context);
  71              		.loc 2 103 0
  72 0008 134C     		ldr	r4, .L9+4
  73 000a 144A     		ldr	r2, .L9+8
  74 000c 1449     		ldr	r1, .L9+12
  75 000e 2046     		mov	r0, r4
  76 0010 FFF7FEFF 		bl	Cy_SCB_SPI_Init
  77              	.LVL1:
  78              	.LBB8:
  79              	.LBB9:
  80              		.file 3 "Generated_Source\\PSoC6\\pdl\\drivers/peripheral/scb/cy_scb_spi.h"
   1:Generated_Source\PSoC6\pdl\drivers/peripheral/scb/cy_scb_spi.h **** /***************************************************************************//**
   2:Generated_Source\PSoC6\pdl\drivers/peripheral/scb/cy_scb_spi.h **** * \file cy_scb_spi.h
ARM GAS  C:\Users\nicpa\AppData\Local\Temp\ccIFCjQH.s 			page 13


   3:Generated_Source\PSoC6\pdl\drivers/peripheral/scb/cy_scb_spi.h **** * \version 2.20
   4:Generated_Source\PSoC6\pdl\drivers/peripheral/scb/cy_scb_spi.h **** *
   5:Generated_Source\PSoC6\pdl\drivers/peripheral/scb/cy_scb_spi.h **** * Provides SPI API declarations of the SCB driver.
   6:Generated_Source\PSoC6\pdl\drivers/peripheral/scb/cy_scb_spi.h **** *
   7:Generated_Source\PSoC6\pdl\drivers/peripheral/scb/cy_scb_spi.h **** ********************************************************************************
   8:Generated_Source\PSoC6\pdl\drivers/peripheral/scb/cy_scb_spi.h **** * \copyright
   9:Generated_Source\PSoC6\pdl\drivers/peripheral/scb/cy_scb_spi.h **** * Copyright 2016-2018, Cypress Semiconductor Corporation.  All rights reserved.
  10:Generated_Source\PSoC6\pdl\drivers/peripheral/scb/cy_scb_spi.h **** * You may use this file only in accordance with the license, terms, conditions,
  11:Generated_Source\PSoC6\pdl\drivers/peripheral/scb/cy_scb_spi.h **** * disclaimers, and limitations in the end user license agreement accompanying
  12:Generated_Source\PSoC6\pdl\drivers/peripheral/scb/cy_scb_spi.h **** * the software package with which this file was provided.
  13:Generated_Source\PSoC6\pdl\drivers/peripheral/scb/cy_scb_spi.h **** *******************************************************************************/
  14:Generated_Source\PSoC6\pdl\drivers/peripheral/scb/cy_scb_spi.h **** 
  15:Generated_Source\PSoC6\pdl\drivers/peripheral/scb/cy_scb_spi.h **** /**
  16:Generated_Source\PSoC6\pdl\drivers/peripheral/scb/cy_scb_spi.h **** * \addtogroup group_scb_spi
  17:Generated_Source\PSoC6\pdl\drivers/peripheral/scb/cy_scb_spi.h **** * \{
  18:Generated_Source\PSoC6\pdl\drivers/peripheral/scb/cy_scb_spi.h **** * Driver API for SPI Peripheral.
  19:Generated_Source\PSoC6\pdl\drivers/peripheral/scb/cy_scb_spi.h **** *
  20:Generated_Source\PSoC6\pdl\drivers/peripheral/scb/cy_scb_spi.h **** * The functions and other declarations used in this part of the driver are in 
  21:Generated_Source\PSoC6\pdl\drivers/peripheral/scb/cy_scb_spi.h **** * cy_scb_spi.h. You can also include cy_pdl.h (ModusToolbox only) to get access 
  22:Generated_Source\PSoC6\pdl\drivers/peripheral/scb/cy_scb_spi.h **** * to all functions and declarations in the PDL.
  23:Generated_Source\PSoC6\pdl\drivers/peripheral/scb/cy_scb_spi.h **** *
  24:Generated_Source\PSoC6\pdl\drivers/peripheral/scb/cy_scb_spi.h **** * The SPI protocol is a synchronous serial interface protocol. Devices operate 
  25:Generated_Source\PSoC6\pdl\drivers/peripheral/scb/cy_scb_spi.h **** * in either master or slave mode. The master initiates the data transfer. 
  26:Generated_Source\PSoC6\pdl\drivers/peripheral/scb/cy_scb_spi.h **** * The SCB supports single-master-multiple-slaves topology for SPI. Multiple 
  27:Generated_Source\PSoC6\pdl\drivers/peripheral/scb/cy_scb_spi.h **** * slaves are supported with individual slave select lines.
  28:Generated_Source\PSoC6\pdl\drivers/peripheral/scb/cy_scb_spi.h **** *
  29:Generated_Source\PSoC6\pdl\drivers/peripheral/scb/cy_scb_spi.h **** * Features:
  30:Generated_Source\PSoC6\pdl\drivers/peripheral/scb/cy_scb_spi.h **** * * Supports master and slave functionalitySupports three types of SPI protocols:
  31:Generated_Source\PSoC6\pdl\drivers/peripheral/scb/cy_scb_spi.h **** *  * Motorola SPI - modes 0, 1, 2, and 3
  32:Generated_Source\PSoC6\pdl\drivers/peripheral/scb/cy_scb_spi.h **** *  * Texas Instruments SPI, with coinciding and preceding data frame indicator - mode 1 only
  33:Generated_Source\PSoC6\pdl\drivers/peripheral/scb/cy_scb_spi.h **** *  * National Semiconductor (MicroWire) SPI - mode 0 only
  34:Generated_Source\PSoC6\pdl\drivers/peripheral/scb/cy_scb_spi.h **** * * Master supports up to four slave select lines
  35:Generated_Source\PSoC6\pdl\drivers/peripheral/scb/cy_scb_spi.h **** *   * Each slave select has configurable active polarity (high or low)
  36:Generated_Source\PSoC6\pdl\drivers/peripheral/scb/cy_scb_spi.h **** *   * Slave select can be programmed to stay active for a whole transfer, or 
  37:Generated_Source\PSoC6\pdl\drivers/peripheral/scb/cy_scb_spi.h **** *     just for each byte
  38:Generated_Source\PSoC6\pdl\drivers/peripheral/scb/cy_scb_spi.h **** * * Master supports late sampling for better timing margin
  39:Generated_Source\PSoC6\pdl\drivers/peripheral/scb/cy_scb_spi.h **** * * Master supports continuous SPI clock
  40:Generated_Source\PSoC6\pdl\drivers/peripheral/scb/cy_scb_spi.h **** * * Data frame size programmable from 4 bits to 16 bits
  41:Generated_Source\PSoC6\pdl\drivers/peripheral/scb/cy_scb_spi.h **** * * Programmable oversampling
  42:Generated_Source\PSoC6\pdl\drivers/peripheral/scb/cy_scb_spi.h **** * * MSb or LSb first
  43:Generated_Source\PSoC6\pdl\drivers/peripheral/scb/cy_scb_spi.h **** * * Median filter available for inputs
  44:Generated_Source\PSoC6\pdl\drivers/peripheral/scb/cy_scb_spi.h **** *
  45:Generated_Source\PSoC6\pdl\drivers/peripheral/scb/cy_scb_spi.h **** ********************************************************************************
  46:Generated_Source\PSoC6\pdl\drivers/peripheral/scb/cy_scb_spi.h **** * \section group_scb_spi_configuration Configuration Considerations
  47:Generated_Source\PSoC6\pdl\drivers/peripheral/scb/cy_scb_spi.h **** ********************************************************************************
  48:Generated_Source\PSoC6\pdl\drivers/peripheral/scb/cy_scb_spi.h **** * The SPI driver configuration can be divided to number of sequential
  49:Generated_Source\PSoC6\pdl\drivers/peripheral/scb/cy_scb_spi.h **** * steps listed below:
  50:Generated_Source\PSoC6\pdl\drivers/peripheral/scb/cy_scb_spi.h **** * * \ref group_scb_spi_config
  51:Generated_Source\PSoC6\pdl\drivers/peripheral/scb/cy_scb_spi.h **** * * \ref group_scb_spi_pins
  52:Generated_Source\PSoC6\pdl\drivers/peripheral/scb/cy_scb_spi.h **** * * \ref group_scb_spi_clock
  53:Generated_Source\PSoC6\pdl\drivers/peripheral/scb/cy_scb_spi.h **** * * \ref group_scb_spi_data_rate
  54:Generated_Source\PSoC6\pdl\drivers/peripheral/scb/cy_scb_spi.h **** * * \ref group_scb_spi_intr
  55:Generated_Source\PSoC6\pdl\drivers/peripheral/scb/cy_scb_spi.h **** * * \ref group_scb_spi_enable
  56:Generated_Source\PSoC6\pdl\drivers/peripheral/scb/cy_scb_spi.h **** *
  57:Generated_Source\PSoC6\pdl\drivers/peripheral/scb/cy_scb_spi.h **** * \note
  58:Generated_Source\PSoC6\pdl\drivers/peripheral/scb/cy_scb_spi.h **** * The SPI driver is built on top of the SCB hardware block. The SCB1 instance is
  59:Generated_Source\PSoC6\pdl\drivers/peripheral/scb/cy_scb_spi.h **** * used as an example for all code snippets. Modify the code to match your
ARM GAS  C:\Users\nicpa\AppData\Local\Temp\ccIFCjQH.s 			page 14


  60:Generated_Source\PSoC6\pdl\drivers/peripheral/scb/cy_scb_spi.h **** * design.
  61:Generated_Source\PSoC6\pdl\drivers/peripheral/scb/cy_scb_spi.h **** *
  62:Generated_Source\PSoC6\pdl\drivers/peripheral/scb/cy_scb_spi.h **** ********************************************************************************
  63:Generated_Source\PSoC6\pdl\drivers/peripheral/scb/cy_scb_spi.h **** * \subsection group_scb_spi_config Configure SPI
  64:Generated_Source\PSoC6\pdl\drivers/peripheral/scb/cy_scb_spi.h **** ********************************************************************************
  65:Generated_Source\PSoC6\pdl\drivers/peripheral/scb/cy_scb_spi.h **** * To set up the SPI driver, provide the configuration parameters in the
  66:Generated_Source\PSoC6\pdl\drivers/peripheral/scb/cy_scb_spi.h **** * \ref cy_stc_scb_spi_config_t structure. For example: provide spiMode,
  67:Generated_Source\PSoC6\pdl\drivers/peripheral/scb/cy_scb_spi.h **** * subMode, sclkMode, oversample, rxDataWidth, and txDataWidth. The other
  68:Generated_Source\PSoC6\pdl\drivers/peripheral/scb/cy_scb_spi.h **** * parameters are optional for operation. To initialize the driver, call
  69:Generated_Source\PSoC6\pdl\drivers/peripheral/scb/cy_scb_spi.h **** * \ref Cy_SCB_SPI_Init function providing a pointer to the populated
  70:Generated_Source\PSoC6\pdl\drivers/peripheral/scb/cy_scb_spi.h **** * \ref cy_stc_scb_spi_config_t structure and the allocated 
  71:Generated_Source\PSoC6\pdl\drivers/peripheral/scb/cy_scb_spi.h **** * \ref cy_stc_scb_spi_context_t structure.
  72:Generated_Source\PSoC6\pdl\drivers/peripheral/scb/cy_scb_spi.h **** *
  73:Generated_Source\PSoC6\pdl\drivers/peripheral/scb/cy_scb_spi.h **** * \snippet SCB_CompDatasheet_sut_01_revA.cydsn\spi_snippets.c SPI_CFG
  74:Generated_Source\PSoC6\pdl\drivers/peripheral/scb/cy_scb_spi.h **** *
  75:Generated_Source\PSoC6\pdl\drivers/peripheral/scb/cy_scb_spi.h **** ********************************************************************************
  76:Generated_Source\PSoC6\pdl\drivers/peripheral/scb/cy_scb_spi.h **** * \subsection group_scb_spi_pins Assign and Configure Pins
  77:Generated_Source\PSoC6\pdl\drivers/peripheral/scb/cy_scb_spi.h **** ********************************************************************************
  78:Generated_Source\PSoC6\pdl\drivers/peripheral/scb/cy_scb_spi.h **** * Only dedicated SCB pins can be used for SPI operation. The HSIOM
  79:Generated_Source\PSoC6\pdl\drivers/peripheral/scb/cy_scb_spi.h **** * register must be configured to connect dedicated SCB SPI pins to the 
  80:Generated_Source\PSoC6\pdl\drivers/peripheral/scb/cy_scb_spi.h **** * SCB block. Also, the SPI output pins must be configured in Strong Drive Input 
  81:Generated_Source\PSoC6\pdl\drivers/peripheral/scb/cy_scb_spi.h **** * Off mode and SPI input pins in Digital High-Z.
  82:Generated_Source\PSoC6\pdl\drivers/peripheral/scb/cy_scb_spi.h **** *
  83:Generated_Source\PSoC6\pdl\drivers/peripheral/scb/cy_scb_spi.h **** * \snippet SCB_CompDatasheet_sut_01_revA.cydsn\spi_snippets.c SPI_CFG_PINS
  84:Generated_Source\PSoC6\pdl\drivers/peripheral/scb/cy_scb_spi.h **** *
  85:Generated_Source\PSoC6\pdl\drivers/peripheral/scb/cy_scb_spi.h **** ********************************************************************************
  86:Generated_Source\PSoC6\pdl\drivers/peripheral/scb/cy_scb_spi.h **** * \subsection group_scb_spi_clock Assign Clock Divider
  87:Generated_Source\PSoC6\pdl\drivers/peripheral/scb/cy_scb_spi.h **** ********************************************************************************
  88:Generated_Source\PSoC6\pdl\drivers/peripheral/scb/cy_scb_spi.h **** * A clock source must be connected to the SCB block to oversample input and
  89:Generated_Source\PSoC6\pdl\drivers/peripheral/scb/cy_scb_spi.h **** * output signals, in this document this clock will be referred as clk_scb.
  90:Generated_Source\PSoC6\pdl\drivers/peripheral/scb/cy_scb_spi.h **** * You must use one of the 8-bit or 16-bit dividers. Use the \ref group_sysclk 
  91:Generated_Source\PSoC6\pdl\drivers/peripheral/scb/cy_scb_spi.h **** * driver API to do this.
  92:Generated_Source\PSoC6\pdl\drivers/peripheral/scb/cy_scb_spi.h **** *
  93:Generated_Source\PSoC6\pdl\drivers/peripheral/scb/cy_scb_spi.h **** * \snippet SCB_CompDatasheet_sut_01_revA.cydsn\spi_snippets.c SPI_CFG_ASSIGN_CLOCK
  94:Generated_Source\PSoC6\pdl\drivers/peripheral/scb/cy_scb_spi.h **** *
  95:Generated_Source\PSoC6\pdl\drivers/peripheral/scb/cy_scb_spi.h **** ********************************************************************************
  96:Generated_Source\PSoC6\pdl\drivers/peripheral/scb/cy_scb_spi.h **** * \subsection group_scb_spi_data_rate Configure Data Rate
  97:Generated_Source\PSoC6\pdl\drivers/peripheral/scb/cy_scb_spi.h **** ********************************************************************************
  98:Generated_Source\PSoC6\pdl\drivers/peripheral/scb/cy_scb_spi.h **** * To get the SPI slave to operate with the desired data rate, the clk_scb must be
  99:Generated_Source\PSoC6\pdl\drivers/peripheral/scb/cy_scb_spi.h **** * fast enough to provide sufficient oversampling. Use the \ref group_sysclk driver 
 100:Generated_Source\PSoC6\pdl\drivers/peripheral/scb/cy_scb_spi.h **** * API to do that.
 101:Generated_Source\PSoC6\pdl\drivers/peripheral/scb/cy_scb_spi.h **** *
 102:Generated_Source\PSoC6\pdl\drivers/peripheral/scb/cy_scb_spi.h **** * \snippet SCB_CompDatasheet_sut_01_revA.cydsn\spi_snippets.c SPI_CFG_DATA_RATE_SLAVE
 103:Generated_Source\PSoC6\pdl\drivers/peripheral/scb/cy_scb_spi.h **** *
 104:Generated_Source\PSoC6\pdl\drivers/peripheral/scb/cy_scb_spi.h **** * To get the SPI master to operate with the desired data rate, multiply the 
 105:Generated_Source\PSoC6\pdl\drivers/peripheral/scb/cy_scb_spi.h **** * oversample factor by the desired data rate to determine the required 
 106:Generated_Source\PSoC6\pdl\drivers/peripheral/scb/cy_scb_spi.h **** * frequency for clk_scb. Use the \ref group_sysclk driver API to configure 
 107:Generated_Source\PSoC6\pdl\drivers/peripheral/scb/cy_scb_spi.h **** * clk_scb frequency. Set the <em><b>oversample parameter in configuration 
 108:Generated_Source\PSoC6\pdl\drivers/peripheral/scb/cy_scb_spi.h **** * structure</b></em> to define number of SCB clocks in one SCLK period. 
 109:Generated_Source\PSoC6\pdl\drivers/peripheral/scb/cy_scb_spi.h **** * When this value is even, the first and second phases of the SCLK period are 
 110:Generated_Source\PSoC6\pdl\drivers/peripheral/scb/cy_scb_spi.h **** * the same. Otherwise, the first phase is one SCB clock cycle longer than the 
 111:Generated_Source\PSoC6\pdl\drivers/peripheral/scb/cy_scb_spi.h **** * second phase. The level of the first phase of the clock period depends on CPOL
 112:Generated_Source\PSoC6\pdl\drivers/peripheral/scb/cy_scb_spi.h **** * settings: 0 - low level and 1 - high level.
 113:Generated_Source\PSoC6\pdl\drivers/peripheral/scb/cy_scb_spi.h **** *
 114:Generated_Source\PSoC6\pdl\drivers/peripheral/scb/cy_scb_spi.h **** * \snippet SCB_CompDatasheet_sut_01_revA.cydsn\spi_snippets.c SPI_CFG_DATA_RATE_MASTER
 115:Generated_Source\PSoC6\pdl\drivers/peripheral/scb/cy_scb_spi.h **** *
 116:Generated_Source\PSoC6\pdl\drivers/peripheral/scb/cy_scb_spi.h **** * <b>Refer to the technical reference manual (TRM) section SPI sub-section
ARM GAS  C:\Users\nicpa\AppData\Local\Temp\ccIFCjQH.s 			page 15


 117:Generated_Source\PSoC6\pdl\drivers/peripheral/scb/cy_scb_spi.h **** * Oversampling and Bit Rate to get information about how to configure SPI to run 
 118:Generated_Source\PSoC6\pdl\drivers/peripheral/scb/cy_scb_spi.h **** * with desired data rate</b>.
 119:Generated_Source\PSoC6\pdl\drivers/peripheral/scb/cy_scb_spi.h **** *
 120:Generated_Source\PSoC6\pdl\drivers/peripheral/scb/cy_scb_spi.h **** ********************************************************************************
 121:Generated_Source\PSoC6\pdl\drivers/peripheral/scb/cy_scb_spi.h **** * \subsection group_scb_spi_intr Configure Interrupt
 122:Generated_Source\PSoC6\pdl\drivers/peripheral/scb/cy_scb_spi.h **** ********************************************************************************
 123:Generated_Source\PSoC6\pdl\drivers/peripheral/scb/cy_scb_spi.h **** * The interrupt is optional for the SPI operation. To configure the interrupt,
 124:Generated_Source\PSoC6\pdl\drivers/peripheral/scb/cy_scb_spi.h **** * the \ref Cy_SCB_SPI_Interrupt function must be called in the interrupt
 125:Generated_Source\PSoC6\pdl\drivers/peripheral/scb/cy_scb_spi.h **** * handler for the selected SCB instance. Also, this interrupt must be enabled
 126:Generated_Source\PSoC6\pdl\drivers/peripheral/scb/cy_scb_spi.h **** * in the NVIC.
 127:Generated_Source\PSoC6\pdl\drivers/peripheral/scb/cy_scb_spi.h **** * The interrupt must be configured when \ref group_scb_spi_hl will be used.
 128:Generated_Source\PSoC6\pdl\drivers/peripheral/scb/cy_scb_spi.h **** *
 129:Generated_Source\PSoC6\pdl\drivers/peripheral/scb/cy_scb_spi.h **** * \snippet SCB_CompDatasheet_sut_01_revA.cydsn\spi_snippets.c SPI_INTR_A
 130:Generated_Source\PSoC6\pdl\drivers/peripheral/scb/cy_scb_spi.h **** * \snippet SCB_CompDatasheet_sut_01_revA.cydsn\spi_snippets.c SPI_INTR_B
 131:Generated_Source\PSoC6\pdl\drivers/peripheral/scb/cy_scb_spi.h **** *
 132:Generated_Source\PSoC6\pdl\drivers/peripheral/scb/cy_scb_spi.h **** ********************************************************************************
 133:Generated_Source\PSoC6\pdl\drivers/peripheral/scb/cy_scb_spi.h **** * \subsection group_scb_spi_enable Enable SPI
 134:Generated_Source\PSoC6\pdl\drivers/peripheral/scb/cy_scb_spi.h **** ********************************************************************************
 135:Generated_Source\PSoC6\pdl\drivers/peripheral/scb/cy_scb_spi.h **** * Finally, enable the SPI operation by calling \ref Cy_SCB_SPI_Enable.
 136:Generated_Source\PSoC6\pdl\drivers/peripheral/scb/cy_scb_spi.h **** * For the slave, this means that SPI device starts responding to the transfers.
 137:Generated_Source\PSoC6\pdl\drivers/peripheral/scb/cy_scb_spi.h **** * For the master, it is ready to execute transfers.
 138:Generated_Source\PSoC6\pdl\drivers/peripheral/scb/cy_scb_spi.h **** *
 139:Generated_Source\PSoC6\pdl\drivers/peripheral/scb/cy_scb_spi.h **** * \snippet SCB_CompDatasheet_sut_01_revA.cydsn\spi_snippets.c SPI_ENABLE
 140:Generated_Source\PSoC6\pdl\drivers/peripheral/scb/cy_scb_spi.h **** *
 141:Generated_Source\PSoC6\pdl\drivers/peripheral/scb/cy_scb_spi.h **** ********************************************************************************
 142:Generated_Source\PSoC6\pdl\drivers/peripheral/scb/cy_scb_spi.h **** * \section group_scb_spi_use_cases Common Use Cases
 143:Generated_Source\PSoC6\pdl\drivers/peripheral/scb/cy_scb_spi.h **** ********************************************************************************
 144:Generated_Source\PSoC6\pdl\drivers/peripheral/scb/cy_scb_spi.h **** * The SPI API is the same for the master and slave mode operation and
 145:Generated_Source\PSoC6\pdl\drivers/peripheral/scb/cy_scb_spi.h **** * is divided into two categories: \ref group_scb_spi_low_level_functions
 146:Generated_Source\PSoC6\pdl\drivers/peripheral/scb/cy_scb_spi.h **** * and \ref group_scb_spi_high_level_functions. \n
 147:Generated_Source\PSoC6\pdl\drivers/peripheral/scb/cy_scb_spi.h **** * <em>Do not mix <b>High-Level</b> and <b>Low-Level</b> API because a Low-Level
 148:Generated_Source\PSoC6\pdl\drivers/peripheral/scb/cy_scb_spi.h **** * API can adversely affect the operation of a High-Level API.</em>
 149:Generated_Source\PSoC6\pdl\drivers/peripheral/scb/cy_scb_spi.h **** *
 150:Generated_Source\PSoC6\pdl\drivers/peripheral/scb/cy_scb_spi.h **** ********************************************************************************
 151:Generated_Source\PSoC6\pdl\drivers/peripheral/scb/cy_scb_spi.h **** * \subsection group_scb_spi_ll Low-Level API
 152:Generated_Source\PSoC6\pdl\drivers/peripheral/scb/cy_scb_spi.h **** ********************************************************************************
 153:Generated_Source\PSoC6\pdl\drivers/peripheral/scb/cy_scb_spi.h **** * The \ref group_scb_spi_low_level_functions functions allow
 154:Generated_Source\PSoC6\pdl\drivers/peripheral/scb/cy_scb_spi.h **** * interacting directly with the hardware and do not use \ref Cy_SCB_SPI_Interrupt.
 155:Generated_Source\PSoC6\pdl\drivers/peripheral/scb/cy_scb_spi.h **** * These functions do not require context for operation. Thus, NULL can be
 156:Generated_Source\PSoC6\pdl\drivers/peripheral/scb/cy_scb_spi.h **** * passed for context parameter in \ref Cy_SCB_SPI_Init and \ref Cy_SCB_SPI_Disable 
 157:Generated_Source\PSoC6\pdl\drivers/peripheral/scb/cy_scb_spi.h **** * instead of a pointer to the context structure.
 158:Generated_Source\PSoC6\pdl\drivers/peripheral/scb/cy_scb_spi.h **** *
 159:Generated_Source\PSoC6\pdl\drivers/peripheral/scb/cy_scb_spi.h **** * * To write data into the TX FIFO, use one of the provided functions:
 160:Generated_Source\PSoC6\pdl\drivers/peripheral/scb/cy_scb_spi.h **** *   \ref Cy_SCB_SPI_Write, \ref Cy_SCB_SPI_WriteArray or
 161:Generated_Source\PSoC6\pdl\drivers/peripheral/scb/cy_scb_spi.h **** *   \ref Cy_SCB_SPI_WriteArrayBlocking.
 162:Generated_Source\PSoC6\pdl\drivers/peripheral/scb/cy_scb_spi.h **** *   Note that in the master mode, putting data into the TX FIFO starts a
 163:Generated_Source\PSoC6\pdl\drivers/peripheral/scb/cy_scb_spi.h **** *   transfer. Due to the nature of SPI, the received data is put into the RX FIFO.
 164:Generated_Source\PSoC6\pdl\drivers/peripheral/scb/cy_scb_spi.h **** *
 165:Generated_Source\PSoC6\pdl\drivers/peripheral/scb/cy_scb_spi.h **** * * To read data from the RX FIFO, use one of the provided functions:
 166:Generated_Source\PSoC6\pdl\drivers/peripheral/scb/cy_scb_spi.h **** *   \ref Cy_SCB_SPI_Read or \ref Cy_SCB_SPI_ReadArray. Again due to the nature 
 167:Generated_Source\PSoC6\pdl\drivers/peripheral/scb/cy_scb_spi.h **** *   of SPI these functions do not start a transfer on the bus, they only read 
 168:Generated_Source\PSoC6\pdl\drivers/peripheral/scb/cy_scb_spi.h **** *   data out of the RX FIFO that has already been received.
 169:Generated_Source\PSoC6\pdl\drivers/peripheral/scb/cy_scb_spi.h **** *
 170:Generated_Source\PSoC6\pdl\drivers/peripheral/scb/cy_scb_spi.h **** * * The statuses can be polled using: \ref Cy_SCB_SPI_GetRxFifoStatus,
 171:Generated_Source\PSoC6\pdl\drivers/peripheral/scb/cy_scb_spi.h **** *   \ref Cy_SCB_SPI_GetTxFifoStatus and \ref Cy_SCB_SPI_GetSlaveMasterStatus.
 172:Generated_Source\PSoC6\pdl\drivers/peripheral/scb/cy_scb_spi.h **** *   <em>The statuses are <b>W1C (Write 1 to Clear)</b> and after a status
 173:Generated_Source\PSoC6\pdl\drivers/peripheral/scb/cy_scb_spi.h **** *   is set, it must be cleared.</em> Note that there are statuses evaluated as level.
ARM GAS  C:\Users\nicpa\AppData\Local\Temp\ccIFCjQH.s 			page 16


 174:Generated_Source\PSoC6\pdl\drivers/peripheral/scb/cy_scb_spi.h **** *   These statuses remain set until an event is true. Therefore, after the clear
 175:Generated_Source\PSoC6\pdl\drivers/peripheral/scb/cy_scb_spi.h **** *   operation, the status is cleared but then it is restored (if the event is still
 176:Generated_Source\PSoC6\pdl\drivers/peripheral/scb/cy_scb_spi.h **** *   true).
 177:Generated_Source\PSoC6\pdl\drivers/peripheral/scb/cy_scb_spi.h **** *   Also, the following functions can be used for polling as well
 178:Generated_Source\PSoC6\pdl\drivers/peripheral/scb/cy_scb_spi.h **** *   \ref Cy_SCB_SPI_IsBusBusy, \ref Cy_SCB_SPI_IsTxComplete,
 179:Generated_Source\PSoC6\pdl\drivers/peripheral/scb/cy_scb_spi.h **** *   \ref Cy_SCB_SPI_GetNumInRxFifo and \ref Cy_SCB_SPI_GetNumInTxFifo.
 180:Generated_Source\PSoC6\pdl\drivers/peripheral/scb/cy_scb_spi.h **** *
 181:Generated_Source\PSoC6\pdl\drivers/peripheral/scb/cy_scb_spi.h **** * \snippet SCB_CompDatasheet_sut_01_revA.cydsn\spi_snippets.c SPI_TRANFER_DATA_LL
 182:Generated_Source\PSoC6\pdl\drivers/peripheral/scb/cy_scb_spi.h **** *
 183:Generated_Source\PSoC6\pdl\drivers/peripheral/scb/cy_scb_spi.h **** ********************************************************************************
 184:Generated_Source\PSoC6\pdl\drivers/peripheral/scb/cy_scb_spi.h **** * \subsection group_scb_spi_hl High-Level API
 185:Generated_Source\PSoC6\pdl\drivers/peripheral/scb/cy_scb_spi.h **** ********************************************************************************
 186:Generated_Source\PSoC6\pdl\drivers/peripheral/scb/cy_scb_spi.h **** * The \ref group_scb_spi_high_level_functions API use \ref Cy_SCB_SPI_Interrupt
 187:Generated_Source\PSoC6\pdl\drivers/peripheral/scb/cy_scb_spi.h **** * to execute the transfer. Call \ref Cy_SCB_SPI_Transfer to start communication: for master 
 188:Generated_Source\PSoC6\pdl\drivers/peripheral/scb/cy_scb_spi.h **** * mode calling this function starts a transaction with the slave. For slave mode 
 189:Generated_Source\PSoC6\pdl\drivers/peripheral/scb/cy_scb_spi.h **** * the read and write buffers are prepared for the communication with the master.
 190:Generated_Source\PSoC6\pdl\drivers/peripheral/scb/cy_scb_spi.h **** * After a transfer is started, the \ref Cy_SCB_SPI_Interrupt handles the
 191:Generated_Source\PSoC6\pdl\drivers/peripheral/scb/cy_scb_spi.h **** * transfer until its completion. Therefore, the \ref Cy_SCB_SPI_Interrupt function 
 192:Generated_Source\PSoC6\pdl\drivers/peripheral/scb/cy_scb_spi.h **** * must be called inside the user interrupt handler to make the High-Level API work. 
 193:Generated_Source\PSoC6\pdl\drivers/peripheral/scb/cy_scb_spi.h **** * To monitor the status of the transfer operation, use \ref Cy_SCB_SPI_GetTransferStatus.
 194:Generated_Source\PSoC6\pdl\drivers/peripheral/scb/cy_scb_spi.h **** * Alternatively, use \ref Cy_SCB_SPI_RegisterCallback to register a callback
 195:Generated_Source\PSoC6\pdl\drivers/peripheral/scb/cy_scb_spi.h **** * function to be notified about \ref group_scb_spi_macros_callback_events.
 196:Generated_Source\PSoC6\pdl\drivers/peripheral/scb/cy_scb_spi.h **** *
 197:Generated_Source\PSoC6\pdl\drivers/peripheral/scb/cy_scb_spi.h **** * \snippet SCB_CompDatasheet_sut_01_revA.cydsn\spi_snippets.c SPI_TRANFER_DATA
 198:Generated_Source\PSoC6\pdl\drivers/peripheral/scb/cy_scb_spi.h **** *
 199:Generated_Source\PSoC6\pdl\drivers/peripheral/scb/cy_scb_spi.h **** ********************************************************************************
 200:Generated_Source\PSoC6\pdl\drivers/peripheral/scb/cy_scb_spi.h **** * \section group_scb_spi_dma_trig DMA Trigger
 201:Generated_Source\PSoC6\pdl\drivers/peripheral/scb/cy_scb_spi.h **** ********************************************************************************
 202:Generated_Source\PSoC6\pdl\drivers/peripheral/scb/cy_scb_spi.h **** * The SCB provides TX and RX output trigger signals that can be routed to the
 203:Generated_Source\PSoC6\pdl\drivers/peripheral/scb/cy_scb_spi.h **** * DMA controller inputs. These signals are assigned based on the data availability
 204:Generated_Source\PSoC6\pdl\drivers/peripheral/scb/cy_scb_spi.h **** * in the TX and RX FIFOs appropriately.
 205:Generated_Source\PSoC6\pdl\drivers/peripheral/scb/cy_scb_spi.h **** *
 206:Generated_Source\PSoC6\pdl\drivers/peripheral/scb/cy_scb_spi.h **** * * The RX trigger signal is active while the number of data
 207:Generated_Source\PSoC6\pdl\drivers/peripheral/scb/cy_scb_spi.h **** *   elements in the RX FIFO is greater than the value of RX FIFO level. Use
 208:Generated_Source\PSoC6\pdl\drivers/peripheral/scb/cy_scb_spi.h **** *   function \ref Cy_SCB_SetRxFifoLevel or set configuration structure
 209:Generated_Source\PSoC6\pdl\drivers/peripheral/scb/cy_scb_spi.h **** *   rxFifoTriggerLevel parameter to configure RX FIFO level value. \n
 210:Generated_Source\PSoC6\pdl\drivers/peripheral/scb/cy_scb_spi.h **** *   <em>For example, the RX FIFO has 8 data elements and the RX FIFO level is 0.
 211:Generated_Source\PSoC6\pdl\drivers/peripheral/scb/cy_scb_spi.h **** *   The RX trigger signal is active until DMA reads all data from
 212:Generated_Source\PSoC6\pdl\drivers/peripheral/scb/cy_scb_spi.h **** *   the RX FIFO.</em>
 213:Generated_Source\PSoC6\pdl\drivers/peripheral/scb/cy_scb_spi.h **** *
 214:Generated_Source\PSoC6\pdl\drivers/peripheral/scb/cy_scb_spi.h **** * * The TX trigger signal is active while the number of data elements
 215:Generated_Source\PSoC6\pdl\drivers/peripheral/scb/cy_scb_spi.h **** *   in the TX FIFO is less than the value of TX FIFO level. Use function
 216:Generated_Source\PSoC6\pdl\drivers/peripheral/scb/cy_scb_spi.h **** *   \ref Cy_SCB_SetTxFifoLevel or set configuration structure txFifoTriggerLevel
 217:Generated_Source\PSoC6\pdl\drivers/peripheral/scb/cy_scb_spi.h **** *   parameter to configure TX FIFO level value. \n
 218:Generated_Source\PSoC6\pdl\drivers/peripheral/scb/cy_scb_spi.h **** *   <em>For example, the TX FIFO has 0 data elements (empty) and the TX FIFO level
 219:Generated_Source\PSoC6\pdl\drivers/peripheral/scb/cy_scb_spi.h **** *   is 7. The TX trigger signal is active until DMA loads TX FIFO
 220:Generated_Source\PSoC6\pdl\drivers/peripheral/scb/cy_scb_spi.h **** *   with 8 data elements (note that after the first TX load operation, the data 
 221:Generated_Source\PSoC6\pdl\drivers/peripheral/scb/cy_scb_spi.h **** *   element goes to the shift register and TX FIFO is empty).</em>
 222:Generated_Source\PSoC6\pdl\drivers/peripheral/scb/cy_scb_spi.h **** *
 223:Generated_Source\PSoC6\pdl\drivers/peripheral/scb/cy_scb_spi.h **** * To route SCB TX or RX trigger signals to the DMA controller, use \ref group_trigmux
 224:Generated_Source\PSoC6\pdl\drivers/peripheral/scb/cy_scb_spi.h **** * driver API.
 225:Generated_Source\PSoC6\pdl\drivers/peripheral/scb/cy_scb_spi.h **** *
 226:Generated_Source\PSoC6\pdl\drivers/peripheral/scb/cy_scb_spi.h **** * \note
 227:Generated_Source\PSoC6\pdl\drivers/peripheral/scb/cy_scb_spi.h **** * To properly handle DMA level request signal activation and de-activation from the SCB
 228:Generated_Source\PSoC6\pdl\drivers/peripheral/scb/cy_scb_spi.h **** * peripheral block the DMA Descriptor typically must be configured to re-trigger
 229:Generated_Source\PSoC6\pdl\drivers/peripheral/scb/cy_scb_spi.h **** * after 16 Clk_Slow cycles.
 230:Generated_Source\PSoC6\pdl\drivers/peripheral/scb/cy_scb_spi.h **** *
ARM GAS  C:\Users\nicpa\AppData\Local\Temp\ccIFCjQH.s 			page 17


 231:Generated_Source\PSoC6\pdl\drivers/peripheral/scb/cy_scb_spi.h **** ********************************************************************************
 232:Generated_Source\PSoC6\pdl\drivers/peripheral/scb/cy_scb_spi.h **** * \section group_scb_spi_lp Low Power Support
 233:Generated_Source\PSoC6\pdl\drivers/peripheral/scb/cy_scb_spi.h **** ********************************************************************************
 234:Generated_Source\PSoC6\pdl\drivers/peripheral/scb/cy_scb_spi.h **** * The SPI driver provides callback functions to handle power mode transitions.
 235:Generated_Source\PSoC6\pdl\drivers/peripheral/scb/cy_scb_spi.h **** * The callback \ref Cy_SCB_SPI_DeepSleepCallback must be called
 236:Generated_Source\PSoC6\pdl\drivers/peripheral/scb/cy_scb_spi.h **** * during execution of \ref Cy_SysPm_CpuEnterDeepSleep; \ref Cy_SCB_SPI_HibernateCallback
 237:Generated_Source\PSoC6\pdl\drivers/peripheral/scb/cy_scb_spi.h **** * must be called during execution of \ref Cy_SysPm_SystemEnterHibernate. To trigger the
 238:Generated_Source\PSoC6\pdl\drivers/peripheral/scb/cy_scb_spi.h **** * callback execution, the callback must be registered before calling the
 239:Generated_Source\PSoC6\pdl\drivers/peripheral/scb/cy_scb_spi.h **** * power mode transition function. Refer to \ref group_syspm driver for more
 240:Generated_Source\PSoC6\pdl\drivers/peripheral/scb/cy_scb_spi.h **** * information about power mode transitions and callback registration.
 241:Generated_Source\PSoC6\pdl\drivers/peripheral/scb/cy_scb_spi.h **** * 
 242:Generated_Source\PSoC6\pdl\drivers/peripheral/scb/cy_scb_spi.h **** * The SPI master is disabled during Deep Sleep and Hibernate and stops driving 
 243:Generated_Source\PSoC6\pdl\drivers/peripheral/scb/cy_scb_spi.h **** * the output pins. The state of the SPI master output pins SCLK, SS, and MOSI is 
 244:Generated_Source\PSoC6\pdl\drivers/peripheral/scb/cy_scb_spi.h **** * High-Z, which can cause unexpected behavior of the SPI Slave due to possible 
 245:Generated_Source\PSoC6\pdl\drivers/peripheral/scb/cy_scb_spi.h **** * glitches on these lines. These pins must keep the inactive level (the same state 
 246:Generated_Source\PSoC6\pdl\drivers/peripheral/scb/cy_scb_spi.h **** * when SPI master is enabled and does not transfer data) before entering Deep 
 247:Generated_Source\PSoC6\pdl\drivers/peripheral/scb/cy_scb_spi.h **** * Sleep or Hibernate mode. To do that, write the GPIO data register of each pin 
 248:Generated_Source\PSoC6\pdl\drivers/peripheral/scb/cy_scb_spi.h **** * to the inactive level for each output pin. Then configure High-Speed Input 
 249:Generated_Source\PSoC6\pdl\drivers/peripheral/scb/cy_scb_spi.h **** * Output Multiplexer (HSIOM) of each pin to be controlled by the GPIO (use 
 250:Generated_Source\PSoC6\pdl\drivers/peripheral/scb/cy_scb_spi.h **** * \ref group_gpio driver API). After after exiting Deep Sleep mode the SPI 
 251:Generated_Source\PSoC6\pdl\drivers/peripheral/scb/cy_scb_spi.h **** * master must be enabled and the pins configuration restored to return the 
 252:Generated_Source\PSoC6\pdl\drivers/peripheral/scb/cy_scb_spi.h **** * SPI master control of the pins (after exiting Hibernate mode, the 
 253:Generated_Source\PSoC6\pdl\drivers/peripheral/scb/cy_scb_spi.h **** * system initialization code does the same). Copy either or 
 254:Generated_Source\PSoC6\pdl\drivers/peripheral/scb/cy_scb_spi.h **** * both \ref Cy_SCB_SPI_DeepSleepCallback and \ref Cy_SCB_SPI_HibernateCallback 
 255:Generated_Source\PSoC6\pdl\drivers/peripheral/scb/cy_scb_spi.h **** * as appropriate, and make the changes described above inside the function.
 256:Generated_Source\PSoC6\pdl\drivers/peripheral/scb/cy_scb_spi.h **** * Alternately, external pull-up or pull-down resistors can be connected 
 257:Generated_Source\PSoC6\pdl\drivers/peripheral/scb/cy_scb_spi.h **** * to the appropriate SPI lines to keep them inactive during Deep-Sleep or 
 258:Generated_Source\PSoC6\pdl\drivers/peripheral/scb/cy_scb_spi.h **** * Hibernate.
 259:Generated_Source\PSoC6\pdl\drivers/peripheral/scb/cy_scb_spi.h **** *
 260:Generated_Source\PSoC6\pdl\drivers/peripheral/scb/cy_scb_spi.h **** * \note
 261:Generated_Source\PSoC6\pdl\drivers/peripheral/scb/cy_scb_spi.h **** * Only applicable for <b>rev-08 of the CY8CKIT-062-BLE</b>.
 262:Generated_Source\PSoC6\pdl\drivers/peripheral/scb/cy_scb_spi.h **** * For proper operation, when the SPI slave is configured to be a wakeup
 263:Generated_Source\PSoC6\pdl\drivers/peripheral/scb/cy_scb_spi.h **** * source from Deep Sleep mode, the \ref Cy_SCB_SPI_DeepSleepCallback must be
 264:Generated_Source\PSoC6\pdl\drivers/peripheral/scb/cy_scb_spi.h **** * copied and modified. Refer to the function description to get the details.
 265:Generated_Source\PSoC6\pdl\drivers/peripheral/scb/cy_scb_spi.h **** *
 266:Generated_Source\PSoC6\pdl\drivers/peripheral/scb/cy_scb_spi.h **** ********************************************************************************
 267:Generated_Source\PSoC6\pdl\drivers/peripheral/scb/cy_scb_spi.h **** * \section group_scb_spi_more_information More Information
 268:Generated_Source\PSoC6\pdl\drivers/peripheral/scb/cy_scb_spi.h **** ********************************************************************************
 269:Generated_Source\PSoC6\pdl\drivers/peripheral/scb/cy_scb_spi.h **** * For more information on the SCB peripheral, refer to the technical reference
 270:Generated_Source\PSoC6\pdl\drivers/peripheral/scb/cy_scb_spi.h **** * manual (TRM).
 271:Generated_Source\PSoC6\pdl\drivers/peripheral/scb/cy_scb_spi.h **** *
 272:Generated_Source\PSoC6\pdl\drivers/peripheral/scb/cy_scb_spi.h **** ********************************************************************************
 273:Generated_Source\PSoC6\pdl\drivers/peripheral/scb/cy_scb_spi.h **** * \section group_scb_spi_MISRA MISRA-C Compliance
 274:Generated_Source\PSoC6\pdl\drivers/peripheral/scb/cy_scb_spi.h **** ********************************************************************************
 275:Generated_Source\PSoC6\pdl\drivers/peripheral/scb/cy_scb_spi.h **** * <table class="doxtable">
 276:Generated_Source\PSoC6\pdl\drivers/peripheral/scb/cy_scb_spi.h **** *   <tr>
 277:Generated_Source\PSoC6\pdl\drivers/peripheral/scb/cy_scb_spi.h **** *     <th>MISRA Rule</th>
 278:Generated_Source\PSoC6\pdl\drivers/peripheral/scb/cy_scb_spi.h **** *     <th>Rule Class (Required/Advisory)</th>
 279:Generated_Source\PSoC6\pdl\drivers/peripheral/scb/cy_scb_spi.h **** *     <th>Rule Description</th>
 280:Generated_Source\PSoC6\pdl\drivers/peripheral/scb/cy_scb_spi.h **** *     <th>Description of Deviation(s)</th>
 281:Generated_Source\PSoC6\pdl\drivers/peripheral/scb/cy_scb_spi.h **** *   </tr>
 282:Generated_Source\PSoC6\pdl\drivers/peripheral/scb/cy_scb_spi.h **** *   <tr>
 283:Generated_Source\PSoC6\pdl\drivers/peripheral/scb/cy_scb_spi.h **** *     <td>11.4</td>
 284:Generated_Source\PSoC6\pdl\drivers/peripheral/scb/cy_scb_spi.h **** *     <td>A</td>
 285:Generated_Source\PSoC6\pdl\drivers/peripheral/scb/cy_scb_spi.h **** *     <td>A cast should not be performed between a pointer to object type and
 286:Generated_Source\PSoC6\pdl\drivers/peripheral/scb/cy_scb_spi.h **** *         a different pointer to object type.</td>
 287:Generated_Source\PSoC6\pdl\drivers/peripheral/scb/cy_scb_spi.h **** *     <td>
ARM GAS  C:\Users\nicpa\AppData\Local\Temp\ccIFCjQH.s 			page 18


 288:Generated_Source\PSoC6\pdl\drivers/peripheral/scb/cy_scb_spi.h **** *         * The pointer to the buffer memory is void to allow handling
 289:Generated_Source\PSoC6\pdl\drivers/peripheral/scb/cy_scb_spi.h **** *         different data types: uint8_t (4-8 bits) or uint16_t (9-16 bits).
 290:Generated_Source\PSoC6\pdl\drivers/peripheral/scb/cy_scb_spi.h **** *         The cast operation is safe because the configuration is verified
 291:Generated_Source\PSoC6\pdl\drivers/peripheral/scb/cy_scb_spi.h **** *         before operation is performed.
 292:Generated_Source\PSoC6\pdl\drivers/peripheral/scb/cy_scb_spi.h **** *         * The functions \ref Cy_SCB_SPI_DeepSleepCallback and
 293:Generated_Source\PSoC6\pdl\drivers/peripheral/scb/cy_scb_spi.h **** *         \ref Cy_SCB_SPI_HibernateCallback are callback of
 294:Generated_Source\PSoC6\pdl\drivers/peripheral/scb/cy_scb_spi.h **** *         \ref cy_en_syspm_status_t type. The cast operation safety in these
 295:Generated_Source\PSoC6\pdl\drivers/peripheral/scb/cy_scb_spi.h **** *         functions becomes the user's responsibility because pointers are
 296:Generated_Source\PSoC6\pdl\drivers/peripheral/scb/cy_scb_spi.h **** *         initialized when callback is registered in SysPm driver.</td>
 297:Generated_Source\PSoC6\pdl\drivers/peripheral/scb/cy_scb_spi.h **** *   </tr>
 298:Generated_Source\PSoC6\pdl\drivers/peripheral/scb/cy_scb_spi.h **** *   <tr>
 299:Generated_Source\PSoC6\pdl\drivers/peripheral/scb/cy_scb_spi.h **** *     <td>13.7</td>
 300:Generated_Source\PSoC6\pdl\drivers/peripheral/scb/cy_scb_spi.h **** *     <td>R</td>
 301:Generated_Source\PSoC6\pdl\drivers/peripheral/scb/cy_scb_spi.h **** *     <td>Boolean operations whose results are invariant shall not be
 302:Generated_Source\PSoC6\pdl\drivers/peripheral/scb/cy_scb_spi.h **** *         permitted.</td>
 303:Generated_Source\PSoC6\pdl\drivers/peripheral/scb/cy_scb_spi.h **** *     <td>The SCB block parameters can be a constant false or true depends on
 304:Generated_Source\PSoC6\pdl\drivers/peripheral/scb/cy_scb_spi.h **** *         the selected device and cause this violation.</td>
 305:Generated_Source\PSoC6\pdl\drivers/peripheral/scb/cy_scb_spi.h **** *   </tr>
 306:Generated_Source\PSoC6\pdl\drivers/peripheral/scb/cy_scb_spi.h **** *   <tr>
 307:Generated_Source\PSoC6\pdl\drivers/peripheral/scb/cy_scb_spi.h **** *     <td>14.1</td>
 308:Generated_Source\PSoC6\pdl\drivers/peripheral/scb/cy_scb_spi.h **** *     <td>R</td>
 309:Generated_Source\PSoC6\pdl\drivers/peripheral/scb/cy_scb_spi.h **** *     <td>There shall be no unreachable code.</td>
 310:Generated_Source\PSoC6\pdl\drivers/peripheral/scb/cy_scb_spi.h **** *     <td>The SCB block parameters can be a constant false or true depends on
 311:Generated_Source\PSoC6\pdl\drivers/peripheral/scb/cy_scb_spi.h **** *         the selected device and cause code to be unreachable.</td>
 312:Generated_Source\PSoC6\pdl\drivers/peripheral/scb/cy_scb_spi.h **** *   </tr>
 313:Generated_Source\PSoC6\pdl\drivers/peripheral/scb/cy_scb_spi.h **** *   <tr>
 314:Generated_Source\PSoC6\pdl\drivers/peripheral/scb/cy_scb_spi.h **** *     <td>14.2</td>
 315:Generated_Source\PSoC6\pdl\drivers/peripheral/scb/cy_scb_spi.h **** *     <td>R</td>
 316:Generated_Source\PSoC6\pdl\drivers/peripheral/scb/cy_scb_spi.h **** *     <td>All non-null statements shall either: a) have at least one side-effect
 317:Generated_Source\PSoC6\pdl\drivers/peripheral/scb/cy_scb_spi.h **** *         however executed, or b) cause control flow to change.</td>
 318:Generated_Source\PSoC6\pdl\drivers/peripheral/scb/cy_scb_spi.h **** *     <td>The unused function parameters are cast to void. This statement
 319:Generated_Source\PSoC6\pdl\drivers/peripheral/scb/cy_scb_spi.h **** *         has no side-effect and is used to suppress a compiler warning.</td>
 320:Generated_Source\PSoC6\pdl\drivers/peripheral/scb/cy_scb_spi.h **** *   </tr>
 321:Generated_Source\PSoC6\pdl\drivers/peripheral/scb/cy_scb_spi.h **** *   <tr>
 322:Generated_Source\PSoC6\pdl\drivers/peripheral/scb/cy_scb_spi.h **** *     <td>14.7</td>
 323:Generated_Source\PSoC6\pdl\drivers/peripheral/scb/cy_scb_spi.h **** *     <td>R</td>
 324:Generated_Source\PSoC6\pdl\drivers/peripheral/scb/cy_scb_spi.h **** *     <td>A function shall have a single point of exit at the end of the
 325:Generated_Source\PSoC6\pdl\drivers/peripheral/scb/cy_scb_spi.h **** *         function.</td>
 326:Generated_Source\PSoC6\pdl\drivers/peripheral/scb/cy_scb_spi.h **** *     <td>The functions can return from several points. This is done to improve
 327:Generated_Source\PSoC6\pdl\drivers/peripheral/scb/cy_scb_spi.h **** *         code clarity when returning error status code if input parameters
 328:Generated_Source\PSoC6\pdl\drivers/peripheral/scb/cy_scb_spi.h **** *         validation is failed.</td>
 329:Generated_Source\PSoC6\pdl\drivers/peripheral/scb/cy_scb_spi.h **** *   </tr>
 330:Generated_Source\PSoC6\pdl\drivers/peripheral/scb/cy_scb_spi.h **** * </table>
 331:Generated_Source\PSoC6\pdl\drivers/peripheral/scb/cy_scb_spi.h **** *
 332:Generated_Source\PSoC6\pdl\drivers/peripheral/scb/cy_scb_spi.h **** * \section group_scb_spi_changelog Changelog
 333:Generated_Source\PSoC6\pdl\drivers/peripheral/scb/cy_scb_spi.h **** * <table class="doxtable">
 334:Generated_Source\PSoC6\pdl\drivers/peripheral/scb/cy_scb_spi.h **** *   <tr><th>Version</th><th>Changes</th><th>Reason for Change</th></tr>
 335:Generated_Source\PSoC6\pdl\drivers/peripheral/scb/cy_scb_spi.h **** *   <tr>
 336:Generated_Source\PSoC6\pdl\drivers/peripheral/scb/cy_scb_spi.h **** *     <td rowspan="2">2.20</td>
 337:Generated_Source\PSoC6\pdl\drivers/peripheral/scb/cy_scb_spi.h **** *     <td>Flattened the organization of the driver source code into the single 
 338:Generated_Source\PSoC6\pdl\drivers/peripheral/scb/cy_scb_spi.h **** *         source directory and the single include directory.
 339:Generated_Source\PSoC6\pdl\drivers/peripheral/scb/cy_scb_spi.h **** *     </td>
 340:Generated_Source\PSoC6\pdl\drivers/peripheral/scb/cy_scb_spi.h **** *     <td>Driver library directory-structure simplification.</td>
 341:Generated_Source\PSoC6\pdl\drivers/peripheral/scb/cy_scb_spi.h **** *   </tr>
 342:Generated_Source\PSoC6\pdl\drivers/peripheral/scb/cy_scb_spi.h **** *   <tr>
 343:Generated_Source\PSoC6\pdl\drivers/peripheral/scb/cy_scb_spi.h **** *     <td>Added register access layer. Use register access macros instead
 344:Generated_Source\PSoC6\pdl\drivers/peripheral/scb/cy_scb_spi.h **** *         of direct register access using dereferenced pointers.</td>
ARM GAS  C:\Users\nicpa\AppData\Local\Temp\ccIFCjQH.s 			page 19


 345:Generated_Source\PSoC6\pdl\drivers/peripheral/scb/cy_scb_spi.h **** *     <td>Makes register access device-independent, so that the PDL does 
 346:Generated_Source\PSoC6\pdl\drivers/peripheral/scb/cy_scb_spi.h **** *         not need to be recompiled for each supported part number.</td>
 347:Generated_Source\PSoC6\pdl\drivers/peripheral/scb/cy_scb_spi.h **** *   </tr>
 348:Generated_Source\PSoC6\pdl\drivers/peripheral/scb/cy_scb_spi.h **** *   <tr>
 349:Generated_Source\PSoC6\pdl\drivers/peripheral/scb/cy_scb_spi.h **** *     <td>2.10</td>
 350:Generated_Source\PSoC6\pdl\drivers/peripheral/scb/cy_scb_spi.h **** *     <td>None.</td>
 351:Generated_Source\PSoC6\pdl\drivers/peripheral/scb/cy_scb_spi.h **** *     <td>SCB I2C driver updated.</td>
 352:Generated_Source\PSoC6\pdl\drivers/peripheral/scb/cy_scb_spi.h **** *   </tr>
 353:Generated_Source\PSoC6\pdl\drivers/peripheral/scb/cy_scb_spi.h **** *   <tr>
 354:Generated_Source\PSoC6\pdl\drivers/peripheral/scb/cy_scb_spi.h **** *     <td rowspan="4"> 2.0</td>
 355:Generated_Source\PSoC6\pdl\drivers/peripheral/scb/cy_scb_spi.h **** *     <td>Fixed SPI callback notification when error event occurred.</td>
 356:Generated_Source\PSoC6\pdl\drivers/peripheral/scb/cy_scb_spi.h **** *     <td>The SPI callback passed incorrect event value if error event occurred.</td>
 357:Generated_Source\PSoC6\pdl\drivers/peripheral/scb/cy_scb_spi.h **** *   </tr>
 358:Generated_Source\PSoC6\pdl\drivers/peripheral/scb/cy_scb_spi.h **** *   <tr>
 359:Generated_Source\PSoC6\pdl\drivers/peripheral/scb/cy_scb_spi.h **** *     <td>Added parameters validation for public API.</td>
 360:Generated_Source\PSoC6\pdl\drivers/peripheral/scb/cy_scb_spi.h **** *     <td></td>
 361:Generated_Source\PSoC6\pdl\drivers/peripheral/scb/cy_scb_spi.h **** *   </tr>
 362:Generated_Source\PSoC6\pdl\drivers/peripheral/scb/cy_scb_spi.h **** *   <tr>
 363:Generated_Source\PSoC6\pdl\drivers/peripheral/scb/cy_scb_spi.h **** *     <td>Replaced variables that have limited range of values with enumerated
 364:Generated_Source\PSoC6\pdl\drivers/peripheral/scb/cy_scb_spi.h **** *         types.</td>
 365:Generated_Source\PSoC6\pdl\drivers/peripheral/scb/cy_scb_spi.h **** *     <td></td>
 366:Generated_Source\PSoC6\pdl\drivers/peripheral/scb/cy_scb_spi.h **** *   </tr>
 367:Generated_Source\PSoC6\pdl\drivers/peripheral/scb/cy_scb_spi.h **** *   <tr>
 368:Generated_Source\PSoC6\pdl\drivers/peripheral/scb/cy_scb_spi.h **** *     <td>Added missing "cy_cb_" to the callback function type names.</td>
 369:Generated_Source\PSoC6\pdl\drivers/peripheral/scb/cy_scb_spi.h **** *     <td></td>
 370:Generated_Source\PSoC6\pdl\drivers/peripheral/scb/cy_scb_spi.h **** *   </tr>
 371:Generated_Source\PSoC6\pdl\drivers/peripheral/scb/cy_scb_spi.h **** *   <tr>
 372:Generated_Source\PSoC6\pdl\drivers/peripheral/scb/cy_scb_spi.h **** *     <td>1.0</td>
 373:Generated_Source\PSoC6\pdl\drivers/peripheral/scb/cy_scb_spi.h **** *     <td>Initial version.</td>
 374:Generated_Source\PSoC6\pdl\drivers/peripheral/scb/cy_scb_spi.h **** *     <td></td>
 375:Generated_Source\PSoC6\pdl\drivers/peripheral/scb/cy_scb_spi.h **** *   </tr>
 376:Generated_Source\PSoC6\pdl\drivers/peripheral/scb/cy_scb_spi.h **** * </table>
 377:Generated_Source\PSoC6\pdl\drivers/peripheral/scb/cy_scb_spi.h **** *
 378:Generated_Source\PSoC6\pdl\drivers/peripheral/scb/cy_scb_spi.h **** * \defgroup group_scb_spi_macros Macros
 379:Generated_Source\PSoC6\pdl\drivers/peripheral/scb/cy_scb_spi.h **** * \defgroup group_scb_spi_functions Functions
 380:Generated_Source\PSoC6\pdl\drivers/peripheral/scb/cy_scb_spi.h **** * \{
 381:Generated_Source\PSoC6\pdl\drivers/peripheral/scb/cy_scb_spi.h **** * \defgroup group_scb_spi_general_functions General
 382:Generated_Source\PSoC6\pdl\drivers/peripheral/scb/cy_scb_spi.h **** * \defgroup group_scb_spi_high_level_functions High-Level
 383:Generated_Source\PSoC6\pdl\drivers/peripheral/scb/cy_scb_spi.h **** * \defgroup group_scb_spi_low_level_functions Low-Level
 384:Generated_Source\PSoC6\pdl\drivers/peripheral/scb/cy_scb_spi.h **** * \defgroup group_scb_spi_interrupt_functions Interrupt
 385:Generated_Source\PSoC6\pdl\drivers/peripheral/scb/cy_scb_spi.h **** * \defgroup group_scb_spi_low_power_functions Low Power Callbacks
 386:Generated_Source\PSoC6\pdl\drivers/peripheral/scb/cy_scb_spi.h **** * \}
 387:Generated_Source\PSoC6\pdl\drivers/peripheral/scb/cy_scb_spi.h **** * \defgroup group_scb_spi_data_structures Data Structures
 388:Generated_Source\PSoC6\pdl\drivers/peripheral/scb/cy_scb_spi.h **** * \defgroup group_scb_spi_enums Enumerated Types
 389:Generated_Source\PSoC6\pdl\drivers/peripheral/scb/cy_scb_spi.h **** */
 390:Generated_Source\PSoC6\pdl\drivers/peripheral/scb/cy_scb_spi.h **** 
 391:Generated_Source\PSoC6\pdl\drivers/peripheral/scb/cy_scb_spi.h **** #if !defined(CY_SCB_SPI_H)
 392:Generated_Source\PSoC6\pdl\drivers/peripheral/scb/cy_scb_spi.h **** #define CY_SCB_SPI_H
 393:Generated_Source\PSoC6\pdl\drivers/peripheral/scb/cy_scb_spi.h **** 
 394:Generated_Source\PSoC6\pdl\drivers/peripheral/scb/cy_scb_spi.h **** #include "cy_scb_common.h"
 395:Generated_Source\PSoC6\pdl\drivers/peripheral/scb/cy_scb_spi.h **** 
 396:Generated_Source\PSoC6\pdl\drivers/peripheral/scb/cy_scb_spi.h **** #if defined(__cplusplus)
 397:Generated_Source\PSoC6\pdl\drivers/peripheral/scb/cy_scb_spi.h **** extern "C" {
 398:Generated_Source\PSoC6\pdl\drivers/peripheral/scb/cy_scb_spi.h **** #endif
 399:Generated_Source\PSoC6\pdl\drivers/peripheral/scb/cy_scb_spi.h **** 
 400:Generated_Source\PSoC6\pdl\drivers/peripheral/scb/cy_scb_spi.h **** /*******************************************************************************
 401:Generated_Source\PSoC6\pdl\drivers/peripheral/scb/cy_scb_spi.h **** *                               Enumerated Types
ARM GAS  C:\Users\nicpa\AppData\Local\Temp\ccIFCjQH.s 			page 20


 402:Generated_Source\PSoC6\pdl\drivers/peripheral/scb/cy_scb_spi.h **** *******************************************************************************/
 403:Generated_Source\PSoC6\pdl\drivers/peripheral/scb/cy_scb_spi.h **** 
 404:Generated_Source\PSoC6\pdl\drivers/peripheral/scb/cy_scb_spi.h **** /**
 405:Generated_Source\PSoC6\pdl\drivers/peripheral/scb/cy_scb_spi.h **** * \addtogroup group_scb_spi_enums
 406:Generated_Source\PSoC6\pdl\drivers/peripheral/scb/cy_scb_spi.h **** * \{
 407:Generated_Source\PSoC6\pdl\drivers/peripheral/scb/cy_scb_spi.h **** */
 408:Generated_Source\PSoC6\pdl\drivers/peripheral/scb/cy_scb_spi.h **** 
 409:Generated_Source\PSoC6\pdl\drivers/peripheral/scb/cy_scb_spi.h **** /** SPI status codes */
 410:Generated_Source\PSoC6\pdl\drivers/peripheral/scb/cy_scb_spi.h **** typedef enum
 411:Generated_Source\PSoC6\pdl\drivers/peripheral/scb/cy_scb_spi.h **** {
 412:Generated_Source\PSoC6\pdl\drivers/peripheral/scb/cy_scb_spi.h ****     /** Operation completed successfully */
 413:Generated_Source\PSoC6\pdl\drivers/peripheral/scb/cy_scb_spi.h ****     CY_SCB_SPI_SUCCESS = 0U,
 414:Generated_Source\PSoC6\pdl\drivers/peripheral/scb/cy_scb_spi.h **** 
 415:Generated_Source\PSoC6\pdl\drivers/peripheral/scb/cy_scb_spi.h ****     /** One or more of input parameters are invalid */
 416:Generated_Source\PSoC6\pdl\drivers/peripheral/scb/cy_scb_spi.h ****     CY_SCB_SPI_BAD_PARAM = (CY_SCB_ID | CY_PDL_STATUS_ERROR | CY_SCB_SPI_ID | 1U),
 417:Generated_Source\PSoC6\pdl\drivers/peripheral/scb/cy_scb_spi.h **** 
 418:Generated_Source\PSoC6\pdl\drivers/peripheral/scb/cy_scb_spi.h ****     /**
 419:Generated_Source\PSoC6\pdl\drivers/peripheral/scb/cy_scb_spi.h ****     * SPI is busy processing a transfer.
 420:Generated_Source\PSoC6\pdl\drivers/peripheral/scb/cy_scb_spi.h ****     */
 421:Generated_Source\PSoC6\pdl\drivers/peripheral/scb/cy_scb_spi.h ****     CY_SCB_SPI_TRANSFER_BUSY = (CY_SCB_ID | CY_PDL_STATUS_ERROR | CY_SCB_SPI_ID | 2U)
 422:Generated_Source\PSoC6\pdl\drivers/peripheral/scb/cy_scb_spi.h **** } cy_en_scb_spi_status_t;
 423:Generated_Source\PSoC6\pdl\drivers/peripheral/scb/cy_scb_spi.h **** 
 424:Generated_Source\PSoC6\pdl\drivers/peripheral/scb/cy_scb_spi.h **** /** SPI Modes */
 425:Generated_Source\PSoC6\pdl\drivers/peripheral/scb/cy_scb_spi.h **** typedef enum
 426:Generated_Source\PSoC6\pdl\drivers/peripheral/scb/cy_scb_spi.h **** {
 427:Generated_Source\PSoC6\pdl\drivers/peripheral/scb/cy_scb_spi.h ****     CY_SCB_SPI_SLAVE,   /**< Configures SCB for SPI Slave operation  */
 428:Generated_Source\PSoC6\pdl\drivers/peripheral/scb/cy_scb_spi.h ****     CY_SCB_SPI_MASTER,  /**< Configures SCB for SPI Master operation */
 429:Generated_Source\PSoC6\pdl\drivers/peripheral/scb/cy_scb_spi.h **** } cy_en_scb_spi_mode_t;
 430:Generated_Source\PSoC6\pdl\drivers/peripheral/scb/cy_scb_spi.h **** 
 431:Generated_Source\PSoC6\pdl\drivers/peripheral/scb/cy_scb_spi.h **** /** SPI Submodes */
 432:Generated_Source\PSoC6\pdl\drivers/peripheral/scb/cy_scb_spi.h **** typedef enum
 433:Generated_Source\PSoC6\pdl\drivers/peripheral/scb/cy_scb_spi.h **** {
 434:Generated_Source\PSoC6\pdl\drivers/peripheral/scb/cy_scb_spi.h ****     /** Configures an SPI for a standard Motorola SPI operation */
 435:Generated_Source\PSoC6\pdl\drivers/peripheral/scb/cy_scb_spi.h ****     CY_SCB_SPI_MOTOROLA     = 0x0U,
 436:Generated_Source\PSoC6\pdl\drivers/peripheral/scb/cy_scb_spi.h **** 
 437:Generated_Source\PSoC6\pdl\drivers/peripheral/scb/cy_scb_spi.h ****     /**
 438:Generated_Source\PSoC6\pdl\drivers/peripheral/scb/cy_scb_spi.h ****     * Configures the SPI for the TI SPI operation. In the TI mode, the slave
 439:Generated_Source\PSoC6\pdl\drivers/peripheral/scb/cy_scb_spi.h ****     * select is a pulse. In this case, the pulse coincides with the first bit.
 440:Generated_Source\PSoC6\pdl\drivers/peripheral/scb/cy_scb_spi.h ****     */
 441:Generated_Source\PSoC6\pdl\drivers/peripheral/scb/cy_scb_spi.h ****     CY_SCB_SPI_TI_COINCIDES = 0x01U,
 442:Generated_Source\PSoC6\pdl\drivers/peripheral/scb/cy_scb_spi.h **** 
 443:Generated_Source\PSoC6\pdl\drivers/peripheral/scb/cy_scb_spi.h ****     /**
 444:Generated_Source\PSoC6\pdl\drivers/peripheral/scb/cy_scb_spi.h ****     * Configures an SPI for the National SPI operation. This is a half-duplex
 445:Generated_Source\PSoC6\pdl\drivers/peripheral/scb/cy_scb_spi.h ****     * mode of operation.
 446:Generated_Source\PSoC6\pdl\drivers/peripheral/scb/cy_scb_spi.h ****     */
 447:Generated_Source\PSoC6\pdl\drivers/peripheral/scb/cy_scb_spi.h ****     CY_SCB_SPI_NATIONAL     = 0x02U,
 448:Generated_Source\PSoC6\pdl\drivers/peripheral/scb/cy_scb_spi.h **** 
 449:Generated_Source\PSoC6\pdl\drivers/peripheral/scb/cy_scb_spi.h ****     /**
 450:Generated_Source\PSoC6\pdl\drivers/peripheral/scb/cy_scb_spi.h ****     * Configures an SPI for the TI SPI operation, in the TI mode. The slave
 451:Generated_Source\PSoC6\pdl\drivers/peripheral/scb/cy_scb_spi.h ****     * select is a pulse. In this case the pulse precedes the first bit.
 452:Generated_Source\PSoC6\pdl\drivers/peripheral/scb/cy_scb_spi.h ****     */
 453:Generated_Source\PSoC6\pdl\drivers/peripheral/scb/cy_scb_spi.h ****     CY_SCB_SPI_TI_PRECEDES  = 0x05U,
 454:Generated_Source\PSoC6\pdl\drivers/peripheral/scb/cy_scb_spi.h **** } cy_en_scb_spi_sub_mode_t;
 455:Generated_Source\PSoC6\pdl\drivers/peripheral/scb/cy_scb_spi.h **** 
 456:Generated_Source\PSoC6\pdl\drivers/peripheral/scb/cy_scb_spi.h **** /** SPI SCLK Modes */
 457:Generated_Source\PSoC6\pdl\drivers/peripheral/scb/cy_scb_spi.h **** typedef enum
 458:Generated_Source\PSoC6\pdl\drivers/peripheral/scb/cy_scb_spi.h **** {
ARM GAS  C:\Users\nicpa\AppData\Local\Temp\ccIFCjQH.s 			page 21


 459:Generated_Source\PSoC6\pdl\drivers/peripheral/scb/cy_scb_spi.h ****     CY_SCB_SPI_CPHA0_CPOL0 = 0U,   /**< Clock is active low, data is changed on first edge   */
 460:Generated_Source\PSoC6\pdl\drivers/peripheral/scb/cy_scb_spi.h ****     CY_SCB_SPI_CPHA0_CPOL1 = 1U,   /**< Clock is active high, data is changed on first edge  */
 461:Generated_Source\PSoC6\pdl\drivers/peripheral/scb/cy_scb_spi.h ****     CY_SCB_SPI_CPHA1_CPOL0 = 2U,   /**< Clock is active low, data is changed on second edge  */
 462:Generated_Source\PSoC6\pdl\drivers/peripheral/scb/cy_scb_spi.h ****     CY_SCB_SPI_CPHA1_CPOL1 = 3U,   /**< Clock is active high, data is changed on second edge */
 463:Generated_Source\PSoC6\pdl\drivers/peripheral/scb/cy_scb_spi.h **** } cy_en_scb_spi_sclk_mode_t;
 464:Generated_Source\PSoC6\pdl\drivers/peripheral/scb/cy_scb_spi.h **** 
 465:Generated_Source\PSoC6\pdl\drivers/peripheral/scb/cy_scb_spi.h **** /** SPI Slave Selects */
 466:Generated_Source\PSoC6\pdl\drivers/peripheral/scb/cy_scb_spi.h **** typedef enum
 467:Generated_Source\PSoC6\pdl\drivers/peripheral/scb/cy_scb_spi.h **** {
 468:Generated_Source\PSoC6\pdl\drivers/peripheral/scb/cy_scb_spi.h ****     CY_SCB_SPI_SLAVE_SELECT0 = 0U,   /**< Master will use Slave Select 0 */
 469:Generated_Source\PSoC6\pdl\drivers/peripheral/scb/cy_scb_spi.h ****     CY_SCB_SPI_SLAVE_SELECT1 = 1U,   /**< Master will use Slave Select 1 */
 470:Generated_Source\PSoC6\pdl\drivers/peripheral/scb/cy_scb_spi.h ****     CY_SCB_SPI_SLAVE_SELECT2 = 2U,   /**< Master will use Slave Select 2 */
 471:Generated_Source\PSoC6\pdl\drivers/peripheral/scb/cy_scb_spi.h ****     CY_SCB_SPI_SLAVE_SELECT3 = 3U,   /**< Master will use Slave Select 3 */
 472:Generated_Source\PSoC6\pdl\drivers/peripheral/scb/cy_scb_spi.h **** } cy_en_scb_spi_slave_select_t;
 473:Generated_Source\PSoC6\pdl\drivers/peripheral/scb/cy_scb_spi.h **** 
 474:Generated_Source\PSoC6\pdl\drivers/peripheral/scb/cy_scb_spi.h **** /** SPI Polarity */
 475:Generated_Source\PSoC6\pdl\drivers/peripheral/scb/cy_scb_spi.h **** typedef enum
 476:Generated_Source\PSoC6\pdl\drivers/peripheral/scb/cy_scb_spi.h **** {
 477:Generated_Source\PSoC6\pdl\drivers/peripheral/scb/cy_scb_spi.h ****     CY_SCB_SPI_ACTIVE_LOW  = 0U,    /**< Signal in question is active low */
 478:Generated_Source\PSoC6\pdl\drivers/peripheral/scb/cy_scb_spi.h ****     CY_SCB_SPI_ACTIVE_HIGH = 1U,    /**< Signal in question is active high */
 479:Generated_Source\PSoC6\pdl\drivers/peripheral/scb/cy_scb_spi.h **** } cy_en_scb_spi_polarity_t;
 480:Generated_Source\PSoC6\pdl\drivers/peripheral/scb/cy_scb_spi.h **** 
 481:Generated_Source\PSoC6\pdl\drivers/peripheral/scb/cy_scb_spi.h **** /** \} group_scb_spi_enums */
 482:Generated_Source\PSoC6\pdl\drivers/peripheral/scb/cy_scb_spi.h **** 
 483:Generated_Source\PSoC6\pdl\drivers/peripheral/scb/cy_scb_spi.h **** 
 484:Generated_Source\PSoC6\pdl\drivers/peripheral/scb/cy_scb_spi.h **** /*******************************************************************************
 485:Generated_Source\PSoC6\pdl\drivers/peripheral/scb/cy_scb_spi.h **** *                            Type Definitions
 486:Generated_Source\PSoC6\pdl\drivers/peripheral/scb/cy_scb_spi.h **** *******************************************************************************/
 487:Generated_Source\PSoC6\pdl\drivers/peripheral/scb/cy_scb_spi.h **** 
 488:Generated_Source\PSoC6\pdl\drivers/peripheral/scb/cy_scb_spi.h **** /**
 489:Generated_Source\PSoC6\pdl\drivers/peripheral/scb/cy_scb_spi.h **** * \addtogroup group_scb_spi_data_structures
 490:Generated_Source\PSoC6\pdl\drivers/peripheral/scb/cy_scb_spi.h **** * \{
 491:Generated_Source\PSoC6\pdl\drivers/peripheral/scb/cy_scb_spi.h **** */
 492:Generated_Source\PSoC6\pdl\drivers/peripheral/scb/cy_scb_spi.h **** 
 493:Generated_Source\PSoC6\pdl\drivers/peripheral/scb/cy_scb_spi.h **** /**
 494:Generated_Source\PSoC6\pdl\drivers/peripheral/scb/cy_scb_spi.h **** * Provides the typedef for the callback function called in the
 495:Generated_Source\PSoC6\pdl\drivers/peripheral/scb/cy_scb_spi.h **** * \ref Cy_SCB_SPI_Interrupt to notify the user about occurrences of
 496:Generated_Source\PSoC6\pdl\drivers/peripheral/scb/cy_scb_spi.h **** * \ref group_scb_spi_macros_callback_events.
 497:Generated_Source\PSoC6\pdl\drivers/peripheral/scb/cy_scb_spi.h **** */
 498:Generated_Source\PSoC6\pdl\drivers/peripheral/scb/cy_scb_spi.h **** typedef void (* cy_cb_scb_spi_handle_events_t)(uint32_t event);
 499:Generated_Source\PSoC6\pdl\drivers/peripheral/scb/cy_scb_spi.h **** 
 500:Generated_Source\PSoC6\pdl\drivers/peripheral/scb/cy_scb_spi.h **** 
 501:Generated_Source\PSoC6\pdl\drivers/peripheral/scb/cy_scb_spi.h **** /** SPI configuration structure */
 502:Generated_Source\PSoC6\pdl\drivers/peripheral/scb/cy_scb_spi.h **** typedef struct cy_stc_scb_spi_config
 503:Generated_Source\PSoC6\pdl\drivers/peripheral/scb/cy_scb_spi.h **** {
 504:Generated_Source\PSoC6\pdl\drivers/peripheral/scb/cy_scb_spi.h ****     /** Specifies the mode of operation */
 505:Generated_Source\PSoC6\pdl\drivers/peripheral/scb/cy_scb_spi.h ****     cy_en_scb_spi_mode_t    spiMode;
 506:Generated_Source\PSoC6\pdl\drivers/peripheral/scb/cy_scb_spi.h **** 
 507:Generated_Source\PSoC6\pdl\drivers/peripheral/scb/cy_scb_spi.h ****     /** Specifies the submode of SPI operation */
 508:Generated_Source\PSoC6\pdl\drivers/peripheral/scb/cy_scb_spi.h ****     cy_en_scb_spi_sub_mode_t    subMode;
 509:Generated_Source\PSoC6\pdl\drivers/peripheral/scb/cy_scb_spi.h **** 
 510:Generated_Source\PSoC6\pdl\drivers/peripheral/scb/cy_scb_spi.h ****     /**
 511:Generated_Source\PSoC6\pdl\drivers/peripheral/scb/cy_scb_spi.h ****     * Configures the SCLK operation for Motorola sub-mode, ignored for all
 512:Generated_Source\PSoC6\pdl\drivers/peripheral/scb/cy_scb_spi.h ****     * other submodes
 513:Generated_Source\PSoC6\pdl\drivers/peripheral/scb/cy_scb_spi.h ****     */
 514:Generated_Source\PSoC6\pdl\drivers/peripheral/scb/cy_scb_spi.h ****     cy_en_scb_spi_sclk_mode_t    sclkMode;
 515:Generated_Source\PSoC6\pdl\drivers/peripheral/scb/cy_scb_spi.h **** 
ARM GAS  C:\Users\nicpa\AppData\Local\Temp\ccIFCjQH.s 			page 22


 516:Generated_Source\PSoC6\pdl\drivers/peripheral/scb/cy_scb_spi.h ****     /**
 517:Generated_Source\PSoC6\pdl\drivers/peripheral/scb/cy_scb_spi.h ****     * Oversample factor for SPI.
 518:Generated_Source\PSoC6\pdl\drivers/peripheral/scb/cy_scb_spi.h ****     * * For the master mode, the data rate is the SCB clock / oversample
 519:Generated_Source\PSoC6\pdl\drivers/peripheral/scb/cy_scb_spi.h ****     *   (the valid range is 4 to 16, when MISO is used; if MISO is not used
 520:Generated_Source\PSoC6\pdl\drivers/peripheral/scb/cy_scb_spi.h ****     *   then the valid range is 2 to 16).
 521:Generated_Source\PSoC6\pdl\drivers/peripheral/scb/cy_scb_spi.h ****     * * For the slave mode, the oversample value is ignored. The data rate is
 522:Generated_Source\PSoC6\pdl\drivers/peripheral/scb/cy_scb_spi.h ****     *   determined by the SCB clock frequency.
 523:Generated_Source\PSoC6\pdl\drivers/peripheral/scb/cy_scb_spi.h ****     */
 524:Generated_Source\PSoC6\pdl\drivers/peripheral/scb/cy_scb_spi.h ****     uint32_t    oversample;
 525:Generated_Source\PSoC6\pdl\drivers/peripheral/scb/cy_scb_spi.h **** 
 526:Generated_Source\PSoC6\pdl\drivers/peripheral/scb/cy_scb_spi.h ****     /**
 527:Generated_Source\PSoC6\pdl\drivers/peripheral/scb/cy_scb_spi.h ****     * The width of RX data (valid range 4-16). It must be the same as
 528:Generated_Source\PSoC6\pdl\drivers/peripheral/scb/cy_scb_spi.h ****     * \ref txDataWidth except in National sub-mode.
 529:Generated_Source\PSoC6\pdl\drivers/peripheral/scb/cy_scb_spi.h ****     */
 530:Generated_Source\PSoC6\pdl\drivers/peripheral/scb/cy_scb_spi.h ****     uint32_t    rxDataWidth;
 531:Generated_Source\PSoC6\pdl\drivers/peripheral/scb/cy_scb_spi.h **** 
 532:Generated_Source\PSoC6\pdl\drivers/peripheral/scb/cy_scb_spi.h ****     /**
 533:Generated_Source\PSoC6\pdl\drivers/peripheral/scb/cy_scb_spi.h ****     * The width of TX data (valid range 4-16). It must be the same as
 534:Generated_Source\PSoC6\pdl\drivers/peripheral/scb/cy_scb_spi.h ****     * \ref rxDataWidth except in National sub-mode.
 535:Generated_Source\PSoC6\pdl\drivers/peripheral/scb/cy_scb_spi.h ****     */
 536:Generated_Source\PSoC6\pdl\drivers/peripheral/scb/cy_scb_spi.h ****     uint32_t    txDataWidth;
 537:Generated_Source\PSoC6\pdl\drivers/peripheral/scb/cy_scb_spi.h **** 
 538:Generated_Source\PSoC6\pdl\drivers/peripheral/scb/cy_scb_spi.h ****     /**
 539:Generated_Source\PSoC6\pdl\drivers/peripheral/scb/cy_scb_spi.h ****     * Enables the hardware to shift out the data element MSB first, otherwise,
 540:Generated_Source\PSoC6\pdl\drivers/peripheral/scb/cy_scb_spi.h ****     * LSB first
 541:Generated_Source\PSoC6\pdl\drivers/peripheral/scb/cy_scb_spi.h ****     */
 542:Generated_Source\PSoC6\pdl\drivers/peripheral/scb/cy_scb_spi.h ****     bool        enableMsbFirst;
 543:Generated_Source\PSoC6\pdl\drivers/peripheral/scb/cy_scb_spi.h **** 
 544:Generated_Source\PSoC6\pdl\drivers/peripheral/scb/cy_scb_spi.h ****     /**
 545:Generated_Source\PSoC6\pdl\drivers/peripheral/scb/cy_scb_spi.h ****     * Enables the master to generate a continuous SCLK regardless of whether
 546:Generated_Source\PSoC6\pdl\drivers/peripheral/scb/cy_scb_spi.h ****     * there is data to send
 547:Generated_Source\PSoC6\pdl\drivers/peripheral/scb/cy_scb_spi.h ****     */
 548:Generated_Source\PSoC6\pdl\drivers/peripheral/scb/cy_scb_spi.h ****     bool        enableFreeRunSclk;
 549:Generated_Source\PSoC6\pdl\drivers/peripheral/scb/cy_scb_spi.h **** 
 550:Generated_Source\PSoC6\pdl\drivers/peripheral/scb/cy_scb_spi.h ****     /**
 551:Generated_Source\PSoC6\pdl\drivers/peripheral/scb/cy_scb_spi.h ****     * Enables a digital 3-tap median filter to be applied to the input
 552:Generated_Source\PSoC6\pdl\drivers/peripheral/scb/cy_scb_spi.h ****     * of the RX FIFO to filter glitches on the line.
 553:Generated_Source\PSoC6\pdl\drivers/peripheral/scb/cy_scb_spi.h ****     */
 554:Generated_Source\PSoC6\pdl\drivers/peripheral/scb/cy_scb_spi.h ****     bool        enableInputFilter;
 555:Generated_Source\PSoC6\pdl\drivers/peripheral/scb/cy_scb_spi.h **** 
 556:Generated_Source\PSoC6\pdl\drivers/peripheral/scb/cy_scb_spi.h ****     /**
 557:Generated_Source\PSoC6\pdl\drivers/peripheral/scb/cy_scb_spi.h ****     * Enables the master to sample MISO line one half clock later to allow
 558:Generated_Source\PSoC6\pdl\drivers/peripheral/scb/cy_scb_spi.h ****     * better timings.
 559:Generated_Source\PSoC6\pdl\drivers/peripheral/scb/cy_scb_spi.h ****     */
 560:Generated_Source\PSoC6\pdl\drivers/peripheral/scb/cy_scb_spi.h ****     bool        enableMisoLateSample;
 561:Generated_Source\PSoC6\pdl\drivers/peripheral/scb/cy_scb_spi.h **** 
 562:Generated_Source\PSoC6\pdl\drivers/peripheral/scb/cy_scb_spi.h ****     /**
 563:Generated_Source\PSoC6\pdl\drivers/peripheral/scb/cy_scb_spi.h ****     * Enables the master to transmit each data element separated by a
 564:Generated_Source\PSoC6\pdl\drivers/peripheral/scb/cy_scb_spi.h ****     * de-assertion of the slave select line (only applicable for the master
 565:Generated_Source\PSoC6\pdl\drivers/peripheral/scb/cy_scb_spi.h ****     * mode)
 566:Generated_Source\PSoC6\pdl\drivers/peripheral/scb/cy_scb_spi.h ****     */
 567:Generated_Source\PSoC6\pdl\drivers/peripheral/scb/cy_scb_spi.h ****     bool        enableTransferSeperation;
 568:Generated_Source\PSoC6\pdl\drivers/peripheral/scb/cy_scb_spi.h **** 
 569:Generated_Source\PSoC6\pdl\drivers/peripheral/scb/cy_scb_spi.h ****     /**
 570:Generated_Source\PSoC6\pdl\drivers/peripheral/scb/cy_scb_spi.h ****     * Sets active polarity of each SS line.
 571:Generated_Source\PSoC6\pdl\drivers/peripheral/scb/cy_scb_spi.h ****     * This is a bit mask: bit 0 corresponds to SS0 and so on to SS3.
 572:Generated_Source\PSoC6\pdl\drivers/peripheral/scb/cy_scb_spi.h ****     * 1 means active high, a 0 means active low.
ARM GAS  C:\Users\nicpa\AppData\Local\Temp\ccIFCjQH.s 			page 23


 573:Generated_Source\PSoC6\pdl\drivers/peripheral/scb/cy_scb_spi.h ****     */
 574:Generated_Source\PSoC6\pdl\drivers/peripheral/scb/cy_scb_spi.h ****     uint32_t    ssPolarity;
 575:Generated_Source\PSoC6\pdl\drivers/peripheral/scb/cy_scb_spi.h **** 
 576:Generated_Source\PSoC6\pdl\drivers/peripheral/scb/cy_scb_spi.h ****     /**
 577:Generated_Source\PSoC6\pdl\drivers/peripheral/scb/cy_scb_spi.h ****     * When set, the slave will wake the device when the slave select line
 578:Generated_Source\PSoC6\pdl\drivers/peripheral/scb/cy_scb_spi.h ****     * becomes active.
 579:Generated_Source\PSoC6\pdl\drivers/peripheral/scb/cy_scb_spi.h ****     * Note that not all SCBs support this mode. Consult the device
 580:Generated_Source\PSoC6\pdl\drivers/peripheral/scb/cy_scb_spi.h ****     * datasheet to determine which SCBs support wake from Deep Sleep.
 581:Generated_Source\PSoC6\pdl\drivers/peripheral/scb/cy_scb_spi.h ****     */
 582:Generated_Source\PSoC6\pdl\drivers/peripheral/scb/cy_scb_spi.h ****     bool        enableWakeFromSleep;
 583:Generated_Source\PSoC6\pdl\drivers/peripheral/scb/cy_scb_spi.h **** 
 584:Generated_Source\PSoC6\pdl\drivers/peripheral/scb/cy_scb_spi.h ****     /**
 585:Generated_Source\PSoC6\pdl\drivers/peripheral/scb/cy_scb_spi.h ****     * When there are more entries in the RX FIFO then this level
 586:Generated_Source\PSoC6\pdl\drivers/peripheral/scb/cy_scb_spi.h ****     * the RX trigger output goes high. This output can be connected
 587:Generated_Source\PSoC6\pdl\drivers/peripheral/scb/cy_scb_spi.h ****     * to a DMA channel through a trigger mux.
 588:Generated_Source\PSoC6\pdl\drivers/peripheral/scb/cy_scb_spi.h ****     * Also, it controls the \ref CY_SCB_SPI_RX_TRIGGER interrupt source.
 589:Generated_Source\PSoC6\pdl\drivers/peripheral/scb/cy_scb_spi.h ****     */
 590:Generated_Source\PSoC6\pdl\drivers/peripheral/scb/cy_scb_spi.h ****     uint32_t    rxFifoTriggerLevel;
 591:Generated_Source\PSoC6\pdl\drivers/peripheral/scb/cy_scb_spi.h **** 
 592:Generated_Source\PSoC6\pdl\drivers/peripheral/scb/cy_scb_spi.h ****     /**
 593:Generated_Source\PSoC6\pdl\drivers/peripheral/scb/cy_scb_spi.h ****     * Bits set in this mask will allow events to cause an interrupt
 594:Generated_Source\PSoC6\pdl\drivers/peripheral/scb/cy_scb_spi.h ****     * (See \ref group_scb_spi_macros_rx_fifo_status for the set of constant)
 595:Generated_Source\PSoC6\pdl\drivers/peripheral/scb/cy_scb_spi.h ****     */
 596:Generated_Source\PSoC6\pdl\drivers/peripheral/scb/cy_scb_spi.h ****     uint32_t    rxFifoIntEnableMask;
 597:Generated_Source\PSoC6\pdl\drivers/peripheral/scb/cy_scb_spi.h **** 
 598:Generated_Source\PSoC6\pdl\drivers/peripheral/scb/cy_scb_spi.h ****     /**
 599:Generated_Source\PSoC6\pdl\drivers/peripheral/scb/cy_scb_spi.h ****     * When there are fewer entries in the TX FIFO then this level
 600:Generated_Source\PSoC6\pdl\drivers/peripheral/scb/cy_scb_spi.h ****     * the TX trigger output goes high. This output can be connected
 601:Generated_Source\PSoC6\pdl\drivers/peripheral/scb/cy_scb_spi.h ****     * to a DMA channel through a trigger mux.
 602:Generated_Source\PSoC6\pdl\drivers/peripheral/scb/cy_scb_spi.h ****     * Also, it controls the \ref CY_SCB_SPI_TX_TRIGGER interrupt source.
 603:Generated_Source\PSoC6\pdl\drivers/peripheral/scb/cy_scb_spi.h ****     */
 604:Generated_Source\PSoC6\pdl\drivers/peripheral/scb/cy_scb_spi.h ****     uint32_t    txFifoTriggerLevel;
 605:Generated_Source\PSoC6\pdl\drivers/peripheral/scb/cy_scb_spi.h **** 
 606:Generated_Source\PSoC6\pdl\drivers/peripheral/scb/cy_scb_spi.h ****     /**
 607:Generated_Source\PSoC6\pdl\drivers/peripheral/scb/cy_scb_spi.h ****     * Bits set in this mask allow events to cause an interrupt
 608:Generated_Source\PSoC6\pdl\drivers/peripheral/scb/cy_scb_spi.h ****     * (See \ref group_scb_spi_macros_tx_fifo_status for the set of constants)
 609:Generated_Source\PSoC6\pdl\drivers/peripheral/scb/cy_scb_spi.h ****     */
 610:Generated_Source\PSoC6\pdl\drivers/peripheral/scb/cy_scb_spi.h ****     uint32_t    txFifoIntEnableMask;
 611:Generated_Source\PSoC6\pdl\drivers/peripheral/scb/cy_scb_spi.h **** 
 612:Generated_Source\PSoC6\pdl\drivers/peripheral/scb/cy_scb_spi.h ****     /**
 613:Generated_Source\PSoC6\pdl\drivers/peripheral/scb/cy_scb_spi.h ****     * Bits set in this mask allow events to cause an interrupt
 614:Generated_Source\PSoC6\pdl\drivers/peripheral/scb/cy_scb_spi.h ****     * (See \ref group_scb_spi_macros_master_slave_status for the set of
 615:Generated_Source\PSoC6\pdl\drivers/peripheral/scb/cy_scb_spi.h ****     * constants)
 616:Generated_Source\PSoC6\pdl\drivers/peripheral/scb/cy_scb_spi.h ****     */
 617:Generated_Source\PSoC6\pdl\drivers/peripheral/scb/cy_scb_spi.h ****     uint32_t    masterSlaveIntEnableMask;
 618:Generated_Source\PSoC6\pdl\drivers/peripheral/scb/cy_scb_spi.h **** 
 619:Generated_Source\PSoC6\pdl\drivers/peripheral/scb/cy_scb_spi.h **** }cy_stc_scb_spi_config_t;
 620:Generated_Source\PSoC6\pdl\drivers/peripheral/scb/cy_scb_spi.h **** 
 621:Generated_Source\PSoC6\pdl\drivers/peripheral/scb/cy_scb_spi.h **** /** SPI context structure.
 622:Generated_Source\PSoC6\pdl\drivers/peripheral/scb/cy_scb_spi.h **** * All fields for the context structure are internal. Firmware never reads or
 623:Generated_Source\PSoC6\pdl\drivers/peripheral/scb/cy_scb_spi.h **** * writes these values. Firmware allocates the structure and provides the
 624:Generated_Source\PSoC6\pdl\drivers/peripheral/scb/cy_scb_spi.h **** * address of the structure to the driver in function calls. Firmware must
 625:Generated_Source\PSoC6\pdl\drivers/peripheral/scb/cy_scb_spi.h **** * ensure that the defined instance of this structure remains in scope
 626:Generated_Source\PSoC6\pdl\drivers/peripheral/scb/cy_scb_spi.h **** * while the drive is in use.
 627:Generated_Source\PSoC6\pdl\drivers/peripheral/scb/cy_scb_spi.h **** */
 628:Generated_Source\PSoC6\pdl\drivers/peripheral/scb/cy_scb_spi.h **** typedef struct cy_stc_scb_spi_context
 629:Generated_Source\PSoC6\pdl\drivers/peripheral/scb/cy_scb_spi.h **** {
ARM GAS  C:\Users\nicpa\AppData\Local\Temp\ccIFCjQH.s 			page 24


 630:Generated_Source\PSoC6\pdl\drivers/peripheral/scb/cy_scb_spi.h ****     /** \cond INTERNAL */
 631:Generated_Source\PSoC6\pdl\drivers/peripheral/scb/cy_scb_spi.h ****     uint32_t volatile status;       /**< The receive status */
 632:Generated_Source\PSoC6\pdl\drivers/peripheral/scb/cy_scb_spi.h **** 
 633:Generated_Source\PSoC6\pdl\drivers/peripheral/scb/cy_scb_spi.h ****     void    *rxBuf;                 /**< The pointer to the receive buffer */
 634:Generated_Source\PSoC6\pdl\drivers/peripheral/scb/cy_scb_spi.h ****     uint32_t rxBufSize;             /**< The receive buffer size */
 635:Generated_Source\PSoC6\pdl\drivers/peripheral/scb/cy_scb_spi.h ****     uint32_t volatile rxBufIdx;     /**< The current location in the receive buffer */
 636:Generated_Source\PSoC6\pdl\drivers/peripheral/scb/cy_scb_spi.h **** 
 637:Generated_Source\PSoC6\pdl\drivers/peripheral/scb/cy_scb_spi.h ****     void    *txBuf;                 /**< The pointer to the transmit buffer */
 638:Generated_Source\PSoC6\pdl\drivers/peripheral/scb/cy_scb_spi.h ****     uint32_t txBufSize;             /**< The transmit buffer size */
 639:Generated_Source\PSoC6\pdl\drivers/peripheral/scb/cy_scb_spi.h ****     uint32_t volatile txBufIdx;     /**< The current location in the transmit buffer */
 640:Generated_Source\PSoC6\pdl\drivers/peripheral/scb/cy_scb_spi.h **** 
 641:Generated_Source\PSoC6\pdl\drivers/peripheral/scb/cy_scb_spi.h ****     /**
 642:Generated_Source\PSoC6\pdl\drivers/peripheral/scb/cy_scb_spi.h ****     * The pointer to an event callback that is called when any of
 643:Generated_Source\PSoC6\pdl\drivers/peripheral/scb/cy_scb_spi.h ****     * \ref group_scb_spi_macros_callback_events occurs
 644:Generated_Source\PSoC6\pdl\drivers/peripheral/scb/cy_scb_spi.h ****     */
 645:Generated_Source\PSoC6\pdl\drivers/peripheral/scb/cy_scb_spi.h ****     cy_cb_scb_spi_handle_events_t cbEvents;
 646:Generated_Source\PSoC6\pdl\drivers/peripheral/scb/cy_scb_spi.h **** 
 647:Generated_Source\PSoC6\pdl\drivers/peripheral/scb/cy_scb_spi.h **** #if !defined(NDEBUG)
 648:Generated_Source\PSoC6\pdl\drivers/peripheral/scb/cy_scb_spi.h ****     uint32_t initKey;               /**< Tracks the context initialization */
 649:Generated_Source\PSoC6\pdl\drivers/peripheral/scb/cy_scb_spi.h **** #endif /* !(NDEBUG) */
 650:Generated_Source\PSoC6\pdl\drivers/peripheral/scb/cy_scb_spi.h ****     /** \endcond */
 651:Generated_Source\PSoC6\pdl\drivers/peripheral/scb/cy_scb_spi.h **** } cy_stc_scb_spi_context_t;
 652:Generated_Source\PSoC6\pdl\drivers/peripheral/scb/cy_scb_spi.h **** 
 653:Generated_Source\PSoC6\pdl\drivers/peripheral/scb/cy_scb_spi.h **** /** \} group_scb_spi_data_structures */
 654:Generated_Source\PSoC6\pdl\drivers/peripheral/scb/cy_scb_spi.h **** 
 655:Generated_Source\PSoC6\pdl\drivers/peripheral/scb/cy_scb_spi.h **** 
 656:Generated_Source\PSoC6\pdl\drivers/peripheral/scb/cy_scb_spi.h **** /*******************************************************************************
 657:Generated_Source\PSoC6\pdl\drivers/peripheral/scb/cy_scb_spi.h **** *                          Function Prototypes
 658:Generated_Source\PSoC6\pdl\drivers/peripheral/scb/cy_scb_spi.h **** *******************************************************************************/
 659:Generated_Source\PSoC6\pdl\drivers/peripheral/scb/cy_scb_spi.h **** 
 660:Generated_Source\PSoC6\pdl\drivers/peripheral/scb/cy_scb_spi.h **** /**
 661:Generated_Source\PSoC6\pdl\drivers/peripheral/scb/cy_scb_spi.h **** * \addtogroup group_scb_spi_general_functions
 662:Generated_Source\PSoC6\pdl\drivers/peripheral/scb/cy_scb_spi.h **** * \{
 663:Generated_Source\PSoC6\pdl\drivers/peripheral/scb/cy_scb_spi.h **** */
 664:Generated_Source\PSoC6\pdl\drivers/peripheral/scb/cy_scb_spi.h **** cy_en_scb_spi_status_t Cy_SCB_SPI_Init(CySCB_Type *base, cy_stc_scb_spi_config_t const *config,
 665:Generated_Source\PSoC6\pdl\drivers/peripheral/scb/cy_scb_spi.h ****                                        cy_stc_scb_spi_context_t *context);
 666:Generated_Source\PSoC6\pdl\drivers/peripheral/scb/cy_scb_spi.h **** void Cy_SCB_SPI_DeInit (CySCB_Type *base);
 667:Generated_Source\PSoC6\pdl\drivers/peripheral/scb/cy_scb_spi.h **** __STATIC_INLINE void Cy_SCB_SPI_Enable(CySCB_Type *base);
 668:Generated_Source\PSoC6\pdl\drivers/peripheral/scb/cy_scb_spi.h **** void Cy_SCB_SPI_Disable(CySCB_Type *base, cy_stc_scb_spi_context_t *context);
 669:Generated_Source\PSoC6\pdl\drivers/peripheral/scb/cy_scb_spi.h **** 
 670:Generated_Source\PSoC6\pdl\drivers/peripheral/scb/cy_scb_spi.h **** __STATIC_INLINE void Cy_SCB_SPI_SetActiveSlaveSelect(CySCB_Type *base,
 671:Generated_Source\PSoC6\pdl\drivers/peripheral/scb/cy_scb_spi.h ****                                     cy_en_scb_spi_slave_select_t slaveSelect);
 672:Generated_Source\PSoC6\pdl\drivers/peripheral/scb/cy_scb_spi.h **** __STATIC_INLINE void Cy_SCB_SPI_SetActiveSlaveSelectPolarity(CySCB_Type *base,
 673:Generated_Source\PSoC6\pdl\drivers/peripheral/scb/cy_scb_spi.h ****                                     cy_en_scb_spi_slave_select_t slaveSelect,
 674:Generated_Source\PSoC6\pdl\drivers/peripheral/scb/cy_scb_spi.h ****                                     cy_en_scb_spi_polarity_t polarity);
 675:Generated_Source\PSoC6\pdl\drivers/peripheral/scb/cy_scb_spi.h **** 
 676:Generated_Source\PSoC6\pdl\drivers/peripheral/scb/cy_scb_spi.h **** __STATIC_INLINE bool Cy_SCB_SPI_IsBusBusy(CySCB_Type const *base);
 677:Generated_Source\PSoC6\pdl\drivers/peripheral/scb/cy_scb_spi.h **** /** \} group_scb_spi_general_functions */
 678:Generated_Source\PSoC6\pdl\drivers/peripheral/scb/cy_scb_spi.h **** 
 679:Generated_Source\PSoC6\pdl\drivers/peripheral/scb/cy_scb_spi.h **** /**
 680:Generated_Source\PSoC6\pdl\drivers/peripheral/scb/cy_scb_spi.h **** * \addtogroup group_scb_spi_high_level_functions
 681:Generated_Source\PSoC6\pdl\drivers/peripheral/scb/cy_scb_spi.h **** * \{
 682:Generated_Source\PSoC6\pdl\drivers/peripheral/scb/cy_scb_spi.h **** */
 683:Generated_Source\PSoC6\pdl\drivers/peripheral/scb/cy_scb_spi.h **** cy_en_scb_spi_status_t Cy_SCB_SPI_Transfer(CySCB_Type *base, void *txBuffer, void *rxBuffer, uint32
 684:Generated_Source\PSoC6\pdl\drivers/peripheral/scb/cy_scb_spi.h ****                                            cy_stc_scb_spi_context_t *context);
 685:Generated_Source\PSoC6\pdl\drivers/peripheral/scb/cy_scb_spi.h **** void     Cy_SCB_SPI_AbortTransfer    (CySCB_Type *base, cy_stc_scb_spi_context_t *context);
 686:Generated_Source\PSoC6\pdl\drivers/peripheral/scb/cy_scb_spi.h **** uint32_t Cy_SCB_SPI_GetTransferStatus(CySCB_Type const *base, cy_stc_scb_spi_context_t const *conte
ARM GAS  C:\Users\nicpa\AppData\Local\Temp\ccIFCjQH.s 			page 25


 687:Generated_Source\PSoC6\pdl\drivers/peripheral/scb/cy_scb_spi.h **** uint32_t Cy_SCB_SPI_GetNumTransfered (CySCB_Type const *base, cy_stc_scb_spi_context_t const *conte
 688:Generated_Source\PSoC6\pdl\drivers/peripheral/scb/cy_scb_spi.h **** /** \} group_scb_spi_high_level_functions */
 689:Generated_Source\PSoC6\pdl\drivers/peripheral/scb/cy_scb_spi.h **** 
 690:Generated_Source\PSoC6\pdl\drivers/peripheral/scb/cy_scb_spi.h **** /**
 691:Generated_Source\PSoC6\pdl\drivers/peripheral/scb/cy_scb_spi.h **** * \addtogroup group_scb_spi_low_level_functions
 692:Generated_Source\PSoC6\pdl\drivers/peripheral/scb/cy_scb_spi.h **** * \{
 693:Generated_Source\PSoC6\pdl\drivers/peripheral/scb/cy_scb_spi.h **** */
 694:Generated_Source\PSoC6\pdl\drivers/peripheral/scb/cy_scb_spi.h **** __STATIC_INLINE uint32_t Cy_SCB_SPI_Read     (CySCB_Type const *base);
 695:Generated_Source\PSoC6\pdl\drivers/peripheral/scb/cy_scb_spi.h **** __STATIC_INLINE uint32_t Cy_SCB_SPI_ReadArray(CySCB_Type const *base, void *buffer, uint32_t size);
 696:Generated_Source\PSoC6\pdl\drivers/peripheral/scb/cy_scb_spi.h **** 
 697:Generated_Source\PSoC6\pdl\drivers/peripheral/scb/cy_scb_spi.h **** __STATIC_INLINE uint32_t Cy_SCB_SPI_Write     (CySCB_Type *base, uint32_t data);
 698:Generated_Source\PSoC6\pdl\drivers/peripheral/scb/cy_scb_spi.h **** __STATIC_INLINE uint32_t Cy_SCB_SPI_WriteArray(CySCB_Type *base, void *buffer, uint32_t size);
 699:Generated_Source\PSoC6\pdl\drivers/peripheral/scb/cy_scb_spi.h **** __STATIC_INLINE void     Cy_SCB_SPI_WriteArrayBlocking(CySCB_Type *base, void *buffer, uint32_t siz
 700:Generated_Source\PSoC6\pdl\drivers/peripheral/scb/cy_scb_spi.h **** 
 701:Generated_Source\PSoC6\pdl\drivers/peripheral/scb/cy_scb_spi.h **** __STATIC_INLINE uint32_t Cy_SCB_SPI_GetTxFifoStatus  (CySCB_Type const *base);
 702:Generated_Source\PSoC6\pdl\drivers/peripheral/scb/cy_scb_spi.h **** __STATIC_INLINE void     Cy_SCB_SPI_ClearTxFifoStatus(CySCB_Type *base, uint32_t clearMask);
 703:Generated_Source\PSoC6\pdl\drivers/peripheral/scb/cy_scb_spi.h **** 
 704:Generated_Source\PSoC6\pdl\drivers/peripheral/scb/cy_scb_spi.h **** __STATIC_INLINE uint32_t Cy_SCB_SPI_GetRxFifoStatus  (CySCB_Type const *base);
 705:Generated_Source\PSoC6\pdl\drivers/peripheral/scb/cy_scb_spi.h **** __STATIC_INLINE void     Cy_SCB_SPI_ClearRxFifoStatus(CySCB_Type *base, uint32_t clearMask);
 706:Generated_Source\PSoC6\pdl\drivers/peripheral/scb/cy_scb_spi.h **** 
 707:Generated_Source\PSoC6\pdl\drivers/peripheral/scb/cy_scb_spi.h **** __STATIC_INLINE uint32_t Cy_SCB_SPI_GetSlaveMasterStatus  (CySCB_Type const *base);
 708:Generated_Source\PSoC6\pdl\drivers/peripheral/scb/cy_scb_spi.h **** __STATIC_INLINE void     Cy_SCB_SPI_ClearSlaveMasterStatus(CySCB_Type *base, uint32_t clearMask);
 709:Generated_Source\PSoC6\pdl\drivers/peripheral/scb/cy_scb_spi.h **** 
 710:Generated_Source\PSoC6\pdl\drivers/peripheral/scb/cy_scb_spi.h **** __STATIC_INLINE uint32_t Cy_SCB_SPI_GetNumInTxFifo(CySCB_Type const *base);
 711:Generated_Source\PSoC6\pdl\drivers/peripheral/scb/cy_scb_spi.h **** __STATIC_INLINE bool     Cy_SCB_SPI_IsTxComplete  (CySCB_Type const *base);
 712:Generated_Source\PSoC6\pdl\drivers/peripheral/scb/cy_scb_spi.h **** 
 713:Generated_Source\PSoC6\pdl\drivers/peripheral/scb/cy_scb_spi.h **** __STATIC_INLINE uint32_t Cy_SCB_SPI_GetNumInRxFifo(CySCB_Type const *base);
 714:Generated_Source\PSoC6\pdl\drivers/peripheral/scb/cy_scb_spi.h **** 
 715:Generated_Source\PSoC6\pdl\drivers/peripheral/scb/cy_scb_spi.h **** __STATIC_INLINE void Cy_SCB_SPI_ClearRxFifo(CySCB_Type *base);
 716:Generated_Source\PSoC6\pdl\drivers/peripheral/scb/cy_scb_spi.h **** __STATIC_INLINE void Cy_SCB_SPI_ClearTxFifo(CySCB_Type *base);
 717:Generated_Source\PSoC6\pdl\drivers/peripheral/scb/cy_scb_spi.h **** /** \} group_scb_spi_low_level_functions */
 718:Generated_Source\PSoC6\pdl\drivers/peripheral/scb/cy_scb_spi.h **** 
 719:Generated_Source\PSoC6\pdl\drivers/peripheral/scb/cy_scb_spi.h **** /**
 720:Generated_Source\PSoC6\pdl\drivers/peripheral/scb/cy_scb_spi.h **** * \addtogroup group_scb_spi_interrupt_functions
 721:Generated_Source\PSoC6\pdl\drivers/peripheral/scb/cy_scb_spi.h **** * \{
 722:Generated_Source\PSoC6\pdl\drivers/peripheral/scb/cy_scb_spi.h **** */
 723:Generated_Source\PSoC6\pdl\drivers/peripheral/scb/cy_scb_spi.h **** void Cy_SCB_SPI_Interrupt(CySCB_Type *base, cy_stc_scb_spi_context_t *context);
 724:Generated_Source\PSoC6\pdl\drivers/peripheral/scb/cy_scb_spi.h **** 
 725:Generated_Source\PSoC6\pdl\drivers/peripheral/scb/cy_scb_spi.h **** __STATIC_INLINE void Cy_SCB_SPI_RegisterCallback(CySCB_Type const *base, cy_cb_scb_spi_handle_event
 726:Generated_Source\PSoC6\pdl\drivers/peripheral/scb/cy_scb_spi.h ****                                                  cy_stc_scb_spi_context_t *context);
 727:Generated_Source\PSoC6\pdl\drivers/peripheral/scb/cy_scb_spi.h **** /** \} group_scb_spi_interrupt_functions */
 728:Generated_Source\PSoC6\pdl\drivers/peripheral/scb/cy_scb_spi.h **** 
 729:Generated_Source\PSoC6\pdl\drivers/peripheral/scb/cy_scb_spi.h **** /**
 730:Generated_Source\PSoC6\pdl\drivers/peripheral/scb/cy_scb_spi.h **** * \addtogroup group_scb_spi_low_power_functions
 731:Generated_Source\PSoC6\pdl\drivers/peripheral/scb/cy_scb_spi.h **** * \{
 732:Generated_Source\PSoC6\pdl\drivers/peripheral/scb/cy_scb_spi.h **** */
 733:Generated_Source\PSoC6\pdl\drivers/peripheral/scb/cy_scb_spi.h **** cy_en_syspm_status_t Cy_SCB_SPI_DeepSleepCallback(cy_stc_syspm_callback_params_t *callbackParams, c
 734:Generated_Source\PSoC6\pdl\drivers/peripheral/scb/cy_scb_spi.h **** cy_en_syspm_status_t Cy_SCB_SPI_HibernateCallback(cy_stc_syspm_callback_params_t *callbackParams, c
 735:Generated_Source\PSoC6\pdl\drivers/peripheral/scb/cy_scb_spi.h **** /** \} group_scb_spi_low_power_functions */
 736:Generated_Source\PSoC6\pdl\drivers/peripheral/scb/cy_scb_spi.h **** 
 737:Generated_Source\PSoC6\pdl\drivers/peripheral/scb/cy_scb_spi.h **** 
 738:Generated_Source\PSoC6\pdl\drivers/peripheral/scb/cy_scb_spi.h **** /*******************************************************************************
 739:Generated_Source\PSoC6\pdl\drivers/peripheral/scb/cy_scb_spi.h **** *                               API Constants
 740:Generated_Source\PSoC6\pdl\drivers/peripheral/scb/cy_scb_spi.h **** *******************************************************************************/
 741:Generated_Source\PSoC6\pdl\drivers/peripheral/scb/cy_scb_spi.h **** 
 742:Generated_Source\PSoC6\pdl\drivers/peripheral/scb/cy_scb_spi.h **** /**
 743:Generated_Source\PSoC6\pdl\drivers/peripheral/scb/cy_scb_spi.h **** * \addtogroup group_scb_spi_macros
ARM GAS  C:\Users\nicpa\AppData\Local\Temp\ccIFCjQH.s 			page 26


 744:Generated_Source\PSoC6\pdl\drivers/peripheral/scb/cy_scb_spi.h **** * \{
 745:Generated_Source\PSoC6\pdl\drivers/peripheral/scb/cy_scb_spi.h **** */
 746:Generated_Source\PSoC6\pdl\drivers/peripheral/scb/cy_scb_spi.h **** 
 747:Generated_Source\PSoC6\pdl\drivers/peripheral/scb/cy_scb_spi.h **** /**
 748:Generated_Source\PSoC6\pdl\drivers/peripheral/scb/cy_scb_spi.h **** * \defgroup group_scb_spi_macros_tx_fifo_status SPI TX FIFO Statuses
 749:Generated_Source\PSoC6\pdl\drivers/peripheral/scb/cy_scb_spi.h **** * Macros to check SPI TX FIFO status returned by \ref Cy_SCB_SPI_GetTxFifoStatus
 750:Generated_Source\PSoC6\pdl\drivers/peripheral/scb/cy_scb_spi.h **** * function or assign mask for \ref Cy_SCB_SPI_ClearTxFifoStatus function.
 751:Generated_Source\PSoC6\pdl\drivers/peripheral/scb/cy_scb_spi.h **** * Each SPI TX FIFO status is encoded in a separate bit, therefore multiple bits
 752:Generated_Source\PSoC6\pdl\drivers/peripheral/scb/cy_scb_spi.h **** * may be set to indicate the current status.
 753:Generated_Source\PSoC6\pdl\drivers/peripheral/scb/cy_scb_spi.h **** * \{
 754:Generated_Source\PSoC6\pdl\drivers/peripheral/scb/cy_scb_spi.h **** */
 755:Generated_Source\PSoC6\pdl\drivers/peripheral/scb/cy_scb_spi.h **** /** The number of entries in the TX FIFO is less than the TX FIFO trigger level
 756:Generated_Source\PSoC6\pdl\drivers/peripheral/scb/cy_scb_spi.h **** * value
 757:Generated_Source\PSoC6\pdl\drivers/peripheral/scb/cy_scb_spi.h **** */
 758:Generated_Source\PSoC6\pdl\drivers/peripheral/scb/cy_scb_spi.h **** #define CY_SCB_SPI_TX_TRIGGER       (SCB_INTR_TX_TRIGGER_Msk)
 759:Generated_Source\PSoC6\pdl\drivers/peripheral/scb/cy_scb_spi.h **** 
 760:Generated_Source\PSoC6\pdl\drivers/peripheral/scb/cy_scb_spi.h **** /** The TX FIFO is not full, there is a space for more data */
 761:Generated_Source\PSoC6\pdl\drivers/peripheral/scb/cy_scb_spi.h **** #define CY_SCB_SPI_TX_NOT_FULL      (SCB_INTR_TX_NOT_FULL_Msk)
 762:Generated_Source\PSoC6\pdl\drivers/peripheral/scb/cy_scb_spi.h **** 
 763:Generated_Source\PSoC6\pdl\drivers/peripheral/scb/cy_scb_spi.h **** /**
 764:Generated_Source\PSoC6\pdl\drivers/peripheral/scb/cy_scb_spi.h **** * The TX FIFO is empty, note that there may still be data in the shift register.
 765:Generated_Source\PSoC6\pdl\drivers/peripheral/scb/cy_scb_spi.h **** */
 766:Generated_Source\PSoC6\pdl\drivers/peripheral/scb/cy_scb_spi.h **** #define CY_SCB_SPI_TX_EMPTY         (SCB_INTR_TX_EMPTY_Msk)
 767:Generated_Source\PSoC6\pdl\drivers/peripheral/scb/cy_scb_spi.h **** 
 768:Generated_Source\PSoC6\pdl\drivers/peripheral/scb/cy_scb_spi.h **** /** An attempt to write to the full TX FIFO */
 769:Generated_Source\PSoC6\pdl\drivers/peripheral/scb/cy_scb_spi.h **** #define CY_SCB_SPI_TX_OVERFLOW      (SCB_INTR_TX_OVERFLOW_Msk)
 770:Generated_Source\PSoC6\pdl\drivers/peripheral/scb/cy_scb_spi.h **** 
 771:Generated_Source\PSoC6\pdl\drivers/peripheral/scb/cy_scb_spi.h **** /**
 772:Generated_Source\PSoC6\pdl\drivers/peripheral/scb/cy_scb_spi.h **** * Applicable only for the slave mode. The master tried to read more
 773:Generated_Source\PSoC6\pdl\drivers/peripheral/scb/cy_scb_spi.h **** * data elements than available.
 774:Generated_Source\PSoC6\pdl\drivers/peripheral/scb/cy_scb_spi.h **** */
 775:Generated_Source\PSoC6\pdl\drivers/peripheral/scb/cy_scb_spi.h **** #define CY_SCB_SPI_TX_UNDERFLOW     (SCB_INTR_TX_UNDERFLOW_Msk)
 776:Generated_Source\PSoC6\pdl\drivers/peripheral/scb/cy_scb_spi.h **** /** \} group_scb_spi_macros_tx_fifo_status */
 777:Generated_Source\PSoC6\pdl\drivers/peripheral/scb/cy_scb_spi.h **** 
 778:Generated_Source\PSoC6\pdl\drivers/peripheral/scb/cy_scb_spi.h **** /**
 779:Generated_Source\PSoC6\pdl\drivers/peripheral/scb/cy_scb_spi.h **** * \defgroup group_scb_spi_macros_rx_fifo_status SPI RX FIFO Statuses
 780:Generated_Source\PSoC6\pdl\drivers/peripheral/scb/cy_scb_spi.h **** * \{
 781:Generated_Source\PSoC6\pdl\drivers/peripheral/scb/cy_scb_spi.h **** * Macros to check SPI RX FIFO status returned by \ref Cy_SCB_SPI_GetRxFifoStatus
 782:Generated_Source\PSoC6\pdl\drivers/peripheral/scb/cy_scb_spi.h **** * function or assign mask for \ref Cy_SCB_SPI_ClearRxFifoStatus function.
 783:Generated_Source\PSoC6\pdl\drivers/peripheral/scb/cy_scb_spi.h **** * Each SPI RX FIFO status is encoded in a separate bit, therefore multiple
 784:Generated_Source\PSoC6\pdl\drivers/peripheral/scb/cy_scb_spi.h **** * bits may be set to indicate the current status.
 785:Generated_Source\PSoC6\pdl\drivers/peripheral/scb/cy_scb_spi.h **** */
 786:Generated_Source\PSoC6\pdl\drivers/peripheral/scb/cy_scb_spi.h **** /** The number of entries in the RX FIFO is more than the RX FIFO trigger
 787:Generated_Source\PSoC6\pdl\drivers/peripheral/scb/cy_scb_spi.h **** * level value.
 788:Generated_Source\PSoC6\pdl\drivers/peripheral/scb/cy_scb_spi.h **** */
 789:Generated_Source\PSoC6\pdl\drivers/peripheral/scb/cy_scb_spi.h **** #define CY_SCB_SPI_RX_TRIGGER       (SCB_INTR_RX_TRIGGER_Msk)
 790:Generated_Source\PSoC6\pdl\drivers/peripheral/scb/cy_scb_spi.h **** 
 791:Generated_Source\PSoC6\pdl\drivers/peripheral/scb/cy_scb_spi.h **** /** The RX FIFO is not empty, there is data to read */
 792:Generated_Source\PSoC6\pdl\drivers/peripheral/scb/cy_scb_spi.h **** #define CY_SCB_SPI_RX_NOT_EMPTY     (SCB_INTR_RX_NOT_EMPTY_Msk)
 793:Generated_Source\PSoC6\pdl\drivers/peripheral/scb/cy_scb_spi.h **** 
 794:Generated_Source\PSoC6\pdl\drivers/peripheral/scb/cy_scb_spi.h **** /**
 795:Generated_Source\PSoC6\pdl\drivers/peripheral/scb/cy_scb_spi.h **** * The RX FIFO is full. There is no more space for additional data.
 796:Generated_Source\PSoC6\pdl\drivers/peripheral/scb/cy_scb_spi.h **** * Any additional data will be dropped.
 797:Generated_Source\PSoC6\pdl\drivers/peripheral/scb/cy_scb_spi.h **** */
 798:Generated_Source\PSoC6\pdl\drivers/peripheral/scb/cy_scb_spi.h **** #define CY_SCB_SPI_RX_FULL          (SCB_INTR_RX_FULL_Msk)
 799:Generated_Source\PSoC6\pdl\drivers/peripheral/scb/cy_scb_spi.h **** 
 800:Generated_Source\PSoC6\pdl\drivers/peripheral/scb/cy_scb_spi.h **** /**
ARM GAS  C:\Users\nicpa\AppData\Local\Temp\ccIFCjQH.s 			page 27


 801:Generated_Source\PSoC6\pdl\drivers/peripheral/scb/cy_scb_spi.h **** * The RX FIFO was full and there was an attempt to write to it.
 802:Generated_Source\PSoC6\pdl\drivers/peripheral/scb/cy_scb_spi.h **** * This additional data was dropped.
 803:Generated_Source\PSoC6\pdl\drivers/peripheral/scb/cy_scb_spi.h **** */
 804:Generated_Source\PSoC6\pdl\drivers/peripheral/scb/cy_scb_spi.h **** #define CY_SCB_SPI_RX_OVERFLOW      (SCB_INTR_RX_OVERFLOW_Msk)
 805:Generated_Source\PSoC6\pdl\drivers/peripheral/scb/cy_scb_spi.h **** 
 806:Generated_Source\PSoC6\pdl\drivers/peripheral/scb/cy_scb_spi.h **** /** An attempt to read from an empty RX FIFO */
 807:Generated_Source\PSoC6\pdl\drivers/peripheral/scb/cy_scb_spi.h **** #define CY_SCB_SPI_RX_UNDERFLOW     (SCB_INTR_RX_UNDERFLOW_Msk)
 808:Generated_Source\PSoC6\pdl\drivers/peripheral/scb/cy_scb_spi.h **** /** \} group_scb_spi_macros_rx_fifo_status */
 809:Generated_Source\PSoC6\pdl\drivers/peripheral/scb/cy_scb_spi.h **** 
 810:Generated_Source\PSoC6\pdl\drivers/peripheral/scb/cy_scb_spi.h **** /**
 811:Generated_Source\PSoC6\pdl\drivers/peripheral/scb/cy_scb_spi.h **** * \defgroup group_scb_spi_macros_master_slave_status SPI Master and Slave Statuses
 812:Generated_Source\PSoC6\pdl\drivers/peripheral/scb/cy_scb_spi.h **** * \{
 813:Generated_Source\PSoC6\pdl\drivers/peripheral/scb/cy_scb_spi.h **** * Macros to check SPI Mater and Slave status returned by \ref Cy_SCB_SPI_GetSlaveMasterStatus
 814:Generated_Source\PSoC6\pdl\drivers/peripheral/scb/cy_scb_spi.h **** * function or assign mask for \ref Cy_SCB_SPI_ClearSlaveMasterStatus function.
 815:Generated_Source\PSoC6\pdl\drivers/peripheral/scb/cy_scb_spi.h **** */
 816:Generated_Source\PSoC6\pdl\drivers/peripheral/scb/cy_scb_spi.h **** /** The slave was deselected at the wrong time */
 817:Generated_Source\PSoC6\pdl\drivers/peripheral/scb/cy_scb_spi.h **** #define CY_SCB_SPI_SLAVE_ERR       (SCB_INTR_S_SPI_BUS_ERROR_Msk)
 818:Generated_Source\PSoC6\pdl\drivers/peripheral/scb/cy_scb_spi.h **** 
 819:Generated_Source\PSoC6\pdl\drivers/peripheral/scb/cy_scb_spi.h **** /** The master has transmitted all data elements from FIFO and shifter */
 820:Generated_Source\PSoC6\pdl\drivers/peripheral/scb/cy_scb_spi.h **** #define CY_SCB_SPI_MASTER_DONE     (SCB_INTR_M_SPI_DONE_Msk)
 821:Generated_Source\PSoC6\pdl\drivers/peripheral/scb/cy_scb_spi.h **** /** \} group_scb_spi_macros_master_slave_status */
 822:Generated_Source\PSoC6\pdl\drivers/peripheral/scb/cy_scb_spi.h **** 
 823:Generated_Source\PSoC6\pdl\drivers/peripheral/scb/cy_scb_spi.h **** /**
 824:Generated_Source\PSoC6\pdl\drivers/peripheral/scb/cy_scb_spi.h **** * \defgroup group_scb_spi_macros_xfer_status SPI Transfer Status
 825:Generated_Source\PSoC6\pdl\drivers/peripheral/scb/cy_scb_spi.h **** * \{
 826:Generated_Source\PSoC6\pdl\drivers/peripheral/scb/cy_scb_spi.h **** * Macros to check current SPI transfer status returned by 
 827:Generated_Source\PSoC6\pdl\drivers/peripheral/scb/cy_scb_spi.h **** * \ref Cy_SCB_SPI_GetTransferStatus function. 
 828:Generated_Source\PSoC6\pdl\drivers/peripheral/scb/cy_scb_spi.h **** * Each SPI transfer status is encoded in a separate bit, therefore multiple bits
 829:Generated_Source\PSoC6\pdl\drivers/peripheral/scb/cy_scb_spi.h **** * may be set to indicate the current status.
 830:Generated_Source\PSoC6\pdl\drivers/peripheral/scb/cy_scb_spi.h **** */
 831:Generated_Source\PSoC6\pdl\drivers/peripheral/scb/cy_scb_spi.h **** /**
 832:Generated_Source\PSoC6\pdl\drivers/peripheral/scb/cy_scb_spi.h **** * Transfer operation started by \ref Cy_SCB_SPI_Transfer is in progress
 833:Generated_Source\PSoC6\pdl\drivers/peripheral/scb/cy_scb_spi.h **** */
 834:Generated_Source\PSoC6\pdl\drivers/peripheral/scb/cy_scb_spi.h **** #define CY_SCB_SPI_TRANSFER_ACTIVE     (0x01UL)
 835:Generated_Source\PSoC6\pdl\drivers/peripheral/scb/cy_scb_spi.h **** 
 836:Generated_Source\PSoC6\pdl\drivers/peripheral/scb/cy_scb_spi.h **** /**
 837:Generated_Source\PSoC6\pdl\drivers/peripheral/scb/cy_scb_spi.h **** * All data elements specified by \ref Cy_SCB_SPI_Transfer for transmission
 838:Generated_Source\PSoC6\pdl\drivers/peripheral/scb/cy_scb_spi.h **** * have been loaded into the TX FIFO
 839:Generated_Source\PSoC6\pdl\drivers/peripheral/scb/cy_scb_spi.h **** */
 840:Generated_Source\PSoC6\pdl\drivers/peripheral/scb/cy_scb_spi.h **** #define CY_SCB_SPI_TRANSFER_IN_FIFO    (0x02UL)
 841:Generated_Source\PSoC6\pdl\drivers/peripheral/scb/cy_scb_spi.h **** 
 842:Generated_Source\PSoC6\pdl\drivers/peripheral/scb/cy_scb_spi.h **** /** The slave was deselected at the wrong time. */
 843:Generated_Source\PSoC6\pdl\drivers/peripheral/scb/cy_scb_spi.h **** #define CY_SCB_SPI_SLAVE_TRANSFER_ERR  (SCB_INTR_S_SPI_BUS_ERROR_Msk)
 844:Generated_Source\PSoC6\pdl\drivers/peripheral/scb/cy_scb_spi.h **** 
 845:Generated_Source\PSoC6\pdl\drivers/peripheral/scb/cy_scb_spi.h **** /**
 846:Generated_Source\PSoC6\pdl\drivers/peripheral/scb/cy_scb_spi.h **** * RX FIFO was full and there was an attempt to write to it.
 847:Generated_Source\PSoC6\pdl\drivers/peripheral/scb/cy_scb_spi.h **** * This additional data was dropped.
 848:Generated_Source\PSoC6\pdl\drivers/peripheral/scb/cy_scb_spi.h **** */
 849:Generated_Source\PSoC6\pdl\drivers/peripheral/scb/cy_scb_spi.h **** #define CY_SCB_SPI_TRANSFER_OVERFLOW   (SCB_INTR_RX_OVERFLOW_Msk)
 850:Generated_Source\PSoC6\pdl\drivers/peripheral/scb/cy_scb_spi.h **** 
 851:Generated_Source\PSoC6\pdl\drivers/peripheral/scb/cy_scb_spi.h **** /**
 852:Generated_Source\PSoC6\pdl\drivers/peripheral/scb/cy_scb_spi.h **** * Applicable only for the slave mode. The master tried to read more
 853:Generated_Source\PSoC6\pdl\drivers/peripheral/scb/cy_scb_spi.h **** * data elements than available in the TX FIFO.
 854:Generated_Source\PSoC6\pdl\drivers/peripheral/scb/cy_scb_spi.h **** */
 855:Generated_Source\PSoC6\pdl\drivers/peripheral/scb/cy_scb_spi.h **** #define CY_SCB_SPI_TRANSFER_UNDERFLOW  (SCB_INTR_TX_UNDERFLOW_Msk)
 856:Generated_Source\PSoC6\pdl\drivers/peripheral/scb/cy_scb_spi.h **** /** \} group_scb_spi_macros_xfer_status */
 857:Generated_Source\PSoC6\pdl\drivers/peripheral/scb/cy_scb_spi.h **** 
ARM GAS  C:\Users\nicpa\AppData\Local\Temp\ccIFCjQH.s 			page 28


 858:Generated_Source\PSoC6\pdl\drivers/peripheral/scb/cy_scb_spi.h **** /**
 859:Generated_Source\PSoC6\pdl\drivers/peripheral/scb/cy_scb_spi.h **** * \defgroup group_scb_spi_macros_callback_events SPI Callback Events
 860:Generated_Source\PSoC6\pdl\drivers/peripheral/scb/cy_scb_spi.h **** * \{
 861:Generated_Source\PSoC6\pdl\drivers/peripheral/scb/cy_scb_spi.h **** * Macros to check SPI events passed by \ref cy_cb_scb_spi_handle_events_t callback.
 862:Generated_Source\PSoC6\pdl\drivers/peripheral/scb/cy_scb_spi.h **** * Note that only single event is notified by the callback when it is called.
 863:Generated_Source\PSoC6\pdl\drivers/peripheral/scb/cy_scb_spi.h **** */
 864:Generated_Source\PSoC6\pdl\drivers/peripheral/scb/cy_scb_spi.h **** /**
 865:Generated_Source\PSoC6\pdl\drivers/peripheral/scb/cy_scb_spi.h **** * All data elements specified by \ref Cy_SCB_SPI_Transfer for transmission
 866:Generated_Source\PSoC6\pdl\drivers/peripheral/scb/cy_scb_spi.h **** * have been loaded into the TX FIFO
 867:Generated_Source\PSoC6\pdl\drivers/peripheral/scb/cy_scb_spi.h **** */
 868:Generated_Source\PSoC6\pdl\drivers/peripheral/scb/cy_scb_spi.h **** #define CY_SCB_SPI_TRANSFER_IN_FIFO_EVENT  (0x01U)
 869:Generated_Source\PSoC6\pdl\drivers/peripheral/scb/cy_scb_spi.h **** 
 870:Generated_Source\PSoC6\pdl\drivers/peripheral/scb/cy_scb_spi.h **** /** The transfer operation started by \ref Cy_SCB_SPI_Transfer is complete */
 871:Generated_Source\PSoC6\pdl\drivers/peripheral/scb/cy_scb_spi.h **** #define CY_SCB_SPI_TRANSFER_CMPLT_EVENT    (0x02U)
 872:Generated_Source\PSoC6\pdl\drivers/peripheral/scb/cy_scb_spi.h **** 
 873:Generated_Source\PSoC6\pdl\drivers/peripheral/scb/cy_scb_spi.h **** /**
 874:Generated_Source\PSoC6\pdl\drivers/peripheral/scb/cy_scb_spi.h **** * An error occurred during the transfer. This includes overflow, underflow
 875:Generated_Source\PSoC6\pdl\drivers/peripheral/scb/cy_scb_spi.h **** * and a transfer error. Check \ref Cy_SCB_SPI_GetTransferStatus.
 876:Generated_Source\PSoC6\pdl\drivers/peripheral/scb/cy_scb_spi.h **** */
 877:Generated_Source\PSoC6\pdl\drivers/peripheral/scb/cy_scb_spi.h **** #define CY_SCB_SPI_TRANSFER_ERR_EVENT      (0x04U)
 878:Generated_Source\PSoC6\pdl\drivers/peripheral/scb/cy_scb_spi.h **** /** \} group_scb_spi_macros_callback_events */
 879:Generated_Source\PSoC6\pdl\drivers/peripheral/scb/cy_scb_spi.h **** 
 880:Generated_Source\PSoC6\pdl\drivers/peripheral/scb/cy_scb_spi.h **** 
 881:Generated_Source\PSoC6\pdl\drivers/peripheral/scb/cy_scb_spi.h **** /** Default TX value when no TX buffer is defined */
 882:Generated_Source\PSoC6\pdl\drivers/peripheral/scb/cy_scb_spi.h **** #define CY_SCB_SPI_DEFAULT_TX  (0x0000FFFFUL)
 883:Generated_Source\PSoC6\pdl\drivers/peripheral/scb/cy_scb_spi.h **** 
 884:Generated_Source\PSoC6\pdl\drivers/peripheral/scb/cy_scb_spi.h **** /** Data returned by the hardware when an empty RX FIFO is read */
 885:Generated_Source\PSoC6\pdl\drivers/peripheral/scb/cy_scb_spi.h **** #define CY_SCB_SPI_RX_NO_DATA  (0xFFFFFFFFUL)
 886:Generated_Source\PSoC6\pdl\drivers/peripheral/scb/cy_scb_spi.h **** 
 887:Generated_Source\PSoC6\pdl\drivers/peripheral/scb/cy_scb_spi.h **** 
 888:Generated_Source\PSoC6\pdl\drivers/peripheral/scb/cy_scb_spi.h **** /*******************************************************************************
 889:Generated_Source\PSoC6\pdl\drivers/peripheral/scb/cy_scb_spi.h **** *                          Internal Constants
 890:Generated_Source\PSoC6\pdl\drivers/peripheral/scb/cy_scb_spi.h **** *******************************************************************************/
 891:Generated_Source\PSoC6\pdl\drivers/peripheral/scb/cy_scb_spi.h **** 
 892:Generated_Source\PSoC6\pdl\drivers/peripheral/scb/cy_scb_spi.h **** /** \cond INTERNAL */
 893:Generated_Source\PSoC6\pdl\drivers/peripheral/scb/cy_scb_spi.h **** #define CY_SCB_SPI_RX_INTR_MASK  (CY_SCB_SPI_RX_TRIGGER  | CY_SCB_SPI_RX_NOT_EMPTY | CY_SCB_SPI_RX_
 894:Generated_Source\PSoC6\pdl\drivers/peripheral/scb/cy_scb_spi.h ****                                   CY_SCB_SPI_RX_OVERFLOW | CY_SCB_SPI_RX_UNDERFLOW)
 895:Generated_Source\PSoC6\pdl\drivers/peripheral/scb/cy_scb_spi.h **** 
 896:Generated_Source\PSoC6\pdl\drivers/peripheral/scb/cy_scb_spi.h **** #define CY_SCB_SPI_TX_INTR_MASK  (CY_SCB_SPI_TX_TRIGGER  | CY_SCB_SPI_TX_NOT_FULL | CY_SCB_SPI_TX_E
 897:Generated_Source\PSoC6\pdl\drivers/peripheral/scb/cy_scb_spi.h ****                                   CY_SCB_SPI_TX_OVERFLOW | CY_SCB_SPI_TX_UNDERFLOW)
 898:Generated_Source\PSoC6\pdl\drivers/peripheral/scb/cy_scb_spi.h **** 
 899:Generated_Source\PSoC6\pdl\drivers/peripheral/scb/cy_scb_spi.h **** #define CY_SCB_SPI_MASTER_SLAVE_INTR_MASK (CY_SCB_SPI_MASTER_DONE | CY_SCB_SPI_SLAVE_ERR)
 900:Generated_Source\PSoC6\pdl\drivers/peripheral/scb/cy_scb_spi.h **** 
 901:Generated_Source\PSoC6\pdl\drivers/peripheral/scb/cy_scb_spi.h **** #define CY_SCB_SPI_TRANSFER_ERR    (CY_SCB_SPI_SLAVE_TRANSFER_ERR | CY_SCB_SPI_TRANSFER_OVERFLOW | 
 902:Generated_Source\PSoC6\pdl\drivers/peripheral/scb/cy_scb_spi.h ****                                     CY_SCB_SPI_TRANSFER_UNDERFLOW)
 903:Generated_Source\PSoC6\pdl\drivers/peripheral/scb/cy_scb_spi.h **** 
 904:Generated_Source\PSoC6\pdl\drivers/peripheral/scb/cy_scb_spi.h **** #define CY_SCB_SPI_INIT_KEY        (0x00ABCDEFUL)
 905:Generated_Source\PSoC6\pdl\drivers/peripheral/scb/cy_scb_spi.h **** 
 906:Generated_Source\PSoC6\pdl\drivers/peripheral/scb/cy_scb_spi.h **** #define CY_SCB_SPI_IS_MODE_VALID(mode)          ( (CY_SCB_SPI_SLAVE  == (mode)) || \
 907:Generated_Source\PSoC6\pdl\drivers/peripheral/scb/cy_scb_spi.h ****                                                   (CY_SCB_SPI_MASTER == (mode)) )
 908:Generated_Source\PSoC6\pdl\drivers/peripheral/scb/cy_scb_spi.h **** 
 909:Generated_Source\PSoC6\pdl\drivers/peripheral/scb/cy_scb_spi.h **** #define CY_SCB_SPI_IS_SUB_MODE_VALID(subMode)   ( (CY_SCB_SPI_MOTOROLA     == (subMode)) || \
 910:Generated_Source\PSoC6\pdl\drivers/peripheral/scb/cy_scb_spi.h ****                                                   (CY_SCB_SPI_TI_COINCIDES == (subMode)) || \
 911:Generated_Source\PSoC6\pdl\drivers/peripheral/scb/cy_scb_spi.h ****                                                   (CY_SCB_SPI_TI_PRECEDES  == (subMode)) || \
 912:Generated_Source\PSoC6\pdl\drivers/peripheral/scb/cy_scb_spi.h ****                                                   (CY_SCB_SPI_NATIONAL     == (subMode)) )
 913:Generated_Source\PSoC6\pdl\drivers/peripheral/scb/cy_scb_spi.h **** 
 914:Generated_Source\PSoC6\pdl\drivers/peripheral/scb/cy_scb_spi.h **** #define CY_SCB_SPI_IS_SCLK_MODE_VALID(clkMode)  ( (CY_SCB_SPI_CPHA0_CPOL0 == (clkMode)) || \
ARM GAS  C:\Users\nicpa\AppData\Local\Temp\ccIFCjQH.s 			page 29


 915:Generated_Source\PSoC6\pdl\drivers/peripheral/scb/cy_scb_spi.h ****                                                   (CY_SCB_SPI_CPHA0_CPOL1 == (clkMode)) || \
 916:Generated_Source\PSoC6\pdl\drivers/peripheral/scb/cy_scb_spi.h ****                                                   (CY_SCB_SPI_CPHA1_CPOL0 == (clkMode)) || \
 917:Generated_Source\PSoC6\pdl\drivers/peripheral/scb/cy_scb_spi.h ****                                                   (CY_SCB_SPI_CPHA1_CPOL1 == (clkMode)) )
 918:Generated_Source\PSoC6\pdl\drivers/peripheral/scb/cy_scb_spi.h **** 
 919:Generated_Source\PSoC6\pdl\drivers/peripheral/scb/cy_scb_spi.h **** #define CY_SCB_SPI_IS_POLARITY_VALID(polarity)  ( (CY_SCB_SPI_ACTIVE_LOW  == (polarity)) || \
 920:Generated_Source\PSoC6\pdl\drivers/peripheral/scb/cy_scb_spi.h ****                                                   (CY_SCB_SPI_ACTIVE_HIGH == (polarity)) )
 921:Generated_Source\PSoC6\pdl\drivers/peripheral/scb/cy_scb_spi.h **** 
 922:Generated_Source\PSoC6\pdl\drivers/peripheral/scb/cy_scb_spi.h **** #define CY_SCB_SPI_IS_SLAVE_SEL_VALID(ss)       ( (CY_SCB_SPI_SLAVE_SELECT0 == (ss)) || \
 923:Generated_Source\PSoC6\pdl\drivers/peripheral/scb/cy_scb_spi.h ****                                                   (CY_SCB_SPI_SLAVE_SELECT1 == (ss)) || \
 924:Generated_Source\PSoC6\pdl\drivers/peripheral/scb/cy_scb_spi.h ****                                                   (CY_SCB_SPI_SLAVE_SELECT2 == (ss)) || \
 925:Generated_Source\PSoC6\pdl\drivers/peripheral/scb/cy_scb_spi.h ****                                                   (CY_SCB_SPI_SLAVE_SELECT3 == (ss)) )
 926:Generated_Source\PSoC6\pdl\drivers/peripheral/scb/cy_scb_spi.h **** 
 927:Generated_Source\PSoC6\pdl\drivers/peripheral/scb/cy_scb_spi.h **** #define CY_SCB_SPI_IS_OVERSAMPLE_VALID(ovs, mode)   ( (CY_SCB_SPI_MASTER == (mode)) ? (((ovs) >= 2U
 928:Generated_Source\PSoC6\pdl\drivers/peripheral/scb/cy_scb_spi.h **** #define CY_SCB_SPI_IS_DATA_WIDTH_VALID(width)       ( ((width) >= 4UL) && ((width) <= 16UL) )
 929:Generated_Source\PSoC6\pdl\drivers/peripheral/scb/cy_scb_spi.h **** #define CY_SCB_SPI_IS_SS_POLARITY_VALID(polarity)   ( (0UL == ((polarity) & (~0x0FUL))) )
 930:Generated_Source\PSoC6\pdl\drivers/peripheral/scb/cy_scb_spi.h **** #define CY_SCB_SPI_IS_BUFFER_VALID(txBuffer, rxBuffer, size)  ( ((size) > 0UL)  && \
 931:Generated_Source\PSoC6\pdl\drivers/peripheral/scb/cy_scb_spi.h ****                                                                  (false == ((NULL == (txBuffer)) &&
 932:Generated_Source\PSoC6\pdl\drivers/peripheral/scb/cy_scb_spi.h **** 
 933:Generated_Source\PSoC6\pdl\drivers/peripheral/scb/cy_scb_spi.h **** #define CY_SCB_SPI_IS_BOTH_DATA_WIDTH_VALID(subMode, rxWidth, txWidth)  ( (CY_SCB_SPI_NATIONAL != (
 934:Generated_Source\PSoC6\pdl\drivers/peripheral/scb/cy_scb_spi.h ****                                                                                     ((rxWidth) == (
 935:Generated_Source\PSoC6\pdl\drivers/peripheral/scb/cy_scb_spi.h **** 
 936:Generated_Source\PSoC6\pdl\drivers/peripheral/scb/cy_scb_spi.h **** /** \endcond */
 937:Generated_Source\PSoC6\pdl\drivers/peripheral/scb/cy_scb_spi.h **** 
 938:Generated_Source\PSoC6\pdl\drivers/peripheral/scb/cy_scb_spi.h **** /** \} group_scb_spi_macros */
 939:Generated_Source\PSoC6\pdl\drivers/peripheral/scb/cy_scb_spi.h **** 
 940:Generated_Source\PSoC6\pdl\drivers/peripheral/scb/cy_scb_spi.h **** 
 941:Generated_Source\PSoC6\pdl\drivers/peripheral/scb/cy_scb_spi.h **** /*******************************************************************************
 942:Generated_Source\PSoC6\pdl\drivers/peripheral/scb/cy_scb_spi.h **** *                     In-line Function Implementation
 943:Generated_Source\PSoC6\pdl\drivers/peripheral/scb/cy_scb_spi.h **** *******************************************************************************/
 944:Generated_Source\PSoC6\pdl\drivers/peripheral/scb/cy_scb_spi.h **** 
 945:Generated_Source\PSoC6\pdl\drivers/peripheral/scb/cy_scb_spi.h **** /**
 946:Generated_Source\PSoC6\pdl\drivers/peripheral/scb/cy_scb_spi.h **** * \addtogroup group_scb_spi_general_functions
 947:Generated_Source\PSoC6\pdl\drivers/peripheral/scb/cy_scb_spi.h **** * \{
 948:Generated_Source\PSoC6\pdl\drivers/peripheral/scb/cy_scb_spi.h **** */
 949:Generated_Source\PSoC6\pdl\drivers/peripheral/scb/cy_scb_spi.h **** 
 950:Generated_Source\PSoC6\pdl\drivers/peripheral/scb/cy_scb_spi.h **** /*******************************************************************************
 951:Generated_Source\PSoC6\pdl\drivers/peripheral/scb/cy_scb_spi.h **** * Function Name: Cy_SCB_SPI_Enable
 952:Generated_Source\PSoC6\pdl\drivers/peripheral/scb/cy_scb_spi.h **** ****************************************************************************//**
 953:Generated_Source\PSoC6\pdl\drivers/peripheral/scb/cy_scb_spi.h **** *
 954:Generated_Source\PSoC6\pdl\drivers/peripheral/scb/cy_scb_spi.h **** * Enables the SCB block for the SPI operation.
 955:Generated_Source\PSoC6\pdl\drivers/peripheral/scb/cy_scb_spi.h **** *
 956:Generated_Source\PSoC6\pdl\drivers/peripheral/scb/cy_scb_spi.h **** * \param base
 957:Generated_Source\PSoC6\pdl\drivers/peripheral/scb/cy_scb_spi.h **** * The pointer to the SPI SCB instance.
 958:Generated_Source\PSoC6\pdl\drivers/peripheral/scb/cy_scb_spi.h **** *
 959:Generated_Source\PSoC6\pdl\drivers/peripheral/scb/cy_scb_spi.h **** *******************************************************************************/
 960:Generated_Source\PSoC6\pdl\drivers/peripheral/scb/cy_scb_spi.h **** __STATIC_INLINE void Cy_SCB_SPI_Enable(CySCB_Type *base)
 961:Generated_Source\PSoC6\pdl\drivers/peripheral/scb/cy_scb_spi.h **** {
 962:Generated_Source\PSoC6\pdl\drivers/peripheral/scb/cy_scb_spi.h ****     SCB_CTRL(base) |= SCB_CTRL_ENABLED_Msk;
 963:Generated_Source\PSoC6\pdl\drivers/peripheral/scb/cy_scb_spi.h **** }
 964:Generated_Source\PSoC6\pdl\drivers/peripheral/scb/cy_scb_spi.h **** 
 965:Generated_Source\PSoC6\pdl\drivers/peripheral/scb/cy_scb_spi.h **** 
 966:Generated_Source\PSoC6\pdl\drivers/peripheral/scb/cy_scb_spi.h **** /*******************************************************************************
 967:Generated_Source\PSoC6\pdl\drivers/peripheral/scb/cy_scb_spi.h **** * Function Name: Cy_SCB_SPI_IsBusBusy
 968:Generated_Source\PSoC6\pdl\drivers/peripheral/scb/cy_scb_spi.h **** ****************************************************************************//**
 969:Generated_Source\PSoC6\pdl\drivers/peripheral/scb/cy_scb_spi.h **** *
 970:Generated_Source\PSoC6\pdl\drivers/peripheral/scb/cy_scb_spi.h **** * Returns whether the SPI bus is busy or not. The bus busy is determined using
 971:Generated_Source\PSoC6\pdl\drivers/peripheral/scb/cy_scb_spi.h **** * the slave select signal.
ARM GAS  C:\Users\nicpa\AppData\Local\Temp\ccIFCjQH.s 			page 30


 972:Generated_Source\PSoC6\pdl\drivers/peripheral/scb/cy_scb_spi.h **** * * Motorola and National Semiconductor sub-modes: the bus is busy after the
 973:Generated_Source\PSoC6\pdl\drivers/peripheral/scb/cy_scb_spi.h **** *   slave select line is activated and lasts until the slave select line is
 974:Generated_Source\PSoC6\pdl\drivers/peripheral/scb/cy_scb_spi.h **** *   deactivated.
 975:Generated_Source\PSoC6\pdl\drivers/peripheral/scb/cy_scb_spi.h **** * * Texas Instrument sub-modes: The bus is busy the moment of the initial
 976:Generated_Source\PSoC6\pdl\drivers/peripheral/scb/cy_scb_spi.h **** *   pulse on the slave select line and lasts until the transfer is complete 
 977:Generated_Source\PSoC6\pdl\drivers/peripheral/scb/cy_scb_spi.h **** *   (all bytes from the TX FIFO area shifted-out on the bus).
 978:Generated_Source\PSoC6\pdl\drivers/peripheral/scb/cy_scb_spi.h **** *
 979:Generated_Source\PSoC6\pdl\drivers/peripheral/scb/cy_scb_spi.h **** * \param base
 980:Generated_Source\PSoC6\pdl\drivers/peripheral/scb/cy_scb_spi.h **** * The pointer to the SPI SCB instance.
 981:Generated_Source\PSoC6\pdl\drivers/peripheral/scb/cy_scb_spi.h **** *
 982:Generated_Source\PSoC6\pdl\drivers/peripheral/scb/cy_scb_spi.h **** * \return
 983:Generated_Source\PSoC6\pdl\drivers/peripheral/scb/cy_scb_spi.h **** * True - the bus is busy; false - the bus is idle.
 984:Generated_Source\PSoC6\pdl\drivers/peripheral/scb/cy_scb_spi.h **** *
 985:Generated_Source\PSoC6\pdl\drivers/peripheral/scb/cy_scb_spi.h **** * \note
 986:Generated_Source\PSoC6\pdl\drivers/peripheral/scb/cy_scb_spi.h **** * * The SPI master does not assign the slave select line immediately after
 987:Generated_Source\PSoC6\pdl\drivers/peripheral/scb/cy_scb_spi.h **** *   the first data element is written into the TX FIFO. It takes up to two SCLK
 988:Generated_Source\PSoC6\pdl\drivers/peripheral/scb/cy_scb_spi.h **** *   clocks to assign the slave select line. Before this happens, the bus
 989:Generated_Source\PSoC6\pdl\drivers/peripheral/scb/cy_scb_spi.h **** *   is considered idle.
 990:Generated_Source\PSoC6\pdl\drivers/peripheral/scb/cy_scb_spi.h **** * * If the SPI master is configured to transmit each data element separated by 
 991:Generated_Source\PSoC6\pdl\drivers/peripheral/scb/cy_scb_spi.h **** *   a de-assertion of the slave select line, the bus is busy during each element
 992:Generated_Source\PSoC6\pdl\drivers/peripheral/scb/cy_scb_spi.h **** *   transfer and is free between them.
 993:Generated_Source\PSoC6\pdl\drivers/peripheral/scb/cy_scb_spi.h **** *
 994:Generated_Source\PSoC6\pdl\drivers/peripheral/scb/cy_scb_spi.h **** *******************************************************************************/
 995:Generated_Source\PSoC6\pdl\drivers/peripheral/scb/cy_scb_spi.h **** __STATIC_INLINE bool Cy_SCB_SPI_IsBusBusy(CySCB_Type const *base)
 996:Generated_Source\PSoC6\pdl\drivers/peripheral/scb/cy_scb_spi.h **** {
 997:Generated_Source\PSoC6\pdl\drivers/peripheral/scb/cy_scb_spi.h ****     return _FLD2BOOL(SCB_SPI_STATUS_BUS_BUSY, SCB_SPI_STATUS(base));
 998:Generated_Source\PSoC6\pdl\drivers/peripheral/scb/cy_scb_spi.h **** }
 999:Generated_Source\PSoC6\pdl\drivers/peripheral/scb/cy_scb_spi.h **** 
1000:Generated_Source\PSoC6\pdl\drivers/peripheral/scb/cy_scb_spi.h **** 
1001:Generated_Source\PSoC6\pdl\drivers/peripheral/scb/cy_scb_spi.h **** /*******************************************************************************
1002:Generated_Source\PSoC6\pdl\drivers/peripheral/scb/cy_scb_spi.h **** * Function Name: Cy_SCB_SPI_SetActiveSlaveSelect
1003:Generated_Source\PSoC6\pdl\drivers/peripheral/scb/cy_scb_spi.h **** ****************************************************************************//**
1004:Generated_Source\PSoC6\pdl\drivers/peripheral/scb/cy_scb_spi.h **** *
1005:Generated_Source\PSoC6\pdl\drivers/peripheral/scb/cy_scb_spi.h **** * Selects an active slave select line from one of four available.
1006:Generated_Source\PSoC6\pdl\drivers/peripheral/scb/cy_scb_spi.h **** * This function is applicable for the master and slave.
1007:Generated_Source\PSoC6\pdl\drivers/peripheral/scb/cy_scb_spi.h **** *
1008:Generated_Source\PSoC6\pdl\drivers/peripheral/scb/cy_scb_spi.h **** * \param base
1009:Generated_Source\PSoC6\pdl\drivers/peripheral/scb/cy_scb_spi.h **** * The pointer to the SPI SCB instance.
1010:Generated_Source\PSoC6\pdl\drivers/peripheral/scb/cy_scb_spi.h **** *
1011:Generated_Source\PSoC6\pdl\drivers/peripheral/scb/cy_scb_spi.h **** * \param slaveSelect
1012:Generated_Source\PSoC6\pdl\drivers/peripheral/scb/cy_scb_spi.h **** * The slave select line number.
1013:Generated_Source\PSoC6\pdl\drivers/peripheral/scb/cy_scb_spi.h **** * See \ref cy_en_scb_spi_slave_select_t for the set of constants.
1014:Generated_Source\PSoC6\pdl\drivers/peripheral/scb/cy_scb_spi.h **** *
1015:Generated_Source\PSoC6\pdl\drivers/peripheral/scb/cy_scb_spi.h **** * \note
1016:Generated_Source\PSoC6\pdl\drivers/peripheral/scb/cy_scb_spi.h **** * The SCB must be idle or disabled before calling this function.
1017:Generated_Source\PSoC6\pdl\drivers/peripheral/scb/cy_scb_spi.h **** *
1018:Generated_Source\PSoC6\pdl\drivers/peripheral/scb/cy_scb_spi.h **** *******************************************************************************/
1019:Generated_Source\PSoC6\pdl\drivers/peripheral/scb/cy_scb_spi.h **** __STATIC_INLINE void Cy_SCB_SPI_SetActiveSlaveSelect(CySCB_Type *base, cy_en_scb_spi_slave_select_t
1020:Generated_Source\PSoC6\pdl\drivers/peripheral/scb/cy_scb_spi.h **** {
1021:Generated_Source\PSoC6\pdl\drivers/peripheral/scb/cy_scb_spi.h ****     CY_ASSERT_L3(CY_SCB_SPI_IS_SLAVE_SEL_VALID(slaveSelect));
1022:Generated_Source\PSoC6\pdl\drivers/peripheral/scb/cy_scb_spi.h **** 
1023:Generated_Source\PSoC6\pdl\drivers/peripheral/scb/cy_scb_spi.h ****     CY_REG32_CLR_SET(SCB_SPI_CTRL(base), SCB_SPI_CTRL_SSEL, (uint32_t) slaveSelect);
  81              		.loc 3 1023 0
  82 0014 236A     		ldr	r3, [r4, #32]
  83 0016 23F04063 		bic	r3, r3, #201326592
  84 001a 2362     		str	r3, [r4, #32]
  85              	.LVL2:
ARM GAS  C:\Users\nicpa\AppData\Local\Temp\ccIFCjQH.s 			page 31


  86              	.LBE9:
  87              	.LBE8:
 104:Generated_Source\PSoC6/CY_EINK_SPIM.c **** 
 105:Generated_Source\PSoC6/CY_EINK_SPIM.c ****         /* Set active slave select to line 0 */
 106:Generated_Source\PSoC6/CY_EINK_SPIM.c ****         Cy_SCB_SPI_SetActiveSlaveSelect(CY_EINK_SPIM_HW, CY_EINK_SPIM_SPI_SLAVE_SELECT0);
 107:Generated_Source\PSoC6/CY_EINK_SPIM.c **** 
 108:Generated_Source\PSoC6/CY_EINK_SPIM.c ****         /* Hook interrupt service routine */
 109:Generated_Source\PSoC6/CY_EINK_SPIM.c ****     #if defined(CY_EINK_SPIM_SCB_IRQ__INTC_ASSIGNED)
 110:Generated_Source\PSoC6/CY_EINK_SPIM.c ****         (void) Cy_SysInt_Init(&CY_EINK_SPIM_SCB_IRQ_cfg, &CY_EINK_SPIM_Interrupt);
  88              		.loc 2 110 0
  89 001c 1149     		ldr	r1, .L9+16
  90 001e 1248     		ldr	r0, .L9+20
  91 0020 FFF7FEFF 		bl	Cy_SysInt_Init
  92              	.LVL3:
 111:Generated_Source\PSoC6/CY_EINK_SPIM.c ****     #endif /* (CY_EINK_SPIM_SCB_IRQ__INTC_ASSIGNED) */
 112:Generated_Source\PSoC6/CY_EINK_SPIM.c **** 
 113:Generated_Source\PSoC6/CY_EINK_SPIM.c ****         /* Component is configured */
 114:Generated_Source\PSoC6/CY_EINK_SPIM.c ****         CY_EINK_SPIM_initVar = 1U;
  93              		.loc 2 114 0
  94 0024 0122     		movs	r2, #1
  95 0026 0B4B     		ldr	r3, .L9
  96 0028 1A70     		strb	r2, [r3]
  97              	.L6:
 115:Generated_Source\PSoC6/CY_EINK_SPIM.c ****     }
 116:Generated_Source\PSoC6/CY_EINK_SPIM.c **** 
 117:Generated_Source\PSoC6/CY_EINK_SPIM.c ****     /* Enable interrupt in NVIC */
 118:Generated_Source\PSoC6/CY_EINK_SPIM.c **** #if defined(CY_EINK_SPIM_SCB_IRQ__INTC_ASSIGNED)
 119:Generated_Source\PSoC6/CY_EINK_SPIM.c ****     NVIC_EnableIRQ((IRQn_Type) CY_EINK_SPIM_SCB_IRQ_cfg.intrSrc);
  98              		.loc 2 119 0
  99 002a 0F4B     		ldr	r3, .L9+20
 100 002c B3F90030 		ldrsh	r3, [r3]
 101              	.LVL4:
 102              	.LBB10:
 103              	.LBB11:
 104              		.file 4 ".\\CMSIS\\Core\\Include/core_cm4.h"
   1:.\CMSIS\Core\Include/core_cm4.h **** /**************************************************************************//**
   2:.\CMSIS\Core\Include/core_cm4.h ****  * @file     core_cm4.h
   3:.\CMSIS\Core\Include/core_cm4.h ****  * @brief    CMSIS Cortex-M4 Core Peripheral Access Layer Header File
   4:.\CMSIS\Core\Include/core_cm4.h ****  * @version  V5.0.7
   5:.\CMSIS\Core\Include/core_cm4.h ****  * @date     28. May 2018
   6:.\CMSIS\Core\Include/core_cm4.h ****  ******************************************************************************/
   7:.\CMSIS\Core\Include/core_cm4.h **** /*
   8:.\CMSIS\Core\Include/core_cm4.h ****  * Copyright (c) 2009-2017 ARM Limited. All rights reserved.
   9:.\CMSIS\Core\Include/core_cm4.h ****  *
  10:.\CMSIS\Core\Include/core_cm4.h ****  * SPDX-License-Identifier: Apache-2.0
  11:.\CMSIS\Core\Include/core_cm4.h ****  *
  12:.\CMSIS\Core\Include/core_cm4.h ****  * Licensed under the Apache License, Version 2.0 (the License); you may
  13:.\CMSIS\Core\Include/core_cm4.h ****  * not use this file except in compliance with the License.
  14:.\CMSIS\Core\Include/core_cm4.h ****  * You may obtain a copy of the License at
  15:.\CMSIS\Core\Include/core_cm4.h ****  *
  16:.\CMSIS\Core\Include/core_cm4.h ****  * www.apache.org/licenses/LICENSE-2.0
  17:.\CMSIS\Core\Include/core_cm4.h ****  *
  18:.\CMSIS\Core\Include/core_cm4.h ****  * Unless required by applicable law or agreed to in writing, software
  19:.\CMSIS\Core\Include/core_cm4.h ****  * distributed under the License is distributed on an AS IS BASIS, WITHOUT
  20:.\CMSIS\Core\Include/core_cm4.h ****  * WARRANTIES OR CONDITIONS OF ANY KIND, either express or implied.
  21:.\CMSIS\Core\Include/core_cm4.h ****  * See the License for the specific language governing permissions and
  22:.\CMSIS\Core\Include/core_cm4.h ****  * limitations under the License.
ARM GAS  C:\Users\nicpa\AppData\Local\Temp\ccIFCjQH.s 			page 32


  23:.\CMSIS\Core\Include/core_cm4.h ****  */
  24:.\CMSIS\Core\Include/core_cm4.h **** 
  25:.\CMSIS\Core\Include/core_cm4.h **** #if   defined ( __ICCARM__ )
  26:.\CMSIS\Core\Include/core_cm4.h ****   #pragma system_include         /* treat file as system include file for MISRA check */
  27:.\CMSIS\Core\Include/core_cm4.h **** #elif defined (__clang__)
  28:.\CMSIS\Core\Include/core_cm4.h ****   #pragma clang system_header   /* treat file as system include file */
  29:.\CMSIS\Core\Include/core_cm4.h **** #endif
  30:.\CMSIS\Core\Include/core_cm4.h **** 
  31:.\CMSIS\Core\Include/core_cm4.h **** #ifndef __CORE_CM4_H_GENERIC
  32:.\CMSIS\Core\Include/core_cm4.h **** #define __CORE_CM4_H_GENERIC
  33:.\CMSIS\Core\Include/core_cm4.h **** 
  34:.\CMSIS\Core\Include/core_cm4.h **** #include <stdint.h>
  35:.\CMSIS\Core\Include/core_cm4.h **** 
  36:.\CMSIS\Core\Include/core_cm4.h **** #ifdef __cplusplus
  37:.\CMSIS\Core\Include/core_cm4.h ****  extern "C" {
  38:.\CMSIS\Core\Include/core_cm4.h **** #endif
  39:.\CMSIS\Core\Include/core_cm4.h **** 
  40:.\CMSIS\Core\Include/core_cm4.h **** /**
  41:.\CMSIS\Core\Include/core_cm4.h ****   \page CMSIS_MISRA_Exceptions  MISRA-C:2004 Compliance Exceptions
  42:.\CMSIS\Core\Include/core_cm4.h ****   CMSIS violates the following MISRA-C:2004 rules:
  43:.\CMSIS\Core\Include/core_cm4.h **** 
  44:.\CMSIS\Core\Include/core_cm4.h ****    \li Required Rule 8.5, object/function definition in header file.<br>
  45:.\CMSIS\Core\Include/core_cm4.h ****      Function definitions in header files are used to allow 'inlining'.
  46:.\CMSIS\Core\Include/core_cm4.h **** 
  47:.\CMSIS\Core\Include/core_cm4.h ****    \li Required Rule 18.4, declaration of union type or object of union type: '{...}'.<br>
  48:.\CMSIS\Core\Include/core_cm4.h ****      Unions are used for effective representation of core registers.
  49:.\CMSIS\Core\Include/core_cm4.h **** 
  50:.\CMSIS\Core\Include/core_cm4.h ****    \li Advisory Rule 19.7, Function-like macro defined.<br>
  51:.\CMSIS\Core\Include/core_cm4.h ****      Function-like macros are used to allow more efficient code.
  52:.\CMSIS\Core\Include/core_cm4.h ****  */
  53:.\CMSIS\Core\Include/core_cm4.h **** 
  54:.\CMSIS\Core\Include/core_cm4.h **** 
  55:.\CMSIS\Core\Include/core_cm4.h **** /*******************************************************************************
  56:.\CMSIS\Core\Include/core_cm4.h ****  *                 CMSIS definitions
  57:.\CMSIS\Core\Include/core_cm4.h ****  ******************************************************************************/
  58:.\CMSIS\Core\Include/core_cm4.h **** /**
  59:.\CMSIS\Core\Include/core_cm4.h ****   \ingroup Cortex_M4
  60:.\CMSIS\Core\Include/core_cm4.h ****   @{
  61:.\CMSIS\Core\Include/core_cm4.h ****  */
  62:.\CMSIS\Core\Include/core_cm4.h **** 
  63:.\CMSIS\Core\Include/core_cm4.h **** #include "cmsis_version.h"
  64:.\CMSIS\Core\Include/core_cm4.h ****  
  65:.\CMSIS\Core\Include/core_cm4.h **** /* CMSIS CM4 definitions */
  66:.\CMSIS\Core\Include/core_cm4.h **** #define __CM4_CMSIS_VERSION_MAIN  (__CM_CMSIS_VERSION_MAIN)              /*!< \deprecated [31:16] C
  67:.\CMSIS\Core\Include/core_cm4.h **** #define __CM4_CMSIS_VERSION_SUB   (__CM_CMSIS_VERSION_SUB)               /*!< \deprecated [15:0]  C
  68:.\CMSIS\Core\Include/core_cm4.h **** #define __CM4_CMSIS_VERSION       ((__CM4_CMSIS_VERSION_MAIN << 16U) | \
  69:.\CMSIS\Core\Include/core_cm4.h ****                                     __CM4_CMSIS_VERSION_SUB           )  /*!< \deprecated CMSIS HAL
  70:.\CMSIS\Core\Include/core_cm4.h **** 
  71:.\CMSIS\Core\Include/core_cm4.h **** #define __CORTEX_M                (4U)                                   /*!< Cortex-M Core */
  72:.\CMSIS\Core\Include/core_cm4.h **** 
  73:.\CMSIS\Core\Include/core_cm4.h **** /** __FPU_USED indicates whether an FPU is used or not.
  74:.\CMSIS\Core\Include/core_cm4.h ****     For this, __FPU_PRESENT has to be checked prior to making use of FPU specific registers and fun
  75:.\CMSIS\Core\Include/core_cm4.h **** */
  76:.\CMSIS\Core\Include/core_cm4.h **** #if defined ( __CC_ARM )
  77:.\CMSIS\Core\Include/core_cm4.h ****   #if defined __TARGET_FPU_VFP
  78:.\CMSIS\Core\Include/core_cm4.h ****     #if defined (__FPU_PRESENT) && (__FPU_PRESENT == 1U)
  79:.\CMSIS\Core\Include/core_cm4.h ****       #define __FPU_USED       1U
ARM GAS  C:\Users\nicpa\AppData\Local\Temp\ccIFCjQH.s 			page 33


  80:.\CMSIS\Core\Include/core_cm4.h ****     #else
  81:.\CMSIS\Core\Include/core_cm4.h ****       #error "Compiler generates FPU instructions for a device without an FPU (check __FPU_PRESENT)
  82:.\CMSIS\Core\Include/core_cm4.h ****       #define __FPU_USED       0U
  83:.\CMSIS\Core\Include/core_cm4.h ****     #endif
  84:.\CMSIS\Core\Include/core_cm4.h ****   #else
  85:.\CMSIS\Core\Include/core_cm4.h ****     #define __FPU_USED         0U
  86:.\CMSIS\Core\Include/core_cm4.h ****   #endif
  87:.\CMSIS\Core\Include/core_cm4.h **** 
  88:.\CMSIS\Core\Include/core_cm4.h **** #elif defined (__ARMCC_VERSION) && (__ARMCC_VERSION >= 6010050)
  89:.\CMSIS\Core\Include/core_cm4.h ****   #if defined __ARM_PCS_VFP
  90:.\CMSIS\Core\Include/core_cm4.h ****     #if defined (__FPU_PRESENT) && (__FPU_PRESENT == 1U)
  91:.\CMSIS\Core\Include/core_cm4.h ****       #define __FPU_USED       1U
  92:.\CMSIS\Core\Include/core_cm4.h ****     #else
  93:.\CMSIS\Core\Include/core_cm4.h ****       #warning "Compiler generates FPU instructions for a device without an FPU (check __FPU_PRESEN
  94:.\CMSIS\Core\Include/core_cm4.h ****       #define __FPU_USED       0U
  95:.\CMSIS\Core\Include/core_cm4.h ****     #endif
  96:.\CMSIS\Core\Include/core_cm4.h ****   #else
  97:.\CMSIS\Core\Include/core_cm4.h ****     #define __FPU_USED         0U
  98:.\CMSIS\Core\Include/core_cm4.h ****   #endif
  99:.\CMSIS\Core\Include/core_cm4.h **** 
 100:.\CMSIS\Core\Include/core_cm4.h **** #elif defined ( __GNUC__ )
 101:.\CMSIS\Core\Include/core_cm4.h ****   #if defined (__VFP_FP__) && !defined(__SOFTFP__)
 102:.\CMSIS\Core\Include/core_cm4.h ****     #if defined (__FPU_PRESENT) && (__FPU_PRESENT == 1U)
 103:.\CMSIS\Core\Include/core_cm4.h ****       #define __FPU_USED       1U
 104:.\CMSIS\Core\Include/core_cm4.h ****     #else
 105:.\CMSIS\Core\Include/core_cm4.h ****       #error "Compiler generates FPU instructions for a device without an FPU (check __FPU_PRESENT)
 106:.\CMSIS\Core\Include/core_cm4.h ****       #define __FPU_USED       0U
 107:.\CMSIS\Core\Include/core_cm4.h ****     #endif
 108:.\CMSIS\Core\Include/core_cm4.h ****   #else
 109:.\CMSIS\Core\Include/core_cm4.h ****     #define __FPU_USED         0U
 110:.\CMSIS\Core\Include/core_cm4.h ****   #endif
 111:.\CMSIS\Core\Include/core_cm4.h **** 
 112:.\CMSIS\Core\Include/core_cm4.h **** #elif defined ( __ICCARM__ )
 113:.\CMSIS\Core\Include/core_cm4.h ****   #if defined __ARMVFP__
 114:.\CMSIS\Core\Include/core_cm4.h ****     #if defined (__FPU_PRESENT) && (__FPU_PRESENT == 1U)
 115:.\CMSIS\Core\Include/core_cm4.h ****       #define __FPU_USED       1U
 116:.\CMSIS\Core\Include/core_cm4.h ****     #else
 117:.\CMSIS\Core\Include/core_cm4.h ****       #error "Compiler generates FPU instructions for a device without an FPU (check __FPU_PRESENT)
 118:.\CMSIS\Core\Include/core_cm4.h ****       #define __FPU_USED       0U
 119:.\CMSIS\Core\Include/core_cm4.h ****     #endif
 120:.\CMSIS\Core\Include/core_cm4.h ****   #else
 121:.\CMSIS\Core\Include/core_cm4.h ****     #define __FPU_USED         0U
 122:.\CMSIS\Core\Include/core_cm4.h ****   #endif
 123:.\CMSIS\Core\Include/core_cm4.h **** 
 124:.\CMSIS\Core\Include/core_cm4.h **** #elif defined ( __TI_ARM__ )
 125:.\CMSIS\Core\Include/core_cm4.h ****   #if defined __TI_VFP_SUPPORT__
 126:.\CMSIS\Core\Include/core_cm4.h ****     #if defined (__FPU_PRESENT) && (__FPU_PRESENT == 1U)
 127:.\CMSIS\Core\Include/core_cm4.h ****       #define __FPU_USED       1U
 128:.\CMSIS\Core\Include/core_cm4.h ****     #else
 129:.\CMSIS\Core\Include/core_cm4.h ****       #error "Compiler generates FPU instructions for a device without an FPU (check __FPU_PRESENT)
 130:.\CMSIS\Core\Include/core_cm4.h ****       #define __FPU_USED       0U
 131:.\CMSIS\Core\Include/core_cm4.h ****     #endif
 132:.\CMSIS\Core\Include/core_cm4.h ****   #else
 133:.\CMSIS\Core\Include/core_cm4.h ****     #define __FPU_USED         0U
 134:.\CMSIS\Core\Include/core_cm4.h ****   #endif
 135:.\CMSIS\Core\Include/core_cm4.h **** 
 136:.\CMSIS\Core\Include/core_cm4.h **** #elif defined ( __TASKING__ )
ARM GAS  C:\Users\nicpa\AppData\Local\Temp\ccIFCjQH.s 			page 34


 137:.\CMSIS\Core\Include/core_cm4.h ****   #if defined __FPU_VFP__
 138:.\CMSIS\Core\Include/core_cm4.h ****     #if defined (__FPU_PRESENT) && (__FPU_PRESENT == 1U)
 139:.\CMSIS\Core\Include/core_cm4.h ****       #define __FPU_USED       1U
 140:.\CMSIS\Core\Include/core_cm4.h ****     #else
 141:.\CMSIS\Core\Include/core_cm4.h ****       #error "Compiler generates FPU instructions for a device without an FPU (check __FPU_PRESENT)
 142:.\CMSIS\Core\Include/core_cm4.h ****       #define __FPU_USED       0U
 143:.\CMSIS\Core\Include/core_cm4.h ****     #endif
 144:.\CMSIS\Core\Include/core_cm4.h ****   #else
 145:.\CMSIS\Core\Include/core_cm4.h ****     #define __FPU_USED         0U
 146:.\CMSIS\Core\Include/core_cm4.h ****   #endif
 147:.\CMSIS\Core\Include/core_cm4.h **** 
 148:.\CMSIS\Core\Include/core_cm4.h **** #elif defined ( __CSMC__ )
 149:.\CMSIS\Core\Include/core_cm4.h ****   #if ( __CSMC__ & 0x400U)
 150:.\CMSIS\Core\Include/core_cm4.h ****     #if defined (__FPU_PRESENT) && (__FPU_PRESENT == 1U)
 151:.\CMSIS\Core\Include/core_cm4.h ****       #define __FPU_USED       1U
 152:.\CMSIS\Core\Include/core_cm4.h ****     #else
 153:.\CMSIS\Core\Include/core_cm4.h ****       #error "Compiler generates FPU instructions for a device without an FPU (check __FPU_PRESENT)
 154:.\CMSIS\Core\Include/core_cm4.h ****       #define __FPU_USED       0U
 155:.\CMSIS\Core\Include/core_cm4.h ****     #endif
 156:.\CMSIS\Core\Include/core_cm4.h ****   #else
 157:.\CMSIS\Core\Include/core_cm4.h ****     #define __FPU_USED         0U
 158:.\CMSIS\Core\Include/core_cm4.h ****   #endif
 159:.\CMSIS\Core\Include/core_cm4.h **** 
 160:.\CMSIS\Core\Include/core_cm4.h **** #endif
 161:.\CMSIS\Core\Include/core_cm4.h **** 
 162:.\CMSIS\Core\Include/core_cm4.h **** #include "cmsis_compiler.h"               /* CMSIS compiler specific defines */
 163:.\CMSIS\Core\Include/core_cm4.h **** 
 164:.\CMSIS\Core\Include/core_cm4.h **** 
 165:.\CMSIS\Core\Include/core_cm4.h **** #ifdef __cplusplus
 166:.\CMSIS\Core\Include/core_cm4.h **** }
 167:.\CMSIS\Core\Include/core_cm4.h **** #endif
 168:.\CMSIS\Core\Include/core_cm4.h **** 
 169:.\CMSIS\Core\Include/core_cm4.h **** #endif /* __CORE_CM4_H_GENERIC */
 170:.\CMSIS\Core\Include/core_cm4.h **** 
 171:.\CMSIS\Core\Include/core_cm4.h **** #ifndef __CMSIS_GENERIC
 172:.\CMSIS\Core\Include/core_cm4.h **** 
 173:.\CMSIS\Core\Include/core_cm4.h **** #ifndef __CORE_CM4_H_DEPENDANT
 174:.\CMSIS\Core\Include/core_cm4.h **** #define __CORE_CM4_H_DEPENDANT
 175:.\CMSIS\Core\Include/core_cm4.h **** 
 176:.\CMSIS\Core\Include/core_cm4.h **** #ifdef __cplusplus
 177:.\CMSIS\Core\Include/core_cm4.h ****  extern "C" {
 178:.\CMSIS\Core\Include/core_cm4.h **** #endif
 179:.\CMSIS\Core\Include/core_cm4.h **** 
 180:.\CMSIS\Core\Include/core_cm4.h **** /* check device defines and use defaults */
 181:.\CMSIS\Core\Include/core_cm4.h **** #if defined __CHECK_DEVICE_DEFINES
 182:.\CMSIS\Core\Include/core_cm4.h ****   #ifndef __CM4_REV
 183:.\CMSIS\Core\Include/core_cm4.h ****     #define __CM4_REV               0x0000U
 184:.\CMSIS\Core\Include/core_cm4.h ****     #warning "__CM4_REV not defined in device header file; using default!"
 185:.\CMSIS\Core\Include/core_cm4.h ****   #endif
 186:.\CMSIS\Core\Include/core_cm4.h **** 
 187:.\CMSIS\Core\Include/core_cm4.h ****   #ifndef __FPU_PRESENT
 188:.\CMSIS\Core\Include/core_cm4.h ****     #define __FPU_PRESENT             0U
 189:.\CMSIS\Core\Include/core_cm4.h ****     #warning "__FPU_PRESENT not defined in device header file; using default!"
 190:.\CMSIS\Core\Include/core_cm4.h ****   #endif
 191:.\CMSIS\Core\Include/core_cm4.h **** 
 192:.\CMSIS\Core\Include/core_cm4.h ****   #ifndef __MPU_PRESENT
 193:.\CMSIS\Core\Include/core_cm4.h ****     #define __MPU_PRESENT             0U
ARM GAS  C:\Users\nicpa\AppData\Local\Temp\ccIFCjQH.s 			page 35


 194:.\CMSIS\Core\Include/core_cm4.h ****     #warning "__MPU_PRESENT not defined in device header file; using default!"
 195:.\CMSIS\Core\Include/core_cm4.h ****   #endif
 196:.\CMSIS\Core\Include/core_cm4.h **** 
 197:.\CMSIS\Core\Include/core_cm4.h ****   #ifndef __NVIC_PRIO_BITS
 198:.\CMSIS\Core\Include/core_cm4.h ****     #define __NVIC_PRIO_BITS          3U
 199:.\CMSIS\Core\Include/core_cm4.h ****     #warning "__NVIC_PRIO_BITS not defined in device header file; using default!"
 200:.\CMSIS\Core\Include/core_cm4.h ****   #endif
 201:.\CMSIS\Core\Include/core_cm4.h **** 
 202:.\CMSIS\Core\Include/core_cm4.h ****   #ifndef __Vendor_SysTickConfig
 203:.\CMSIS\Core\Include/core_cm4.h ****     #define __Vendor_SysTickConfig    0U
 204:.\CMSIS\Core\Include/core_cm4.h ****     #warning "__Vendor_SysTickConfig not defined in device header file; using default!"
 205:.\CMSIS\Core\Include/core_cm4.h ****   #endif
 206:.\CMSIS\Core\Include/core_cm4.h **** #endif
 207:.\CMSIS\Core\Include/core_cm4.h **** 
 208:.\CMSIS\Core\Include/core_cm4.h **** /* IO definitions (access restrictions to peripheral registers) */
 209:.\CMSIS\Core\Include/core_cm4.h **** /**
 210:.\CMSIS\Core\Include/core_cm4.h ****     \defgroup CMSIS_glob_defs CMSIS Global Defines
 211:.\CMSIS\Core\Include/core_cm4.h **** 
 212:.\CMSIS\Core\Include/core_cm4.h ****     <strong>IO Type Qualifiers</strong> are used
 213:.\CMSIS\Core\Include/core_cm4.h ****     \li to specify the access to peripheral variables.
 214:.\CMSIS\Core\Include/core_cm4.h ****     \li for automatic generation of peripheral register debug information.
 215:.\CMSIS\Core\Include/core_cm4.h **** */
 216:.\CMSIS\Core\Include/core_cm4.h **** #ifdef __cplusplus
 217:.\CMSIS\Core\Include/core_cm4.h ****   #define   __I     volatile             /*!< Defines 'read only' permissions */
 218:.\CMSIS\Core\Include/core_cm4.h **** #else
 219:.\CMSIS\Core\Include/core_cm4.h ****   #define   __I     volatile const       /*!< Defines 'read only' permissions */
 220:.\CMSIS\Core\Include/core_cm4.h **** #endif
 221:.\CMSIS\Core\Include/core_cm4.h **** #define     __O     volatile             /*!< Defines 'write only' permissions */
 222:.\CMSIS\Core\Include/core_cm4.h **** #define     __IO    volatile             /*!< Defines 'read / write' permissions */
 223:.\CMSIS\Core\Include/core_cm4.h **** 
 224:.\CMSIS\Core\Include/core_cm4.h **** /* following defines should be used for structure members */
 225:.\CMSIS\Core\Include/core_cm4.h **** #define     __IM     volatile const      /*! Defines 'read only' structure member permissions */
 226:.\CMSIS\Core\Include/core_cm4.h **** #define     __OM     volatile            /*! Defines 'write only' structure member permissions */
 227:.\CMSIS\Core\Include/core_cm4.h **** #define     __IOM    volatile            /*! Defines 'read / write' structure member permissions */
 228:.\CMSIS\Core\Include/core_cm4.h **** 
 229:.\CMSIS\Core\Include/core_cm4.h **** /*@} end of group Cortex_M4 */
 230:.\CMSIS\Core\Include/core_cm4.h **** 
 231:.\CMSIS\Core\Include/core_cm4.h **** 
 232:.\CMSIS\Core\Include/core_cm4.h **** 
 233:.\CMSIS\Core\Include/core_cm4.h **** /*******************************************************************************
 234:.\CMSIS\Core\Include/core_cm4.h ****  *                 Register Abstraction
 235:.\CMSIS\Core\Include/core_cm4.h ****   Core Register contain:
 236:.\CMSIS\Core\Include/core_cm4.h ****   - Core Register
 237:.\CMSIS\Core\Include/core_cm4.h ****   - Core NVIC Register
 238:.\CMSIS\Core\Include/core_cm4.h ****   - Core SCB Register
 239:.\CMSIS\Core\Include/core_cm4.h ****   - Core SysTick Register
 240:.\CMSIS\Core\Include/core_cm4.h ****   - Core Debug Register
 241:.\CMSIS\Core\Include/core_cm4.h ****   - Core MPU Register
 242:.\CMSIS\Core\Include/core_cm4.h ****   - Core FPU Register
 243:.\CMSIS\Core\Include/core_cm4.h ****  ******************************************************************************/
 244:.\CMSIS\Core\Include/core_cm4.h **** /**
 245:.\CMSIS\Core\Include/core_cm4.h ****   \defgroup CMSIS_core_register Defines and Type Definitions
 246:.\CMSIS\Core\Include/core_cm4.h ****   \brief Type definitions and defines for Cortex-M processor based devices.
 247:.\CMSIS\Core\Include/core_cm4.h **** */
 248:.\CMSIS\Core\Include/core_cm4.h **** 
 249:.\CMSIS\Core\Include/core_cm4.h **** /**
 250:.\CMSIS\Core\Include/core_cm4.h ****   \ingroup    CMSIS_core_register
ARM GAS  C:\Users\nicpa\AppData\Local\Temp\ccIFCjQH.s 			page 36


 251:.\CMSIS\Core\Include/core_cm4.h ****   \defgroup   CMSIS_CORE  Status and Control Registers
 252:.\CMSIS\Core\Include/core_cm4.h ****   \brief      Core Register type definitions.
 253:.\CMSIS\Core\Include/core_cm4.h ****   @{
 254:.\CMSIS\Core\Include/core_cm4.h ****  */
 255:.\CMSIS\Core\Include/core_cm4.h **** 
 256:.\CMSIS\Core\Include/core_cm4.h **** /**
 257:.\CMSIS\Core\Include/core_cm4.h ****   \brief  Union type to access the Application Program Status Register (APSR).
 258:.\CMSIS\Core\Include/core_cm4.h ****  */
 259:.\CMSIS\Core\Include/core_cm4.h **** typedef union
 260:.\CMSIS\Core\Include/core_cm4.h **** {
 261:.\CMSIS\Core\Include/core_cm4.h ****   struct
 262:.\CMSIS\Core\Include/core_cm4.h ****   {
 263:.\CMSIS\Core\Include/core_cm4.h ****     uint32_t _reserved0:16;              /*!< bit:  0..15  Reserved */
 264:.\CMSIS\Core\Include/core_cm4.h ****     uint32_t GE:4;                       /*!< bit: 16..19  Greater than or Equal flags */
 265:.\CMSIS\Core\Include/core_cm4.h ****     uint32_t _reserved1:7;               /*!< bit: 20..26  Reserved */
 266:.\CMSIS\Core\Include/core_cm4.h ****     uint32_t Q:1;                        /*!< bit:     27  Saturation condition flag */
 267:.\CMSIS\Core\Include/core_cm4.h ****     uint32_t V:1;                        /*!< bit:     28  Overflow condition code flag */
 268:.\CMSIS\Core\Include/core_cm4.h ****     uint32_t C:1;                        /*!< bit:     29  Carry condition code flag */
 269:.\CMSIS\Core\Include/core_cm4.h ****     uint32_t Z:1;                        /*!< bit:     30  Zero condition code flag */
 270:.\CMSIS\Core\Include/core_cm4.h ****     uint32_t N:1;                        /*!< bit:     31  Negative condition code flag */
 271:.\CMSIS\Core\Include/core_cm4.h ****   } b;                                   /*!< Structure used for bit  access */
 272:.\CMSIS\Core\Include/core_cm4.h ****   uint32_t w;                            /*!< Type      used for word access */
 273:.\CMSIS\Core\Include/core_cm4.h **** } APSR_Type;
 274:.\CMSIS\Core\Include/core_cm4.h **** 
 275:.\CMSIS\Core\Include/core_cm4.h **** /* APSR Register Definitions */
 276:.\CMSIS\Core\Include/core_cm4.h **** #define APSR_N_Pos                         31U                                            /*!< APSR
 277:.\CMSIS\Core\Include/core_cm4.h **** #define APSR_N_Msk                         (1UL << APSR_N_Pos)                            /*!< APSR
 278:.\CMSIS\Core\Include/core_cm4.h **** 
 279:.\CMSIS\Core\Include/core_cm4.h **** #define APSR_Z_Pos                         30U                                            /*!< APSR
 280:.\CMSIS\Core\Include/core_cm4.h **** #define APSR_Z_Msk                         (1UL << APSR_Z_Pos)                            /*!< APSR
 281:.\CMSIS\Core\Include/core_cm4.h **** 
 282:.\CMSIS\Core\Include/core_cm4.h **** #define APSR_C_Pos                         29U                                            /*!< APSR
 283:.\CMSIS\Core\Include/core_cm4.h **** #define APSR_C_Msk                         (1UL << APSR_C_Pos)                            /*!< APSR
 284:.\CMSIS\Core\Include/core_cm4.h **** 
 285:.\CMSIS\Core\Include/core_cm4.h **** #define APSR_V_Pos                         28U                                            /*!< APSR
 286:.\CMSIS\Core\Include/core_cm4.h **** #define APSR_V_Msk                         (1UL << APSR_V_Pos)                            /*!< APSR
 287:.\CMSIS\Core\Include/core_cm4.h **** 
 288:.\CMSIS\Core\Include/core_cm4.h **** #define APSR_Q_Pos                         27U                                            /*!< APSR
 289:.\CMSIS\Core\Include/core_cm4.h **** #define APSR_Q_Msk                         (1UL << APSR_Q_Pos)                            /*!< APSR
 290:.\CMSIS\Core\Include/core_cm4.h **** 
 291:.\CMSIS\Core\Include/core_cm4.h **** #define APSR_GE_Pos                        16U                                            /*!< APSR
 292:.\CMSIS\Core\Include/core_cm4.h **** #define APSR_GE_Msk                        (0xFUL << APSR_GE_Pos)                         /*!< APSR
 293:.\CMSIS\Core\Include/core_cm4.h **** 
 294:.\CMSIS\Core\Include/core_cm4.h **** 
 295:.\CMSIS\Core\Include/core_cm4.h **** /**
 296:.\CMSIS\Core\Include/core_cm4.h ****   \brief  Union type to access the Interrupt Program Status Register (IPSR).
 297:.\CMSIS\Core\Include/core_cm4.h ****  */
 298:.\CMSIS\Core\Include/core_cm4.h **** typedef union
 299:.\CMSIS\Core\Include/core_cm4.h **** {
 300:.\CMSIS\Core\Include/core_cm4.h ****   struct
 301:.\CMSIS\Core\Include/core_cm4.h ****   {
 302:.\CMSIS\Core\Include/core_cm4.h ****     uint32_t ISR:9;                      /*!< bit:  0.. 8  Exception number */
 303:.\CMSIS\Core\Include/core_cm4.h ****     uint32_t _reserved0:23;              /*!< bit:  9..31  Reserved */
 304:.\CMSIS\Core\Include/core_cm4.h ****   } b;                                   /*!< Structure used for bit  access */
 305:.\CMSIS\Core\Include/core_cm4.h ****   uint32_t w;                            /*!< Type      used for word access */
 306:.\CMSIS\Core\Include/core_cm4.h **** } IPSR_Type;
 307:.\CMSIS\Core\Include/core_cm4.h **** 
ARM GAS  C:\Users\nicpa\AppData\Local\Temp\ccIFCjQH.s 			page 37


 308:.\CMSIS\Core\Include/core_cm4.h **** /* IPSR Register Definitions */
 309:.\CMSIS\Core\Include/core_cm4.h **** #define IPSR_ISR_Pos                        0U                                            /*!< IPSR
 310:.\CMSIS\Core\Include/core_cm4.h **** #define IPSR_ISR_Msk                       (0x1FFUL /*<< IPSR_ISR_Pos*/)                  /*!< IPSR
 311:.\CMSIS\Core\Include/core_cm4.h **** 
 312:.\CMSIS\Core\Include/core_cm4.h **** 
 313:.\CMSIS\Core\Include/core_cm4.h **** /**
 314:.\CMSIS\Core\Include/core_cm4.h ****   \brief  Union type to access the Special-Purpose Program Status Registers (xPSR).
 315:.\CMSIS\Core\Include/core_cm4.h ****  */
 316:.\CMSIS\Core\Include/core_cm4.h **** typedef union
 317:.\CMSIS\Core\Include/core_cm4.h **** {
 318:.\CMSIS\Core\Include/core_cm4.h ****   struct
 319:.\CMSIS\Core\Include/core_cm4.h ****   {
 320:.\CMSIS\Core\Include/core_cm4.h ****     uint32_t ISR:9;                      /*!< bit:  0.. 8  Exception number */
 321:.\CMSIS\Core\Include/core_cm4.h ****     uint32_t _reserved0:1;               /*!< bit:      9  Reserved */
 322:.\CMSIS\Core\Include/core_cm4.h ****     uint32_t ICI_IT_1:6;                 /*!< bit: 10..15  ICI/IT part 1 */
 323:.\CMSIS\Core\Include/core_cm4.h ****     uint32_t GE:4;                       /*!< bit: 16..19  Greater than or Equal flags */
 324:.\CMSIS\Core\Include/core_cm4.h ****     uint32_t _reserved1:4;               /*!< bit: 20..23  Reserved */
 325:.\CMSIS\Core\Include/core_cm4.h ****     uint32_t T:1;                        /*!< bit:     24  Thumb bit */
 326:.\CMSIS\Core\Include/core_cm4.h ****     uint32_t ICI_IT_2:2;                 /*!< bit: 25..26  ICI/IT part 2 */
 327:.\CMSIS\Core\Include/core_cm4.h ****     uint32_t Q:1;                        /*!< bit:     27  Saturation condition flag */
 328:.\CMSIS\Core\Include/core_cm4.h ****     uint32_t V:1;                        /*!< bit:     28  Overflow condition code flag */
 329:.\CMSIS\Core\Include/core_cm4.h ****     uint32_t C:1;                        /*!< bit:     29  Carry condition code flag */
 330:.\CMSIS\Core\Include/core_cm4.h ****     uint32_t Z:1;                        /*!< bit:     30  Zero condition code flag */
 331:.\CMSIS\Core\Include/core_cm4.h ****     uint32_t N:1;                        /*!< bit:     31  Negative condition code flag */
 332:.\CMSIS\Core\Include/core_cm4.h ****   } b;                                   /*!< Structure used for bit  access */
 333:.\CMSIS\Core\Include/core_cm4.h ****   uint32_t w;                            /*!< Type      used for word access */
 334:.\CMSIS\Core\Include/core_cm4.h **** } xPSR_Type;
 335:.\CMSIS\Core\Include/core_cm4.h **** 
 336:.\CMSIS\Core\Include/core_cm4.h **** /* xPSR Register Definitions */
 337:.\CMSIS\Core\Include/core_cm4.h **** #define xPSR_N_Pos                         31U                                            /*!< xPSR
 338:.\CMSIS\Core\Include/core_cm4.h **** #define xPSR_N_Msk                         (1UL << xPSR_N_Pos)                            /*!< xPSR
 339:.\CMSIS\Core\Include/core_cm4.h **** 
 340:.\CMSIS\Core\Include/core_cm4.h **** #define xPSR_Z_Pos                         30U                                            /*!< xPSR
 341:.\CMSIS\Core\Include/core_cm4.h **** #define xPSR_Z_Msk                         (1UL << xPSR_Z_Pos)                            /*!< xPSR
 342:.\CMSIS\Core\Include/core_cm4.h **** 
 343:.\CMSIS\Core\Include/core_cm4.h **** #define xPSR_C_Pos                         29U                                            /*!< xPSR
 344:.\CMSIS\Core\Include/core_cm4.h **** #define xPSR_C_Msk                         (1UL << xPSR_C_Pos)                            /*!< xPSR
 345:.\CMSIS\Core\Include/core_cm4.h **** 
 346:.\CMSIS\Core\Include/core_cm4.h **** #define xPSR_V_Pos                         28U                                            /*!< xPSR
 347:.\CMSIS\Core\Include/core_cm4.h **** #define xPSR_V_Msk                         (1UL << xPSR_V_Pos)                            /*!< xPSR
 348:.\CMSIS\Core\Include/core_cm4.h **** 
 349:.\CMSIS\Core\Include/core_cm4.h **** #define xPSR_Q_Pos                         27U                                            /*!< xPSR
 350:.\CMSIS\Core\Include/core_cm4.h **** #define xPSR_Q_Msk                         (1UL << xPSR_Q_Pos)                            /*!< xPSR
 351:.\CMSIS\Core\Include/core_cm4.h **** 
 352:.\CMSIS\Core\Include/core_cm4.h **** #define xPSR_ICI_IT_2_Pos                  25U                                            /*!< xPSR
 353:.\CMSIS\Core\Include/core_cm4.h **** #define xPSR_ICI_IT_2_Msk                  (3UL << xPSR_ICI_IT_2_Pos)                     /*!< xPSR
 354:.\CMSIS\Core\Include/core_cm4.h **** 
 355:.\CMSIS\Core\Include/core_cm4.h **** #define xPSR_T_Pos                         24U                                            /*!< xPSR
 356:.\CMSIS\Core\Include/core_cm4.h **** #define xPSR_T_Msk                         (1UL << xPSR_T_Pos)                            /*!< xPSR
 357:.\CMSIS\Core\Include/core_cm4.h **** 
 358:.\CMSIS\Core\Include/core_cm4.h **** #define xPSR_GE_Pos                        16U                                            /*!< xPSR
 359:.\CMSIS\Core\Include/core_cm4.h **** #define xPSR_GE_Msk                        (0xFUL << xPSR_GE_Pos)                         /*!< xPSR
 360:.\CMSIS\Core\Include/core_cm4.h **** 
 361:.\CMSIS\Core\Include/core_cm4.h **** #define xPSR_ICI_IT_1_Pos                  10U                                            /*!< xPSR
 362:.\CMSIS\Core\Include/core_cm4.h **** #define xPSR_ICI_IT_1_Msk                  (0x3FUL << xPSR_ICI_IT_1_Pos)                  /*!< xPSR
 363:.\CMSIS\Core\Include/core_cm4.h **** 
 364:.\CMSIS\Core\Include/core_cm4.h **** #define xPSR_ISR_Pos                        0U                                            /*!< xPSR
ARM GAS  C:\Users\nicpa\AppData\Local\Temp\ccIFCjQH.s 			page 38


 365:.\CMSIS\Core\Include/core_cm4.h **** #define xPSR_ISR_Msk                       (0x1FFUL /*<< xPSR_ISR_Pos*/)                  /*!< xPSR
 366:.\CMSIS\Core\Include/core_cm4.h **** 
 367:.\CMSIS\Core\Include/core_cm4.h **** 
 368:.\CMSIS\Core\Include/core_cm4.h **** /**
 369:.\CMSIS\Core\Include/core_cm4.h ****   \brief  Union type to access the Control Registers (CONTROL).
 370:.\CMSIS\Core\Include/core_cm4.h ****  */
 371:.\CMSIS\Core\Include/core_cm4.h **** typedef union
 372:.\CMSIS\Core\Include/core_cm4.h **** {
 373:.\CMSIS\Core\Include/core_cm4.h ****   struct
 374:.\CMSIS\Core\Include/core_cm4.h ****   {
 375:.\CMSIS\Core\Include/core_cm4.h ****     uint32_t nPRIV:1;                    /*!< bit:      0  Execution privilege in Thread mode */
 376:.\CMSIS\Core\Include/core_cm4.h ****     uint32_t SPSEL:1;                    /*!< bit:      1  Stack to be used */
 377:.\CMSIS\Core\Include/core_cm4.h ****     uint32_t FPCA:1;                     /*!< bit:      2  FP extension active flag */
 378:.\CMSIS\Core\Include/core_cm4.h ****     uint32_t _reserved0:29;              /*!< bit:  3..31  Reserved */
 379:.\CMSIS\Core\Include/core_cm4.h ****   } b;                                   /*!< Structure used for bit  access */
 380:.\CMSIS\Core\Include/core_cm4.h ****   uint32_t w;                            /*!< Type      used for word access */
 381:.\CMSIS\Core\Include/core_cm4.h **** } CONTROL_Type;
 382:.\CMSIS\Core\Include/core_cm4.h **** 
 383:.\CMSIS\Core\Include/core_cm4.h **** /* CONTROL Register Definitions */
 384:.\CMSIS\Core\Include/core_cm4.h **** #define CONTROL_FPCA_Pos                    2U                                            /*!< CONT
 385:.\CMSIS\Core\Include/core_cm4.h **** #define CONTROL_FPCA_Msk                   (1UL << CONTROL_FPCA_Pos)                      /*!< CONT
 386:.\CMSIS\Core\Include/core_cm4.h **** 
 387:.\CMSIS\Core\Include/core_cm4.h **** #define CONTROL_SPSEL_Pos                   1U                                            /*!< CONT
 388:.\CMSIS\Core\Include/core_cm4.h **** #define CONTROL_SPSEL_Msk                  (1UL << CONTROL_SPSEL_Pos)                     /*!< CONT
 389:.\CMSIS\Core\Include/core_cm4.h **** 
 390:.\CMSIS\Core\Include/core_cm4.h **** #define CONTROL_nPRIV_Pos                   0U                                            /*!< CONT
 391:.\CMSIS\Core\Include/core_cm4.h **** #define CONTROL_nPRIV_Msk                  (1UL /*<< CONTROL_nPRIV_Pos*/)                 /*!< CONT
 392:.\CMSIS\Core\Include/core_cm4.h **** 
 393:.\CMSIS\Core\Include/core_cm4.h **** /*@} end of group CMSIS_CORE */
 394:.\CMSIS\Core\Include/core_cm4.h **** 
 395:.\CMSIS\Core\Include/core_cm4.h **** 
 396:.\CMSIS\Core\Include/core_cm4.h **** /**
 397:.\CMSIS\Core\Include/core_cm4.h ****   \ingroup    CMSIS_core_register
 398:.\CMSIS\Core\Include/core_cm4.h ****   \defgroup   CMSIS_NVIC  Nested Vectored Interrupt Controller (NVIC)
 399:.\CMSIS\Core\Include/core_cm4.h ****   \brief      Type definitions for the NVIC Registers
 400:.\CMSIS\Core\Include/core_cm4.h ****   @{
 401:.\CMSIS\Core\Include/core_cm4.h ****  */
 402:.\CMSIS\Core\Include/core_cm4.h **** 
 403:.\CMSIS\Core\Include/core_cm4.h **** /**
 404:.\CMSIS\Core\Include/core_cm4.h ****   \brief  Structure type to access the Nested Vectored Interrupt Controller (NVIC).
 405:.\CMSIS\Core\Include/core_cm4.h ****  */
 406:.\CMSIS\Core\Include/core_cm4.h **** typedef struct
 407:.\CMSIS\Core\Include/core_cm4.h **** {
 408:.\CMSIS\Core\Include/core_cm4.h ****   __IOM uint32_t ISER[8U];               /*!< Offset: 0x000 (R/W)  Interrupt Set Enable Register */
 409:.\CMSIS\Core\Include/core_cm4.h ****         uint32_t RESERVED0[24U];
 410:.\CMSIS\Core\Include/core_cm4.h ****   __IOM uint32_t ICER[8U];               /*!< Offset: 0x080 (R/W)  Interrupt Clear Enable Register 
 411:.\CMSIS\Core\Include/core_cm4.h ****         uint32_t RSERVED1[24U];
 412:.\CMSIS\Core\Include/core_cm4.h ****   __IOM uint32_t ISPR[8U];               /*!< Offset: 0x100 (R/W)  Interrupt Set Pending Register *
 413:.\CMSIS\Core\Include/core_cm4.h ****         uint32_t RESERVED2[24U];
 414:.\CMSIS\Core\Include/core_cm4.h ****   __IOM uint32_t ICPR[8U];               /*!< Offset: 0x180 (R/W)  Interrupt Clear Pending Register
 415:.\CMSIS\Core\Include/core_cm4.h ****         uint32_t RESERVED3[24U];
 416:.\CMSIS\Core\Include/core_cm4.h ****   __IOM uint32_t IABR[8U];               /*!< Offset: 0x200 (R/W)  Interrupt Active bit Register */
 417:.\CMSIS\Core\Include/core_cm4.h ****         uint32_t RESERVED4[56U];
 418:.\CMSIS\Core\Include/core_cm4.h ****   __IOM uint8_t  IP[240U];               /*!< Offset: 0x300 (R/W)  Interrupt Priority Register (8Bi
 419:.\CMSIS\Core\Include/core_cm4.h ****         uint32_t RESERVED5[644U];
 420:.\CMSIS\Core\Include/core_cm4.h ****   __OM  uint32_t STIR;                   /*!< Offset: 0xE00 ( /W)  Software Trigger Interrupt Regis
 421:.\CMSIS\Core\Include/core_cm4.h **** }  NVIC_Type;
ARM GAS  C:\Users\nicpa\AppData\Local\Temp\ccIFCjQH.s 			page 39


 422:.\CMSIS\Core\Include/core_cm4.h **** 
 423:.\CMSIS\Core\Include/core_cm4.h **** /* Software Triggered Interrupt Register Definitions */
 424:.\CMSIS\Core\Include/core_cm4.h **** #define NVIC_STIR_INTID_Pos                 0U                                         /*!< STIR: I
 425:.\CMSIS\Core\Include/core_cm4.h **** #define NVIC_STIR_INTID_Msk                (0x1FFUL /*<< NVIC_STIR_INTID_Pos*/)        /*!< STIR: I
 426:.\CMSIS\Core\Include/core_cm4.h **** 
 427:.\CMSIS\Core\Include/core_cm4.h **** /*@} end of group CMSIS_NVIC */
 428:.\CMSIS\Core\Include/core_cm4.h **** 
 429:.\CMSIS\Core\Include/core_cm4.h **** 
 430:.\CMSIS\Core\Include/core_cm4.h **** /**
 431:.\CMSIS\Core\Include/core_cm4.h ****   \ingroup  CMSIS_core_register
 432:.\CMSIS\Core\Include/core_cm4.h ****   \defgroup CMSIS_SCB     System Control Block (SCB)
 433:.\CMSIS\Core\Include/core_cm4.h ****   \brief    Type definitions for the System Control Block Registers
 434:.\CMSIS\Core\Include/core_cm4.h ****   @{
 435:.\CMSIS\Core\Include/core_cm4.h ****  */
 436:.\CMSIS\Core\Include/core_cm4.h **** 
 437:.\CMSIS\Core\Include/core_cm4.h **** /**
 438:.\CMSIS\Core\Include/core_cm4.h ****   \brief  Structure type to access the System Control Block (SCB).
 439:.\CMSIS\Core\Include/core_cm4.h ****  */
 440:.\CMSIS\Core\Include/core_cm4.h **** typedef struct
 441:.\CMSIS\Core\Include/core_cm4.h **** {
 442:.\CMSIS\Core\Include/core_cm4.h ****   __IM  uint32_t CPUID;                  /*!< Offset: 0x000 (R/ )  CPUID Base Register */
 443:.\CMSIS\Core\Include/core_cm4.h ****   __IOM uint32_t ICSR;                   /*!< Offset: 0x004 (R/W)  Interrupt Control and State Regi
 444:.\CMSIS\Core\Include/core_cm4.h ****   __IOM uint32_t VTOR;                   /*!< Offset: 0x008 (R/W)  Vector Table Offset Register */
 445:.\CMSIS\Core\Include/core_cm4.h ****   __IOM uint32_t AIRCR;                  /*!< Offset: 0x00C (R/W)  Application Interrupt and Reset 
 446:.\CMSIS\Core\Include/core_cm4.h ****   __IOM uint32_t SCR;                    /*!< Offset: 0x010 (R/W)  System Control Register */
 447:.\CMSIS\Core\Include/core_cm4.h ****   __IOM uint32_t CCR;                    /*!< Offset: 0x014 (R/W)  Configuration Control Register *
 448:.\CMSIS\Core\Include/core_cm4.h ****   __IOM uint8_t  SHP[12U];               /*!< Offset: 0x018 (R/W)  System Handlers Priority Registe
 449:.\CMSIS\Core\Include/core_cm4.h ****   __IOM uint32_t SHCSR;                  /*!< Offset: 0x024 (R/W)  System Handler Control and State
 450:.\CMSIS\Core\Include/core_cm4.h ****   __IOM uint32_t CFSR;                   /*!< Offset: 0x028 (R/W)  Configurable Fault Status Regist
 451:.\CMSIS\Core\Include/core_cm4.h ****   __IOM uint32_t HFSR;                   /*!< Offset: 0x02C (R/W)  HardFault Status Register */
 452:.\CMSIS\Core\Include/core_cm4.h ****   __IOM uint32_t DFSR;                   /*!< Offset: 0x030 (R/W)  Debug Fault Status Register */
 453:.\CMSIS\Core\Include/core_cm4.h ****   __IOM uint32_t MMFAR;                  /*!< Offset: 0x034 (R/W)  MemManage Fault Address Register
 454:.\CMSIS\Core\Include/core_cm4.h ****   __IOM uint32_t BFAR;                   /*!< Offset: 0x038 (R/W)  BusFault Address Register */
 455:.\CMSIS\Core\Include/core_cm4.h ****   __IOM uint32_t AFSR;                   /*!< Offset: 0x03C (R/W)  Auxiliary Fault Status Register 
 456:.\CMSIS\Core\Include/core_cm4.h ****   __IM  uint32_t PFR[2U];                /*!< Offset: 0x040 (R/ )  Processor Feature Register */
 457:.\CMSIS\Core\Include/core_cm4.h ****   __IM  uint32_t DFR;                    /*!< Offset: 0x048 (R/ )  Debug Feature Register */
 458:.\CMSIS\Core\Include/core_cm4.h ****   __IM  uint32_t ADR;                    /*!< Offset: 0x04C (R/ )  Auxiliary Feature Register */
 459:.\CMSIS\Core\Include/core_cm4.h ****   __IM  uint32_t MMFR[4U];               /*!< Offset: 0x050 (R/ )  Memory Model Feature Register */
 460:.\CMSIS\Core\Include/core_cm4.h ****   __IM  uint32_t ISAR[5U];               /*!< Offset: 0x060 (R/ )  Instruction Set Attributes Regis
 461:.\CMSIS\Core\Include/core_cm4.h ****         uint32_t RESERVED0[5U];
 462:.\CMSIS\Core\Include/core_cm4.h ****   __IOM uint32_t CPACR;                  /*!< Offset: 0x088 (R/W)  Coprocessor Access Control Regis
 463:.\CMSIS\Core\Include/core_cm4.h **** } SCB_Type;
 464:.\CMSIS\Core\Include/core_cm4.h **** 
 465:.\CMSIS\Core\Include/core_cm4.h **** /* SCB CPUID Register Definitions */
 466:.\CMSIS\Core\Include/core_cm4.h **** #define SCB_CPUID_IMPLEMENTER_Pos          24U                                            /*!< SCB 
 467:.\CMSIS\Core\Include/core_cm4.h **** #define SCB_CPUID_IMPLEMENTER_Msk          (0xFFUL << SCB_CPUID_IMPLEMENTER_Pos)          /*!< SCB 
 468:.\CMSIS\Core\Include/core_cm4.h **** 
 469:.\CMSIS\Core\Include/core_cm4.h **** #define SCB_CPUID_VARIANT_Pos              20U                                            /*!< SCB 
 470:.\CMSIS\Core\Include/core_cm4.h **** #define SCB_CPUID_VARIANT_Msk              (0xFUL << SCB_CPUID_VARIANT_Pos)               /*!< SCB 
 471:.\CMSIS\Core\Include/core_cm4.h **** 
 472:.\CMSIS\Core\Include/core_cm4.h **** #define SCB_CPUID_ARCHITECTURE_Pos         16U                                            /*!< SCB 
 473:.\CMSIS\Core\Include/core_cm4.h **** #define SCB_CPUID_ARCHITECTURE_Msk         (0xFUL << SCB_CPUID_ARCHITECTURE_Pos)          /*!< SCB 
 474:.\CMSIS\Core\Include/core_cm4.h **** 
 475:.\CMSIS\Core\Include/core_cm4.h **** #define SCB_CPUID_PARTNO_Pos                4U                                            /*!< SCB 
 476:.\CMSIS\Core\Include/core_cm4.h **** #define SCB_CPUID_PARTNO_Msk               (0xFFFUL << SCB_CPUID_PARTNO_Pos)              /*!< SCB 
 477:.\CMSIS\Core\Include/core_cm4.h **** 
 478:.\CMSIS\Core\Include/core_cm4.h **** #define SCB_CPUID_REVISION_Pos              0U                                            /*!< SCB 
ARM GAS  C:\Users\nicpa\AppData\Local\Temp\ccIFCjQH.s 			page 40


 479:.\CMSIS\Core\Include/core_cm4.h **** #define SCB_CPUID_REVISION_Msk             (0xFUL /*<< SCB_CPUID_REVISION_Pos*/)          /*!< SCB 
 480:.\CMSIS\Core\Include/core_cm4.h **** 
 481:.\CMSIS\Core\Include/core_cm4.h **** /* SCB Interrupt Control State Register Definitions */
 482:.\CMSIS\Core\Include/core_cm4.h **** #define SCB_ICSR_NMIPENDSET_Pos            31U                                            /*!< SCB 
 483:.\CMSIS\Core\Include/core_cm4.h **** #define SCB_ICSR_NMIPENDSET_Msk            (1UL << SCB_ICSR_NMIPENDSET_Pos)               /*!< SCB 
 484:.\CMSIS\Core\Include/core_cm4.h **** 
 485:.\CMSIS\Core\Include/core_cm4.h **** #define SCB_ICSR_PENDSVSET_Pos             28U                                            /*!< SCB 
 486:.\CMSIS\Core\Include/core_cm4.h **** #define SCB_ICSR_PENDSVSET_Msk             (1UL << SCB_ICSR_PENDSVSET_Pos)                /*!< SCB 
 487:.\CMSIS\Core\Include/core_cm4.h **** 
 488:.\CMSIS\Core\Include/core_cm4.h **** #define SCB_ICSR_PENDSVCLR_Pos             27U                                            /*!< SCB 
 489:.\CMSIS\Core\Include/core_cm4.h **** #define SCB_ICSR_PENDSVCLR_Msk             (1UL << SCB_ICSR_PENDSVCLR_Pos)                /*!< SCB 
 490:.\CMSIS\Core\Include/core_cm4.h **** 
 491:.\CMSIS\Core\Include/core_cm4.h **** #define SCB_ICSR_PENDSTSET_Pos             26U                                            /*!< SCB 
 492:.\CMSIS\Core\Include/core_cm4.h **** #define SCB_ICSR_PENDSTSET_Msk             (1UL << SCB_ICSR_PENDSTSET_Pos)                /*!< SCB 
 493:.\CMSIS\Core\Include/core_cm4.h **** 
 494:.\CMSIS\Core\Include/core_cm4.h **** #define SCB_ICSR_PENDSTCLR_Pos             25U                                            /*!< SCB 
 495:.\CMSIS\Core\Include/core_cm4.h **** #define SCB_ICSR_PENDSTCLR_Msk             (1UL << SCB_ICSR_PENDSTCLR_Pos)                /*!< SCB 
 496:.\CMSIS\Core\Include/core_cm4.h **** 
 497:.\CMSIS\Core\Include/core_cm4.h **** #define SCB_ICSR_ISRPREEMPT_Pos            23U                                            /*!< SCB 
 498:.\CMSIS\Core\Include/core_cm4.h **** #define SCB_ICSR_ISRPREEMPT_Msk            (1UL << SCB_ICSR_ISRPREEMPT_Pos)               /*!< SCB 
 499:.\CMSIS\Core\Include/core_cm4.h **** 
 500:.\CMSIS\Core\Include/core_cm4.h **** #define SCB_ICSR_ISRPENDING_Pos            22U                                            /*!< SCB 
 501:.\CMSIS\Core\Include/core_cm4.h **** #define SCB_ICSR_ISRPENDING_Msk            (1UL << SCB_ICSR_ISRPENDING_Pos)               /*!< SCB 
 502:.\CMSIS\Core\Include/core_cm4.h **** 
 503:.\CMSIS\Core\Include/core_cm4.h **** #define SCB_ICSR_VECTPENDING_Pos           12U                                            /*!< SCB 
 504:.\CMSIS\Core\Include/core_cm4.h **** #define SCB_ICSR_VECTPENDING_Msk           (0x1FFUL << SCB_ICSR_VECTPENDING_Pos)          /*!< SCB 
 505:.\CMSIS\Core\Include/core_cm4.h **** 
 506:.\CMSIS\Core\Include/core_cm4.h **** #define SCB_ICSR_RETTOBASE_Pos             11U                                            /*!< SCB 
 507:.\CMSIS\Core\Include/core_cm4.h **** #define SCB_ICSR_RETTOBASE_Msk             (1UL << SCB_ICSR_RETTOBASE_Pos)                /*!< SCB 
 508:.\CMSIS\Core\Include/core_cm4.h **** 
 509:.\CMSIS\Core\Include/core_cm4.h **** #define SCB_ICSR_VECTACTIVE_Pos             0U                                            /*!< SCB 
 510:.\CMSIS\Core\Include/core_cm4.h **** #define SCB_ICSR_VECTACTIVE_Msk            (0x1FFUL /*<< SCB_ICSR_VECTACTIVE_Pos*/)       /*!< SCB 
 511:.\CMSIS\Core\Include/core_cm4.h **** 
 512:.\CMSIS\Core\Include/core_cm4.h **** /* SCB Vector Table Offset Register Definitions */
 513:.\CMSIS\Core\Include/core_cm4.h **** #define SCB_VTOR_TBLOFF_Pos                 7U                                            /*!< SCB 
 514:.\CMSIS\Core\Include/core_cm4.h **** #define SCB_VTOR_TBLOFF_Msk                (0x1FFFFFFUL << SCB_VTOR_TBLOFF_Pos)           /*!< SCB 
 515:.\CMSIS\Core\Include/core_cm4.h **** 
 516:.\CMSIS\Core\Include/core_cm4.h **** /* SCB Application Interrupt and Reset Control Register Definitions */
 517:.\CMSIS\Core\Include/core_cm4.h **** #define SCB_AIRCR_VECTKEY_Pos              16U                                            /*!< SCB 
 518:.\CMSIS\Core\Include/core_cm4.h **** #define SCB_AIRCR_VECTKEY_Msk              (0xFFFFUL << SCB_AIRCR_VECTKEY_Pos)            /*!< SCB 
 519:.\CMSIS\Core\Include/core_cm4.h **** 
 520:.\CMSIS\Core\Include/core_cm4.h **** #define SCB_AIRCR_VECTKEYSTAT_Pos          16U                                            /*!< SCB 
 521:.\CMSIS\Core\Include/core_cm4.h **** #define SCB_AIRCR_VECTKEYSTAT_Msk          (0xFFFFUL << SCB_AIRCR_VECTKEYSTAT_Pos)        /*!< SCB 
 522:.\CMSIS\Core\Include/core_cm4.h **** 
 523:.\CMSIS\Core\Include/core_cm4.h **** #define SCB_AIRCR_ENDIANESS_Pos            15U                                            /*!< SCB 
 524:.\CMSIS\Core\Include/core_cm4.h **** #define SCB_AIRCR_ENDIANESS_Msk            (1UL << SCB_AIRCR_ENDIANESS_Pos)               /*!< SCB 
 525:.\CMSIS\Core\Include/core_cm4.h **** 
 526:.\CMSIS\Core\Include/core_cm4.h **** #define SCB_AIRCR_PRIGROUP_Pos              8U                                            /*!< SCB 
 527:.\CMSIS\Core\Include/core_cm4.h **** #define SCB_AIRCR_PRIGROUP_Msk             (7UL << SCB_AIRCR_PRIGROUP_Pos)                /*!< SCB 
 528:.\CMSIS\Core\Include/core_cm4.h **** 
 529:.\CMSIS\Core\Include/core_cm4.h **** #define SCB_AIRCR_SYSRESETREQ_Pos           2U                                            /*!< SCB 
 530:.\CMSIS\Core\Include/core_cm4.h **** #define SCB_AIRCR_SYSRESETREQ_Msk          (1UL << SCB_AIRCR_SYSRESETREQ_Pos)             /*!< SCB 
 531:.\CMSIS\Core\Include/core_cm4.h **** 
 532:.\CMSIS\Core\Include/core_cm4.h **** #define SCB_AIRCR_VECTCLRACTIVE_Pos         1U                                            /*!< SCB 
 533:.\CMSIS\Core\Include/core_cm4.h **** #define SCB_AIRCR_VECTCLRACTIVE_Msk        (1UL << SCB_AIRCR_VECTCLRACTIVE_Pos)           /*!< SCB 
 534:.\CMSIS\Core\Include/core_cm4.h **** 
 535:.\CMSIS\Core\Include/core_cm4.h **** #define SCB_AIRCR_VECTRESET_Pos             0U                                            /*!< SCB 
ARM GAS  C:\Users\nicpa\AppData\Local\Temp\ccIFCjQH.s 			page 41


 536:.\CMSIS\Core\Include/core_cm4.h **** #define SCB_AIRCR_VECTRESET_Msk            (1UL /*<< SCB_AIRCR_VECTRESET_Pos*/)           /*!< SCB 
 537:.\CMSIS\Core\Include/core_cm4.h **** 
 538:.\CMSIS\Core\Include/core_cm4.h **** /* SCB System Control Register Definitions */
 539:.\CMSIS\Core\Include/core_cm4.h **** #define SCB_SCR_SEVONPEND_Pos               4U                                            /*!< SCB 
 540:.\CMSIS\Core\Include/core_cm4.h **** #define SCB_SCR_SEVONPEND_Msk              (1UL << SCB_SCR_SEVONPEND_Pos)                 /*!< SCB 
 541:.\CMSIS\Core\Include/core_cm4.h **** 
 542:.\CMSIS\Core\Include/core_cm4.h **** #define SCB_SCR_SLEEPDEEP_Pos               2U                                            /*!< SCB 
 543:.\CMSIS\Core\Include/core_cm4.h **** #define SCB_SCR_SLEEPDEEP_Msk              (1UL << SCB_SCR_SLEEPDEEP_Pos)                 /*!< SCB 
 544:.\CMSIS\Core\Include/core_cm4.h **** 
 545:.\CMSIS\Core\Include/core_cm4.h **** #define SCB_SCR_SLEEPONEXIT_Pos             1U                                            /*!< SCB 
 546:.\CMSIS\Core\Include/core_cm4.h **** #define SCB_SCR_SLEEPONEXIT_Msk            (1UL << SCB_SCR_SLEEPONEXIT_Pos)               /*!< SCB 
 547:.\CMSIS\Core\Include/core_cm4.h **** 
 548:.\CMSIS\Core\Include/core_cm4.h **** /* SCB Configuration Control Register Definitions */
 549:.\CMSIS\Core\Include/core_cm4.h **** #define SCB_CCR_STKALIGN_Pos                9U                                            /*!< SCB 
 550:.\CMSIS\Core\Include/core_cm4.h **** #define SCB_CCR_STKALIGN_Msk               (1UL << SCB_CCR_STKALIGN_Pos)                  /*!< SCB 
 551:.\CMSIS\Core\Include/core_cm4.h **** 
 552:.\CMSIS\Core\Include/core_cm4.h **** #define SCB_CCR_BFHFNMIGN_Pos               8U                                            /*!< SCB 
 553:.\CMSIS\Core\Include/core_cm4.h **** #define SCB_CCR_BFHFNMIGN_Msk              (1UL << SCB_CCR_BFHFNMIGN_Pos)                 /*!< SCB 
 554:.\CMSIS\Core\Include/core_cm4.h **** 
 555:.\CMSIS\Core\Include/core_cm4.h **** #define SCB_CCR_DIV_0_TRP_Pos               4U                                            /*!< SCB 
 556:.\CMSIS\Core\Include/core_cm4.h **** #define SCB_CCR_DIV_0_TRP_Msk              (1UL << SCB_CCR_DIV_0_TRP_Pos)                 /*!< SCB 
 557:.\CMSIS\Core\Include/core_cm4.h **** 
 558:.\CMSIS\Core\Include/core_cm4.h **** #define SCB_CCR_UNALIGN_TRP_Pos             3U                                            /*!< SCB 
 559:.\CMSIS\Core\Include/core_cm4.h **** #define SCB_CCR_UNALIGN_TRP_Msk            (1UL << SCB_CCR_UNALIGN_TRP_Pos)               /*!< SCB 
 560:.\CMSIS\Core\Include/core_cm4.h **** 
 561:.\CMSIS\Core\Include/core_cm4.h **** #define SCB_CCR_USERSETMPEND_Pos            1U                                            /*!< SCB 
 562:.\CMSIS\Core\Include/core_cm4.h **** #define SCB_CCR_USERSETMPEND_Msk           (1UL << SCB_CCR_USERSETMPEND_Pos)              /*!< SCB 
 563:.\CMSIS\Core\Include/core_cm4.h **** 
 564:.\CMSIS\Core\Include/core_cm4.h **** #define SCB_CCR_NONBASETHRDENA_Pos          0U                                            /*!< SCB 
 565:.\CMSIS\Core\Include/core_cm4.h **** #define SCB_CCR_NONBASETHRDENA_Msk         (1UL /*<< SCB_CCR_NONBASETHRDENA_Pos*/)        /*!< SCB 
 566:.\CMSIS\Core\Include/core_cm4.h **** 
 567:.\CMSIS\Core\Include/core_cm4.h **** /* SCB System Handler Control and State Register Definitions */
 568:.\CMSIS\Core\Include/core_cm4.h **** #define SCB_SHCSR_USGFAULTENA_Pos          18U                                            /*!< SCB 
 569:.\CMSIS\Core\Include/core_cm4.h **** #define SCB_SHCSR_USGFAULTENA_Msk          (1UL << SCB_SHCSR_USGFAULTENA_Pos)             /*!< SCB 
 570:.\CMSIS\Core\Include/core_cm4.h **** 
 571:.\CMSIS\Core\Include/core_cm4.h **** #define SCB_SHCSR_BUSFAULTENA_Pos          17U                                            /*!< SCB 
 572:.\CMSIS\Core\Include/core_cm4.h **** #define SCB_SHCSR_BUSFAULTENA_Msk          (1UL << SCB_SHCSR_BUSFAULTENA_Pos)             /*!< SCB 
 573:.\CMSIS\Core\Include/core_cm4.h **** 
 574:.\CMSIS\Core\Include/core_cm4.h **** #define SCB_SHCSR_MEMFAULTENA_Pos          16U                                            /*!< SCB 
 575:.\CMSIS\Core\Include/core_cm4.h **** #define SCB_SHCSR_MEMFAULTENA_Msk          (1UL << SCB_SHCSR_MEMFAULTENA_Pos)             /*!< SCB 
 576:.\CMSIS\Core\Include/core_cm4.h **** 
 577:.\CMSIS\Core\Include/core_cm4.h **** #define SCB_SHCSR_SVCALLPENDED_Pos         15U                                            /*!< SCB 
 578:.\CMSIS\Core\Include/core_cm4.h **** #define SCB_SHCSR_SVCALLPENDED_Msk         (1UL << SCB_SHCSR_SVCALLPENDED_Pos)            /*!< SCB 
 579:.\CMSIS\Core\Include/core_cm4.h **** 
 580:.\CMSIS\Core\Include/core_cm4.h **** #define SCB_SHCSR_BUSFAULTPENDED_Pos       14U                                            /*!< SCB 
 581:.\CMSIS\Core\Include/core_cm4.h **** #define SCB_SHCSR_BUSFAULTPENDED_Msk       (1UL << SCB_SHCSR_BUSFAULTPENDED_Pos)          /*!< SCB 
 582:.\CMSIS\Core\Include/core_cm4.h **** 
 583:.\CMSIS\Core\Include/core_cm4.h **** #define SCB_SHCSR_MEMFAULTPENDED_Pos       13U                                            /*!< SCB 
 584:.\CMSIS\Core\Include/core_cm4.h **** #define SCB_SHCSR_MEMFAULTPENDED_Msk       (1UL << SCB_SHCSR_MEMFAULTPENDED_Pos)          /*!< SCB 
 585:.\CMSIS\Core\Include/core_cm4.h **** 
 586:.\CMSIS\Core\Include/core_cm4.h **** #define SCB_SHCSR_USGFAULTPENDED_Pos       12U                                            /*!< SCB 
 587:.\CMSIS\Core\Include/core_cm4.h **** #define SCB_SHCSR_USGFAULTPENDED_Msk       (1UL << SCB_SHCSR_USGFAULTPENDED_Pos)          /*!< SCB 
 588:.\CMSIS\Core\Include/core_cm4.h **** 
 589:.\CMSIS\Core\Include/core_cm4.h **** #define SCB_SHCSR_SYSTICKACT_Pos           11U                                            /*!< SCB 
 590:.\CMSIS\Core\Include/core_cm4.h **** #define SCB_SHCSR_SYSTICKACT_Msk           (1UL << SCB_SHCSR_SYSTICKACT_Pos)              /*!< SCB 
 591:.\CMSIS\Core\Include/core_cm4.h **** 
 592:.\CMSIS\Core\Include/core_cm4.h **** #define SCB_SHCSR_PENDSVACT_Pos            10U                                            /*!< SCB 
ARM GAS  C:\Users\nicpa\AppData\Local\Temp\ccIFCjQH.s 			page 42


 593:.\CMSIS\Core\Include/core_cm4.h **** #define SCB_SHCSR_PENDSVACT_Msk            (1UL << SCB_SHCSR_PENDSVACT_Pos)               /*!< SCB 
 594:.\CMSIS\Core\Include/core_cm4.h **** 
 595:.\CMSIS\Core\Include/core_cm4.h **** #define SCB_SHCSR_MONITORACT_Pos            8U                                            /*!< SCB 
 596:.\CMSIS\Core\Include/core_cm4.h **** #define SCB_SHCSR_MONITORACT_Msk           (1UL << SCB_SHCSR_MONITORACT_Pos)              /*!< SCB 
 597:.\CMSIS\Core\Include/core_cm4.h **** 
 598:.\CMSIS\Core\Include/core_cm4.h **** #define SCB_SHCSR_SVCALLACT_Pos             7U                                            /*!< SCB 
 599:.\CMSIS\Core\Include/core_cm4.h **** #define SCB_SHCSR_SVCALLACT_Msk            (1UL << SCB_SHCSR_SVCALLACT_Pos)               /*!< SCB 
 600:.\CMSIS\Core\Include/core_cm4.h **** 
 601:.\CMSIS\Core\Include/core_cm4.h **** #define SCB_SHCSR_USGFAULTACT_Pos           3U                                            /*!< SCB 
 602:.\CMSIS\Core\Include/core_cm4.h **** #define SCB_SHCSR_USGFAULTACT_Msk          (1UL << SCB_SHCSR_USGFAULTACT_Pos)             /*!< SCB 
 603:.\CMSIS\Core\Include/core_cm4.h **** 
 604:.\CMSIS\Core\Include/core_cm4.h **** #define SCB_SHCSR_BUSFAULTACT_Pos           1U                                            /*!< SCB 
 605:.\CMSIS\Core\Include/core_cm4.h **** #define SCB_SHCSR_BUSFAULTACT_Msk          (1UL << SCB_SHCSR_BUSFAULTACT_Pos)             /*!< SCB 
 606:.\CMSIS\Core\Include/core_cm4.h **** 
 607:.\CMSIS\Core\Include/core_cm4.h **** #define SCB_SHCSR_MEMFAULTACT_Pos           0U                                            /*!< SCB 
 608:.\CMSIS\Core\Include/core_cm4.h **** #define SCB_SHCSR_MEMFAULTACT_Msk          (1UL /*<< SCB_SHCSR_MEMFAULTACT_Pos*/)         /*!< SCB 
 609:.\CMSIS\Core\Include/core_cm4.h **** 
 610:.\CMSIS\Core\Include/core_cm4.h **** /* SCB Configurable Fault Status Register Definitions */
 611:.\CMSIS\Core\Include/core_cm4.h **** #define SCB_CFSR_USGFAULTSR_Pos            16U                                            /*!< SCB 
 612:.\CMSIS\Core\Include/core_cm4.h **** #define SCB_CFSR_USGFAULTSR_Msk            (0xFFFFUL << SCB_CFSR_USGFAULTSR_Pos)          /*!< SCB 
 613:.\CMSIS\Core\Include/core_cm4.h **** 
 614:.\CMSIS\Core\Include/core_cm4.h **** #define SCB_CFSR_BUSFAULTSR_Pos             8U                                            /*!< SCB 
 615:.\CMSIS\Core\Include/core_cm4.h **** #define SCB_CFSR_BUSFAULTSR_Msk            (0xFFUL << SCB_CFSR_BUSFAULTSR_Pos)            /*!< SCB 
 616:.\CMSIS\Core\Include/core_cm4.h **** 
 617:.\CMSIS\Core\Include/core_cm4.h **** #define SCB_CFSR_MEMFAULTSR_Pos             0U                                            /*!< SCB 
 618:.\CMSIS\Core\Include/core_cm4.h **** #define SCB_CFSR_MEMFAULTSR_Msk            (0xFFUL /*<< SCB_CFSR_MEMFAULTSR_Pos*/)        /*!< SCB 
 619:.\CMSIS\Core\Include/core_cm4.h **** 
 620:.\CMSIS\Core\Include/core_cm4.h **** /* MemManage Fault Status Register (part of SCB Configurable Fault Status Register) */
 621:.\CMSIS\Core\Include/core_cm4.h **** #define SCB_CFSR_MMARVALID_Pos             (SCB_SHCSR_MEMFAULTACT_Pos + 7U)               /*!< SCB 
 622:.\CMSIS\Core\Include/core_cm4.h **** #define SCB_CFSR_MMARVALID_Msk             (1UL << SCB_CFSR_MMARVALID_Pos)                /*!< SCB 
 623:.\CMSIS\Core\Include/core_cm4.h **** 
 624:.\CMSIS\Core\Include/core_cm4.h **** #define SCB_CFSR_MLSPERR_Pos               (SCB_SHCSR_MEMFAULTACT_Pos + 5U)               /*!< SCB 
 625:.\CMSIS\Core\Include/core_cm4.h **** #define SCB_CFSR_MLSPERR_Msk               (1UL << SCB_CFSR_MLSPERR_Pos)                  /*!< SCB 
 626:.\CMSIS\Core\Include/core_cm4.h **** 
 627:.\CMSIS\Core\Include/core_cm4.h **** #define SCB_CFSR_MSTKERR_Pos               (SCB_SHCSR_MEMFAULTACT_Pos + 4U)               /*!< SCB 
 628:.\CMSIS\Core\Include/core_cm4.h **** #define SCB_CFSR_MSTKERR_Msk               (1UL << SCB_CFSR_MSTKERR_Pos)                  /*!< SCB 
 629:.\CMSIS\Core\Include/core_cm4.h **** 
 630:.\CMSIS\Core\Include/core_cm4.h **** #define SCB_CFSR_MUNSTKERR_Pos             (SCB_SHCSR_MEMFAULTACT_Pos + 3U)               /*!< SCB 
 631:.\CMSIS\Core\Include/core_cm4.h **** #define SCB_CFSR_MUNSTKERR_Msk             (1UL << SCB_CFSR_MUNSTKERR_Pos)                /*!< SCB 
 632:.\CMSIS\Core\Include/core_cm4.h **** 
 633:.\CMSIS\Core\Include/core_cm4.h **** #define SCB_CFSR_DACCVIOL_Pos              (SCB_SHCSR_MEMFAULTACT_Pos + 1U)               /*!< SCB 
 634:.\CMSIS\Core\Include/core_cm4.h **** #define SCB_CFSR_DACCVIOL_Msk              (1UL << SCB_CFSR_DACCVIOL_Pos)                 /*!< SCB 
 635:.\CMSIS\Core\Include/core_cm4.h **** 
 636:.\CMSIS\Core\Include/core_cm4.h **** #define SCB_CFSR_IACCVIOL_Pos              (SCB_SHCSR_MEMFAULTACT_Pos + 0U)               /*!< SCB 
 637:.\CMSIS\Core\Include/core_cm4.h **** #define SCB_CFSR_IACCVIOL_Msk              (1UL /*<< SCB_CFSR_IACCVIOL_Pos*/)             /*!< SCB 
 638:.\CMSIS\Core\Include/core_cm4.h **** 
 639:.\CMSIS\Core\Include/core_cm4.h **** /* BusFault Status Register (part of SCB Configurable Fault Status Register) */
 640:.\CMSIS\Core\Include/core_cm4.h **** #define SCB_CFSR_BFARVALID_Pos            (SCB_CFSR_BUSFAULTSR_Pos + 7U)                  /*!< SCB 
 641:.\CMSIS\Core\Include/core_cm4.h **** #define SCB_CFSR_BFARVALID_Msk            (1UL << SCB_CFSR_BFARVALID_Pos)                 /*!< SCB 
 642:.\CMSIS\Core\Include/core_cm4.h **** 
 643:.\CMSIS\Core\Include/core_cm4.h **** #define SCB_CFSR_LSPERR_Pos               (SCB_CFSR_BUSFAULTSR_Pos + 5U)                  /*!< SCB 
 644:.\CMSIS\Core\Include/core_cm4.h **** #define SCB_CFSR_LSPERR_Msk               (1UL << SCB_CFSR_LSPERR_Pos)                    /*!< SCB 
 645:.\CMSIS\Core\Include/core_cm4.h **** 
 646:.\CMSIS\Core\Include/core_cm4.h **** #define SCB_CFSR_STKERR_Pos               (SCB_CFSR_BUSFAULTSR_Pos + 4U)                  /*!< SCB 
 647:.\CMSIS\Core\Include/core_cm4.h **** #define SCB_CFSR_STKERR_Msk               (1UL << SCB_CFSR_STKERR_Pos)                    /*!< SCB 
 648:.\CMSIS\Core\Include/core_cm4.h **** 
 649:.\CMSIS\Core\Include/core_cm4.h **** #define SCB_CFSR_UNSTKERR_Pos             (SCB_CFSR_BUSFAULTSR_Pos + 3U)                  /*!< SCB 
ARM GAS  C:\Users\nicpa\AppData\Local\Temp\ccIFCjQH.s 			page 43


 650:.\CMSIS\Core\Include/core_cm4.h **** #define SCB_CFSR_UNSTKERR_Msk             (1UL << SCB_CFSR_UNSTKERR_Pos)                  /*!< SCB 
 651:.\CMSIS\Core\Include/core_cm4.h **** 
 652:.\CMSIS\Core\Include/core_cm4.h **** #define SCB_CFSR_IMPRECISERR_Pos          (SCB_CFSR_BUSFAULTSR_Pos + 2U)                  /*!< SCB 
 653:.\CMSIS\Core\Include/core_cm4.h **** #define SCB_CFSR_IMPRECISERR_Msk          (1UL << SCB_CFSR_IMPRECISERR_Pos)               /*!< SCB 
 654:.\CMSIS\Core\Include/core_cm4.h **** 
 655:.\CMSIS\Core\Include/core_cm4.h **** #define SCB_CFSR_PRECISERR_Pos            (SCB_CFSR_BUSFAULTSR_Pos + 1U)                  /*!< SCB 
 656:.\CMSIS\Core\Include/core_cm4.h **** #define SCB_CFSR_PRECISERR_Msk            (1UL << SCB_CFSR_PRECISERR_Pos)                 /*!< SCB 
 657:.\CMSIS\Core\Include/core_cm4.h **** 
 658:.\CMSIS\Core\Include/core_cm4.h **** #define SCB_CFSR_IBUSERR_Pos              (SCB_CFSR_BUSFAULTSR_Pos + 0U)                  /*!< SCB 
 659:.\CMSIS\Core\Include/core_cm4.h **** #define SCB_CFSR_IBUSERR_Msk              (1UL << SCB_CFSR_IBUSERR_Pos)                   /*!< SCB 
 660:.\CMSIS\Core\Include/core_cm4.h **** 
 661:.\CMSIS\Core\Include/core_cm4.h **** /* UsageFault Status Register (part of SCB Configurable Fault Status Register) */
 662:.\CMSIS\Core\Include/core_cm4.h **** #define SCB_CFSR_DIVBYZERO_Pos            (SCB_CFSR_USGFAULTSR_Pos + 9U)                  /*!< SCB 
 663:.\CMSIS\Core\Include/core_cm4.h **** #define SCB_CFSR_DIVBYZERO_Msk            (1UL << SCB_CFSR_DIVBYZERO_Pos)                 /*!< SCB 
 664:.\CMSIS\Core\Include/core_cm4.h **** 
 665:.\CMSIS\Core\Include/core_cm4.h **** #define SCB_CFSR_UNALIGNED_Pos            (SCB_CFSR_USGFAULTSR_Pos + 8U)                  /*!< SCB 
 666:.\CMSIS\Core\Include/core_cm4.h **** #define SCB_CFSR_UNALIGNED_Msk            (1UL << SCB_CFSR_UNALIGNED_Pos)                 /*!< SCB 
 667:.\CMSIS\Core\Include/core_cm4.h **** 
 668:.\CMSIS\Core\Include/core_cm4.h **** #define SCB_CFSR_NOCP_Pos                 (SCB_CFSR_USGFAULTSR_Pos + 3U)                  /*!< SCB 
 669:.\CMSIS\Core\Include/core_cm4.h **** #define SCB_CFSR_NOCP_Msk                 (1UL << SCB_CFSR_NOCP_Pos)                      /*!< SCB 
 670:.\CMSIS\Core\Include/core_cm4.h **** 
 671:.\CMSIS\Core\Include/core_cm4.h **** #define SCB_CFSR_INVPC_Pos                (SCB_CFSR_USGFAULTSR_Pos + 2U)                  /*!< SCB 
 672:.\CMSIS\Core\Include/core_cm4.h **** #define SCB_CFSR_INVPC_Msk                (1UL << SCB_CFSR_INVPC_Pos)                     /*!< SCB 
 673:.\CMSIS\Core\Include/core_cm4.h **** 
 674:.\CMSIS\Core\Include/core_cm4.h **** #define SCB_CFSR_INVSTATE_Pos             (SCB_CFSR_USGFAULTSR_Pos + 1U)                  /*!< SCB 
 675:.\CMSIS\Core\Include/core_cm4.h **** #define SCB_CFSR_INVSTATE_Msk             (1UL << SCB_CFSR_INVSTATE_Pos)                  /*!< SCB 
 676:.\CMSIS\Core\Include/core_cm4.h **** 
 677:.\CMSIS\Core\Include/core_cm4.h **** #define SCB_CFSR_UNDEFINSTR_Pos           (SCB_CFSR_USGFAULTSR_Pos + 0U)                  /*!< SCB 
 678:.\CMSIS\Core\Include/core_cm4.h **** #define SCB_CFSR_UNDEFINSTR_Msk           (1UL << SCB_CFSR_UNDEFINSTR_Pos)                /*!< SCB 
 679:.\CMSIS\Core\Include/core_cm4.h **** 
 680:.\CMSIS\Core\Include/core_cm4.h **** /* SCB Hard Fault Status Register Definitions */
 681:.\CMSIS\Core\Include/core_cm4.h **** #define SCB_HFSR_DEBUGEVT_Pos              31U                                            /*!< SCB 
 682:.\CMSIS\Core\Include/core_cm4.h **** #define SCB_HFSR_DEBUGEVT_Msk              (1UL << SCB_HFSR_DEBUGEVT_Pos)                 /*!< SCB 
 683:.\CMSIS\Core\Include/core_cm4.h **** 
 684:.\CMSIS\Core\Include/core_cm4.h **** #define SCB_HFSR_FORCED_Pos                30U                                            /*!< SCB 
 685:.\CMSIS\Core\Include/core_cm4.h **** #define SCB_HFSR_FORCED_Msk                (1UL << SCB_HFSR_FORCED_Pos)                   /*!< SCB 
 686:.\CMSIS\Core\Include/core_cm4.h **** 
 687:.\CMSIS\Core\Include/core_cm4.h **** #define SCB_HFSR_VECTTBL_Pos                1U                                            /*!< SCB 
 688:.\CMSIS\Core\Include/core_cm4.h **** #define SCB_HFSR_VECTTBL_Msk               (1UL << SCB_HFSR_VECTTBL_Pos)                  /*!< SCB 
 689:.\CMSIS\Core\Include/core_cm4.h **** 
 690:.\CMSIS\Core\Include/core_cm4.h **** /* SCB Debug Fault Status Register Definitions */
 691:.\CMSIS\Core\Include/core_cm4.h **** #define SCB_DFSR_EXTERNAL_Pos               4U                                            /*!< SCB 
 692:.\CMSIS\Core\Include/core_cm4.h **** #define SCB_DFSR_EXTERNAL_Msk              (1UL << SCB_DFSR_EXTERNAL_Pos)                 /*!< SCB 
 693:.\CMSIS\Core\Include/core_cm4.h **** 
 694:.\CMSIS\Core\Include/core_cm4.h **** #define SCB_DFSR_VCATCH_Pos                 3U                                            /*!< SCB 
 695:.\CMSIS\Core\Include/core_cm4.h **** #define SCB_DFSR_VCATCH_Msk                (1UL << SCB_DFSR_VCATCH_Pos)                   /*!< SCB 
 696:.\CMSIS\Core\Include/core_cm4.h **** 
 697:.\CMSIS\Core\Include/core_cm4.h **** #define SCB_DFSR_DWTTRAP_Pos                2U                                            /*!< SCB 
 698:.\CMSIS\Core\Include/core_cm4.h **** #define SCB_DFSR_DWTTRAP_Msk               (1UL << SCB_DFSR_DWTTRAP_Pos)                  /*!< SCB 
 699:.\CMSIS\Core\Include/core_cm4.h **** 
 700:.\CMSIS\Core\Include/core_cm4.h **** #define SCB_DFSR_BKPT_Pos                   1U                                            /*!< SCB 
 701:.\CMSIS\Core\Include/core_cm4.h **** #define SCB_DFSR_BKPT_Msk                  (1UL << SCB_DFSR_BKPT_Pos)                     /*!< SCB 
 702:.\CMSIS\Core\Include/core_cm4.h **** 
 703:.\CMSIS\Core\Include/core_cm4.h **** #define SCB_DFSR_HALTED_Pos                 0U                                            /*!< SCB 
 704:.\CMSIS\Core\Include/core_cm4.h **** #define SCB_DFSR_HALTED_Msk                (1UL /*<< SCB_DFSR_HALTED_Pos*/)               /*!< SCB 
 705:.\CMSIS\Core\Include/core_cm4.h **** 
 706:.\CMSIS\Core\Include/core_cm4.h **** /*@} end of group CMSIS_SCB */
ARM GAS  C:\Users\nicpa\AppData\Local\Temp\ccIFCjQH.s 			page 44


 707:.\CMSIS\Core\Include/core_cm4.h **** 
 708:.\CMSIS\Core\Include/core_cm4.h **** 
 709:.\CMSIS\Core\Include/core_cm4.h **** /**
 710:.\CMSIS\Core\Include/core_cm4.h ****   \ingroup  CMSIS_core_register
 711:.\CMSIS\Core\Include/core_cm4.h ****   \defgroup CMSIS_SCnSCB System Controls not in SCB (SCnSCB)
 712:.\CMSIS\Core\Include/core_cm4.h ****   \brief    Type definitions for the System Control and ID Register not in the SCB
 713:.\CMSIS\Core\Include/core_cm4.h ****   @{
 714:.\CMSIS\Core\Include/core_cm4.h ****  */
 715:.\CMSIS\Core\Include/core_cm4.h **** 
 716:.\CMSIS\Core\Include/core_cm4.h **** /**
 717:.\CMSIS\Core\Include/core_cm4.h ****   \brief  Structure type to access the System Control and ID Register not in the SCB.
 718:.\CMSIS\Core\Include/core_cm4.h ****  */
 719:.\CMSIS\Core\Include/core_cm4.h **** typedef struct
 720:.\CMSIS\Core\Include/core_cm4.h **** {
 721:.\CMSIS\Core\Include/core_cm4.h ****         uint32_t RESERVED0[1U];
 722:.\CMSIS\Core\Include/core_cm4.h ****   __IM  uint32_t ICTR;                   /*!< Offset: 0x004 (R/ )  Interrupt Controller Type Regist
 723:.\CMSIS\Core\Include/core_cm4.h ****   __IOM uint32_t ACTLR;                  /*!< Offset: 0x008 (R/W)  Auxiliary Control Register */
 724:.\CMSIS\Core\Include/core_cm4.h **** } SCnSCB_Type;
 725:.\CMSIS\Core\Include/core_cm4.h **** 
 726:.\CMSIS\Core\Include/core_cm4.h **** /* Interrupt Controller Type Register Definitions */
 727:.\CMSIS\Core\Include/core_cm4.h **** #define SCnSCB_ICTR_INTLINESNUM_Pos         0U                                         /*!< ICTR: I
 728:.\CMSIS\Core\Include/core_cm4.h **** #define SCnSCB_ICTR_INTLINESNUM_Msk        (0xFUL /*<< SCnSCB_ICTR_INTLINESNUM_Pos*/)  /*!< ICTR: I
 729:.\CMSIS\Core\Include/core_cm4.h **** 
 730:.\CMSIS\Core\Include/core_cm4.h **** /* Auxiliary Control Register Definitions */
 731:.\CMSIS\Core\Include/core_cm4.h **** #define SCnSCB_ACTLR_DISOOFP_Pos            9U                                         /*!< ACTLR: 
 732:.\CMSIS\Core\Include/core_cm4.h **** #define SCnSCB_ACTLR_DISOOFP_Msk           (1UL << SCnSCB_ACTLR_DISOOFP_Pos)           /*!< ACTLR: 
 733:.\CMSIS\Core\Include/core_cm4.h **** 
 734:.\CMSIS\Core\Include/core_cm4.h **** #define SCnSCB_ACTLR_DISFPCA_Pos            8U                                         /*!< ACTLR: 
 735:.\CMSIS\Core\Include/core_cm4.h **** #define SCnSCB_ACTLR_DISFPCA_Msk           (1UL << SCnSCB_ACTLR_DISFPCA_Pos)           /*!< ACTLR: 
 736:.\CMSIS\Core\Include/core_cm4.h **** 
 737:.\CMSIS\Core\Include/core_cm4.h **** #define SCnSCB_ACTLR_DISFOLD_Pos            2U                                         /*!< ACTLR: 
 738:.\CMSIS\Core\Include/core_cm4.h **** #define SCnSCB_ACTLR_DISFOLD_Msk           (1UL << SCnSCB_ACTLR_DISFOLD_Pos)           /*!< ACTLR: 
 739:.\CMSIS\Core\Include/core_cm4.h **** 
 740:.\CMSIS\Core\Include/core_cm4.h **** #define SCnSCB_ACTLR_DISDEFWBUF_Pos         1U                                         /*!< ACTLR: 
 741:.\CMSIS\Core\Include/core_cm4.h **** #define SCnSCB_ACTLR_DISDEFWBUF_Msk        (1UL << SCnSCB_ACTLR_DISDEFWBUF_Pos)        /*!< ACTLR: 
 742:.\CMSIS\Core\Include/core_cm4.h **** 
 743:.\CMSIS\Core\Include/core_cm4.h **** #define SCnSCB_ACTLR_DISMCYCINT_Pos         0U                                         /*!< ACTLR: 
 744:.\CMSIS\Core\Include/core_cm4.h **** #define SCnSCB_ACTLR_DISMCYCINT_Msk        (1UL /*<< SCnSCB_ACTLR_DISMCYCINT_Pos*/)    /*!< ACTLR: 
 745:.\CMSIS\Core\Include/core_cm4.h **** 
 746:.\CMSIS\Core\Include/core_cm4.h **** /*@} end of group CMSIS_SCnotSCB */
 747:.\CMSIS\Core\Include/core_cm4.h **** 
 748:.\CMSIS\Core\Include/core_cm4.h **** 
 749:.\CMSIS\Core\Include/core_cm4.h **** /**
 750:.\CMSIS\Core\Include/core_cm4.h ****   \ingroup  CMSIS_core_register
 751:.\CMSIS\Core\Include/core_cm4.h ****   \defgroup CMSIS_SysTick     System Tick Timer (SysTick)
 752:.\CMSIS\Core\Include/core_cm4.h ****   \brief    Type definitions for the System Timer Registers.
 753:.\CMSIS\Core\Include/core_cm4.h ****   @{
 754:.\CMSIS\Core\Include/core_cm4.h ****  */
 755:.\CMSIS\Core\Include/core_cm4.h **** 
 756:.\CMSIS\Core\Include/core_cm4.h **** /**
 757:.\CMSIS\Core\Include/core_cm4.h ****   \brief  Structure type to access the System Timer (SysTick).
 758:.\CMSIS\Core\Include/core_cm4.h ****  */
 759:.\CMSIS\Core\Include/core_cm4.h **** typedef struct
 760:.\CMSIS\Core\Include/core_cm4.h **** {
 761:.\CMSIS\Core\Include/core_cm4.h ****   __IOM uint32_t CTRL;                   /*!< Offset: 0x000 (R/W)  SysTick Control and Status Regis
 762:.\CMSIS\Core\Include/core_cm4.h ****   __IOM uint32_t LOAD;                   /*!< Offset: 0x004 (R/W)  SysTick Reload Value Register */
 763:.\CMSIS\Core\Include/core_cm4.h ****   __IOM uint32_t VAL;                    /*!< Offset: 0x008 (R/W)  SysTick Current Value Register *
ARM GAS  C:\Users\nicpa\AppData\Local\Temp\ccIFCjQH.s 			page 45


 764:.\CMSIS\Core\Include/core_cm4.h ****   __IM  uint32_t CALIB;                  /*!< Offset: 0x00C (R/ )  SysTick Calibration Register */
 765:.\CMSIS\Core\Include/core_cm4.h **** } SysTick_Type;
 766:.\CMSIS\Core\Include/core_cm4.h **** 
 767:.\CMSIS\Core\Include/core_cm4.h **** /* SysTick Control / Status Register Definitions */
 768:.\CMSIS\Core\Include/core_cm4.h **** #define SysTick_CTRL_COUNTFLAG_Pos         16U                                            /*!< SysT
 769:.\CMSIS\Core\Include/core_cm4.h **** #define SysTick_CTRL_COUNTFLAG_Msk         (1UL << SysTick_CTRL_COUNTFLAG_Pos)            /*!< SysT
 770:.\CMSIS\Core\Include/core_cm4.h **** 
 771:.\CMSIS\Core\Include/core_cm4.h **** #define SysTick_CTRL_CLKSOURCE_Pos          2U                                            /*!< SysT
 772:.\CMSIS\Core\Include/core_cm4.h **** #define SysTick_CTRL_CLKSOURCE_Msk         (1UL << SysTick_CTRL_CLKSOURCE_Pos)            /*!< SysT
 773:.\CMSIS\Core\Include/core_cm4.h **** 
 774:.\CMSIS\Core\Include/core_cm4.h **** #define SysTick_CTRL_TICKINT_Pos            1U                                            /*!< SysT
 775:.\CMSIS\Core\Include/core_cm4.h **** #define SysTick_CTRL_TICKINT_Msk           (1UL << SysTick_CTRL_TICKINT_Pos)              /*!< SysT
 776:.\CMSIS\Core\Include/core_cm4.h **** 
 777:.\CMSIS\Core\Include/core_cm4.h **** #define SysTick_CTRL_ENABLE_Pos             0U                                            /*!< SysT
 778:.\CMSIS\Core\Include/core_cm4.h **** #define SysTick_CTRL_ENABLE_Msk            (1UL /*<< SysTick_CTRL_ENABLE_Pos*/)           /*!< SysT
 779:.\CMSIS\Core\Include/core_cm4.h **** 
 780:.\CMSIS\Core\Include/core_cm4.h **** /* SysTick Reload Register Definitions */
