ARM GAS  C:\Users\nicpa\AppData\Local\Temp\ccNzlYaQ.s 			page 1


   1              		.syntax unified
   2              		.cpu cortex-m4
   3              		.eabi_attribute 27, 1
   4              		.fpu fpv4-sp-d16
   5              		.eabi_attribute 20, 1
   6              		.eabi_attribute 21, 1
   7              		.eabi_attribute 23, 3
   8              		.eabi_attribute 24, 1
   9              		.eabi_attribute 25, 1
  10              		.eabi_attribute 26, 1
  11              		.eabi_attribute 30, 1
  12              		.eabi_attribute 34, 1
  13              		.eabi_attribute 18, 4
  14              		.thumb
  15              		.syntax unified
  16              		.file	"cy_eink_psoc_interface.c"
  17              		.text
  18              	.Ltext0:
  19              		.cfi_sections	.debug_frame
  20              		.section	.text.Cy_EINK_TimerInit,"ax",%progbits
  21              		.align	2
  22              		.global	Cy_EINK_TimerInit
  23              		.thumb
  24              		.thumb_func
  25              		.type	Cy_EINK_TimerInit, %function
  26              	Cy_EINK_TimerInit:
  27              	.LFB661:
  28              		.file 1 "eInk Library\\cy_eink_psoc_interface.c"
   1:eInk Library/cy_eink_psoc_interface.c **** /******************************************************************************
   2:eInk Library/cy_eink_psoc_interface.c **** * File Name: cy_eink_psoc_encapsulation.c
   3:eInk Library/cy_eink_psoc_interface.c **** *
   4:eInk Library/cy_eink_psoc_interface.c **** * Version: 1.10
   5:eInk Library/cy_eink_psoc_interface.c **** *
   6:eInk Library/cy_eink_psoc_interface.c **** * Description: This file contains functions that encapsulate PSoC Component APIs
   7:eInk Library/cy_eink_psoc_interface.c **** *              or Peripheral Driver Library APIs.
   8:eInk Library/cy_eink_psoc_interface.c **** *
   9:eInk Library/cy_eink_psoc_interface.c **** * Hardware Dependency: CY8CKIT-028-EPD E-INK Display Shield
  10:eInk Library/cy_eink_psoc_interface.c **** *
  11:eInk Library/cy_eink_psoc_interface.c **** *******************************************************************************
  12:eInk Library/cy_eink_psoc_interface.c **** * Copyright (2017), Cypress Semiconductor Corporation. All rights reserved.
  13:eInk Library/cy_eink_psoc_interface.c **** *******************************************************************************
  14:eInk Library/cy_eink_psoc_interface.c **** * This software, including source code, documentation and related materials
  15:eInk Library/cy_eink_psoc_interface.c **** * (“Software”), is owned by Cypress Semiconductor Corporation or one of its
  16:eInk Library/cy_eink_psoc_interface.c **** * subsidiaries (“Cypress”) and is protected by and subject to worldwide patent
  17:eInk Library/cy_eink_psoc_interface.c **** * protection (United States and foreign), United States copyright laws and
  18:eInk Library/cy_eink_psoc_interface.c **** * international treaty provisions. Therefore, you may use this Software only
  19:eInk Library/cy_eink_psoc_interface.c **** * as provided in the license agreement accompanying the software package from
  20:eInk Library/cy_eink_psoc_interface.c **** * which you obtained this Software (“EULA”).
  21:eInk Library/cy_eink_psoc_interface.c **** *
  22:eInk Library/cy_eink_psoc_interface.c **** * If no EULA applies, Cypress hereby grants you a personal, nonexclusive,
  23:eInk Library/cy_eink_psoc_interface.c **** * non-transferable license to copy, modify, and compile the Software source
  24:eInk Library/cy_eink_psoc_interface.c **** * code solely for use in connection with Cypress’s integrated circuit products.
  25:eInk Library/cy_eink_psoc_interface.c **** * Any reproduction, modification, translation, compilation, or representation
  26:eInk Library/cy_eink_psoc_interface.c **** * of this Software except as specified above is prohibited without the express
  27:eInk Library/cy_eink_psoc_interface.c **** * written permission of Cypress.
  28:eInk Library/cy_eink_psoc_interface.c **** *
  29:eInk Library/cy_eink_psoc_interface.c **** * Disclaimer: THIS SOFTWARE IS PROVIDED AS-IS, WITH NO WARRANTY OF ANY KIND, 
ARM GAS  C:\Users\nicpa\AppData\Local\Temp\ccNzlYaQ.s 			page 2


  30:eInk Library/cy_eink_psoc_interface.c **** * EXPRESS OR IMPLIED, INCLUDING, BUT NOT LIMITED TO, NONINFRINGEMENT, IMPLIED 
  31:eInk Library/cy_eink_psoc_interface.c **** * WARRANTIES OF MERCHANTABILITY AND FITNESS FOR A PARTICULAR PURPOSE. Cypress 
  32:eInk Library/cy_eink_psoc_interface.c **** * reserves the right to make changes to the Software without notice. Cypress 
  33:eInk Library/cy_eink_psoc_interface.c **** * does not assume any liability arising out of the application or use of the 
  34:eInk Library/cy_eink_psoc_interface.c **** * Software or any product or circuit described in the Software. Cypress does 
  35:eInk Library/cy_eink_psoc_interface.c **** * not authorize its products for use in any products where a malfunction or 
  36:eInk Library/cy_eink_psoc_interface.c **** * failure of the Cypress product may reasonably be expected to result in 
  37:eInk Library/cy_eink_psoc_interface.c **** * significant property damage, injury or death (“High Risk Product”). By 
  38:eInk Library/cy_eink_psoc_interface.c **** * including Cypress’s product in a High Risk Product, the manufacturer of such 
  39:eInk Library/cy_eink_psoc_interface.c **** * system or application assumes all risk of such use and in doing so agrees to 
  40:eInk Library/cy_eink_psoc_interface.c **** * indemnify Cypress against all liability.
  41:eInk Library/cy_eink_psoc_interface.c **** *******************************************************************************/
  42:eInk Library/cy_eink_psoc_interface.c **** /******************************************************************************
  43:eInk Library/cy_eink_psoc_interface.c **** * This file contains functions that encapsulate PSoC Component APIs or Peripheral
  44:eInk Library/cy_eink_psoc_interface.c **** * Driver Library APIs. Functions defined in this file are used by the 
  45:eInk Library/cy_eink_psoc_interface.c **** * cy_eink_hardware_driver.c.
  46:eInk Library/cy_eink_psoc_interface.c **** *
  47:eInk Library/cy_eink_psoc_interface.c **** * For the details of the E-INK display and library functions, see the code  
  48:eInk Library/cy_eink_psoc_interface.c **** * example document of CE218133 - PSoC 6 MCU E-INK Display with CapSense
  49:eInk Library/cy_eink_psoc_interface.c **** *
  50:eInk Library/cy_eink_psoc_interface.c **** * For the details of E-INK display control and communication protocols, see the
  51:eInk Library/cy_eink_psoc_interface.c **** * driver document available at the following location:
  52:eInk Library/cy_eink_psoc_interface.c **** * http://www.pervasivedisplays.com/products/271
  53:eInk Library/cy_eink_psoc_interface.c **** *******************************************************************************/
  54:eInk Library/cy_eink_psoc_interface.c **** 
  55:eInk Library/cy_eink_psoc_interface.c **** /* Header file includes */
  56:eInk Library/cy_eink_psoc_interface.c **** #include "cy_eink_psoc_interface.h"
  57:eInk Library/cy_eink_psoc_interface.c **** 
  58:eInk Library/cy_eink_psoc_interface.c **** uint32_t status = 0;
  59:eInk Library/cy_eink_psoc_interface.c **** 
  60:eInk Library/cy_eink_psoc_interface.c **** /*******************************************************************************
  61:eInk Library/cy_eink_psoc_interface.c **** * Function Name: void Cy_EINK_TimerInit(void)
  62:eInk Library/cy_eink_psoc_interface.c **** ********************************************************************************
  63:eInk Library/cy_eink_psoc_interface.c **** *
  64:eInk Library/cy_eink_psoc_interface.c **** * Summary:
  65:eInk Library/cy_eink_psoc_interface.c **** *  This function clears and initializes the E-INK Timer
  66:eInk Library/cy_eink_psoc_interface.c **** *
  67:eInk Library/cy_eink_psoc_interface.c **** * Parameters:
  68:eInk Library/cy_eink_psoc_interface.c **** *  None
  69:eInk Library/cy_eink_psoc_interface.c **** *
  70:eInk Library/cy_eink_psoc_interface.c **** * Return:
  71:eInk Library/cy_eink_psoc_interface.c **** *  None
  72:eInk Library/cy_eink_psoc_interface.c **** *
  73:eInk Library/cy_eink_psoc_interface.c **** * Side Effects:
  74:eInk Library/cy_eink_psoc_interface.c **** *  None
  75:eInk Library/cy_eink_psoc_interface.c **** *******************************************************************************/
  76:eInk Library/cy_eink_psoc_interface.c **** void Cy_EINK_TimerInit(void)
  77:eInk Library/cy_eink_psoc_interface.c **** {   
  29              		.loc 1 77 0
  30              		.cfi_startproc
  31              		@ args = 0, pretend = 0, frame = 0
  32              		@ frame_needed = 0, uses_anonymous_args = 0
  33 0000 08B5     		push	{r3, lr}
  34              		.cfi_def_cfa_offset 8
  35              		.cfi_offset 3, -8
  36              		.cfi_offset 14, -4
  37              	.LVL0:
ARM GAS  C:\Users\nicpa\AppData\Local\Temp\ccNzlYaQ.s 			page 3


  38              	.LBB134:
  39              	.LBB135:
  40              	.LBB136:
  41              		.file 2 "Generated_Source\\PSoC6\\pdl\\drivers/peripheral/tcpwm/cy_tcpwm_counter.h"
   1:Generated_Source\PSoC6\pdl\drivers/peripheral/tcpwm/cy_tcpwm_counter.h **** /***************************************************************************//**
   2:Generated_Source\PSoC6\pdl\drivers/peripheral/tcpwm/cy_tcpwm_counter.h **** * \file cy_tcpwm_counter.h
   3:Generated_Source\PSoC6\pdl\drivers/peripheral/tcpwm/cy_tcpwm_counter.h **** * \version 1.10
   4:Generated_Source\PSoC6\pdl\drivers/peripheral/tcpwm/cy_tcpwm_counter.h **** *
   5:Generated_Source\PSoC6\pdl\drivers/peripheral/tcpwm/cy_tcpwm_counter.h **** * \brief
   6:Generated_Source\PSoC6\pdl\drivers/peripheral/tcpwm/cy_tcpwm_counter.h **** * The header file of the TCPWM Timer Counter driver.
   7:Generated_Source\PSoC6\pdl\drivers/peripheral/tcpwm/cy_tcpwm_counter.h **** *
   8:Generated_Source\PSoC6\pdl\drivers/peripheral/tcpwm/cy_tcpwm_counter.h **** ********************************************************************************
   9:Generated_Source\PSoC6\pdl\drivers/peripheral/tcpwm/cy_tcpwm_counter.h **** * \copyright
  10:Generated_Source\PSoC6\pdl\drivers/peripheral/tcpwm/cy_tcpwm_counter.h **** * Copyright 2016-2018, Cypress Semiconductor Corporation. All rights reserved.
  11:Generated_Source\PSoC6\pdl\drivers/peripheral/tcpwm/cy_tcpwm_counter.h **** * You may use this file only in accordance with the license, terms, conditions,
  12:Generated_Source\PSoC6\pdl\drivers/peripheral/tcpwm/cy_tcpwm_counter.h **** * disclaimers, and limitations in the end user license agreement accompanying
  13:Generated_Source\PSoC6\pdl\drivers/peripheral/tcpwm/cy_tcpwm_counter.h **** * the software package with which this file was provided.
  14:Generated_Source\PSoC6\pdl\drivers/peripheral/tcpwm/cy_tcpwm_counter.h **** *******************************************************************************/
  15:Generated_Source\PSoC6\pdl\drivers/peripheral/tcpwm/cy_tcpwm_counter.h **** 
  16:Generated_Source\PSoC6\pdl\drivers/peripheral/tcpwm/cy_tcpwm_counter.h **** #if !defined(CY_TCPWM_COUNTER_H)
  17:Generated_Source\PSoC6\pdl\drivers/peripheral/tcpwm/cy_tcpwm_counter.h **** #define CY_TCPWM_COUNTER_H
  18:Generated_Source\PSoC6\pdl\drivers/peripheral/tcpwm/cy_tcpwm_counter.h **** 
  19:Generated_Source\PSoC6\pdl\drivers/peripheral/tcpwm/cy_tcpwm_counter.h **** #include "cy_tcpwm.h"
  20:Generated_Source\PSoC6\pdl\drivers/peripheral/tcpwm/cy_tcpwm_counter.h **** 
  21:Generated_Source\PSoC6\pdl\drivers/peripheral/tcpwm/cy_tcpwm_counter.h **** #if defined(__cplusplus)
  22:Generated_Source\PSoC6\pdl\drivers/peripheral/tcpwm/cy_tcpwm_counter.h **** extern "C" {
  23:Generated_Source\PSoC6\pdl\drivers/peripheral/tcpwm/cy_tcpwm_counter.h **** #endif
  24:Generated_Source\PSoC6\pdl\drivers/peripheral/tcpwm/cy_tcpwm_counter.h **** 
  25:Generated_Source\PSoC6\pdl\drivers/peripheral/tcpwm/cy_tcpwm_counter.h **** /**
  26:Generated_Source\PSoC6\pdl\drivers/peripheral/tcpwm/cy_tcpwm_counter.h **** * \addtogroup group_tcpwm_counter
  27:Generated_Source\PSoC6\pdl\drivers/peripheral/tcpwm/cy_tcpwm_counter.h **** * \{
  28:Generated_Source\PSoC6\pdl\drivers/peripheral/tcpwm/cy_tcpwm_counter.h **** * Driver API for Timer/Counter.
  29:Generated_Source\PSoC6\pdl\drivers/peripheral/tcpwm/cy_tcpwm_counter.h **** * 
  30:Generated_Source\PSoC6\pdl\drivers/peripheral/tcpwm/cy_tcpwm_counter.h **** * The functions and other declarations used in this part of the driver are 
  31:Generated_Source\PSoC6\pdl\drivers/peripheral/tcpwm/cy_tcpwm_counter.h **** * in cy_tcpwm_counter.h. You can also include cy_pdl.h (ModusToolbox only) 
  32:Generated_Source\PSoC6\pdl\drivers/peripheral/tcpwm/cy_tcpwm_counter.h **** * to get access to all functions and declarations in the PDL.
  33:Generated_Source\PSoC6\pdl\drivers/peripheral/tcpwm/cy_tcpwm_counter.h **** */
  34:Generated_Source\PSoC6\pdl\drivers/peripheral/tcpwm/cy_tcpwm_counter.h **** 
  35:Generated_Source\PSoC6\pdl\drivers/peripheral/tcpwm/cy_tcpwm_counter.h **** /**
  36:Generated_Source\PSoC6\pdl\drivers/peripheral/tcpwm/cy_tcpwm_counter.h **** * \defgroup group_tcpwm_macros_counter          Macros
  37:Generated_Source\PSoC6\pdl\drivers/peripheral/tcpwm/cy_tcpwm_counter.h **** * \defgroup group_tcpwm_functions_counter       Functions
  38:Generated_Source\PSoC6\pdl\drivers/peripheral/tcpwm/cy_tcpwm_counter.h **** * \defgroup group_tcpwm_data_structures_counter Data Structures
  39:Generated_Source\PSoC6\pdl\drivers/peripheral/tcpwm/cy_tcpwm_counter.h **** * \} */
  40:Generated_Source\PSoC6\pdl\drivers/peripheral/tcpwm/cy_tcpwm_counter.h **** 
  41:Generated_Source\PSoC6\pdl\drivers/peripheral/tcpwm/cy_tcpwm_counter.h **** /**
  42:Generated_Source\PSoC6\pdl\drivers/peripheral/tcpwm/cy_tcpwm_counter.h **** * \addtogroup group_tcpwm_data_structures_counter
  43:Generated_Source\PSoC6\pdl\drivers/peripheral/tcpwm/cy_tcpwm_counter.h **** * \{
  44:Generated_Source\PSoC6\pdl\drivers/peripheral/tcpwm/cy_tcpwm_counter.h **** */
  45:Generated_Source\PSoC6\pdl\drivers/peripheral/tcpwm/cy_tcpwm_counter.h **** 
  46:Generated_Source\PSoC6\pdl\drivers/peripheral/tcpwm/cy_tcpwm_counter.h **** /** Counter Timer configuration structure */
  47:Generated_Source\PSoC6\pdl\drivers/peripheral/tcpwm/cy_tcpwm_counter.h **** typedef struct cy_stc_tcpwm_counter_config
  48:Generated_Source\PSoC6\pdl\drivers/peripheral/tcpwm/cy_tcpwm_counter.h **** {
  49:Generated_Source\PSoC6\pdl\drivers/peripheral/tcpwm/cy_tcpwm_counter.h ****     uint32_t    period;             /**< Sets the period of the counter */
  50:Generated_Source\PSoC6\pdl\drivers/peripheral/tcpwm/cy_tcpwm_counter.h ****     /** Sets the clock prescaler inside the TCWPM block. See \ref group_tcpwm_counter_clk_prescaler
  51:Generated_Source\PSoC6\pdl\drivers/peripheral/tcpwm/cy_tcpwm_counter.h ****     uint32_t    clockPrescaler;     
  52:Generated_Source\PSoC6\pdl\drivers/peripheral/tcpwm/cy_tcpwm_counter.h ****     uint32_t    runMode;            /**< Sets the run mode. See \ref group_tcpwm_counter_run_modes 
  53:Generated_Source\PSoC6\pdl\drivers/peripheral/tcpwm/cy_tcpwm_counter.h ****     uint32_t    countDirection;     /**< Sets the counter direction. See \ref group_tcpwm_counter_d
ARM GAS  C:\Users\nicpa\AppData\Local\Temp\ccNzlYaQ.s 			page 4


  54:Generated_Source\PSoC6\pdl\drivers/peripheral/tcpwm/cy_tcpwm_counter.h ****     /** The counter can either compare or capture a value. See \ref group_tcpwm_counter_compare_cap
  55:Generated_Source\PSoC6\pdl\drivers/peripheral/tcpwm/cy_tcpwm_counter.h ****     uint32_t    compareOrCapture;   
  56:Generated_Source\PSoC6\pdl\drivers/peripheral/tcpwm/cy_tcpwm_counter.h ****     uint32_t    compare0;           /**< Sets the value for Compare0*/
  57:Generated_Source\PSoC6\pdl\drivers/peripheral/tcpwm/cy_tcpwm_counter.h ****     uint32_t    compare1;           /**< Sets the value for Compare1*/
  58:Generated_Source\PSoC6\pdl\drivers/peripheral/tcpwm/cy_tcpwm_counter.h ****     bool        enableCompareSwap;  /**< If enabled, the compare values are swapped each time the c
  59:Generated_Source\PSoC6\pdl\drivers/peripheral/tcpwm/cy_tcpwm_counter.h ****     /** Enabled an interrupt on the terminal count, capture or compare. See \ref group_tcpwm_interr
  60:Generated_Source\PSoC6\pdl\drivers/peripheral/tcpwm/cy_tcpwm_counter.h ****     uint32_t    interruptSources;
  61:Generated_Source\PSoC6\pdl\drivers/peripheral/tcpwm/cy_tcpwm_counter.h ****     uint32_t    captureInputMode;   /**< Configures how the capture input behaves. See \ref group_t
  62:Generated_Source\PSoC6\pdl\drivers/peripheral/tcpwm/cy_tcpwm_counter.h ****     /** Selects which input the capture uses, the inputs are device-specific. See \ref group_tcpwm_
  63:Generated_Source\PSoC6\pdl\drivers/peripheral/tcpwm/cy_tcpwm_counter.h ****     uint32_t    captureInput;
  64:Generated_Source\PSoC6\pdl\drivers/peripheral/tcpwm/cy_tcpwm_counter.h ****     uint32_t    reloadInputMode;    /**< Configures how the reload input behaves. See \ref group_tc
  65:Generated_Source\PSoC6\pdl\drivers/peripheral/tcpwm/cy_tcpwm_counter.h ****     /** Selects which input the reload uses, the inputs are device-specific. See \ref group_tcpwm_i
  66:Generated_Source\PSoC6\pdl\drivers/peripheral/tcpwm/cy_tcpwm_counter.h ****     uint32_t    reloadInput;
  67:Generated_Source\PSoC6\pdl\drivers/peripheral/tcpwm/cy_tcpwm_counter.h ****     uint32_t    startInputMode;     /**< Configures how the start input behaves. See \ref group_tcp
  68:Generated_Source\PSoC6\pdl\drivers/peripheral/tcpwm/cy_tcpwm_counter.h ****     /** Selects which input the start uses, the inputs are device-specific. See \ref group_tcpwm_in
  69:Generated_Source\PSoC6\pdl\drivers/peripheral/tcpwm/cy_tcpwm_counter.h ****     uint32_t    startInput;
  70:Generated_Source\PSoC6\pdl\drivers/peripheral/tcpwm/cy_tcpwm_counter.h ****     uint32_t    stopInputMode;      /**< Configures how the stop input behaves. See \ref group_tcpw
  71:Generated_Source\PSoC6\pdl\drivers/peripheral/tcpwm/cy_tcpwm_counter.h ****     /** Selects which input the stop uses, the inputs are device-specific. See \ref group_tcpwm_inp
  72:Generated_Source\PSoC6\pdl\drivers/peripheral/tcpwm/cy_tcpwm_counter.h ****     uint32_t    stopInput;
  73:Generated_Source\PSoC6\pdl\drivers/peripheral/tcpwm/cy_tcpwm_counter.h ****     uint32_t    countInputMode;     /**< Configures how the count input behaves. See \ref group_tcp
  74:Generated_Source\PSoC6\pdl\drivers/peripheral/tcpwm/cy_tcpwm_counter.h ****     /** Selects which input the count uses, the inputs are device-specific. See \ref group_tcpwm_in
  75:Generated_Source\PSoC6\pdl\drivers/peripheral/tcpwm/cy_tcpwm_counter.h ****     uint32_t    countInput;
  76:Generated_Source\PSoC6\pdl\drivers/peripheral/tcpwm/cy_tcpwm_counter.h **** }cy_stc_tcpwm_counter_config_t;
  77:Generated_Source\PSoC6\pdl\drivers/peripheral/tcpwm/cy_tcpwm_counter.h **** /** \} group_tcpwm_data_structures_counter */
  78:Generated_Source\PSoC6\pdl\drivers/peripheral/tcpwm/cy_tcpwm_counter.h **** 
  79:Generated_Source\PSoC6\pdl\drivers/peripheral/tcpwm/cy_tcpwm_counter.h **** /**
  80:Generated_Source\PSoC6\pdl\drivers/peripheral/tcpwm/cy_tcpwm_counter.h **** * \addtogroup group_tcpwm_macros_counter
  81:Generated_Source\PSoC6\pdl\drivers/peripheral/tcpwm/cy_tcpwm_counter.h **** * \{
  82:Generated_Source\PSoC6\pdl\drivers/peripheral/tcpwm/cy_tcpwm_counter.h **** * \defgroup group_tcpwm_counter_run_modes Counter Run Modes
  83:Generated_Source\PSoC6\pdl\drivers/peripheral/tcpwm/cy_tcpwm_counter.h **** * \{
  84:Generated_Source\PSoC6\pdl\drivers/peripheral/tcpwm/cy_tcpwm_counter.h **** * Run modes for the counter timer.
  85:Generated_Source\PSoC6\pdl\drivers/peripheral/tcpwm/cy_tcpwm_counter.h **** */
  86:Generated_Source\PSoC6\pdl\drivers/peripheral/tcpwm/cy_tcpwm_counter.h **** #define CY_TCPWM_COUNTER_ONESHOT                (1U)    /**< Counter runs once and then stops */
  87:Generated_Source\PSoC6\pdl\drivers/peripheral/tcpwm/cy_tcpwm_counter.h **** #define CY_TCPWM_COUNTER_CONTINUOUS             (0U)    /**< Counter runs forever */
  88:Generated_Source\PSoC6\pdl\drivers/peripheral/tcpwm/cy_tcpwm_counter.h **** /** \} group_tcpwm_counter_run_modes */
  89:Generated_Source\PSoC6\pdl\drivers/peripheral/tcpwm/cy_tcpwm_counter.h **** 
  90:Generated_Source\PSoC6\pdl\drivers/peripheral/tcpwm/cy_tcpwm_counter.h **** /** \defgroup group_tcpwm_counter_direction Counter Direction
  91:Generated_Source\PSoC6\pdl\drivers/peripheral/tcpwm/cy_tcpwm_counter.h **** * The counter directions.
  92:Generated_Source\PSoC6\pdl\drivers/peripheral/tcpwm/cy_tcpwm_counter.h **** * \{
  93:Generated_Source\PSoC6\pdl\drivers/peripheral/tcpwm/cy_tcpwm_counter.h **** */
  94:Generated_Source\PSoC6\pdl\drivers/peripheral/tcpwm/cy_tcpwm_counter.h **** #define CY_TCPWM_COUNTER_COUNT_UP               (0U)    /**< Counter counts up */
  95:Generated_Source\PSoC6\pdl\drivers/peripheral/tcpwm/cy_tcpwm_counter.h **** #define CY_TCPWM_COUNTER_COUNT_DOWN             (1U)    /**< Counter counts down */
  96:Generated_Source\PSoC6\pdl\drivers/peripheral/tcpwm/cy_tcpwm_counter.h **** /** Counter counts up and down terminal count only occurs on underflow. */
  97:Generated_Source\PSoC6\pdl\drivers/peripheral/tcpwm/cy_tcpwm_counter.h **** #define CY_TCPWM_COUNTER_COUNT_UP_DOWN_1        (2U)
  98:Generated_Source\PSoC6\pdl\drivers/peripheral/tcpwm/cy_tcpwm_counter.h **** /** Counter counts up and down terminal count occurs on both overflow and underflow. */
  99:Generated_Source\PSoC6\pdl\drivers/peripheral/tcpwm/cy_tcpwm_counter.h **** #define CY_TCPWM_COUNTER_COUNT_UP_DOWN_2        (3U)
 100:Generated_Source\PSoC6\pdl\drivers/peripheral/tcpwm/cy_tcpwm_counter.h **** /** \} group_tcpwm_counter_direction */
 101:Generated_Source\PSoC6\pdl\drivers/peripheral/tcpwm/cy_tcpwm_counter.h **** 
 102:Generated_Source\PSoC6\pdl\drivers/peripheral/tcpwm/cy_tcpwm_counter.h **** /** \defgroup group_tcpwm_counter_clk_prescalers Counter CLK Prescalers
 103:Generated_Source\PSoC6\pdl\drivers/peripheral/tcpwm/cy_tcpwm_counter.h **** * \{
 104:Generated_Source\PSoC6\pdl\drivers/peripheral/tcpwm/cy_tcpwm_counter.h **** * The clock prescaler values.
 105:Generated_Source\PSoC6\pdl\drivers/peripheral/tcpwm/cy_tcpwm_counter.h **** */
 106:Generated_Source\PSoC6\pdl\drivers/peripheral/tcpwm/cy_tcpwm_counter.h **** #define CY_TCPWM_COUNTER_PRESCALER_DIVBY_1      (0U) /**< Divide by 1 */
 107:Generated_Source\PSoC6\pdl\drivers/peripheral/tcpwm/cy_tcpwm_counter.h **** #define CY_TCPWM_COUNTER_PRESCALER_DIVBY_2      (1U) /**< Divide by 2 */
 108:Generated_Source\PSoC6\pdl\drivers/peripheral/tcpwm/cy_tcpwm_counter.h **** #define CY_TCPWM_COUNTER_PRESCALER_DIVBY_4      (2U) /**< Divide by 4 */
 109:Generated_Source\PSoC6\pdl\drivers/peripheral/tcpwm/cy_tcpwm_counter.h **** #define CY_TCPWM_COUNTER_PRESCALER_DIVBY_8      (3U) /**< Divide by 8 */
 110:Generated_Source\PSoC6\pdl\drivers/peripheral/tcpwm/cy_tcpwm_counter.h **** #define CY_TCPWM_COUNTER_PRESCALER_DIVBY_16     (4U) /**< Divide by 16 */
ARM GAS  C:\Users\nicpa\AppData\Local\Temp\ccNzlYaQ.s 			page 5


 111:Generated_Source\PSoC6\pdl\drivers/peripheral/tcpwm/cy_tcpwm_counter.h **** #define CY_TCPWM_COUNTER_PRESCALER_DIVBY_32     (5U) /**< Divide by 32 */
 112:Generated_Source\PSoC6\pdl\drivers/peripheral/tcpwm/cy_tcpwm_counter.h **** #define CY_TCPWM_COUNTER_PRESCALER_DIVBY_64     (6U) /**< Divide by 64 */
 113:Generated_Source\PSoC6\pdl\drivers/peripheral/tcpwm/cy_tcpwm_counter.h **** #define CY_TCPWM_COUNTER_PRESCALER_DIVBY_128    (7U) /**< Divide by 128 */
 114:Generated_Source\PSoC6\pdl\drivers/peripheral/tcpwm/cy_tcpwm_counter.h **** /** \} group_tcpwm_counter_clk_prescalers */
 115:Generated_Source\PSoC6\pdl\drivers/peripheral/tcpwm/cy_tcpwm_counter.h **** 
 116:Generated_Source\PSoC6\pdl\drivers/peripheral/tcpwm/cy_tcpwm_counter.h **** /** \defgroup group_tcpwm_counter_compare_capture Counter Compare Capture
 117:Generated_Source\PSoC6\pdl\drivers/peripheral/tcpwm/cy_tcpwm_counter.h **** * \{
 118:Generated_Source\PSoC6\pdl\drivers/peripheral/tcpwm/cy_tcpwm_counter.h **** * A compare or capture mode.
 119:Generated_Source\PSoC6\pdl\drivers/peripheral/tcpwm/cy_tcpwm_counter.h **** */
 120:Generated_Source\PSoC6\pdl\drivers/peripheral/tcpwm/cy_tcpwm_counter.h **** #define CY_TCPWM_COUNTER_MODE_CAPTURE           (2U)  /**< Timer/Counter is in Capture Mode */
 121:Generated_Source\PSoC6\pdl\drivers/peripheral/tcpwm/cy_tcpwm_counter.h **** #define CY_TCPWM_COUNTER_MODE_COMPARE           (0U)  /**< Timer/Counter is in Compare Mode */
 122:Generated_Source\PSoC6\pdl\drivers/peripheral/tcpwm/cy_tcpwm_counter.h **** /** \} group_tcpwm_counter_compare_capture */
 123:Generated_Source\PSoC6\pdl\drivers/peripheral/tcpwm/cy_tcpwm_counter.h **** 
 124:Generated_Source\PSoC6\pdl\drivers/peripheral/tcpwm/cy_tcpwm_counter.h **** /** \defgroup group_tcpwm_counter_status Counter Status
 125:Generated_Source\PSoC6\pdl\drivers/peripheral/tcpwm/cy_tcpwm_counter.h **** * \{
 126:Generated_Source\PSoC6\pdl\drivers/peripheral/tcpwm/cy_tcpwm_counter.h **** * The counter status.
 127:Generated_Source\PSoC6\pdl\drivers/peripheral/tcpwm/cy_tcpwm_counter.h **** */
 128:Generated_Source\PSoC6\pdl\drivers/peripheral/tcpwm/cy_tcpwm_counter.h **** #define CY_TCPWM_COUNTER_STATUS_DOWN_COUNTING   (0x1UL)        /**< Timer/Counter is down counting 
 129:Generated_Source\PSoC6\pdl\drivers/peripheral/tcpwm/cy_tcpwm_counter.h **** #define CY_TCPWM_COUNTER_STATUS_UP_COUNTING     (0x2UL)        /**< Timer/Counter is up counting */
 130:Generated_Source\PSoC6\pdl\drivers/peripheral/tcpwm/cy_tcpwm_counter.h **** 
 131:Generated_Source\PSoC6\pdl\drivers/peripheral/tcpwm/cy_tcpwm_counter.h **** /** Timer/Counter is running */
 132:Generated_Source\PSoC6\pdl\drivers/peripheral/tcpwm/cy_tcpwm_counter.h **** #define CY_TCPWM_COUNTER_STATUS_COUNTER_RUNNING (TCPWM_CNT_STATUS_RUNNING_Msk)
 133:Generated_Source\PSoC6\pdl\drivers/peripheral/tcpwm/cy_tcpwm_counter.h **** /** \} group_tcpwm_counter_status */
 134:Generated_Source\PSoC6\pdl\drivers/peripheral/tcpwm/cy_tcpwm_counter.h **** /** \} group_tcpwm_macros_counter */
 135:Generated_Source\PSoC6\pdl\drivers/peripheral/tcpwm/cy_tcpwm_counter.h **** 
 136:Generated_Source\PSoC6\pdl\drivers/peripheral/tcpwm/cy_tcpwm_counter.h **** 
 137:Generated_Source\PSoC6\pdl\drivers/peripheral/tcpwm/cy_tcpwm_counter.h **** /*******************************************************************************
 138:Generated_Source\PSoC6\pdl\drivers/peripheral/tcpwm/cy_tcpwm_counter.h **** *        Function Prototypes
 139:Generated_Source\PSoC6\pdl\drivers/peripheral/tcpwm/cy_tcpwm_counter.h **** *******************************************************************************/
 140:Generated_Source\PSoC6\pdl\drivers/peripheral/tcpwm/cy_tcpwm_counter.h **** 
 141:Generated_Source\PSoC6\pdl\drivers/peripheral/tcpwm/cy_tcpwm_counter.h **** /**
 142:Generated_Source\PSoC6\pdl\drivers/peripheral/tcpwm/cy_tcpwm_counter.h **** * \addtogroup group_tcpwm_functions_counter
 143:Generated_Source\PSoC6\pdl\drivers/peripheral/tcpwm/cy_tcpwm_counter.h **** * \{
 144:Generated_Source\PSoC6\pdl\drivers/peripheral/tcpwm/cy_tcpwm_counter.h **** */
 145:Generated_Source\PSoC6\pdl\drivers/peripheral/tcpwm/cy_tcpwm_counter.h **** cy_en_tcpwm_status_t Cy_TCPWM_Counter_Init(TCPWM_Type *base, uint32_t cntNum, 
 146:Generated_Source\PSoC6\pdl\drivers/peripheral/tcpwm/cy_tcpwm_counter.h ****                                            cy_stc_tcpwm_counter_config_t const *config);
 147:Generated_Source\PSoC6\pdl\drivers/peripheral/tcpwm/cy_tcpwm_counter.h **** void Cy_TCPWM_Counter_DeInit(TCPWM_Type *base, uint32_t cntNum, cy_stc_tcpwm_counter_config_t const
 148:Generated_Source\PSoC6\pdl\drivers/peripheral/tcpwm/cy_tcpwm_counter.h **** __STATIC_INLINE void Cy_TCPWM_Counter_Enable(TCPWM_Type *base, uint32_t cntNum);
 149:Generated_Source\PSoC6\pdl\drivers/peripheral/tcpwm/cy_tcpwm_counter.h **** __STATIC_INLINE void Cy_TCPWM_Counter_Disable(TCPWM_Type *base, uint32_t cntNum);
 150:Generated_Source\PSoC6\pdl\drivers/peripheral/tcpwm/cy_tcpwm_counter.h **** __STATIC_INLINE uint32_t Cy_TCPWM_Counter_GetStatus(TCPWM_Type const *base, uint32_t cntNum);
 151:Generated_Source\PSoC6\pdl\drivers/peripheral/tcpwm/cy_tcpwm_counter.h **** __STATIC_INLINE uint32_t Cy_TCPWM_Counter_GetCapture(TCPWM_Type const *base, uint32_t cntNum);
 152:Generated_Source\PSoC6\pdl\drivers/peripheral/tcpwm/cy_tcpwm_counter.h **** __STATIC_INLINE uint32_t Cy_TCPWM_Counter_GetCaptureBuf(TCPWM_Type const *base, uint32_t cntNum);
 153:Generated_Source\PSoC6\pdl\drivers/peripheral/tcpwm/cy_tcpwm_counter.h **** __STATIC_INLINE void Cy_TCPWM_Counter_SetCompare0(TCPWM_Type *base, uint32_t cntNum, uint32_t compa
 154:Generated_Source\PSoC6\pdl\drivers/peripheral/tcpwm/cy_tcpwm_counter.h **** __STATIC_INLINE uint32_t Cy_TCPWM_Counter_GetCompare0(TCPWM_Type const *base, uint32_t cntNum);
 155:Generated_Source\PSoC6\pdl\drivers/peripheral/tcpwm/cy_tcpwm_counter.h **** __STATIC_INLINE void Cy_TCPWM_Counter_SetCompare1(TCPWM_Type *base, uint32_t cntNum, uint32_t compa
 156:Generated_Source\PSoC6\pdl\drivers/peripheral/tcpwm/cy_tcpwm_counter.h **** __STATIC_INLINE uint32_t Cy_TCPWM_Counter_GetCompare1(TCPWM_Type const *base, uint32_t cntNum);
 157:Generated_Source\PSoC6\pdl\drivers/peripheral/tcpwm/cy_tcpwm_counter.h **** __STATIC_INLINE void Cy_TCPWM_Counter_EnableCompareSwap(TCPWM_Type *base, uint32_t cntNum, bool ena
 158:Generated_Source\PSoC6\pdl\drivers/peripheral/tcpwm/cy_tcpwm_counter.h **** __STATIC_INLINE void Cy_TCPWM_Counter_SetCounter(TCPWM_Type *base, uint32_t cntNum, uint32_t count)
 159:Generated_Source\PSoC6\pdl\drivers/peripheral/tcpwm/cy_tcpwm_counter.h **** __STATIC_INLINE uint32_t Cy_TCPWM_Counter_GetCounter(TCPWM_Type const *base, uint32_t cntNum);
 160:Generated_Source\PSoC6\pdl\drivers/peripheral/tcpwm/cy_tcpwm_counter.h **** __STATIC_INLINE void Cy_TCPWM_Counter_SetPeriod(TCPWM_Type *base, uint32_t cntNum, uint32_t period)
 161:Generated_Source\PSoC6\pdl\drivers/peripheral/tcpwm/cy_tcpwm_counter.h **** __STATIC_INLINE uint32_t Cy_TCPWM_Counter_GetPeriod(TCPWM_Type const *base, uint32_t cntNum);
 162:Generated_Source\PSoC6\pdl\drivers/peripheral/tcpwm/cy_tcpwm_counter.h **** 
 163:Generated_Source\PSoC6\pdl\drivers/peripheral/tcpwm/cy_tcpwm_counter.h **** 
 164:Generated_Source\PSoC6\pdl\drivers/peripheral/tcpwm/cy_tcpwm_counter.h **** /*******************************************************************************
 165:Generated_Source\PSoC6\pdl\drivers/peripheral/tcpwm/cy_tcpwm_counter.h **** * Function Name: Cy_TCPWM_Counter_Enable
 166:Generated_Source\PSoC6\pdl\drivers/peripheral/tcpwm/cy_tcpwm_counter.h **** ****************************************************************************//**
 167:Generated_Source\PSoC6\pdl\drivers/peripheral/tcpwm/cy_tcpwm_counter.h **** *
ARM GAS  C:\Users\nicpa\AppData\Local\Temp\ccNzlYaQ.s 			page 6


 168:Generated_Source\PSoC6\pdl\drivers/peripheral/tcpwm/cy_tcpwm_counter.h **** * Enables the counter in the TCPWM block for the Counter operation.
 169:Generated_Source\PSoC6\pdl\drivers/peripheral/tcpwm/cy_tcpwm_counter.h **** *
 170:Generated_Source\PSoC6\pdl\drivers/peripheral/tcpwm/cy_tcpwm_counter.h **** * \param base
 171:Generated_Source\PSoC6\pdl\drivers/peripheral/tcpwm/cy_tcpwm_counter.h **** * The pointer to a TCPWM instance.
 172:Generated_Source\PSoC6\pdl\drivers/peripheral/tcpwm/cy_tcpwm_counter.h **** *
 173:Generated_Source\PSoC6\pdl\drivers/peripheral/tcpwm/cy_tcpwm_counter.h **** * \param cntNum 
 174:Generated_Source\PSoC6\pdl\drivers/peripheral/tcpwm/cy_tcpwm_counter.h **** * The Counter instance number in the selected TCPWM.
 175:Generated_Source\PSoC6\pdl\drivers/peripheral/tcpwm/cy_tcpwm_counter.h **** *
 176:Generated_Source\PSoC6\pdl\drivers/peripheral/tcpwm/cy_tcpwm_counter.h **** * \funcusage
 177:Generated_Source\PSoC6\pdl\drivers/peripheral/tcpwm/cy_tcpwm_counter.h **** * \snippet tcpwm\1.10\counter\snippet\main.c snippet_Cy_TCPWM_Counter_Init
 178:Generated_Source\PSoC6\pdl\drivers/peripheral/tcpwm/cy_tcpwm_counter.h **** *
 179:Generated_Source\PSoC6\pdl\drivers/peripheral/tcpwm/cy_tcpwm_counter.h **** *******************************************************************************/
 180:Generated_Source\PSoC6\pdl\drivers/peripheral/tcpwm/cy_tcpwm_counter.h **** __STATIC_INLINE void Cy_TCPWM_Counter_Enable(TCPWM_Type *base, uint32_t cntNum)
 181:Generated_Source\PSoC6\pdl\drivers/peripheral/tcpwm/cy_tcpwm_counter.h **** {
 182:Generated_Source\PSoC6\pdl\drivers/peripheral/tcpwm/cy_tcpwm_counter.h ****     TCPWM_CTRL_SET(base) = (1UL << cntNum);
 183:Generated_Source\PSoC6\pdl\drivers/peripheral/tcpwm/cy_tcpwm_counter.h **** }
 184:Generated_Source\PSoC6\pdl\drivers/peripheral/tcpwm/cy_tcpwm_counter.h **** 
 185:Generated_Source\PSoC6\pdl\drivers/peripheral/tcpwm/cy_tcpwm_counter.h **** 
 186:Generated_Source\PSoC6\pdl\drivers/peripheral/tcpwm/cy_tcpwm_counter.h **** /*******************************************************************************
 187:Generated_Source\PSoC6\pdl\drivers/peripheral/tcpwm/cy_tcpwm_counter.h **** * Function Name: Cy_TCPWM_Counter_Disable
 188:Generated_Source\PSoC6\pdl\drivers/peripheral/tcpwm/cy_tcpwm_counter.h **** ****************************************************************************//**
 189:Generated_Source\PSoC6\pdl\drivers/peripheral/tcpwm/cy_tcpwm_counter.h **** *
 190:Generated_Source\PSoC6\pdl\drivers/peripheral/tcpwm/cy_tcpwm_counter.h **** * Disables the counter in the TCPWM block.
 191:Generated_Source\PSoC6\pdl\drivers/peripheral/tcpwm/cy_tcpwm_counter.h **** *
 192:Generated_Source\PSoC6\pdl\drivers/peripheral/tcpwm/cy_tcpwm_counter.h **** * \param base
 193:Generated_Source\PSoC6\pdl\drivers/peripheral/tcpwm/cy_tcpwm_counter.h **** * The pointer to a TCPWM instance.
 194:Generated_Source\PSoC6\pdl\drivers/peripheral/tcpwm/cy_tcpwm_counter.h **** *
 195:Generated_Source\PSoC6\pdl\drivers/peripheral/tcpwm/cy_tcpwm_counter.h **** * \param cntNum 
 196:Generated_Source\PSoC6\pdl\drivers/peripheral/tcpwm/cy_tcpwm_counter.h **** * The Counter instance number in the selected TCPWM.
 197:Generated_Source\PSoC6\pdl\drivers/peripheral/tcpwm/cy_tcpwm_counter.h **** *
 198:Generated_Source\PSoC6\pdl\drivers/peripheral/tcpwm/cy_tcpwm_counter.h **** * \funcusage
 199:Generated_Source\PSoC6\pdl\drivers/peripheral/tcpwm/cy_tcpwm_counter.h **** * \snippet tcpwm\1.10\counter\snippet\main.c snippet_Cy_TCPWM_Counter_DeInit
 200:Generated_Source\PSoC6\pdl\drivers/peripheral/tcpwm/cy_tcpwm_counter.h **** *
 201:Generated_Source\PSoC6\pdl\drivers/peripheral/tcpwm/cy_tcpwm_counter.h **** *******************************************************************************/
 202:Generated_Source\PSoC6\pdl\drivers/peripheral/tcpwm/cy_tcpwm_counter.h **** __STATIC_INLINE void Cy_TCPWM_Counter_Disable(TCPWM_Type *base, uint32_t cntNum)
 203:Generated_Source\PSoC6\pdl\drivers/peripheral/tcpwm/cy_tcpwm_counter.h **** {
 204:Generated_Source\PSoC6\pdl\drivers/peripheral/tcpwm/cy_tcpwm_counter.h ****     TCPWM_CTRL_CLR(base) = (1UL << cntNum);
 205:Generated_Source\PSoC6\pdl\drivers/peripheral/tcpwm/cy_tcpwm_counter.h **** }
 206:Generated_Source\PSoC6\pdl\drivers/peripheral/tcpwm/cy_tcpwm_counter.h **** 
 207:Generated_Source\PSoC6\pdl\drivers/peripheral/tcpwm/cy_tcpwm_counter.h **** 
 208:Generated_Source\PSoC6\pdl\drivers/peripheral/tcpwm/cy_tcpwm_counter.h **** /*******************************************************************************
 209:Generated_Source\PSoC6\pdl\drivers/peripheral/tcpwm/cy_tcpwm_counter.h **** * Function Name: Cy_TCPWM_Counter_GetStatus
 210:Generated_Source\PSoC6\pdl\drivers/peripheral/tcpwm/cy_tcpwm_counter.h **** ****************************************************************************//**
 211:Generated_Source\PSoC6\pdl\drivers/peripheral/tcpwm/cy_tcpwm_counter.h **** *
 212:Generated_Source\PSoC6\pdl\drivers/peripheral/tcpwm/cy_tcpwm_counter.h **** * Returns the status of the Counter Timer.
 213:Generated_Source\PSoC6\pdl\drivers/peripheral/tcpwm/cy_tcpwm_counter.h **** *
 214:Generated_Source\PSoC6\pdl\drivers/peripheral/tcpwm/cy_tcpwm_counter.h **** * \param base
 215:Generated_Source\PSoC6\pdl\drivers/peripheral/tcpwm/cy_tcpwm_counter.h **** * The pointer to a TCPWM instance.
 216:Generated_Source\PSoC6\pdl\drivers/peripheral/tcpwm/cy_tcpwm_counter.h **** *
 217:Generated_Source\PSoC6\pdl\drivers/peripheral/tcpwm/cy_tcpwm_counter.h **** * \param cntNum 
 218:Generated_Source\PSoC6\pdl\drivers/peripheral/tcpwm/cy_tcpwm_counter.h **** * The Counter instance number in the selected TCPWM.
 219:Generated_Source\PSoC6\pdl\drivers/peripheral/tcpwm/cy_tcpwm_counter.h **** *
 220:Generated_Source\PSoC6\pdl\drivers/peripheral/tcpwm/cy_tcpwm_counter.h **** * \return
 221:Generated_Source\PSoC6\pdl\drivers/peripheral/tcpwm/cy_tcpwm_counter.h **** * The status. See \ref group_tcpwm_counter_status
 222:Generated_Source\PSoC6\pdl\drivers/peripheral/tcpwm/cy_tcpwm_counter.h **** *
 223:Generated_Source\PSoC6\pdl\drivers/peripheral/tcpwm/cy_tcpwm_counter.h **** * \funcusage
 224:Generated_Source\PSoC6\pdl\drivers/peripheral/tcpwm/cy_tcpwm_counter.h **** * \snippet tcpwm\1.10\counter\snippet\main.c snippet_Cy_TCPWM_Counter_GetStatus
ARM GAS  C:\Users\nicpa\AppData\Local\Temp\ccNzlYaQ.s 			page 7


 225:Generated_Source\PSoC6\pdl\drivers/peripheral/tcpwm/cy_tcpwm_counter.h **** *
 226:Generated_Source\PSoC6\pdl\drivers/peripheral/tcpwm/cy_tcpwm_counter.h **** *******************************************************************************/
 227:Generated_Source\PSoC6\pdl\drivers/peripheral/tcpwm/cy_tcpwm_counter.h **** __STATIC_INLINE uint32_t Cy_TCPWM_Counter_GetStatus(TCPWM_Type const  *base, uint32_t cntNum)
 228:Generated_Source\PSoC6\pdl\drivers/peripheral/tcpwm/cy_tcpwm_counter.h **** {
 229:Generated_Source\PSoC6\pdl\drivers/peripheral/tcpwm/cy_tcpwm_counter.h ****     uint32_t status = TCPWM_CNT_STATUS(base, cntNum);
 230:Generated_Source\PSoC6\pdl\drivers/peripheral/tcpwm/cy_tcpwm_counter.h ****     
 231:Generated_Source\PSoC6\pdl\drivers/peripheral/tcpwm/cy_tcpwm_counter.h ****     /* Generates proper up counting status. Is not generated by HW */
 232:Generated_Source\PSoC6\pdl\drivers/peripheral/tcpwm/cy_tcpwm_counter.h ****     status &= ~CY_TCPWM_COUNTER_STATUS_UP_COUNTING;
 233:Generated_Source\PSoC6\pdl\drivers/peripheral/tcpwm/cy_tcpwm_counter.h ****     status |= ((~status & CY_TCPWM_COUNTER_STATUS_DOWN_COUNTING & (status >> TCPWM_CNT_STATUS_RUNNI
 234:Generated_Source\PSoC6\pdl\drivers/peripheral/tcpwm/cy_tcpwm_counter.h ****                CY_TCPWM_CNT_STATUS_UP_POS);
 235:Generated_Source\PSoC6\pdl\drivers/peripheral/tcpwm/cy_tcpwm_counter.h **** 
 236:Generated_Source\PSoC6\pdl\drivers/peripheral/tcpwm/cy_tcpwm_counter.h ****     return(status);
 237:Generated_Source\PSoC6\pdl\drivers/peripheral/tcpwm/cy_tcpwm_counter.h **** }
 238:Generated_Source\PSoC6\pdl\drivers/peripheral/tcpwm/cy_tcpwm_counter.h **** 
 239:Generated_Source\PSoC6\pdl\drivers/peripheral/tcpwm/cy_tcpwm_counter.h **** 
 240:Generated_Source\PSoC6\pdl\drivers/peripheral/tcpwm/cy_tcpwm_counter.h **** /*******************************************************************************
 241:Generated_Source\PSoC6\pdl\drivers/peripheral/tcpwm/cy_tcpwm_counter.h **** * Function Name: Cy_TCPWM_Counter_GetCapture
 242:Generated_Source\PSoC6\pdl\drivers/peripheral/tcpwm/cy_tcpwm_counter.h **** ****************************************************************************//**
 243:Generated_Source\PSoC6\pdl\drivers/peripheral/tcpwm/cy_tcpwm_counter.h **** *
 244:Generated_Source\PSoC6\pdl\drivers/peripheral/tcpwm/cy_tcpwm_counter.h **** * Returns the capture value when the capture mode is enabled.
 245:Generated_Source\PSoC6\pdl\drivers/peripheral/tcpwm/cy_tcpwm_counter.h **** *
 246:Generated_Source\PSoC6\pdl\drivers/peripheral/tcpwm/cy_tcpwm_counter.h **** * \param base
 247:Generated_Source\PSoC6\pdl\drivers/peripheral/tcpwm/cy_tcpwm_counter.h **** * The pointer to a TCPWM instance.
 248:Generated_Source\PSoC6\pdl\drivers/peripheral/tcpwm/cy_tcpwm_counter.h **** *
 249:Generated_Source\PSoC6\pdl\drivers/peripheral/tcpwm/cy_tcpwm_counter.h **** * \param cntNum 
 250:Generated_Source\PSoC6\pdl\drivers/peripheral/tcpwm/cy_tcpwm_counter.h **** * The Counter instance number in the selected TCPWM.
 251:Generated_Source\PSoC6\pdl\drivers/peripheral/tcpwm/cy_tcpwm_counter.h **** *
 252:Generated_Source\PSoC6\pdl\drivers/peripheral/tcpwm/cy_tcpwm_counter.h **** * \return
 253:Generated_Source\PSoC6\pdl\drivers/peripheral/tcpwm/cy_tcpwm_counter.h **** * The capture value.
 254:Generated_Source\PSoC6\pdl\drivers/peripheral/tcpwm/cy_tcpwm_counter.h **** *
 255:Generated_Source\PSoC6\pdl\drivers/peripheral/tcpwm/cy_tcpwm_counter.h **** * \funcusage
 256:Generated_Source\PSoC6\pdl\drivers/peripheral/tcpwm/cy_tcpwm_counter.h **** * \snippet tcpwm\1.10\counter\snippet\main.c snippet_Cy_TCPWM_Counter_Capture
 257:Generated_Source\PSoC6\pdl\drivers/peripheral/tcpwm/cy_tcpwm_counter.h **** *
 258:Generated_Source\PSoC6\pdl\drivers/peripheral/tcpwm/cy_tcpwm_counter.h **** *******************************************************************************/
 259:Generated_Source\PSoC6\pdl\drivers/peripheral/tcpwm/cy_tcpwm_counter.h **** __STATIC_INLINE uint32_t Cy_TCPWM_Counter_GetCapture(TCPWM_Type const  *base, uint32_t cntNum)
 260:Generated_Source\PSoC6\pdl\drivers/peripheral/tcpwm/cy_tcpwm_counter.h **** {
 261:Generated_Source\PSoC6\pdl\drivers/peripheral/tcpwm/cy_tcpwm_counter.h ****     return(TCPWM_CNT_CC(base, cntNum));
 262:Generated_Source\PSoC6\pdl\drivers/peripheral/tcpwm/cy_tcpwm_counter.h **** }
 263:Generated_Source\PSoC6\pdl\drivers/peripheral/tcpwm/cy_tcpwm_counter.h **** 
 264:Generated_Source\PSoC6\pdl\drivers/peripheral/tcpwm/cy_tcpwm_counter.h **** 
 265:Generated_Source\PSoC6\pdl\drivers/peripheral/tcpwm/cy_tcpwm_counter.h **** /*******************************************************************************
 266:Generated_Source\PSoC6\pdl\drivers/peripheral/tcpwm/cy_tcpwm_counter.h **** * Function Name: Cy_TCPWM_Counter_GetCaptureBuf
 267:Generated_Source\PSoC6\pdl\drivers/peripheral/tcpwm/cy_tcpwm_counter.h **** ****************************************************************************//**
 268:Generated_Source\PSoC6\pdl\drivers/peripheral/tcpwm/cy_tcpwm_counter.h **** *
 269:Generated_Source\PSoC6\pdl\drivers/peripheral/tcpwm/cy_tcpwm_counter.h **** * Returns the buffered capture value when the capture mode is enabled.
 270:Generated_Source\PSoC6\pdl\drivers/peripheral/tcpwm/cy_tcpwm_counter.h **** *
 271:Generated_Source\PSoC6\pdl\drivers/peripheral/tcpwm/cy_tcpwm_counter.h **** * \param base
 272:Generated_Source\PSoC6\pdl\drivers/peripheral/tcpwm/cy_tcpwm_counter.h **** * The pointer to a TCPWM instance.
 273:Generated_Source\PSoC6\pdl\drivers/peripheral/tcpwm/cy_tcpwm_counter.h **** *
 274:Generated_Source\PSoC6\pdl\drivers/peripheral/tcpwm/cy_tcpwm_counter.h **** * \param cntNum 
 275:Generated_Source\PSoC6\pdl\drivers/peripheral/tcpwm/cy_tcpwm_counter.h **** * The Counter instance number in the selected TCPWM.
 276:Generated_Source\PSoC6\pdl\drivers/peripheral/tcpwm/cy_tcpwm_counter.h **** *
 277:Generated_Source\PSoC6\pdl\drivers/peripheral/tcpwm/cy_tcpwm_counter.h **** * \return
 278:Generated_Source\PSoC6\pdl\drivers/peripheral/tcpwm/cy_tcpwm_counter.h **** * The buffered capture value.
 279:Generated_Source\PSoC6\pdl\drivers/peripheral/tcpwm/cy_tcpwm_counter.h **** *
 280:Generated_Source\PSoC6\pdl\drivers/peripheral/tcpwm/cy_tcpwm_counter.h **** * \funcusage
 281:Generated_Source\PSoC6\pdl\drivers/peripheral/tcpwm/cy_tcpwm_counter.h **** * \snippet tcpwm\1.10\counter\snippet\main.c snippet_Cy_TCPWM_Counter_Capture
ARM GAS  C:\Users\nicpa\AppData\Local\Temp\ccNzlYaQ.s 			page 8


 282:Generated_Source\PSoC6\pdl\drivers/peripheral/tcpwm/cy_tcpwm_counter.h **** *
 283:Generated_Source\PSoC6\pdl\drivers/peripheral/tcpwm/cy_tcpwm_counter.h **** *******************************************************************************/
 284:Generated_Source\PSoC6\pdl\drivers/peripheral/tcpwm/cy_tcpwm_counter.h **** __STATIC_INLINE uint32_t Cy_TCPWM_Counter_GetCaptureBuf(TCPWM_Type const  *base, uint32_t cntNum)
 285:Generated_Source\PSoC6\pdl\drivers/peripheral/tcpwm/cy_tcpwm_counter.h **** {
 286:Generated_Source\PSoC6\pdl\drivers/peripheral/tcpwm/cy_tcpwm_counter.h ****     return(TCPWM_CNT_CC_BUFF(base, cntNum));
 287:Generated_Source\PSoC6\pdl\drivers/peripheral/tcpwm/cy_tcpwm_counter.h **** }
 288:Generated_Source\PSoC6\pdl\drivers/peripheral/tcpwm/cy_tcpwm_counter.h **** 
 289:Generated_Source\PSoC6\pdl\drivers/peripheral/tcpwm/cy_tcpwm_counter.h **** 
 290:Generated_Source\PSoC6\pdl\drivers/peripheral/tcpwm/cy_tcpwm_counter.h **** /*******************************************************************************
 291:Generated_Source\PSoC6\pdl\drivers/peripheral/tcpwm/cy_tcpwm_counter.h **** * Function Name: Cy_TCPWM_Counter_SetCompare0
 292:Generated_Source\PSoC6\pdl\drivers/peripheral/tcpwm/cy_tcpwm_counter.h **** ****************************************************************************//**
 293:Generated_Source\PSoC6\pdl\drivers/peripheral/tcpwm/cy_tcpwm_counter.h **** *
 294:Generated_Source\PSoC6\pdl\drivers/peripheral/tcpwm/cy_tcpwm_counter.h **** * Sets the compare value for Compare0 when the compare mode is enabled.
 295:Generated_Source\PSoC6\pdl\drivers/peripheral/tcpwm/cy_tcpwm_counter.h **** *
 296:Generated_Source\PSoC6\pdl\drivers/peripheral/tcpwm/cy_tcpwm_counter.h **** * \param base
 297:Generated_Source\PSoC6\pdl\drivers/peripheral/tcpwm/cy_tcpwm_counter.h **** * The pointer to a TCPWM instance.
 298:Generated_Source\PSoC6\pdl\drivers/peripheral/tcpwm/cy_tcpwm_counter.h **** *
 299:Generated_Source\PSoC6\pdl\drivers/peripheral/tcpwm/cy_tcpwm_counter.h **** * \param cntNum 
 300:Generated_Source\PSoC6\pdl\drivers/peripheral/tcpwm/cy_tcpwm_counter.h **** * The Counter instance number in the selected TCPWM.
 301:Generated_Source\PSoC6\pdl\drivers/peripheral/tcpwm/cy_tcpwm_counter.h **** *
 302:Generated_Source\PSoC6\pdl\drivers/peripheral/tcpwm/cy_tcpwm_counter.h **** * \param compare0
 303:Generated_Source\PSoC6\pdl\drivers/peripheral/tcpwm/cy_tcpwm_counter.h **** * The Compare0 value.
 304:Generated_Source\PSoC6\pdl\drivers/peripheral/tcpwm/cy_tcpwm_counter.h **** *
 305:Generated_Source\PSoC6\pdl\drivers/peripheral/tcpwm/cy_tcpwm_counter.h **** * \funcusage
 306:Generated_Source\PSoC6\pdl\drivers/peripheral/tcpwm/cy_tcpwm_counter.h **** * \snippet tcpwm\1.10\counter\snippet\main.c snippet_Cy_TCPWM_Counter_SetCompare0
 307:Generated_Source\PSoC6\pdl\drivers/peripheral/tcpwm/cy_tcpwm_counter.h **** *
 308:Generated_Source\PSoC6\pdl\drivers/peripheral/tcpwm/cy_tcpwm_counter.h **** *******************************************************************************/
 309:Generated_Source\PSoC6\pdl\drivers/peripheral/tcpwm/cy_tcpwm_counter.h **** __STATIC_INLINE void Cy_TCPWM_Counter_SetCompare0(TCPWM_Type *base, uint32_t cntNum,  uint32_t comp
 310:Generated_Source\PSoC6\pdl\drivers/peripheral/tcpwm/cy_tcpwm_counter.h **** {
 311:Generated_Source\PSoC6\pdl\drivers/peripheral/tcpwm/cy_tcpwm_counter.h ****     TCPWM_CNT_CC(base, cntNum) = compare0;
 312:Generated_Source\PSoC6\pdl\drivers/peripheral/tcpwm/cy_tcpwm_counter.h **** }
 313:Generated_Source\PSoC6\pdl\drivers/peripheral/tcpwm/cy_tcpwm_counter.h **** 
 314:Generated_Source\PSoC6\pdl\drivers/peripheral/tcpwm/cy_tcpwm_counter.h **** 
 315:Generated_Source\PSoC6\pdl\drivers/peripheral/tcpwm/cy_tcpwm_counter.h **** /*******************************************************************************
 316:Generated_Source\PSoC6\pdl\drivers/peripheral/tcpwm/cy_tcpwm_counter.h **** * Function Name: Cy_TCPWM_Counter_GetCompare0
 317:Generated_Source\PSoC6\pdl\drivers/peripheral/tcpwm/cy_tcpwm_counter.h **** ****************************************************************************//**
 318:Generated_Source\PSoC6\pdl\drivers/peripheral/tcpwm/cy_tcpwm_counter.h **** *
 319:Generated_Source\PSoC6\pdl\drivers/peripheral/tcpwm/cy_tcpwm_counter.h **** * Returns compare value 0.
 320:Generated_Source\PSoC6\pdl\drivers/peripheral/tcpwm/cy_tcpwm_counter.h **** *
 321:Generated_Source\PSoC6\pdl\drivers/peripheral/tcpwm/cy_tcpwm_counter.h **** * \param base
 322:Generated_Source\PSoC6\pdl\drivers/peripheral/tcpwm/cy_tcpwm_counter.h **** * The pointer to a TCPWM instance.
 323:Generated_Source\PSoC6\pdl\drivers/peripheral/tcpwm/cy_tcpwm_counter.h **** *
 324:Generated_Source\PSoC6\pdl\drivers/peripheral/tcpwm/cy_tcpwm_counter.h **** * \param cntNum 
 325:Generated_Source\PSoC6\pdl\drivers/peripheral/tcpwm/cy_tcpwm_counter.h **** * The Counter instance number in the selected TCPWM.
 326:Generated_Source\PSoC6\pdl\drivers/peripheral/tcpwm/cy_tcpwm_counter.h **** *
 327:Generated_Source\PSoC6\pdl\drivers/peripheral/tcpwm/cy_tcpwm_counter.h **** * \return
 328:Generated_Source\PSoC6\pdl\drivers/peripheral/tcpwm/cy_tcpwm_counter.h **** * Compare value 0.
 329:Generated_Source\PSoC6\pdl\drivers/peripheral/tcpwm/cy_tcpwm_counter.h **** *
 330:Generated_Source\PSoC6\pdl\drivers/peripheral/tcpwm/cy_tcpwm_counter.h **** * \funcusage
 331:Generated_Source\PSoC6\pdl\drivers/peripheral/tcpwm/cy_tcpwm_counter.h **** * \snippet tcpwm\1.10\counter\snippet\main.c snippet_Cy_TCPWM_Counter_SetCompare0
 332:Generated_Source\PSoC6\pdl\drivers/peripheral/tcpwm/cy_tcpwm_counter.h **** *
 333:Generated_Source\PSoC6\pdl\drivers/peripheral/tcpwm/cy_tcpwm_counter.h **** *******************************************************************************/
 334:Generated_Source\PSoC6\pdl\drivers/peripheral/tcpwm/cy_tcpwm_counter.h **** __STATIC_INLINE uint32_t Cy_TCPWM_Counter_GetCompare0(TCPWM_Type const  *base, uint32_t cntNum)
 335:Generated_Source\PSoC6\pdl\drivers/peripheral/tcpwm/cy_tcpwm_counter.h **** {
 336:Generated_Source\PSoC6\pdl\drivers/peripheral/tcpwm/cy_tcpwm_counter.h ****     return(TCPWM_CNT_CC(base, cntNum));
 337:Generated_Source\PSoC6\pdl\drivers/peripheral/tcpwm/cy_tcpwm_counter.h **** }
 338:Generated_Source\PSoC6\pdl\drivers/peripheral/tcpwm/cy_tcpwm_counter.h **** 
ARM GAS  C:\Users\nicpa\AppData\Local\Temp\ccNzlYaQ.s 			page 9


 339:Generated_Source\PSoC6\pdl\drivers/peripheral/tcpwm/cy_tcpwm_counter.h **** 
 340:Generated_Source\PSoC6\pdl\drivers/peripheral/tcpwm/cy_tcpwm_counter.h **** /*******************************************************************************
 341:Generated_Source\PSoC6\pdl\drivers/peripheral/tcpwm/cy_tcpwm_counter.h **** * Function Name: Cy_TCPWM_Counter_SetCompare1
 342:Generated_Source\PSoC6\pdl\drivers/peripheral/tcpwm/cy_tcpwm_counter.h **** ****************************************************************************//**
 343:Generated_Source\PSoC6\pdl\drivers/peripheral/tcpwm/cy_tcpwm_counter.h **** *
 344:Generated_Source\PSoC6\pdl\drivers/peripheral/tcpwm/cy_tcpwm_counter.h **** * Sets the compare value for Compare1 when the compare mode is enabled.
 345:Generated_Source\PSoC6\pdl\drivers/peripheral/tcpwm/cy_tcpwm_counter.h **** *
 346:Generated_Source\PSoC6\pdl\drivers/peripheral/tcpwm/cy_tcpwm_counter.h **** * \param base
 347:Generated_Source\PSoC6\pdl\drivers/peripheral/tcpwm/cy_tcpwm_counter.h **** * The pointer to a TCPWM instance.
 348:Generated_Source\PSoC6\pdl\drivers/peripheral/tcpwm/cy_tcpwm_counter.h **** *
 349:Generated_Source\PSoC6\pdl\drivers/peripheral/tcpwm/cy_tcpwm_counter.h **** * \param cntNum 
 350:Generated_Source\PSoC6\pdl\drivers/peripheral/tcpwm/cy_tcpwm_counter.h **** * The Counter instance number in the selected TCPWM.
 351:Generated_Source\PSoC6\pdl\drivers/peripheral/tcpwm/cy_tcpwm_counter.h **** *
 352:Generated_Source\PSoC6\pdl\drivers/peripheral/tcpwm/cy_tcpwm_counter.h **** * \param compare1
 353:Generated_Source\PSoC6\pdl\drivers/peripheral/tcpwm/cy_tcpwm_counter.h **** * The Compare1 value.
 354:Generated_Source\PSoC6\pdl\drivers/peripheral/tcpwm/cy_tcpwm_counter.h **** *
 355:Generated_Source\PSoC6\pdl\drivers/peripheral/tcpwm/cy_tcpwm_counter.h **** * \funcusage
 356:Generated_Source\PSoC6\pdl\drivers/peripheral/tcpwm/cy_tcpwm_counter.h **** * \snippet tcpwm\1.10\counter\snippet\main.c snippet_Cy_TCPWM_Counter_SetCompare1
 357:Generated_Source\PSoC6\pdl\drivers/peripheral/tcpwm/cy_tcpwm_counter.h **** *
 358:Generated_Source\PSoC6\pdl\drivers/peripheral/tcpwm/cy_tcpwm_counter.h **** *******************************************************************************/
 359:Generated_Source\PSoC6\pdl\drivers/peripheral/tcpwm/cy_tcpwm_counter.h **** __STATIC_INLINE void Cy_TCPWM_Counter_SetCompare1(TCPWM_Type *base, uint32_t cntNum,  uint32_t comp
 360:Generated_Source\PSoC6\pdl\drivers/peripheral/tcpwm/cy_tcpwm_counter.h **** {
 361:Generated_Source\PSoC6\pdl\drivers/peripheral/tcpwm/cy_tcpwm_counter.h ****     TCPWM_CNT_CC_BUFF(base, cntNum) = compare1;
 362:Generated_Source\PSoC6\pdl\drivers/peripheral/tcpwm/cy_tcpwm_counter.h **** }
 363:Generated_Source\PSoC6\pdl\drivers/peripheral/tcpwm/cy_tcpwm_counter.h **** 
 364:Generated_Source\PSoC6\pdl\drivers/peripheral/tcpwm/cy_tcpwm_counter.h **** 
 365:Generated_Source\PSoC6\pdl\drivers/peripheral/tcpwm/cy_tcpwm_counter.h **** /*******************************************************************************
 366:Generated_Source\PSoC6\pdl\drivers/peripheral/tcpwm/cy_tcpwm_counter.h **** * Function Name: Cy_TCPWM_Counter_GetCompare1
 367:Generated_Source\PSoC6\pdl\drivers/peripheral/tcpwm/cy_tcpwm_counter.h **** ****************************************************************************//**
 368:Generated_Source\PSoC6\pdl\drivers/peripheral/tcpwm/cy_tcpwm_counter.h **** *
 369:Generated_Source\PSoC6\pdl\drivers/peripheral/tcpwm/cy_tcpwm_counter.h **** * Returns compare value 1.
 370:Generated_Source\PSoC6\pdl\drivers/peripheral/tcpwm/cy_tcpwm_counter.h **** *
 371:Generated_Source\PSoC6\pdl\drivers/peripheral/tcpwm/cy_tcpwm_counter.h **** * \param base
 372:Generated_Source\PSoC6\pdl\drivers/peripheral/tcpwm/cy_tcpwm_counter.h **** * The pointer to a TCPWM instance.
 373:Generated_Source\PSoC6\pdl\drivers/peripheral/tcpwm/cy_tcpwm_counter.h **** *
 374:Generated_Source\PSoC6\pdl\drivers/peripheral/tcpwm/cy_tcpwm_counter.h **** * \param cntNum 
 375:Generated_Source\PSoC6\pdl\drivers/peripheral/tcpwm/cy_tcpwm_counter.h **** * The Counter instance number in the selected TCPWM.
 376:Generated_Source\PSoC6\pdl\drivers/peripheral/tcpwm/cy_tcpwm_counter.h **** *
 377:Generated_Source\PSoC6\pdl\drivers/peripheral/tcpwm/cy_tcpwm_counter.h **** * \return
 378:Generated_Source\PSoC6\pdl\drivers/peripheral/tcpwm/cy_tcpwm_counter.h **** * Compare value 1.
 379:Generated_Source\PSoC6\pdl\drivers/peripheral/tcpwm/cy_tcpwm_counter.h **** *
 380:Generated_Source\PSoC6\pdl\drivers/peripheral/tcpwm/cy_tcpwm_counter.h **** * \funcusage
 381:Generated_Source\PSoC6\pdl\drivers/peripheral/tcpwm/cy_tcpwm_counter.h **** * \snippet tcpwm\1.10\counter\snippet\main.c snippet_Cy_TCPWM_Counter_SetCompare1
 382:Generated_Source\PSoC6\pdl\drivers/peripheral/tcpwm/cy_tcpwm_counter.h **** *
 383:Generated_Source\PSoC6\pdl\drivers/peripheral/tcpwm/cy_tcpwm_counter.h **** *******************************************************************************/
 384:Generated_Source\PSoC6\pdl\drivers/peripheral/tcpwm/cy_tcpwm_counter.h **** __STATIC_INLINE uint32_t Cy_TCPWM_Counter_GetCompare1(TCPWM_Type const  *base, uint32_t cntNum)
 385:Generated_Source\PSoC6\pdl\drivers/peripheral/tcpwm/cy_tcpwm_counter.h **** {
 386:Generated_Source\PSoC6\pdl\drivers/peripheral/tcpwm/cy_tcpwm_counter.h ****     return(TCPWM_CNT_CC_BUFF(base, cntNum));
 387:Generated_Source\PSoC6\pdl\drivers/peripheral/tcpwm/cy_tcpwm_counter.h **** }
 388:Generated_Source\PSoC6\pdl\drivers/peripheral/tcpwm/cy_tcpwm_counter.h **** 
 389:Generated_Source\PSoC6\pdl\drivers/peripheral/tcpwm/cy_tcpwm_counter.h **** 
 390:Generated_Source\PSoC6\pdl\drivers/peripheral/tcpwm/cy_tcpwm_counter.h **** /*******************************************************************************
 391:Generated_Source\PSoC6\pdl\drivers/peripheral/tcpwm/cy_tcpwm_counter.h **** * Function Name: Cy_TCPWM_Counter_EnableCompareSwap
 392:Generated_Source\PSoC6\pdl\drivers/peripheral/tcpwm/cy_tcpwm_counter.h **** ****************************************************************************//**
 393:Generated_Source\PSoC6\pdl\drivers/peripheral/tcpwm/cy_tcpwm_counter.h **** *
 394:Generated_Source\PSoC6\pdl\drivers/peripheral/tcpwm/cy_tcpwm_counter.h **** * Enables the comparison swap when the comparison value is true.
 395:Generated_Source\PSoC6\pdl\drivers/peripheral/tcpwm/cy_tcpwm_counter.h **** *
ARM GAS  C:\Users\nicpa\AppData\Local\Temp\ccNzlYaQ.s 			page 10


 396:Generated_Source\PSoC6\pdl\drivers/peripheral/tcpwm/cy_tcpwm_counter.h **** * \param base
 397:Generated_Source\PSoC6\pdl\drivers/peripheral/tcpwm/cy_tcpwm_counter.h **** * The pointer to a TCPWM instance.
 398:Generated_Source\PSoC6\pdl\drivers/peripheral/tcpwm/cy_tcpwm_counter.h **** *
 399:Generated_Source\PSoC6\pdl\drivers/peripheral/tcpwm/cy_tcpwm_counter.h **** * \param cntNum 
 400:Generated_Source\PSoC6\pdl\drivers/peripheral/tcpwm/cy_tcpwm_counter.h **** * The Counter instance number in the selected TCPWM.
 401:Generated_Source\PSoC6\pdl\drivers/peripheral/tcpwm/cy_tcpwm_counter.h **** *
 402:Generated_Source\PSoC6\pdl\drivers/peripheral/tcpwm/cy_tcpwm_counter.h **** * \param enable
 403:Generated_Source\PSoC6\pdl\drivers/peripheral/tcpwm/cy_tcpwm_counter.h **** * true = swap enabled, false = swap disabled
 404:Generated_Source\PSoC6\pdl\drivers/peripheral/tcpwm/cy_tcpwm_counter.h **** *
 405:Generated_Source\PSoC6\pdl\drivers/peripheral/tcpwm/cy_tcpwm_counter.h **** * \funcusage
 406:Generated_Source\PSoC6\pdl\drivers/peripheral/tcpwm/cy_tcpwm_counter.h **** * \snippet tcpwm\1.10\counter\snippet\main.c snippet_Cy_TCPWM_Counter_EnableCompareSwap
 407:Generated_Source\PSoC6\pdl\drivers/peripheral/tcpwm/cy_tcpwm_counter.h **** *
 408:Generated_Source\PSoC6\pdl\drivers/peripheral/tcpwm/cy_tcpwm_counter.h **** *******************************************************************************/
 409:Generated_Source\PSoC6\pdl\drivers/peripheral/tcpwm/cy_tcpwm_counter.h **** __STATIC_INLINE void Cy_TCPWM_Counter_EnableCompareSwap(TCPWM_Type *base, uint32_t cntNum,  bool en
 410:Generated_Source\PSoC6\pdl\drivers/peripheral/tcpwm/cy_tcpwm_counter.h **** {
 411:Generated_Source\PSoC6\pdl\drivers/peripheral/tcpwm/cy_tcpwm_counter.h ****     if (enable)
 412:Generated_Source\PSoC6\pdl\drivers/peripheral/tcpwm/cy_tcpwm_counter.h ****     {
 413:Generated_Source\PSoC6\pdl\drivers/peripheral/tcpwm/cy_tcpwm_counter.h ****         TCPWM_CNT_CTRL(base, cntNum) |=  TCPWM_CNT_CTRL_AUTO_RELOAD_CC_Msk;
 414:Generated_Source\PSoC6\pdl\drivers/peripheral/tcpwm/cy_tcpwm_counter.h ****     }
 415:Generated_Source\PSoC6\pdl\drivers/peripheral/tcpwm/cy_tcpwm_counter.h ****     else
 416:Generated_Source\PSoC6\pdl\drivers/peripheral/tcpwm/cy_tcpwm_counter.h ****     {
 417:Generated_Source\PSoC6\pdl\drivers/peripheral/tcpwm/cy_tcpwm_counter.h ****         TCPWM_CNT_CTRL(base, cntNum) &= ~TCPWM_CNT_CTRL_AUTO_RELOAD_CC_Msk;
 418:Generated_Source\PSoC6\pdl\drivers/peripheral/tcpwm/cy_tcpwm_counter.h ****     }
 419:Generated_Source\PSoC6\pdl\drivers/peripheral/tcpwm/cy_tcpwm_counter.h **** }
 420:Generated_Source\PSoC6\pdl\drivers/peripheral/tcpwm/cy_tcpwm_counter.h **** 
 421:Generated_Source\PSoC6\pdl\drivers/peripheral/tcpwm/cy_tcpwm_counter.h **** 
 422:Generated_Source\PSoC6\pdl\drivers/peripheral/tcpwm/cy_tcpwm_counter.h **** /*******************************************************************************
 423:Generated_Source\PSoC6\pdl\drivers/peripheral/tcpwm/cy_tcpwm_counter.h **** * Function Name: Cy_TCPWM_Counter_SetCounter
 424:Generated_Source\PSoC6\pdl\drivers/peripheral/tcpwm/cy_tcpwm_counter.h **** ****************************************************************************//**
 425:Generated_Source\PSoC6\pdl\drivers/peripheral/tcpwm/cy_tcpwm_counter.h **** *
 426:Generated_Source\PSoC6\pdl\drivers/peripheral/tcpwm/cy_tcpwm_counter.h **** * Sets the value of the counter.
 427:Generated_Source\PSoC6\pdl\drivers/peripheral/tcpwm/cy_tcpwm_counter.h **** *
 428:Generated_Source\PSoC6\pdl\drivers/peripheral/tcpwm/cy_tcpwm_counter.h **** * \param base
 429:Generated_Source\PSoC6\pdl\drivers/peripheral/tcpwm/cy_tcpwm_counter.h **** * The pointer to a TCPWM instance.
 430:Generated_Source\PSoC6\pdl\drivers/peripheral/tcpwm/cy_tcpwm_counter.h **** *
 431:Generated_Source\PSoC6\pdl\drivers/peripheral/tcpwm/cy_tcpwm_counter.h **** * \param cntNum 
 432:Generated_Source\PSoC6\pdl\drivers/peripheral/tcpwm/cy_tcpwm_counter.h **** * The Counter instance number in the selected TCPWM.
 433:Generated_Source\PSoC6\pdl\drivers/peripheral/tcpwm/cy_tcpwm_counter.h **** *
 434:Generated_Source\PSoC6\pdl\drivers/peripheral/tcpwm/cy_tcpwm_counter.h **** * \param count
 435:Generated_Source\PSoC6\pdl\drivers/peripheral/tcpwm/cy_tcpwm_counter.h **** * The value to write into the counter.
 436:Generated_Source\PSoC6\pdl\drivers/peripheral/tcpwm/cy_tcpwm_counter.h **** *
 437:Generated_Source\PSoC6\pdl\drivers/peripheral/tcpwm/cy_tcpwm_counter.h **** * \funcusage
 438:Generated_Source\PSoC6\pdl\drivers/peripheral/tcpwm/cy_tcpwm_counter.h **** * \snippet tcpwm\1.10\counter\snippet\main.c snippet_Cy_TCPWM_Counter_SetCounter
 439:Generated_Source\PSoC6\pdl\drivers/peripheral/tcpwm/cy_tcpwm_counter.h **** *
 440:Generated_Source\PSoC6\pdl\drivers/peripheral/tcpwm/cy_tcpwm_counter.h **** *******************************************************************************/
 441:Generated_Source\PSoC6\pdl\drivers/peripheral/tcpwm/cy_tcpwm_counter.h **** __STATIC_INLINE void Cy_TCPWM_Counter_SetCounter(TCPWM_Type *base, uint32_t cntNum, uint32_t count)
 442:Generated_Source\PSoC6\pdl\drivers/peripheral/tcpwm/cy_tcpwm_counter.h **** {
 443:Generated_Source\PSoC6\pdl\drivers/peripheral/tcpwm/cy_tcpwm_counter.h ****     TCPWM_CNT_COUNTER(base, cntNum) = count;
  42              		.loc 2 443 0
  43 0002 0022     		movs	r2, #0
  44 0004 024B     		ldr	r3, .L3
  45 0006 C3F80821 		str	r2, [r3, #264]
  46              	.LVL1:
  47              	.LBE136:
  48              	.LBE135:
  49              	.LBE134:
  78:eInk Library/cy_eink_psoc_interface.c ****     /* Clear the counter value and the counter variable */
ARM GAS  C:\Users\nicpa\AppData\Local\Temp\ccNzlYaQ.s 			page 11


  79:eInk Library/cy_eink_psoc_interface.c ****     CY_EINK_Timer_SetCounter(0);  
  80:eInk Library/cy_eink_psoc_interface.c ****     
  81:eInk Library/cy_eink_psoc_interface.c ****     /* Initialize the Timer */
  82:eInk Library/cy_eink_psoc_interface.c ****     CY_EINK_Timer_Start();
  50              		.loc 1 82 0
  51 000a FFF7FEFF 		bl	CY_EINK_Timer_Start
  52              	.LVL2:
  53 000e 08BD     		pop	{r3, pc}
  54              	.L4:
  55              		.align	2
  56              	.L3:
  57 0010 00003840 		.word	1077411840
  58              		.cfi_endproc
  59              	.LFE661:
  60              		.size	Cy_EINK_TimerInit, .-Cy_EINK_TimerInit
  61              		.section	.text.Cy_EINK_GetTimeTick,"ax",%progbits
  62              		.align	2
  63              		.global	Cy_EINK_GetTimeTick
  64              		.thumb
  65              		.thumb_func
  66              		.type	Cy_EINK_GetTimeTick, %function
  67              	Cy_EINK_GetTimeTick:
  68              	.LFB662:
  83:eInk Library/cy_eink_psoc_interface.c **** }
  84:eInk Library/cy_eink_psoc_interface.c **** 
  85:eInk Library/cy_eink_psoc_interface.c **** /*******************************************************************************
  86:eInk Library/cy_eink_psoc_interface.c **** * Function Name: uint32_t Cy_EINK_GetTimeTick(void)
  87:eInk Library/cy_eink_psoc_interface.c **** ********************************************************************************
  88:eInk Library/cy_eink_psoc_interface.c **** *
  89:eInk Library/cy_eink_psoc_interface.c **** * Summary:
  90:eInk Library/cy_eink_psoc_interface.c **** *  This function returns the value of current time tick of E-INK Timer.
  91:eInk Library/cy_eink_psoc_interface.c **** *
  92:eInk Library/cy_eink_psoc_interface.c **** * Parameters:
  93:eInk Library/cy_eink_psoc_interface.c **** *  None
  94:eInk Library/cy_eink_psoc_interface.c **** *
  95:eInk Library/cy_eink_psoc_interface.c **** * Return:
  96:eInk Library/cy_eink_psoc_interface.c **** *  uint32_t : current value of time tick
  97:eInk Library/cy_eink_psoc_interface.c **** *
  98:eInk Library/cy_eink_psoc_interface.c **** * Side Effects:
  99:eInk Library/cy_eink_psoc_interface.c **** *  None
 100:eInk Library/cy_eink_psoc_interface.c **** *******************************************************************************/
 101:eInk Library/cy_eink_psoc_interface.c **** uint32_t Cy_EINK_GetTimeTick(void)
 102:eInk Library/cy_eink_psoc_interface.c **** {
  69              		.loc 1 102 0
  70              		.cfi_startproc
  71              		@ args = 0, pretend = 0, frame = 0
  72              		@ frame_needed = 0, uses_anonymous_args = 0
  73              		@ link register save eliminated.
  74              	.LVL3:
  75              	.LBB137:
  76              	.LBB138:
  77              	.LBB139:
 444:Generated_Source\PSoC6\pdl\drivers/peripheral/tcpwm/cy_tcpwm_counter.h **** }
 445:Generated_Source\PSoC6\pdl\drivers/peripheral/tcpwm/cy_tcpwm_counter.h **** 
 446:Generated_Source\PSoC6\pdl\drivers/peripheral/tcpwm/cy_tcpwm_counter.h **** 
 447:Generated_Source\PSoC6\pdl\drivers/peripheral/tcpwm/cy_tcpwm_counter.h **** /*******************************************************************************
 448:Generated_Source\PSoC6\pdl\drivers/peripheral/tcpwm/cy_tcpwm_counter.h **** * Function Name: Cy_TCPWM_Counter_GetCounter
ARM GAS  C:\Users\nicpa\AppData\Local\Temp\ccNzlYaQ.s 			page 12


 449:Generated_Source\PSoC6\pdl\drivers/peripheral/tcpwm/cy_tcpwm_counter.h **** ****************************************************************************//**
 450:Generated_Source\PSoC6\pdl\drivers/peripheral/tcpwm/cy_tcpwm_counter.h **** *
 451:Generated_Source\PSoC6\pdl\drivers/peripheral/tcpwm/cy_tcpwm_counter.h **** * Returns the value in the counter.
 452:Generated_Source\PSoC6\pdl\drivers/peripheral/tcpwm/cy_tcpwm_counter.h **** *
 453:Generated_Source\PSoC6\pdl\drivers/peripheral/tcpwm/cy_tcpwm_counter.h **** * \param base
 454:Generated_Source\PSoC6\pdl\drivers/peripheral/tcpwm/cy_tcpwm_counter.h **** * The pointer to a TCPWM instance.
 455:Generated_Source\PSoC6\pdl\drivers/peripheral/tcpwm/cy_tcpwm_counter.h **** *
 456:Generated_Source\PSoC6\pdl\drivers/peripheral/tcpwm/cy_tcpwm_counter.h **** * \param cntNum 
 457:Generated_Source\PSoC6\pdl\drivers/peripheral/tcpwm/cy_tcpwm_counter.h **** * The Counter instance number in the selected TCPWM.
 458:Generated_Source\PSoC6\pdl\drivers/peripheral/tcpwm/cy_tcpwm_counter.h **** *
 459:Generated_Source\PSoC6\pdl\drivers/peripheral/tcpwm/cy_tcpwm_counter.h **** * \return
 460:Generated_Source\PSoC6\pdl\drivers/peripheral/tcpwm/cy_tcpwm_counter.h **** * The current counter value.
 461:Generated_Source\PSoC6\pdl\drivers/peripheral/tcpwm/cy_tcpwm_counter.h **** *
 462:Generated_Source\PSoC6\pdl\drivers/peripheral/tcpwm/cy_tcpwm_counter.h **** * \funcusage
 463:Generated_Source\PSoC6\pdl\drivers/peripheral/tcpwm/cy_tcpwm_counter.h **** * \snippet tcpwm\1.10\counter\snippet\main.c snippet_Cy_TCPWM_Counter_GetCounter
 464:Generated_Source\PSoC6\pdl\drivers/peripheral/tcpwm/cy_tcpwm_counter.h **** *
 465:Generated_Source\PSoC6\pdl\drivers/peripheral/tcpwm/cy_tcpwm_counter.h **** *******************************************************************************/
 466:Generated_Source\PSoC6\pdl\drivers/peripheral/tcpwm/cy_tcpwm_counter.h **** __STATIC_INLINE uint32_t Cy_TCPWM_Counter_GetCounter(TCPWM_Type const  *base, uint32_t cntNum)
 467:Generated_Source\PSoC6\pdl\drivers/peripheral/tcpwm/cy_tcpwm_counter.h **** {
 468:Generated_Source\PSoC6\pdl\drivers/peripheral/tcpwm/cy_tcpwm_counter.h ****     return(TCPWM_CNT_COUNTER(base, cntNum));
  78              		.loc 2 468 0
  79 0000 014B     		ldr	r3, .L6
  80 0002 D3F80801 		ldr	r0, [r3, #264]
  81              	.LVL4:
  82              	.LBE139:
  83              	.LBE138:
  84              	.LBE137:
 103:eInk Library/cy_eink_psoc_interface.c ****     /* Variable used to store the time tick */
 104:eInk Library/cy_eink_psoc_interface.c ****     uint32_t timingCount;
 105:eInk Library/cy_eink_psoc_interface.c ****     
 106:eInk Library/cy_eink_psoc_interface.c ****     /* Read the current time tick from the E-INK Timer */
 107:eInk Library/cy_eink_psoc_interface.c ****     timingCount = CY_EINK_Timer_GetCounter();
 108:eInk Library/cy_eink_psoc_interface.c **** 
 109:eInk Library/cy_eink_psoc_interface.c ****     /* Return the current value of time tick */
 110:eInk Library/cy_eink_psoc_interface.c ****     return(timingCount);
 111:eInk Library/cy_eink_psoc_interface.c **** }
  85              		.loc 1 111 0
  86 0006 7047     		bx	lr
  87              	.L7:
  88              		.align	2
  89              	.L6:
  90 0008 00003840 		.word	1077411840
  91              		.cfi_endproc
  92              	.LFE662:
  93              		.size	Cy_EINK_GetTimeTick, .-Cy_EINK_GetTimeTick
  94              		.section	.text.Cy_EINK_TimerStop,"ax",%progbits
  95              		.align	2
  96              		.global	Cy_EINK_TimerStop
  97              		.thumb
  98              		.thumb_func
  99              		.type	Cy_EINK_TimerStop, %function
 100              	Cy_EINK_TimerStop:
 101              	.LFB663:
 112:eInk Library/cy_eink_psoc_interface.c **** 
 113:eInk Library/cy_eink_psoc_interface.c **** /*******************************************************************************
 114:eInk Library/cy_eink_psoc_interface.c **** * Function Name: void Cy_EINK_TimerStop(void)
 115:eInk Library/cy_eink_psoc_interface.c **** ********************************************************************************
ARM GAS  C:\Users\nicpa\AppData\Local\Temp\ccNzlYaQ.s 			page 13


 116:eInk Library/cy_eink_psoc_interface.c **** *
 117:eInk Library/cy_eink_psoc_interface.c **** * Summary:
 118:eInk Library/cy_eink_psoc_interface.c **** *  Stops the E-INK Timer.
 119:eInk Library/cy_eink_psoc_interface.c **** *
 120:eInk Library/cy_eink_psoc_interface.c **** * Parameters:
 121:eInk Library/cy_eink_psoc_interface.c **** *  None
 122:eInk Library/cy_eink_psoc_interface.c **** *
 123:eInk Library/cy_eink_psoc_interface.c **** * Return:
 124:eInk Library/cy_eink_psoc_interface.c **** *  None
 125:eInk Library/cy_eink_psoc_interface.c **** *
 126:eInk Library/cy_eink_psoc_interface.c **** * Side Effects:
 127:eInk Library/cy_eink_psoc_interface.c **** *  None
 128:eInk Library/cy_eink_psoc_interface.c **** *******************************************************************************/
 129:eInk Library/cy_eink_psoc_interface.c **** void Cy_EINK_TimerStop(void)
 130:eInk Library/cy_eink_psoc_interface.c **** {
 102              		.loc 1 130 0
 103              		.cfi_startproc
 104              		@ args = 0, pretend = 0, frame = 0
 105              		@ frame_needed = 0, uses_anonymous_args = 0
 106              		@ link register save eliminated.
 107              	.LVL5:
 108              	.LBB140:
 109              	.LBB141:
 110              	.LBB142:
 111              		.file 3 "Generated_Source\\PSoC6\\pdl\\drivers/peripheral/tcpwm/cy_tcpwm.h"
   1:Generated_Source\PSoC6\pdl\drivers/peripheral/tcpwm/cy_tcpwm.h **** /***************************************************************************//**
   2:Generated_Source\PSoC6\pdl\drivers/peripheral/tcpwm/cy_tcpwm.h **** * \file cy_tcpwm.h
   3:Generated_Source\PSoC6\pdl\drivers/peripheral/tcpwm/cy_tcpwm.h **** * \version 1.10
   4:Generated_Source\PSoC6\pdl\drivers/peripheral/tcpwm/cy_tcpwm.h **** *
   5:Generated_Source\PSoC6\pdl\drivers/peripheral/tcpwm/cy_tcpwm.h **** * The header file of the TCPWM driver.
   6:Generated_Source\PSoC6\pdl\drivers/peripheral/tcpwm/cy_tcpwm.h **** *
   7:Generated_Source\PSoC6\pdl\drivers/peripheral/tcpwm/cy_tcpwm.h **** ********************************************************************************
   8:Generated_Source\PSoC6\pdl\drivers/peripheral/tcpwm/cy_tcpwm.h **** * \copyright
   9:Generated_Source\PSoC6\pdl\drivers/peripheral/tcpwm/cy_tcpwm.h **** * Copyright 2016-2018, Cypress Semiconductor Corporation. All rights reserved.
  10:Generated_Source\PSoC6\pdl\drivers/peripheral/tcpwm/cy_tcpwm.h **** * You may use this file only in accordance with the license, terms, conditions,
  11:Generated_Source\PSoC6\pdl\drivers/peripheral/tcpwm/cy_tcpwm.h **** * disclaimers, and limitations in the end user license agreement accompanying
  12:Generated_Source\PSoC6\pdl\drivers/peripheral/tcpwm/cy_tcpwm.h **** * the software package with which this file was provided.
  13:Generated_Source\PSoC6\pdl\drivers/peripheral/tcpwm/cy_tcpwm.h **** *******************************************************************************/
  14:Generated_Source\PSoC6\pdl\drivers/peripheral/tcpwm/cy_tcpwm.h **** 
  15:Generated_Source\PSoC6\pdl\drivers/peripheral/tcpwm/cy_tcpwm.h **** /**
  16:Generated_Source\PSoC6\pdl\drivers/peripheral/tcpwm/cy_tcpwm.h **** * \addtogroup group_tcpwm
  17:Generated_Source\PSoC6\pdl\drivers/peripheral/tcpwm/cy_tcpwm.h **** * \{
  18:Generated_Source\PSoC6\pdl\drivers/peripheral/tcpwm/cy_tcpwm.h **** * \defgroup group_tcpwm_common  Common
  19:Generated_Source\PSoC6\pdl\drivers/peripheral/tcpwm/cy_tcpwm.h **** * \defgroup group_tcpwm_counter Timer/Counter (TCPWM)
  20:Generated_Source\PSoC6\pdl\drivers/peripheral/tcpwm/cy_tcpwm.h **** * \defgroup group_tcpwm_pwm     PWM (TCPWM)
  21:Generated_Source\PSoC6\pdl\drivers/peripheral/tcpwm/cy_tcpwm.h **** * \defgroup group_tcpwm_quaddec Quadrature Decoder (TCPWM)
  22:Generated_Source\PSoC6\pdl\drivers/peripheral/tcpwm/cy_tcpwm.h **** * \} */
  23:Generated_Source\PSoC6\pdl\drivers/peripheral/tcpwm/cy_tcpwm.h **** 
  24:Generated_Source\PSoC6\pdl\drivers/peripheral/tcpwm/cy_tcpwm.h **** /**
  25:Generated_Source\PSoC6\pdl\drivers/peripheral/tcpwm/cy_tcpwm.h **** * \addtogroup group_tcpwm
  26:Generated_Source\PSoC6\pdl\drivers/peripheral/tcpwm/cy_tcpwm.h **** * \{
  27:Generated_Source\PSoC6\pdl\drivers/peripheral/tcpwm/cy_tcpwm.h **** * 
  28:Generated_Source\PSoC6\pdl\drivers/peripheral/tcpwm/cy_tcpwm.h **** * The TCPWM driver is a multifunction driver that implements Timer Counter, 
  29:Generated_Source\PSoC6\pdl\drivers/peripheral/tcpwm/cy_tcpwm.h **** * PWM, and Quadrature Decoder functionality using the TCPWM block.
  30:Generated_Source\PSoC6\pdl\drivers/peripheral/tcpwm/cy_tcpwm.h **** *
  31:Generated_Source\PSoC6\pdl\drivers/peripheral/tcpwm/cy_tcpwm.h **** * The functions and other declarations used in this driver are in cy_tcpwm_counter.h, 
  32:Generated_Source\PSoC6\pdl\drivers/peripheral/tcpwm/cy_tcpwm.h **** * cy_tcpwm_pwm.h, cy_tcpwm_quaddec.h respectively. Include cy_pdl.h 
ARM GAS  C:\Users\nicpa\AppData\Local\Temp\ccNzlYaQ.s 			page 14


  33:Generated_Source\PSoC6\pdl\drivers/peripheral/tcpwm/cy_tcpwm.h **** * (ModusToolbox only) to get access to all functions and declarations in the PDL.
  34:Generated_Source\PSoC6\pdl\drivers/peripheral/tcpwm/cy_tcpwm.h **** *
  35:Generated_Source\PSoC6\pdl\drivers/peripheral/tcpwm/cy_tcpwm.h **** * Each TCPWM block is a collection of counters that can all be triggered 
  36:Generated_Source\PSoC6\pdl\drivers/peripheral/tcpwm/cy_tcpwm.h **** * simultaneously. For each function call, the base register address of 
  37:Generated_Source\PSoC6\pdl\drivers/peripheral/tcpwm/cy_tcpwm.h **** * the TCPWM being used must be passed first, followed by the index of 
  38:Generated_Source\PSoC6\pdl\drivers/peripheral/tcpwm/cy_tcpwm.h **** * the counter you want to touch next. 
  39:Generated_Source\PSoC6\pdl\drivers/peripheral/tcpwm/cy_tcpwm.h **** * For some functions, you can manage multiple counters simultaneously. You 
  40:Generated_Source\PSoC6\pdl\drivers/peripheral/tcpwm/cy_tcpwm.h **** * provide a bit field representing each counter, rather than the single counter 
  41:Generated_Source\PSoC6\pdl\drivers/peripheral/tcpwm/cy_tcpwm.h **** * index). 
  42:Generated_Source\PSoC6\pdl\drivers/peripheral/tcpwm/cy_tcpwm.h **** *
  43:Generated_Source\PSoC6\pdl\drivers/peripheral/tcpwm/cy_tcpwm.h **** * The TCPWM supports three operating modes:
  44:Generated_Source\PSoC6\pdl\drivers/peripheral/tcpwm/cy_tcpwm.h **** * * Timer/Counter
  45:Generated_Source\PSoC6\pdl\drivers/peripheral/tcpwm/cy_tcpwm.h **** * * PWM
  46:Generated_Source\PSoC6\pdl\drivers/peripheral/tcpwm/cy_tcpwm.h **** * * Quadrature Decoder
  47:Generated_Source\PSoC6\pdl\drivers/peripheral/tcpwm/cy_tcpwm.h **** *
  48:Generated_Source\PSoC6\pdl\drivers/peripheral/tcpwm/cy_tcpwm.h **** * \n
  49:Generated_Source\PSoC6\pdl\drivers/peripheral/tcpwm/cy_tcpwm.h **** * \b Timer/Counter
  50:Generated_Source\PSoC6\pdl\drivers/peripheral/tcpwm/cy_tcpwm.h **** *
  51:Generated_Source\PSoC6\pdl\drivers/peripheral/tcpwm/cy_tcpwm.h **** * Use this mode whenever a specific timing interval or measurement is 
  52:Generated_Source\PSoC6\pdl\drivers/peripheral/tcpwm/cy_tcpwm.h **** * needed. Examples include:
  53:Generated_Source\PSoC6\pdl\drivers/peripheral/tcpwm/cy_tcpwm.h **** * * Creating a periodic interrupt for running other system tasks
  54:Generated_Source\PSoC6\pdl\drivers/peripheral/tcpwm/cy_tcpwm.h **** * * Measuring frequency of an input signal
  55:Generated_Source\PSoC6\pdl\drivers/peripheral/tcpwm/cy_tcpwm.h **** * * Measuring pulse width of an input signal
  56:Generated_Source\PSoC6\pdl\drivers/peripheral/tcpwm/cy_tcpwm.h **** * * Measuring time between two external events
  57:Generated_Source\PSoC6\pdl\drivers/peripheral/tcpwm/cy_tcpwm.h **** * * Counting events
  58:Generated_Source\PSoC6\pdl\drivers/peripheral/tcpwm/cy_tcpwm.h **** * * Triggering other system resources after x number events
  59:Generated_Source\PSoC6\pdl\drivers/peripheral/tcpwm/cy_tcpwm.h **** * * Capturing time stamps when events occur
  60:Generated_Source\PSoC6\pdl\drivers/peripheral/tcpwm/cy_tcpwm.h **** *
  61:Generated_Source\PSoC6\pdl\drivers/peripheral/tcpwm/cy_tcpwm.h **** * The Timer/Counter has the following features:
  62:Generated_Source\PSoC6\pdl\drivers/peripheral/tcpwm/cy_tcpwm.h **** * * 16- or 32-bit Timer/Counter
  63:Generated_Source\PSoC6\pdl\drivers/peripheral/tcpwm/cy_tcpwm.h **** * * Programmable Period Register
  64:Generated_Source\PSoC6\pdl\drivers/peripheral/tcpwm/cy_tcpwm.h **** * * Programmable Compare Register. Compare value can be swapped with a 
  65:Generated_Source\PSoC6\pdl\drivers/peripheral/tcpwm/cy_tcpwm.h **** * buffered compare value on comparison event
  66:Generated_Source\PSoC6\pdl\drivers/peripheral/tcpwm/cy_tcpwm.h **** * * Capture with buffer register
  67:Generated_Source\PSoC6\pdl\drivers/peripheral/tcpwm/cy_tcpwm.h **** * * Count Up, Count Down, or Count Up and Down Counting modes
  68:Generated_Source\PSoC6\pdl\drivers/peripheral/tcpwm/cy_tcpwm.h **** * * Continuous or One Shot Run modes
  69:Generated_Source\PSoC6\pdl\drivers/peripheral/tcpwm/cy_tcpwm.h **** * * Interrupt and Output on Overflow, Underflow, Capture, or Compare 
  70:Generated_Source\PSoC6\pdl\drivers/peripheral/tcpwm/cy_tcpwm.h **** * * Start, Reload, Stop, Capture, and Count Inputs
  71:Generated_Source\PSoC6\pdl\drivers/peripheral/tcpwm/cy_tcpwm.h **** *
  72:Generated_Source\PSoC6\pdl\drivers/peripheral/tcpwm/cy_tcpwm.h **** * \n
  73:Generated_Source\PSoC6\pdl\drivers/peripheral/tcpwm/cy_tcpwm.h **** * \b PWM
  74:Generated_Source\PSoC6\pdl\drivers/peripheral/tcpwm/cy_tcpwm.h **** *
  75:Generated_Source\PSoC6\pdl\drivers/peripheral/tcpwm/cy_tcpwm.h **** * Use this mode when an output square wave is needed with a specific 
  76:Generated_Source\PSoC6\pdl\drivers/peripheral/tcpwm/cy_tcpwm.h **** * period and duty cycle, such as:
  77:Generated_Source\PSoC6\pdl\drivers/peripheral/tcpwm/cy_tcpwm.h **** * * Creating arbitrary square wave outputs
  78:Generated_Source\PSoC6\pdl\drivers/peripheral/tcpwm/cy_tcpwm.h **** * * Driving an LED (changing the brightness)
  79:Generated_Source\PSoC6\pdl\drivers/peripheral/tcpwm/cy_tcpwm.h **** * * Driving Motors (dead time assertion available)
  80:Generated_Source\PSoC6\pdl\drivers/peripheral/tcpwm/cy_tcpwm.h **** *
  81:Generated_Source\PSoC6\pdl\drivers/peripheral/tcpwm/cy_tcpwm.h **** * The PWM has the following features:
  82:Generated_Source\PSoC6\pdl\drivers/peripheral/tcpwm/cy_tcpwm.h **** * * 16- or 32-bit Counter
  83:Generated_Source\PSoC6\pdl\drivers/peripheral/tcpwm/cy_tcpwm.h **** * * Two Programmable Period registers that can be swapped
  84:Generated_Source\PSoC6\pdl\drivers/peripheral/tcpwm/cy_tcpwm.h **** * * Two Output Compare registers that can be swapped on overflow and/or 
  85:Generated_Source\PSoC6\pdl\drivers/peripheral/tcpwm/cy_tcpwm.h **** * underflow
  86:Generated_Source\PSoC6\pdl\drivers/peripheral/tcpwm/cy_tcpwm.h **** * * Left Aligned, Right Aligned, Center Aligned, and Asymmetric Aligned modes
  87:Generated_Source\PSoC6\pdl\drivers/peripheral/tcpwm/cy_tcpwm.h **** * * Continuous or One Shot run modes
  88:Generated_Source\PSoC6\pdl\drivers/peripheral/tcpwm/cy_tcpwm.h **** * * Pseudo Random mode
  89:Generated_Source\PSoC6\pdl\drivers/peripheral/tcpwm/cy_tcpwm.h **** * * Two PWM outputs with Dead Time insertion, and programmable polarity
ARM GAS  C:\Users\nicpa\AppData\Local\Temp\ccNzlYaQ.s 			page 15


  90:Generated_Source\PSoC6\pdl\drivers/peripheral/tcpwm/cy_tcpwm.h **** * * Interrupt and Output on Overflow, Underflow, or Compare 
  91:Generated_Source\PSoC6\pdl\drivers/peripheral/tcpwm/cy_tcpwm.h **** * * Start, Reload, Stop, Swap (Capture), and Count Inputs
  92:Generated_Source\PSoC6\pdl\drivers/peripheral/tcpwm/cy_tcpwm.h **** * * Multiple Components can be synchronized together for applications 
  93:Generated_Source\PSoC6\pdl\drivers/peripheral/tcpwm/cy_tcpwm.h **** * such as three phase motor control
  94:Generated_Source\PSoC6\pdl\drivers/peripheral/tcpwm/cy_tcpwm.h **** *
  95:Generated_Source\PSoC6\pdl\drivers/peripheral/tcpwm/cy_tcpwm.h **** * \n
  96:Generated_Source\PSoC6\pdl\drivers/peripheral/tcpwm/cy_tcpwm.h **** * \b Quadrature \b Decoder
  97:Generated_Source\PSoC6\pdl\drivers/peripheral/tcpwm/cy_tcpwm.h **** *
  98:Generated_Source\PSoC6\pdl\drivers/peripheral/tcpwm/cy_tcpwm.h **** * A quadrature decoder is used to decode the output of a quadrature encoder. 
  99:Generated_Source\PSoC6\pdl\drivers/peripheral/tcpwm/cy_tcpwm.h **** * A quadrature encoder senses the position, velocity, and direction of 
 100:Generated_Source\PSoC6\pdl\drivers/peripheral/tcpwm/cy_tcpwm.h **** * an object (for example a rotating axle, or a spinning mouse ball). 
 101:Generated_Source\PSoC6\pdl\drivers/peripheral/tcpwm/cy_tcpwm.h **** * A quadrature decoder can also be used for precision measurement of speed, 
 102:Generated_Source\PSoC6\pdl\drivers/peripheral/tcpwm/cy_tcpwm.h **** * acceleration, and position of a motor's rotor, or with a rotary switch to 
 103:Generated_Source\PSoC6\pdl\drivers/peripheral/tcpwm/cy_tcpwm.h **** * determine user input. \n
 104:Generated_Source\PSoC6\pdl\drivers/peripheral/tcpwm/cy_tcpwm.h **** * 
 105:Generated_Source\PSoC6\pdl\drivers/peripheral/tcpwm/cy_tcpwm.h **** * The Quadrature Decoder has the following features:
 106:Generated_Source\PSoC6\pdl\drivers/peripheral/tcpwm/cy_tcpwm.h **** * * 16- or 32-bit Counter
 107:Generated_Source\PSoC6\pdl\drivers/peripheral/tcpwm/cy_tcpwm.h **** * * Counter Resolution of x1, x2, and x4 the frequency of the phiA (Count) and 
 108:Generated_Source\PSoC6\pdl\drivers/peripheral/tcpwm/cy_tcpwm.h **** * phiB (Start) inputs
 109:Generated_Source\PSoC6\pdl\drivers/peripheral/tcpwm/cy_tcpwm.h **** * * Index Input to determine absolute position
 110:Generated_Source\PSoC6\pdl\drivers/peripheral/tcpwm/cy_tcpwm.h **** * * A positive edge on phiA increments the counter when phiB is 0 and decrements
 111:Generated_Source\PSoC6\pdl\drivers/peripheral/tcpwm/cy_tcpwm.h **** * the counter when phiB is 1
 112:Generated_Source\PSoC6\pdl\drivers/peripheral/tcpwm/cy_tcpwm.h **** *
 113:Generated_Source\PSoC6\pdl\drivers/peripheral/tcpwm/cy_tcpwm.h **** * \section group_tcpwm_configuration Configuration Considerations
 114:Generated_Source\PSoC6\pdl\drivers/peripheral/tcpwm/cy_tcpwm.h **** *
 115:Generated_Source\PSoC6\pdl\drivers/peripheral/tcpwm/cy_tcpwm.h **** * For each mode, the TCPWM driver has a configuration structure, an Init 
 116:Generated_Source\PSoC6\pdl\drivers/peripheral/tcpwm/cy_tcpwm.h **** * function, and an Enable function. 
 117:Generated_Source\PSoC6\pdl\drivers/peripheral/tcpwm/cy_tcpwm.h **** *
 118:Generated_Source\PSoC6\pdl\drivers/peripheral/tcpwm/cy_tcpwm.h **** * Provide the configuration parameters in the appropriate structure (see
 119:Generated_Source\PSoC6\pdl\drivers/peripheral/tcpwm/cy_tcpwm.h **** * Counter \ref group_tcpwm_data_structures_counter, PWM 
 120:Generated_Source\PSoC6\pdl\drivers/peripheral/tcpwm/cy_tcpwm.h **** * \ref group_tcpwm_data_structures_pwm, or QuadDec 
 121:Generated_Source\PSoC6\pdl\drivers/peripheral/tcpwm/cy_tcpwm.h **** * \ref group_tcpwm_data_structures_quaddec). 
 122:Generated_Source\PSoC6\pdl\drivers/peripheral/tcpwm/cy_tcpwm.h **** * Then call the appropriate Init function: 
 123:Generated_Source\PSoC6\pdl\drivers/peripheral/tcpwm/cy_tcpwm.h **** * \ref Cy_TCPWM_Counter_Init, \ref Cy_TCPWM_PWM_Init, or 
 124:Generated_Source\PSoC6\pdl\drivers/peripheral/tcpwm/cy_tcpwm.h **** * \ref Cy_TCPWM_QuadDec_Init. Provide the address of the filled structure as a 
 125:Generated_Source\PSoC6\pdl\drivers/peripheral/tcpwm/cy_tcpwm.h **** * parameter. To enable the counter, call the appropriate Enable function: 
 126:Generated_Source\PSoC6\pdl\drivers/peripheral/tcpwm/cy_tcpwm.h **** * \ref Cy_TCPWM_Counter_Enable, \ref Cy_TCPWM_PWM_Enable, or 
 127:Generated_Source\PSoC6\pdl\drivers/peripheral/tcpwm/cy_tcpwm.h **** * \ref Cy_TCPWM_QuadDec_Enable).
 128:Generated_Source\PSoC6\pdl\drivers/peripheral/tcpwm/cy_tcpwm.h **** *
 129:Generated_Source\PSoC6\pdl\drivers/peripheral/tcpwm/cy_tcpwm.h **** * Many functions work with an individual counter. You can also manage multiple 
 130:Generated_Source\PSoC6\pdl\drivers/peripheral/tcpwm/cy_tcpwm.h **** * counters simultaneously for certain functions. These are listed in the 
 131:Generated_Source\PSoC6\pdl\drivers/peripheral/tcpwm/cy_tcpwm.h **** * \ref group_tcpwm_functions_common 
 132:Generated_Source\PSoC6\pdl\drivers/peripheral/tcpwm/cy_tcpwm.h **** * section of the TCPWM. You can enable, disable, or trigger (in various ways) 
 133:Generated_Source\PSoC6\pdl\drivers/peripheral/tcpwm/cy_tcpwm.h **** * multiple counters simultaneously. For these functions you provide a bit field 
 134:Generated_Source\PSoC6\pdl\drivers/peripheral/tcpwm/cy_tcpwm.h **** * representing each counter in the TCPWM you want to control. You can 
 135:Generated_Source\PSoC6\pdl\drivers/peripheral/tcpwm/cy_tcpwm.h **** * represent the bit field as an ORed mask of each counter, like 
 136:Generated_Source\PSoC6\pdl\drivers/peripheral/tcpwm/cy_tcpwm.h **** * ((1U << cntNumX) | (1U << cntNumX) | (1U << cntNumX)), where X is the counter 
 137:Generated_Source\PSoC6\pdl\drivers/peripheral/tcpwm/cy_tcpwm.h **** * number from 0 to 31.
 138:Generated_Source\PSoC6\pdl\drivers/peripheral/tcpwm/cy_tcpwm.h **** *
 139:Generated_Source\PSoC6\pdl\drivers/peripheral/tcpwm/cy_tcpwm.h **** * \note
 140:Generated_Source\PSoC6\pdl\drivers/peripheral/tcpwm/cy_tcpwm.h **** * * If none of the input terminals (start, reload(index)) are used, the 
 141:Generated_Source\PSoC6\pdl\drivers/peripheral/tcpwm/cy_tcpwm.h **** * software event \ref Cy_TCPWM_TriggerStart or 
 142:Generated_Source\PSoC6\pdl\drivers/peripheral/tcpwm/cy_tcpwm.h **** * \ref Cy_TCPWM_TriggerReloadOrIndex must be called to start the counting.
 143:Generated_Source\PSoC6\pdl\drivers/peripheral/tcpwm/cy_tcpwm.h **** * * If count input terminal is not used, the \ref CY_TCPWM_INPUT_LEVEL macro 
 144:Generated_Source\PSoC6\pdl\drivers/peripheral/tcpwm/cy_tcpwm.h **** * should be set for the countInputMode parameter and the \ref CY_TCPWM_INPUT_1 
 145:Generated_Source\PSoC6\pdl\drivers/peripheral/tcpwm/cy_tcpwm.h **** * macro should be set for the countInput parameter in the configuration 
 146:Generated_Source\PSoC6\pdl\drivers/peripheral/tcpwm/cy_tcpwm.h **** * structure of the appropriate mode(Counter 
ARM GAS  C:\Users\nicpa\AppData\Local\Temp\ccNzlYaQ.s 			page 16


 147:Generated_Source\PSoC6\pdl\drivers/peripheral/tcpwm/cy_tcpwm.h **** * \ref group_tcpwm_data_structures_counter, PWM 
 148:Generated_Source\PSoC6\pdl\drivers/peripheral/tcpwm/cy_tcpwm.h **** * \ref group_tcpwm_data_structures_pwm, or QuadDec 
 149:Generated_Source\PSoC6\pdl\drivers/peripheral/tcpwm/cy_tcpwm.h **** * \ref group_tcpwm_data_structures_quaddec).
 150:Generated_Source\PSoC6\pdl\drivers/peripheral/tcpwm/cy_tcpwm.h **** *
 151:Generated_Source\PSoC6\pdl\drivers/peripheral/tcpwm/cy_tcpwm.h **** * \subsection group_tcpwm_pins Assign and Configure Pins
 152:Generated_Source\PSoC6\pdl\drivers/peripheral/tcpwm/cy_tcpwm.h **** * The dedicated TCPWM pins can be used. The HSIOM register must be configured to
 153:Generated_Source\PSoC6\pdl\drivers/peripheral/tcpwm/cy_tcpwm.h **** * connect the block to the pins. Use the \ref group_gpio driver API to do that.
 154:Generated_Source\PSoC6\pdl\drivers/peripheral/tcpwm/cy_tcpwm.h **** *
 155:Generated_Source\PSoC6\pdl\drivers/peripheral/tcpwm/cy_tcpwm.h **** * \snippet tcpwm\1.10\counter\snippet\main.c snippet_Cy_TCPWM_Pins
 156:Generated_Source\PSoC6\pdl\drivers/peripheral/tcpwm/cy_tcpwm.h **** *
 157:Generated_Source\PSoC6\pdl\drivers/peripheral/tcpwm/cy_tcpwm.h **** * \subsection group_tcpwm_clock Assign Clock Divider
 158:Generated_Source\PSoC6\pdl\drivers/peripheral/tcpwm/cy_tcpwm.h **** * The clock source must be connected to proper working.
 159:Generated_Source\PSoC6\pdl\drivers/peripheral/tcpwm/cy_tcpwm.h **** * Any of the peripheral clock dividers could be used. Use the  
 160:Generated_Source\PSoC6\pdl\drivers/peripheral/tcpwm/cy_tcpwm.h **** * \ref group_sysclk driver API to do that.
 161:Generated_Source\PSoC6\pdl\drivers/peripheral/tcpwm/cy_tcpwm.h **** *
 162:Generated_Source\PSoC6\pdl\drivers/peripheral/tcpwm/cy_tcpwm.h **** * \snippet tcpwm\1.10\counter\snippet\main.c snippet_Cy_TCPWM_Clock
 163:Generated_Source\PSoC6\pdl\drivers/peripheral/tcpwm/cy_tcpwm.h **** *
 164:Generated_Source\PSoC6\pdl\drivers/peripheral/tcpwm/cy_tcpwm.h **** * \section group_tcpwm_more_information More Information
 165:Generated_Source\PSoC6\pdl\drivers/peripheral/tcpwm/cy_tcpwm.h **** *
 166:Generated_Source\PSoC6\pdl\drivers/peripheral/tcpwm/cy_tcpwm.h **** * For more information on the TCPWM peripheral, refer to the technical 
 167:Generated_Source\PSoC6\pdl\drivers/peripheral/tcpwm/cy_tcpwm.h **** * reference manual (TRM).
 168:Generated_Source\PSoC6\pdl\drivers/peripheral/tcpwm/cy_tcpwm.h **** *
 169:Generated_Source\PSoC6\pdl\drivers/peripheral/tcpwm/cy_tcpwm.h **** * \section group_tcpwm_MISRA MISRA-C Compliance 
 170:Generated_Source\PSoC6\pdl\drivers/peripheral/tcpwm/cy_tcpwm.h **** * <table class="doxtable">
 171:Generated_Source\PSoC6\pdl\drivers/peripheral/tcpwm/cy_tcpwm.h **** *   <tr>
 172:Generated_Source\PSoC6\pdl\drivers/peripheral/tcpwm/cy_tcpwm.h **** *     <th>MISRA Rule</th>
 173:Generated_Source\PSoC6\pdl\drivers/peripheral/tcpwm/cy_tcpwm.h **** *     <th>Rule Class (Required/Advisory)</th>
 174:Generated_Source\PSoC6\pdl\drivers/peripheral/tcpwm/cy_tcpwm.h **** *     <th>Rule Description</th>
 175:Generated_Source\PSoC6\pdl\drivers/peripheral/tcpwm/cy_tcpwm.h **** *     <th>Description of Deviation(s)</th>
 176:Generated_Source\PSoC6\pdl\drivers/peripheral/tcpwm/cy_tcpwm.h **** *   </tr>
 177:Generated_Source\PSoC6\pdl\drivers/peripheral/tcpwm/cy_tcpwm.h **** *   <tr>
 178:Generated_Source\PSoC6\pdl\drivers/peripheral/tcpwm/cy_tcpwm.h **** *     <td>14.2</td>
 179:Generated_Source\PSoC6\pdl\drivers/peripheral/tcpwm/cy_tcpwm.h **** *     <td>R</td>
 180:Generated_Source\PSoC6\pdl\drivers/peripheral/tcpwm/cy_tcpwm.h **** *     <td>All non-null statements shall either: a) have at least one side-effect
 181:Generated_Source\PSoC6\pdl\drivers/peripheral/tcpwm/cy_tcpwm.h **** *         however executed, or b) cause control flow to change.</td>
 182:Generated_Source\PSoC6\pdl\drivers/peripheral/tcpwm/cy_tcpwm.h **** *     <td>The unused function parameters are cast to void. This statement
 183:Generated_Source\PSoC6\pdl\drivers/peripheral/tcpwm/cy_tcpwm.h **** *         has no side-effect and is used to suppress a compiler warning.</td>
 184:Generated_Source\PSoC6\pdl\drivers/peripheral/tcpwm/cy_tcpwm.h **** *   </tr>
 185:Generated_Source\PSoC6\pdl\drivers/peripheral/tcpwm/cy_tcpwm.h **** * </table>
 186:Generated_Source\PSoC6\pdl\drivers/peripheral/tcpwm/cy_tcpwm.h **** *
 187:Generated_Source\PSoC6\pdl\drivers/peripheral/tcpwm/cy_tcpwm.h **** * \section group_tcpwm_changelog Changelog
 188:Generated_Source\PSoC6\pdl\drivers/peripheral/tcpwm/cy_tcpwm.h **** * <table class="doxtable">
 189:Generated_Source\PSoC6\pdl\drivers/peripheral/tcpwm/cy_tcpwm.h **** *   <tr><th>Version</th><th>Changes</th><th>Reason for Change</th></tr>
 190:Generated_Source\PSoC6\pdl\drivers/peripheral/tcpwm/cy_tcpwm.h **** *   <tr>
 191:Generated_Source\PSoC6\pdl\drivers/peripheral/tcpwm/cy_tcpwm.h **** *     <td rowspan="2">1.10</td>
 192:Generated_Source\PSoC6\pdl\drivers/peripheral/tcpwm/cy_tcpwm.h **** *     <td>Flattened the organization of the driver source code into the single 
 193:Generated_Source\PSoC6\pdl\drivers/peripheral/tcpwm/cy_tcpwm.h **** *         source directory and the single include directory.
 194:Generated_Source\PSoC6\pdl\drivers/peripheral/tcpwm/cy_tcpwm.h **** *     </td>
 195:Generated_Source\PSoC6\pdl\drivers/peripheral/tcpwm/cy_tcpwm.h **** *     <td>Driver library directory-structure simplification.</td>
 196:Generated_Source\PSoC6\pdl\drivers/peripheral/tcpwm/cy_tcpwm.h **** *   </tr>
 197:Generated_Source\PSoC6\pdl\drivers/peripheral/tcpwm/cy_tcpwm.h **** *   <tr>
 198:Generated_Source\PSoC6\pdl\drivers/peripheral/tcpwm/cy_tcpwm.h **** *     <td>Added register access layer. Use register access macros instead
 199:Generated_Source\PSoC6\pdl\drivers/peripheral/tcpwm/cy_tcpwm.h **** *         of direct register access using dereferenced pointers.</td>
 200:Generated_Source\PSoC6\pdl\drivers/peripheral/tcpwm/cy_tcpwm.h **** *     <td>Makes register access device-independent, so that the PDL does 
 201:Generated_Source\PSoC6\pdl\drivers/peripheral/tcpwm/cy_tcpwm.h **** *         not need to be recompiled for each supported part number.</td>
 202:Generated_Source\PSoC6\pdl\drivers/peripheral/tcpwm/cy_tcpwm.h **** *   </tr>
 203:Generated_Source\PSoC6\pdl\drivers/peripheral/tcpwm/cy_tcpwm.h **** *   <tr>
ARM GAS  C:\Users\nicpa\AppData\Local\Temp\ccNzlYaQ.s 			page 17


 204:Generated_Source\PSoC6\pdl\drivers/peripheral/tcpwm/cy_tcpwm.h **** *     <td>1.0.1</td>
 205:Generated_Source\PSoC6\pdl\drivers/peripheral/tcpwm/cy_tcpwm.h **** *     <td>Added a deviation to the MISRA Compliance section.
 206:Generated_Source\PSoC6\pdl\drivers/peripheral/tcpwm/cy_tcpwm.h **** *         Added function-level code snippets.</td>
 207:Generated_Source\PSoC6\pdl\drivers/peripheral/tcpwm/cy_tcpwm.h **** *     <td>Documentation update and clarification</td>
 208:Generated_Source\PSoC6\pdl\drivers/peripheral/tcpwm/cy_tcpwm.h **** *   </tr>
 209:Generated_Source\PSoC6\pdl\drivers/peripheral/tcpwm/cy_tcpwm.h **** *   <tr>
 210:Generated_Source\PSoC6\pdl\drivers/peripheral/tcpwm/cy_tcpwm.h **** *     <td>1.0</td>
 211:Generated_Source\PSoC6\pdl\drivers/peripheral/tcpwm/cy_tcpwm.h **** *     <td>Initial version</td>
 212:Generated_Source\PSoC6\pdl\drivers/peripheral/tcpwm/cy_tcpwm.h **** *     <td></td>
 213:Generated_Source\PSoC6\pdl\drivers/peripheral/tcpwm/cy_tcpwm.h **** *   </tr>
 214:Generated_Source\PSoC6\pdl\drivers/peripheral/tcpwm/cy_tcpwm.h **** * </table>
 215:Generated_Source\PSoC6\pdl\drivers/peripheral/tcpwm/cy_tcpwm.h **** */
 216:Generated_Source\PSoC6\pdl\drivers/peripheral/tcpwm/cy_tcpwm.h **** 
 217:Generated_Source\PSoC6\pdl\drivers/peripheral/tcpwm/cy_tcpwm.h **** /** \} group_tcpwm */
 218:Generated_Source\PSoC6\pdl\drivers/peripheral/tcpwm/cy_tcpwm.h **** 
 219:Generated_Source\PSoC6\pdl\drivers/peripheral/tcpwm/cy_tcpwm.h **** /**
 220:Generated_Source\PSoC6\pdl\drivers/peripheral/tcpwm/cy_tcpwm.h **** * \addtogroup group_tcpwm_common
 221:Generated_Source\PSoC6\pdl\drivers/peripheral/tcpwm/cy_tcpwm.h **** * Common API for the Timer Counter PWM Block.
 222:Generated_Source\PSoC6\pdl\drivers/peripheral/tcpwm/cy_tcpwm.h **** *
 223:Generated_Source\PSoC6\pdl\drivers/peripheral/tcpwm/cy_tcpwm.h **** * This is the common API that provides an interface to the TCPWM hardware.
 224:Generated_Source\PSoC6\pdl\drivers/peripheral/tcpwm/cy_tcpwm.h **** * The Timer Counter, PWM, and Quadrature Decoder drivers use this common API.
 225:Generated_Source\PSoC6\pdl\drivers/peripheral/tcpwm/cy_tcpwm.h **** * Most users will use individual drivers and do not need to use the common
 226:Generated_Source\PSoC6\pdl\drivers/peripheral/tcpwm/cy_tcpwm.h **** * API for the TCPWM.
 227:Generated_Source\PSoC6\pdl\drivers/peripheral/tcpwm/cy_tcpwm.h **** *
 228:Generated_Source\PSoC6\pdl\drivers/peripheral/tcpwm/cy_tcpwm.h **** * The functions and other declarations used in this part of the driver are in cy_tcpwm.h. 
 229:Generated_Source\PSoC6\pdl\drivers/peripheral/tcpwm/cy_tcpwm.h **** * Include either of cy_tcpwm_counter.h, cy_tcpwm_pwm.h, cy_tcpwm_quaddec.h 
 230:Generated_Source\PSoC6\pdl\drivers/peripheral/tcpwm/cy_tcpwm.h **** * depending on the desired functionality. You can also include cy_pdl.h 
 231:Generated_Source\PSoC6\pdl\drivers/peripheral/tcpwm/cy_tcpwm.h **** * to get access to all functions and declarations in the PDL.
 232:Generated_Source\PSoC6\pdl\drivers/peripheral/tcpwm/cy_tcpwm.h **** *
 233:Generated_Source\PSoC6\pdl\drivers/peripheral/tcpwm/cy_tcpwm.h **** * \{
 234:Generated_Source\PSoC6\pdl\drivers/peripheral/tcpwm/cy_tcpwm.h **** * \defgroup group_tcpwm_macros_common           Macros
 235:Generated_Source\PSoC6\pdl\drivers/peripheral/tcpwm/cy_tcpwm.h **** * \defgroup group_tcpwm_functions_common        Functions
 236:Generated_Source\PSoC6\pdl\drivers/peripheral/tcpwm/cy_tcpwm.h **** * \defgroup group_tcpwm_data_structures_common  Data Structures
 237:Generated_Source\PSoC6\pdl\drivers/peripheral/tcpwm/cy_tcpwm.h **** * \defgroup group_tcpwm_enums Enumerated Types
 238:Generated_Source\PSoC6\pdl\drivers/peripheral/tcpwm/cy_tcpwm.h **** */
 239:Generated_Source\PSoC6\pdl\drivers/peripheral/tcpwm/cy_tcpwm.h **** 
 240:Generated_Source\PSoC6\pdl\drivers/peripheral/tcpwm/cy_tcpwm.h **** 
 241:Generated_Source\PSoC6\pdl\drivers/peripheral/tcpwm/cy_tcpwm.h **** #if !defined(CY_TCPWM_H)
 242:Generated_Source\PSoC6\pdl\drivers/peripheral/tcpwm/cy_tcpwm.h **** #define CY_TCPWM_H
 243:Generated_Source\PSoC6\pdl\drivers/peripheral/tcpwm/cy_tcpwm.h **** 
 244:Generated_Source\PSoC6\pdl\drivers/peripheral/tcpwm/cy_tcpwm.h **** #include <stdint.h>
 245:Generated_Source\PSoC6\pdl\drivers/peripheral/tcpwm/cy_tcpwm.h **** #include <stdbool.h>
 246:Generated_Source\PSoC6\pdl\drivers/peripheral/tcpwm/cy_tcpwm.h **** #include <stddef.h>
 247:Generated_Source\PSoC6\pdl\drivers/peripheral/tcpwm/cy_tcpwm.h **** #include "cy_syslib.h"
 248:Generated_Source\PSoC6\pdl\drivers/peripheral/tcpwm/cy_tcpwm.h **** #include "cy_device_headers.h"
 249:Generated_Source\PSoC6\pdl\drivers/peripheral/tcpwm/cy_tcpwm.h **** #include "cy_device.h"
 250:Generated_Source\PSoC6\pdl\drivers/peripheral/tcpwm/cy_tcpwm.h **** 
 251:Generated_Source\PSoC6\pdl\drivers/peripheral/tcpwm/cy_tcpwm.h **** #ifdef CY_IP_MXTCPWM
 252:Generated_Source\PSoC6\pdl\drivers/peripheral/tcpwm/cy_tcpwm.h **** 
 253:Generated_Source\PSoC6\pdl\drivers/peripheral/tcpwm/cy_tcpwm.h **** #if defined(__cplusplus)
 254:Generated_Source\PSoC6\pdl\drivers/peripheral/tcpwm/cy_tcpwm.h **** extern "C" {
 255:Generated_Source\PSoC6\pdl\drivers/peripheral/tcpwm/cy_tcpwm.h **** #endif
 256:Generated_Source\PSoC6\pdl\drivers/peripheral/tcpwm/cy_tcpwm.h **** 
 257:Generated_Source\PSoC6\pdl\drivers/peripheral/tcpwm/cy_tcpwm.h **** /**
 258:Generated_Source\PSoC6\pdl\drivers/peripheral/tcpwm/cy_tcpwm.h **** * \addtogroup group_tcpwm_macros_common
 259:Generated_Source\PSoC6\pdl\drivers/peripheral/tcpwm/cy_tcpwm.h **** * \{
 260:Generated_Source\PSoC6\pdl\drivers/peripheral/tcpwm/cy_tcpwm.h **** */
ARM GAS  C:\Users\nicpa\AppData\Local\Temp\ccNzlYaQ.s 			page 18


 261:Generated_Source\PSoC6\pdl\drivers/peripheral/tcpwm/cy_tcpwm.h **** 
 262:Generated_Source\PSoC6\pdl\drivers/peripheral/tcpwm/cy_tcpwm.h **** /** Driver major version */
 263:Generated_Source\PSoC6\pdl\drivers/peripheral/tcpwm/cy_tcpwm.h **** #define CY_TCPWM_DRV_VERSION_MAJOR       1
 264:Generated_Source\PSoC6\pdl\drivers/peripheral/tcpwm/cy_tcpwm.h **** 
 265:Generated_Source\PSoC6\pdl\drivers/peripheral/tcpwm/cy_tcpwm.h **** /** Driver minor version */
 266:Generated_Source\PSoC6\pdl\drivers/peripheral/tcpwm/cy_tcpwm.h **** #define CY_TCPWM_DRV_VERSION_MINOR       10
 267:Generated_Source\PSoC6\pdl\drivers/peripheral/tcpwm/cy_tcpwm.h **** 
 268:Generated_Source\PSoC6\pdl\drivers/peripheral/tcpwm/cy_tcpwm.h **** 
 269:Generated_Source\PSoC6\pdl\drivers/peripheral/tcpwm/cy_tcpwm.h **** /******************************************************************************
 270:Generated_Source\PSoC6\pdl\drivers/peripheral/tcpwm/cy_tcpwm.h **** * API Constants
 271:Generated_Source\PSoC6\pdl\drivers/peripheral/tcpwm/cy_tcpwm.h **** ******************************************************************************/
 272:Generated_Source\PSoC6\pdl\drivers/peripheral/tcpwm/cy_tcpwm.h **** 
 273:Generated_Source\PSoC6\pdl\drivers/peripheral/tcpwm/cy_tcpwm.h **** /** TCPWM driver identifier */
 274:Generated_Source\PSoC6\pdl\drivers/peripheral/tcpwm/cy_tcpwm.h **** #define CY_TCPWM_ID                     (CY_PDL_DRV_ID(0x2DU))
 275:Generated_Source\PSoC6\pdl\drivers/peripheral/tcpwm/cy_tcpwm.h **** 
 276:Generated_Source\PSoC6\pdl\drivers/peripheral/tcpwm/cy_tcpwm.h **** /** \defgroup group_tcpwm_input_selection  TCPWM Input Selection
 277:Generated_Source\PSoC6\pdl\drivers/peripheral/tcpwm/cy_tcpwm.h **** * \{
 278:Generated_Source\PSoC6\pdl\drivers/peripheral/tcpwm/cy_tcpwm.h **** * Selects which input to use
 279:Generated_Source\PSoC6\pdl\drivers/peripheral/tcpwm/cy_tcpwm.h **** */
 280:Generated_Source\PSoC6\pdl\drivers/peripheral/tcpwm/cy_tcpwm.h **** #define CY_TCPWM_INPUT_0                (0U)  /**< Input is tied to logic 0 */
 281:Generated_Source\PSoC6\pdl\drivers/peripheral/tcpwm/cy_tcpwm.h **** #define CY_TCPWM_INPUT_1                (1U)  /**< Input is tied to logic 1 */
 282:Generated_Source\PSoC6\pdl\drivers/peripheral/tcpwm/cy_tcpwm.h **** #define CY_TCPWM_INPUT_TRIG_0           (2U)  /**< Input is connected to the trigger input 0 */
 283:Generated_Source\PSoC6\pdl\drivers/peripheral/tcpwm/cy_tcpwm.h **** #define CY_TCPWM_INPUT_TRIG_1           (3U)  /**< Input is connected to the trigger input 1 */
 284:Generated_Source\PSoC6\pdl\drivers/peripheral/tcpwm/cy_tcpwm.h **** #define CY_TCPWM_INPUT_TRIG_2           (4U)  /**< Input is connected to the trigger input 2 */
 285:Generated_Source\PSoC6\pdl\drivers/peripheral/tcpwm/cy_tcpwm.h **** #define CY_TCPWM_INPUT_TRIG_3           (5U)  /**< Input is connected to the trigger input 3 */
 286:Generated_Source\PSoC6\pdl\drivers/peripheral/tcpwm/cy_tcpwm.h **** #define CY_TCPWM_INPUT_TRIG_4           (6U)  /**< Input is connected to the trigger input 4 */
 287:Generated_Source\PSoC6\pdl\drivers/peripheral/tcpwm/cy_tcpwm.h **** #define CY_TCPWM_INPUT_TRIG_5           (7U)  /**< Input is connected to the trigger input 5 */
 288:Generated_Source\PSoC6\pdl\drivers/peripheral/tcpwm/cy_tcpwm.h **** #define CY_TCPWM_INPUT_TRIG_6           (8U)  /**< Input is connected to the trigger input 6 */
 289:Generated_Source\PSoC6\pdl\drivers/peripheral/tcpwm/cy_tcpwm.h **** #define CY_TCPWM_INPUT_TRIG_7           (9U)  /**< Input is connected to the trigger input 7 */
 290:Generated_Source\PSoC6\pdl\drivers/peripheral/tcpwm/cy_tcpwm.h **** #define CY_TCPWM_INPUT_TRIG_8           (10U) /**< Input is connected to the trigger input 8 */
 291:Generated_Source\PSoC6\pdl\drivers/peripheral/tcpwm/cy_tcpwm.h **** #define CY_TCPWM_INPUT_TRIG_9           (11U) /**< Input is connected to the trigger input 9 */
 292:Generated_Source\PSoC6\pdl\drivers/peripheral/tcpwm/cy_tcpwm.h **** #define CY_TCPWM_INPUT_TRIG_10          (12U) /**< Input is connected to the trigger input 10 */
 293:Generated_Source\PSoC6\pdl\drivers/peripheral/tcpwm/cy_tcpwm.h **** #define CY_TCPWM_INPUT_TRIG_11          (13U) /**< Input is connected to the trigger input 11 */
 294:Generated_Source\PSoC6\pdl\drivers/peripheral/tcpwm/cy_tcpwm.h **** #define CY_TCPWM_INPUT_TRIG_12          (14U) /**< Input is connected to the trigger input 12 */
 295:Generated_Source\PSoC6\pdl\drivers/peripheral/tcpwm/cy_tcpwm.h **** #define CY_TCPWM_INPUT_TRIG_13          (15U) /**< Input is connected to the trigger input 13 */
 296:Generated_Source\PSoC6\pdl\drivers/peripheral/tcpwm/cy_tcpwm.h **** 
 297:Generated_Source\PSoC6\pdl\drivers/peripheral/tcpwm/cy_tcpwm.h **** /** Input is defined by Creator, and Init() function does not need to configure input */
 298:Generated_Source\PSoC6\pdl\drivers/peripheral/tcpwm/cy_tcpwm.h **** #define CY_TCPWM_INPUT_CREATOR          (0xFFFFFFFFU)
 299:Generated_Source\PSoC6\pdl\drivers/peripheral/tcpwm/cy_tcpwm.h **** /** \} group_tcpwm_input_selection */
 300:Generated_Source\PSoC6\pdl\drivers/peripheral/tcpwm/cy_tcpwm.h **** 
 301:Generated_Source\PSoC6\pdl\drivers/peripheral/tcpwm/cy_tcpwm.h **** /**
 302:Generated_Source\PSoC6\pdl\drivers/peripheral/tcpwm/cy_tcpwm.h **** * \defgroup group_tcpwm_input_modes  Input Modes
 303:Generated_Source\PSoC6\pdl\drivers/peripheral/tcpwm/cy_tcpwm.h **** * \{
 304:Generated_Source\PSoC6\pdl\drivers/peripheral/tcpwm/cy_tcpwm.h **** * Configures how TCPWM inputs behave
 305:Generated_Source\PSoC6\pdl\drivers/peripheral/tcpwm/cy_tcpwm.h **** */
 306:Generated_Source\PSoC6\pdl\drivers/peripheral/tcpwm/cy_tcpwm.h **** /** A rising edge triggers the event (Capture, Start, Reload, etc..) */
 307:Generated_Source\PSoC6\pdl\drivers/peripheral/tcpwm/cy_tcpwm.h **** #define CY_TCPWM_INPUT_RISINGEDGE       (0U)
 308:Generated_Source\PSoC6\pdl\drivers/peripheral/tcpwm/cy_tcpwm.h **** /** A falling edge triggers the event (Capture, Start, Reload, etc..) */
 309:Generated_Source\PSoC6\pdl\drivers/peripheral/tcpwm/cy_tcpwm.h **** #define CY_TCPWM_INPUT_FALLINGEDGE      (1U)
 310:Generated_Source\PSoC6\pdl\drivers/peripheral/tcpwm/cy_tcpwm.h **** /** A rising edge or falling edge triggers the event (Capture, Start, Reload, etc..) */
 311:Generated_Source\PSoC6\pdl\drivers/peripheral/tcpwm/cy_tcpwm.h **** #define CY_TCPWM_INPUT_EITHEREDGE       (2U)
 312:Generated_Source\PSoC6\pdl\drivers/peripheral/tcpwm/cy_tcpwm.h **** /** The event is triggered on each edge of the TCPWM clock if the input is high */
 313:Generated_Source\PSoC6\pdl\drivers/peripheral/tcpwm/cy_tcpwm.h **** #define CY_TCPWM_INPUT_LEVEL            (3U)
 314:Generated_Source\PSoC6\pdl\drivers/peripheral/tcpwm/cy_tcpwm.h **** /** \} group_tcpwm_input_modes */
 315:Generated_Source\PSoC6\pdl\drivers/peripheral/tcpwm/cy_tcpwm.h **** 
 316:Generated_Source\PSoC6\pdl\drivers/peripheral/tcpwm/cy_tcpwm.h **** /**
 317:Generated_Source\PSoC6\pdl\drivers/peripheral/tcpwm/cy_tcpwm.h **** * \defgroup group_tcpwm_interrupt_sources  Interrupt Sources
ARM GAS  C:\Users\nicpa\AppData\Local\Temp\ccNzlYaQ.s 			page 19


 318:Generated_Source\PSoC6\pdl\drivers/peripheral/tcpwm/cy_tcpwm.h **** * \{
 319:Generated_Source\PSoC6\pdl\drivers/peripheral/tcpwm/cy_tcpwm.h **** * Interrupt Sources 
 320:Generated_Source\PSoC6\pdl\drivers/peripheral/tcpwm/cy_tcpwm.h **** */
 321:Generated_Source\PSoC6\pdl\drivers/peripheral/tcpwm/cy_tcpwm.h **** #define CY_TCPWM_INT_ON_TC              (1U) /**< Interrupt on Terminal count(TC) */
 322:Generated_Source\PSoC6\pdl\drivers/peripheral/tcpwm/cy_tcpwm.h **** #define CY_TCPWM_INT_ON_CC              (2U) /**< Interrupt on Compare/Capture(CC) */
 323:Generated_Source\PSoC6\pdl\drivers/peripheral/tcpwm/cy_tcpwm.h **** #define CY_TCPWM_INT_NONE               (0U) /**< No Interrupt */
 324:Generated_Source\PSoC6\pdl\drivers/peripheral/tcpwm/cy_tcpwm.h **** #define CY_TCPWM_INT_ON_CC_OR_TC        (3U) /**< Interrupt on TC or CC */
 325:Generated_Source\PSoC6\pdl\drivers/peripheral/tcpwm/cy_tcpwm.h **** /** \} group_tcpwm_interrupt_sources */
 326:Generated_Source\PSoC6\pdl\drivers/peripheral/tcpwm/cy_tcpwm.h **** 
 327:Generated_Source\PSoC6\pdl\drivers/peripheral/tcpwm/cy_tcpwm.h **** 
 328:Generated_Source\PSoC6\pdl\drivers/peripheral/tcpwm/cy_tcpwm.h **** /***************************************
 329:Generated_Source\PSoC6\pdl\drivers/peripheral/tcpwm/cy_tcpwm.h **** *        Registers Constants
 330:Generated_Source\PSoC6\pdl\drivers/peripheral/tcpwm/cy_tcpwm.h **** ***************************************/
 331:Generated_Source\PSoC6\pdl\drivers/peripheral/tcpwm/cy_tcpwm.h **** 
 332:Generated_Source\PSoC6\pdl\drivers/peripheral/tcpwm/cy_tcpwm.h **** /**
 333:Generated_Source\PSoC6\pdl\drivers/peripheral/tcpwm/cy_tcpwm.h **** * \defgroup group_tcpwm_reg_const Default registers constants
 334:Generated_Source\PSoC6\pdl\drivers/peripheral/tcpwm/cy_tcpwm.h **** * \{
 335:Generated_Source\PSoC6\pdl\drivers/peripheral/tcpwm/cy_tcpwm.h **** * Default constants for CNT Registers
 336:Generated_Source\PSoC6\pdl\drivers/peripheral/tcpwm/cy_tcpwm.h **** */
 337:Generated_Source\PSoC6\pdl\drivers/peripheral/tcpwm/cy_tcpwm.h **** #define CY_TCPWM_CNT_CTRL_DEFAULT           (0x0U) /**< Default value for CTRL register */
 338:Generated_Source\PSoC6\pdl\drivers/peripheral/tcpwm/cy_tcpwm.h **** #define CY_TCPWM_CNT_COUNTER_DEFAULT        (0x0U) /**< Default value for COUNTER register */
 339:Generated_Source\PSoC6\pdl\drivers/peripheral/tcpwm/cy_tcpwm.h **** #define CY_TCPWM_CNT_CC_DEFAULT             (0xFFFFFFFFU) /**< Default value for CC register */
 340:Generated_Source\PSoC6\pdl\drivers/peripheral/tcpwm/cy_tcpwm.h **** #define CY_TCPWM_CNT_CC_BUFF_DEFAULT        (0xFFFFFFFFU) /**< Default value for CC_BUFF register *
 341:Generated_Source\PSoC6\pdl\drivers/peripheral/tcpwm/cy_tcpwm.h **** #define CY_TCPWM_CNT_PERIOD_DEFAULT         (0xFFFFFFFFU) /**< Default value for PERIOD register */
 342:Generated_Source\PSoC6\pdl\drivers/peripheral/tcpwm/cy_tcpwm.h **** #define CY_TCPWM_CNT_PERIOD_BUFF_DEFAULT    (0xFFFFFFFFU) /**< Default value for PERIOD_BUFF regist
 343:Generated_Source\PSoC6\pdl\drivers/peripheral/tcpwm/cy_tcpwm.h **** #define CY_TCPWM_CNT_TR_CTRL0_DEFAULT       (0x10U)  /**< Default value for TR_CTRL0 register */
 344:Generated_Source\PSoC6\pdl\drivers/peripheral/tcpwm/cy_tcpwm.h **** #define CY_TCPWM_CNT_TR_CTRL1_DEFAULT       (0x3FFU) /**< Default value for TR_CTRL1 register */
 345:Generated_Source\PSoC6\pdl\drivers/peripheral/tcpwm/cy_tcpwm.h **** #define CY_TCPWM_CNT_TR_CTRL2_DEFAULT       (0x3FU)  /**< Default value for TR_CTRL2 register */
 346:Generated_Source\PSoC6\pdl\drivers/peripheral/tcpwm/cy_tcpwm.h **** #define CY_TCPWM_CNT_INTR_DEFAULT           (0x3U)   /**< Default value for INTR register */
 347:Generated_Source\PSoC6\pdl\drivers/peripheral/tcpwm/cy_tcpwm.h **** #define CY_TCPWM_CNT_INTR_SET_DEFAULT       (0x0U)   /**< Default value for INTR_SET register */
 348:Generated_Source\PSoC6\pdl\drivers/peripheral/tcpwm/cy_tcpwm.h **** #define CY_TCPWM_CNT_INTR_MASK_DEFAULT      (0x0U)   /**< Default value for INTR_MASK register */
 349:Generated_Source\PSoC6\pdl\drivers/peripheral/tcpwm/cy_tcpwm.h **** /** \} group_tcpwm_reg_const */
 350:Generated_Source\PSoC6\pdl\drivers/peripheral/tcpwm/cy_tcpwm.h **** 
 351:Generated_Source\PSoC6\pdl\drivers/peripheral/tcpwm/cy_tcpwm.h **** /** Position of Up counting counter status */
 352:Generated_Source\PSoC6\pdl\drivers/peripheral/tcpwm/cy_tcpwm.h **** #define CY_TCPWM_CNT_STATUS_UP_POS          (0x1U)
 353:Generated_Source\PSoC6\pdl\drivers/peripheral/tcpwm/cy_tcpwm.h **** /** Initial value for the counter in the Up counting mode */
 354:Generated_Source\PSoC6\pdl\drivers/peripheral/tcpwm/cy_tcpwm.h **** #define CY_TCPWM_CNT_UP_INIT_VAL            (0x0U)
 355:Generated_Source\PSoC6\pdl\drivers/peripheral/tcpwm/cy_tcpwm.h **** /** Initial value for the counter in the Up/Down counting modes */
 356:Generated_Source\PSoC6\pdl\drivers/peripheral/tcpwm/cy_tcpwm.h **** #define CY_TCPWM_CNT_UP_DOWN_INIT_VAL       (0x1U)
 357:Generated_Source\PSoC6\pdl\drivers/peripheral/tcpwm/cy_tcpwm.h **** /** \} group_tcpwm_macros_common */
 358:Generated_Source\PSoC6\pdl\drivers/peripheral/tcpwm/cy_tcpwm.h **** 
 359:Generated_Source\PSoC6\pdl\drivers/peripheral/tcpwm/cy_tcpwm.h **** 
 360:Generated_Source\PSoC6\pdl\drivers/peripheral/tcpwm/cy_tcpwm.h **** /*******************************************************************************
 361:Generated_Source\PSoC6\pdl\drivers/peripheral/tcpwm/cy_tcpwm.h ****  * Enumerations
 362:Generated_Source\PSoC6\pdl\drivers/peripheral/tcpwm/cy_tcpwm.h ****  ******************************************************************************/
 363:Generated_Source\PSoC6\pdl\drivers/peripheral/tcpwm/cy_tcpwm.h **** 
 364:Generated_Source\PSoC6\pdl\drivers/peripheral/tcpwm/cy_tcpwm.h ****  /**
 365:Generated_Source\PSoC6\pdl\drivers/peripheral/tcpwm/cy_tcpwm.h **** * \addtogroup group_tcpwm_enums
 366:Generated_Source\PSoC6\pdl\drivers/peripheral/tcpwm/cy_tcpwm.h **** * \{
 367:Generated_Source\PSoC6\pdl\drivers/peripheral/tcpwm/cy_tcpwm.h **** */
 368:Generated_Source\PSoC6\pdl\drivers/peripheral/tcpwm/cy_tcpwm.h **** 
 369:Generated_Source\PSoC6\pdl\drivers/peripheral/tcpwm/cy_tcpwm.h **** /** TCPWM status definitions */
 370:Generated_Source\PSoC6\pdl\drivers/peripheral/tcpwm/cy_tcpwm.h **** typedef enum 
 371:Generated_Source\PSoC6\pdl\drivers/peripheral/tcpwm/cy_tcpwm.h **** {
 372:Generated_Source\PSoC6\pdl\drivers/peripheral/tcpwm/cy_tcpwm.h ****     CY_TCPWM_SUCCESS = 0x00U,                                           /**< Successful */
 373:Generated_Source\PSoC6\pdl\drivers/peripheral/tcpwm/cy_tcpwm.h ****     CY_TCPWM_BAD_PARAM = CY_TCPWM_ID | CY_PDL_STATUS_ERROR | 0x01U,     /**< One or more invalid pa
 374:Generated_Source\PSoC6\pdl\drivers/peripheral/tcpwm/cy_tcpwm.h **** } cy_en_tcpwm_status_t;
ARM GAS  C:\Users\nicpa\AppData\Local\Temp\ccNzlYaQ.s 			page 20


 375:Generated_Source\PSoC6\pdl\drivers/peripheral/tcpwm/cy_tcpwm.h **** /** \} group_tcpwm_enums */
 376:Generated_Source\PSoC6\pdl\drivers/peripheral/tcpwm/cy_tcpwm.h ****  
 377:Generated_Source\PSoC6\pdl\drivers/peripheral/tcpwm/cy_tcpwm.h **** /*******************************************************************************
 378:Generated_Source\PSoC6\pdl\drivers/peripheral/tcpwm/cy_tcpwm.h **** *        Function Prototypes
 379:Generated_Source\PSoC6\pdl\drivers/peripheral/tcpwm/cy_tcpwm.h **** *******************************************************************************/
 380:Generated_Source\PSoC6\pdl\drivers/peripheral/tcpwm/cy_tcpwm.h **** 
 381:Generated_Source\PSoC6\pdl\drivers/peripheral/tcpwm/cy_tcpwm.h **** /**
 382:Generated_Source\PSoC6\pdl\drivers/peripheral/tcpwm/cy_tcpwm.h **** * \addtogroup group_tcpwm_functions_common
 383:Generated_Source\PSoC6\pdl\drivers/peripheral/tcpwm/cy_tcpwm.h **** * \{
 384:Generated_Source\PSoC6\pdl\drivers/peripheral/tcpwm/cy_tcpwm.h **** */
 385:Generated_Source\PSoC6\pdl\drivers/peripheral/tcpwm/cy_tcpwm.h **** 
 386:Generated_Source\PSoC6\pdl\drivers/peripheral/tcpwm/cy_tcpwm.h **** __STATIC_INLINE void Cy_TCPWM_Enable_Multiple(TCPWM_Type *base, uint32_t counters);
 387:Generated_Source\PSoC6\pdl\drivers/peripheral/tcpwm/cy_tcpwm.h **** __STATIC_INLINE void Cy_TCPWM_Disable_Multiple(TCPWM_Type *base, uint32_t counters);
 388:Generated_Source\PSoC6\pdl\drivers/peripheral/tcpwm/cy_tcpwm.h **** __STATIC_INLINE void Cy_TCPWM_TriggerStart(TCPWM_Type *base, uint32_t counters);
 389:Generated_Source\PSoC6\pdl\drivers/peripheral/tcpwm/cy_tcpwm.h **** __STATIC_INLINE void Cy_TCPWM_TriggerReloadOrIndex(TCPWM_Type *base, uint32_t counters);
 390:Generated_Source\PSoC6\pdl\drivers/peripheral/tcpwm/cy_tcpwm.h **** __STATIC_INLINE void Cy_TCPWM_TriggerStopOrKill(TCPWM_Type *base, uint32_t counters);
 391:Generated_Source\PSoC6\pdl\drivers/peripheral/tcpwm/cy_tcpwm.h **** __STATIC_INLINE void Cy_TCPWM_TriggerCaptureOrSwap(TCPWM_Type *base, uint32_t counters);
 392:Generated_Source\PSoC6\pdl\drivers/peripheral/tcpwm/cy_tcpwm.h **** __STATIC_INLINE uint32_t Cy_TCPWM_GetInterruptStatus(TCPWM_Type const *base, uint32_t cntNum);
 393:Generated_Source\PSoC6\pdl\drivers/peripheral/tcpwm/cy_tcpwm.h **** __STATIC_INLINE void Cy_TCPWM_ClearInterrupt(TCPWM_Type *base, uint32_t cntNum, uint32_t source);
 394:Generated_Source\PSoC6\pdl\drivers/peripheral/tcpwm/cy_tcpwm.h **** __STATIC_INLINE void Cy_TCPWM_SetInterrupt(TCPWM_Type *base, uint32_t cntNum, uint32_t source);
 395:Generated_Source\PSoC6\pdl\drivers/peripheral/tcpwm/cy_tcpwm.h **** __STATIC_INLINE void Cy_TCPWM_SetInterruptMask(TCPWM_Type *base, uint32_t cntNum, uint32_t mask);
 396:Generated_Source\PSoC6\pdl\drivers/peripheral/tcpwm/cy_tcpwm.h **** __STATIC_INLINE uint32_t Cy_TCPWM_GetInterruptMask(TCPWM_Type const *base, uint32_t cntNum);
 397:Generated_Source\PSoC6\pdl\drivers/peripheral/tcpwm/cy_tcpwm.h **** __STATIC_INLINE uint32_t Cy_TCPWM_GetInterruptStatusMasked(TCPWM_Type const *base, uint32_t cntNum)
 398:Generated_Source\PSoC6\pdl\drivers/peripheral/tcpwm/cy_tcpwm.h **** 
 399:Generated_Source\PSoC6\pdl\drivers/peripheral/tcpwm/cy_tcpwm.h **** 
 400:Generated_Source\PSoC6\pdl\drivers/peripheral/tcpwm/cy_tcpwm.h **** /*******************************************************************************
 401:Generated_Source\PSoC6\pdl\drivers/peripheral/tcpwm/cy_tcpwm.h **** * Function Name: Cy_TCPWM_Enable_Multiple
 402:Generated_Source\PSoC6\pdl\drivers/peripheral/tcpwm/cy_tcpwm.h **** ****************************************************************************//**
 403:Generated_Source\PSoC6\pdl\drivers/peripheral/tcpwm/cy_tcpwm.h **** *
 404:Generated_Source\PSoC6\pdl\drivers/peripheral/tcpwm/cy_tcpwm.h **** * Enables the counter(s) in the TCPWM block. Multiple blocks can be started 
 405:Generated_Source\PSoC6\pdl\drivers/peripheral/tcpwm/cy_tcpwm.h **** * simultaneously.
 406:Generated_Source\PSoC6\pdl\drivers/peripheral/tcpwm/cy_tcpwm.h **** *
 407:Generated_Source\PSoC6\pdl\drivers/peripheral/tcpwm/cy_tcpwm.h **** * \param base
 408:Generated_Source\PSoC6\pdl\drivers/peripheral/tcpwm/cy_tcpwm.h **** * The pointer to a TCPWM instance.
 409:Generated_Source\PSoC6\pdl\drivers/peripheral/tcpwm/cy_tcpwm.h **** *
 410:Generated_Source\PSoC6\pdl\drivers/peripheral/tcpwm/cy_tcpwm.h **** * \param counters
 411:Generated_Source\PSoC6\pdl\drivers/peripheral/tcpwm/cy_tcpwm.h **** * A bit field representing each counter in the TCPWM block.
 412:Generated_Source\PSoC6\pdl\drivers/peripheral/tcpwm/cy_tcpwm.h **** *
 413:Generated_Source\PSoC6\pdl\drivers/peripheral/tcpwm/cy_tcpwm.h **** * \funcusage
 414:Generated_Source\PSoC6\pdl\drivers/peripheral/tcpwm/cy_tcpwm.h **** * \snippet tcpwm\1.10\counter\snippet\main.c snippet_Cy_TCPWM_Enable_Multiple
 415:Generated_Source\PSoC6\pdl\drivers/peripheral/tcpwm/cy_tcpwm.h **** *
 416:Generated_Source\PSoC6\pdl\drivers/peripheral/tcpwm/cy_tcpwm.h **** *******************************************************************************/
 417:Generated_Source\PSoC6\pdl\drivers/peripheral/tcpwm/cy_tcpwm.h **** __STATIC_INLINE void Cy_TCPWM_Enable_Multiple(TCPWM_Type *base, uint32_t counters)
 418:Generated_Source\PSoC6\pdl\drivers/peripheral/tcpwm/cy_tcpwm.h **** {
 419:Generated_Source\PSoC6\pdl\drivers/peripheral/tcpwm/cy_tcpwm.h ****     TCPWM_CTRL_SET(base) = counters;
 420:Generated_Source\PSoC6\pdl\drivers/peripheral/tcpwm/cy_tcpwm.h **** }
 421:Generated_Source\PSoC6\pdl\drivers/peripheral/tcpwm/cy_tcpwm.h **** 
 422:Generated_Source\PSoC6\pdl\drivers/peripheral/tcpwm/cy_tcpwm.h **** 
 423:Generated_Source\PSoC6\pdl\drivers/peripheral/tcpwm/cy_tcpwm.h **** /*******************************************************************************
 424:Generated_Source\PSoC6\pdl\drivers/peripheral/tcpwm/cy_tcpwm.h **** * Function Name: Cy_TCPWM_Disable_Multiple
 425:Generated_Source\PSoC6\pdl\drivers/peripheral/tcpwm/cy_tcpwm.h **** ****************************************************************************//**
 426:Generated_Source\PSoC6\pdl\drivers/peripheral/tcpwm/cy_tcpwm.h **** *
 427:Generated_Source\PSoC6\pdl\drivers/peripheral/tcpwm/cy_tcpwm.h **** * Disables the counter(s) in the TCPWM block. Multiple TCPWM can be disabled 
 428:Generated_Source\PSoC6\pdl\drivers/peripheral/tcpwm/cy_tcpwm.h **** * simultaneously.
 429:Generated_Source\PSoC6\pdl\drivers/peripheral/tcpwm/cy_tcpwm.h **** *
 430:Generated_Source\PSoC6\pdl\drivers/peripheral/tcpwm/cy_tcpwm.h **** * \param base
 431:Generated_Source\PSoC6\pdl\drivers/peripheral/tcpwm/cy_tcpwm.h **** * The pointer to a TCPWM instance.
ARM GAS  C:\Users\nicpa\AppData\Local\Temp\ccNzlYaQ.s 			page 21


 432:Generated_Source\PSoC6\pdl\drivers/peripheral/tcpwm/cy_tcpwm.h **** *
 433:Generated_Source\PSoC6\pdl\drivers/peripheral/tcpwm/cy_tcpwm.h **** * \param counters
 434:Generated_Source\PSoC6\pdl\drivers/peripheral/tcpwm/cy_tcpwm.h **** * A bit field representing each counter in the TCPWM block.
 435:Generated_Source\PSoC6\pdl\drivers/peripheral/tcpwm/cy_tcpwm.h **** *
 436:Generated_Source\PSoC6\pdl\drivers/peripheral/tcpwm/cy_tcpwm.h **** * \funcusage
 437:Generated_Source\PSoC6\pdl\drivers/peripheral/tcpwm/cy_tcpwm.h **** * \snippet tcpwm\1.10\counter\snippet\main.c snippet_Cy_TCPWM_Disable_Multiple
 438:Generated_Source\PSoC6\pdl\drivers/peripheral/tcpwm/cy_tcpwm.h **** *
 439:Generated_Source\PSoC6\pdl\drivers/peripheral/tcpwm/cy_tcpwm.h **** *******************************************************************************/
 440:Generated_Source\PSoC6\pdl\drivers/peripheral/tcpwm/cy_tcpwm.h **** __STATIC_INLINE void Cy_TCPWM_Disable_Multiple(TCPWM_Type *base, uint32_t counters)
 441:Generated_Source\PSoC6\pdl\drivers/peripheral/tcpwm/cy_tcpwm.h **** {
 442:Generated_Source\PSoC6\pdl\drivers/peripheral/tcpwm/cy_tcpwm.h ****     TCPWM_CTRL_CLR(base) = counters;
 112              		.loc 3 442 0
 113 0000 0122     		movs	r2, #1
 114 0002 014B     		ldr	r3, .L9
 115 0004 5A60     		str	r2, [r3, #4]
 116              	.LVL6:
 117 0006 7047     		bx	lr
 118              	.L10:
 119              		.align	2
 120              	.L9:
 121 0008 00003840 		.word	1077411840
 122              	.LBE142:
 123              	.LBE141:
 124              	.LBE140:
 125              		.cfi_endproc
 126              	.LFE663:
 127              		.size	Cy_EINK_TimerStop, .-Cy_EINK_TimerStop
 128              		.section	.text.Cy_EINK_InitSPI,"ax",%progbits
 129              		.align	2
 130              		.global	Cy_EINK_InitSPI
 131              		.thumb
 132              		.thumb_func
 133              		.type	Cy_EINK_InitSPI, %function
 134              	Cy_EINK_InitSPI:
 135              	.LFB664:
 131:eInk Library/cy_eink_psoc_interface.c ****     /* Stop the E-INK Timer */
 132:eInk Library/cy_eink_psoc_interface.c ****     CY_EINK_Timer_Disable();
 133:eInk Library/cy_eink_psoc_interface.c **** }
 134:eInk Library/cy_eink_psoc_interface.c **** 
 135:eInk Library/cy_eink_psoc_interface.c **** /*******************************************************************************
 136:eInk Library/cy_eink_psoc_interface.c **** * Function Name: void Cy_EINK_InitSPI(void)
 137:eInk Library/cy_eink_psoc_interface.c **** ********************************************************************************
 138:eInk Library/cy_eink_psoc_interface.c **** *
 139:eInk Library/cy_eink_psoc_interface.c **** * Summary:
 140:eInk Library/cy_eink_psoc_interface.c **** *  Initializes the SPI block that communicates with the E-INK display.
 141:eInk Library/cy_eink_psoc_interface.c **** *
 142:eInk Library/cy_eink_psoc_interface.c **** * Parameters:
 143:eInk Library/cy_eink_psoc_interface.c **** *  None
 144:eInk Library/cy_eink_psoc_interface.c **** *
 145:eInk Library/cy_eink_psoc_interface.c **** * Return:
 146:eInk Library/cy_eink_psoc_interface.c **** *  None
 147:eInk Library/cy_eink_psoc_interface.c **** *
 148:eInk Library/cy_eink_psoc_interface.c **** * Side Effects:
 149:eInk Library/cy_eink_psoc_interface.c **** *  None
 150:eInk Library/cy_eink_psoc_interface.c **** *******************************************************************************/
 151:eInk Library/cy_eink_psoc_interface.c **** void Cy_EINK_InitSPI(void)
 152:eInk Library/cy_eink_psoc_interface.c **** {
ARM GAS  C:\Users\nicpa\AppData\Local\Temp\ccNzlYaQ.s 			page 22


 136              		.loc 1 152 0
 137              		.cfi_startproc
 138              		@ args = 0, pretend = 0, frame = 0
 139              		@ frame_needed = 0, uses_anonymous_args = 0
 140 0000 10B5     		push	{r4, lr}
 141              		.cfi_def_cfa_offset 8
 142              		.cfi_offset 4, -8
 143              		.cfi_offset 14, -4
 153:eInk Library/cy_eink_psoc_interface.c ****     /* Start the SPI master */
 154:eInk Library/cy_eink_psoc_interface.c ****     Cy_SCB_SPI_Init(CY_EINK_SPIM_HW, &CY_EINK_SPIM_config, &CY_EINK_SPIM_context);
 144              		.loc 1 154 0
 145 0002 074C     		ldr	r4, .L13
 146 0004 074A     		ldr	r2, .L13+4
 147 0006 0849     		ldr	r1, .L13+8
 148 0008 2046     		mov	r0, r4
 149 000a FFF7FEFF 		bl	Cy_SCB_SPI_Init
 150              	.LVL7:
 151              	.LBB143:
 152              	.LBB144:
 153              		.file 4 "Generated_Source\\PSoC6\\pdl\\drivers/peripheral/scb/cy_scb_spi.h"
   1:Generated_Source\PSoC6\pdl\drivers/peripheral/scb/cy_scb_spi.h **** /***************************************************************************//**
   2:Generated_Source\PSoC6\pdl\drivers/peripheral/scb/cy_scb_spi.h **** * \file cy_scb_spi.h
   3:Generated_Source\PSoC6\pdl\drivers/peripheral/scb/cy_scb_spi.h **** * \version 2.20
   4:Generated_Source\PSoC6\pdl\drivers/peripheral/scb/cy_scb_spi.h **** *
   5:Generated_Source\PSoC6\pdl\drivers/peripheral/scb/cy_scb_spi.h **** * Provides SPI API declarations of the SCB driver.
   6:Generated_Source\PSoC6\pdl\drivers/peripheral/scb/cy_scb_spi.h **** *
   7:Generated_Source\PSoC6\pdl\drivers/peripheral/scb/cy_scb_spi.h **** ********************************************************************************
   8:Generated_Source\PSoC6\pdl\drivers/peripheral/scb/cy_scb_spi.h **** * \copyright
   9:Generated_Source\PSoC6\pdl\drivers/peripheral/scb/cy_scb_spi.h **** * Copyright 2016-2018, Cypress Semiconductor Corporation.  All rights reserved.
  10:Generated_Source\PSoC6\pdl\drivers/peripheral/scb/cy_scb_spi.h **** * You may use this file only in accordance with the license, terms, conditions,
  11:Generated_Source\PSoC6\pdl\drivers/peripheral/scb/cy_scb_spi.h **** * disclaimers, and limitations in the end user license agreement accompanying
  12:Generated_Source\PSoC6\pdl\drivers/peripheral/scb/cy_scb_spi.h **** * the software package with which this file was provided.
  13:Generated_Source\PSoC6\pdl\drivers/peripheral/scb/cy_scb_spi.h **** *******************************************************************************/
  14:Generated_Source\PSoC6\pdl\drivers/peripheral/scb/cy_scb_spi.h **** 
  15:Generated_Source\PSoC6\pdl\drivers/peripheral/scb/cy_scb_spi.h **** /**
  16:Generated_Source\PSoC6\pdl\drivers/peripheral/scb/cy_scb_spi.h **** * \addtogroup group_scb_spi
  17:Generated_Source\PSoC6\pdl\drivers/peripheral/scb/cy_scb_spi.h **** * \{
  18:Generated_Source\PSoC6\pdl\drivers/peripheral/scb/cy_scb_spi.h **** * Driver API for SPI Peripheral.
  19:Generated_Source\PSoC6\pdl\drivers/peripheral/scb/cy_scb_spi.h **** *
  20:Generated_Source\PSoC6\pdl\drivers/peripheral/scb/cy_scb_spi.h **** * The functions and other declarations used in this part of the driver are in 
  21:Generated_Source\PSoC6\pdl\drivers/peripheral/scb/cy_scb_spi.h **** * cy_scb_spi.h. You can also include cy_pdl.h (ModusToolbox only) to get access 
  22:Generated_Source\PSoC6\pdl\drivers/peripheral/scb/cy_scb_spi.h **** * to all functions and declarations in the PDL.
  23:Generated_Source\PSoC6\pdl\drivers/peripheral/scb/cy_scb_spi.h **** *
  24:Generated_Source\PSoC6\pdl\drivers/peripheral/scb/cy_scb_spi.h **** * The SPI protocol is a synchronous serial interface protocol. Devices operate 
  25:Generated_Source\PSoC6\pdl\drivers/peripheral/scb/cy_scb_spi.h **** * in either master or slave mode. The master initiates the data transfer. 
  26:Generated_Source\PSoC6\pdl\drivers/peripheral/scb/cy_scb_spi.h **** * The SCB supports single-master-multiple-slaves topology for SPI. Multiple 
  27:Generated_Source\PSoC6\pdl\drivers/peripheral/scb/cy_scb_spi.h **** * slaves are supported with individual slave select lines.
  28:Generated_Source\PSoC6\pdl\drivers/peripheral/scb/cy_scb_spi.h **** *
  29:Generated_Source\PSoC6\pdl\drivers/peripheral/scb/cy_scb_spi.h **** * Features:
  30:Generated_Source\PSoC6\pdl\drivers/peripheral/scb/cy_scb_spi.h **** * * Supports master and slave functionalitySupports three types of SPI protocols:
  31:Generated_Source\PSoC6\pdl\drivers/peripheral/scb/cy_scb_spi.h **** *  * Motorola SPI - modes 0, 1, 2, and 3
  32:Generated_Source\PSoC6\pdl\drivers/peripheral/scb/cy_scb_spi.h **** *  * Texas Instruments SPI, with coinciding and preceding data frame indicator - mode 1 only
  33:Generated_Source\PSoC6\pdl\drivers/peripheral/scb/cy_scb_spi.h **** *  * National Semiconductor (MicroWire) SPI - mode 0 only
  34:Generated_Source\PSoC6\pdl\drivers/peripheral/scb/cy_scb_spi.h **** * * Master supports up to four slave select lines
  35:Generated_Source\PSoC6\pdl\drivers/peripheral/scb/cy_scb_spi.h **** *   * Each slave select has configurable active polarity (high or low)
  36:Generated_Source\PSoC6\pdl\drivers/peripheral/scb/cy_scb_spi.h **** *   * Slave select can be programmed to stay active for a whole transfer, or 
  37:Generated_Source\PSoC6\pdl\drivers/peripheral/scb/cy_scb_spi.h **** *     just for each byte
ARM GAS  C:\Users\nicpa\AppData\Local\Temp\ccNzlYaQ.s 			page 23


  38:Generated_Source\PSoC6\pdl\drivers/peripheral/scb/cy_scb_spi.h **** * * Master supports late sampling for better timing margin
  39:Generated_Source\PSoC6\pdl\drivers/peripheral/scb/cy_scb_spi.h **** * * Master supports continuous SPI clock
  40:Generated_Source\PSoC6\pdl\drivers/peripheral/scb/cy_scb_spi.h **** * * Data frame size programmable from 4 bits to 16 bits
  41:Generated_Source\PSoC6\pdl\drivers/peripheral/scb/cy_scb_spi.h **** * * Programmable oversampling
  42:Generated_Source\PSoC6\pdl\drivers/peripheral/scb/cy_scb_spi.h **** * * MSb or LSb first
  43:Generated_Source\PSoC6\pdl\drivers/peripheral/scb/cy_scb_spi.h **** * * Median filter available for inputs
  44:Generated_Source\PSoC6\pdl\drivers/peripheral/scb/cy_scb_spi.h **** *
  45:Generated_Source\PSoC6\pdl\drivers/peripheral/scb/cy_scb_spi.h **** ********************************************************************************
  46:Generated_Source\PSoC6\pdl\drivers/peripheral/scb/cy_scb_spi.h **** * \section group_scb_spi_configuration Configuration Considerations
  47:Generated_Source\PSoC6\pdl\drivers/peripheral/scb/cy_scb_spi.h **** ********************************************************************************
  48:Generated_Source\PSoC6\pdl\drivers/peripheral/scb/cy_scb_spi.h **** * The SPI driver configuration can be divided to number of sequential
  49:Generated_Source\PSoC6\pdl\drivers/peripheral/scb/cy_scb_spi.h **** * steps listed below:
  50:Generated_Source\PSoC6\pdl\drivers/peripheral/scb/cy_scb_spi.h **** * * \ref group_scb_spi_config
  51:Generated_Source\PSoC6\pdl\drivers/peripheral/scb/cy_scb_spi.h **** * * \ref group_scb_spi_pins
  52:Generated_Source\PSoC6\pdl\drivers/peripheral/scb/cy_scb_spi.h **** * * \ref group_scb_spi_clock
  53:Generated_Source\PSoC6\pdl\drivers/peripheral/scb/cy_scb_spi.h **** * * \ref group_scb_spi_data_rate
  54:Generated_Source\PSoC6\pdl\drivers/peripheral/scb/cy_scb_spi.h **** * * \ref group_scb_spi_intr
  55:Generated_Source\PSoC6\pdl\drivers/peripheral/scb/cy_scb_spi.h **** * * \ref group_scb_spi_enable
  56:Generated_Source\PSoC6\pdl\drivers/peripheral/scb/cy_scb_spi.h **** *
  57:Generated_Source\PSoC6\pdl\drivers/peripheral/scb/cy_scb_spi.h **** * \note
  58:Generated_Source\PSoC6\pdl\drivers/peripheral/scb/cy_scb_spi.h **** * The SPI driver is built on top of the SCB hardware block. The SCB1 instance is
  59:Generated_Source\PSoC6\pdl\drivers/peripheral/scb/cy_scb_spi.h **** * used as an example for all code snippets. Modify the code to match your
  60:Generated_Source\PSoC6\pdl\drivers/peripheral/scb/cy_scb_spi.h **** * design.
  61:Generated_Source\PSoC6\pdl\drivers/peripheral/scb/cy_scb_spi.h **** *
  62:Generated_Source\PSoC6\pdl\drivers/peripheral/scb/cy_scb_spi.h **** ********************************************************************************
  63:Generated_Source\PSoC6\pdl\drivers/peripheral/scb/cy_scb_spi.h **** * \subsection group_scb_spi_config Configure SPI
  64:Generated_Source\PSoC6\pdl\drivers/peripheral/scb/cy_scb_spi.h **** ********************************************************************************
  65:Generated_Source\PSoC6\pdl\drivers/peripheral/scb/cy_scb_spi.h **** * To set up the SPI driver, provide the configuration parameters in the
  66:Generated_Source\PSoC6\pdl\drivers/peripheral/scb/cy_scb_spi.h **** * \ref cy_stc_scb_spi_config_t structure. For example: provide spiMode,
  67:Generated_Source\PSoC6\pdl\drivers/peripheral/scb/cy_scb_spi.h **** * subMode, sclkMode, oversample, rxDataWidth, and txDataWidth. The other
  68:Generated_Source\PSoC6\pdl\drivers/peripheral/scb/cy_scb_spi.h **** * parameters are optional for operation. To initialize the driver, call
  69:Generated_Source\PSoC6\pdl\drivers/peripheral/scb/cy_scb_spi.h **** * \ref Cy_SCB_SPI_Init function providing a pointer to the populated
  70:Generated_Source\PSoC6\pdl\drivers/peripheral/scb/cy_scb_spi.h **** * \ref cy_stc_scb_spi_config_t structure and the allocated 
  71:Generated_Source\PSoC6\pdl\drivers/peripheral/scb/cy_scb_spi.h **** * \ref cy_stc_scb_spi_context_t structure.
  72:Generated_Source\PSoC6\pdl\drivers/peripheral/scb/cy_scb_spi.h **** *
  73:Generated_Source\PSoC6\pdl\drivers/peripheral/scb/cy_scb_spi.h **** * \snippet SCB_CompDatasheet_sut_01_revA.cydsn\spi_snippets.c SPI_CFG
  74:Generated_Source\PSoC6\pdl\drivers/peripheral/scb/cy_scb_spi.h **** *
  75:Generated_Source\PSoC6\pdl\drivers/peripheral/scb/cy_scb_spi.h **** ********************************************************************************
  76:Generated_Source\PSoC6\pdl\drivers/peripheral/scb/cy_scb_spi.h **** * \subsection group_scb_spi_pins Assign and Configure Pins
  77:Generated_Source\PSoC6\pdl\drivers/peripheral/scb/cy_scb_spi.h **** ********************************************************************************
  78:Generated_Source\PSoC6\pdl\drivers/peripheral/scb/cy_scb_spi.h **** * Only dedicated SCB pins can be used for SPI operation. The HSIOM
  79:Generated_Source\PSoC6\pdl\drivers/peripheral/scb/cy_scb_spi.h **** * register must be configured to connect dedicated SCB SPI pins to the 
  80:Generated_Source\PSoC6\pdl\drivers/peripheral/scb/cy_scb_spi.h **** * SCB block. Also, the SPI output pins must be configured in Strong Drive Input 
  81:Generated_Source\PSoC6\pdl\drivers/peripheral/scb/cy_scb_spi.h **** * Off mode and SPI input pins in Digital High-Z.
  82:Generated_Source\PSoC6\pdl\drivers/peripheral/scb/cy_scb_spi.h **** *
  83:Generated_Source\PSoC6\pdl\drivers/peripheral/scb/cy_scb_spi.h **** * \snippet SCB_CompDatasheet_sut_01_revA.cydsn\spi_snippets.c SPI_CFG_PINS
  84:Generated_Source\PSoC6\pdl\drivers/peripheral/scb/cy_scb_spi.h **** *
  85:Generated_Source\PSoC6\pdl\drivers/peripheral/scb/cy_scb_spi.h **** ********************************************************************************
  86:Generated_Source\PSoC6\pdl\drivers/peripheral/scb/cy_scb_spi.h **** * \subsection group_scb_spi_clock Assign Clock Divider
  87:Generated_Source\PSoC6\pdl\drivers/peripheral/scb/cy_scb_spi.h **** ********************************************************************************
  88:Generated_Source\PSoC6\pdl\drivers/peripheral/scb/cy_scb_spi.h **** * A clock source must be connected to the SCB block to oversample input and
  89:Generated_Source\PSoC6\pdl\drivers/peripheral/scb/cy_scb_spi.h **** * output signals, in this document this clock will be referred as clk_scb.
  90:Generated_Source\PSoC6\pdl\drivers/peripheral/scb/cy_scb_spi.h **** * You must use one of the 8-bit or 16-bit dividers. Use the \ref group_sysclk 
  91:Generated_Source\PSoC6\pdl\drivers/peripheral/scb/cy_scb_spi.h **** * driver API to do this.
  92:Generated_Source\PSoC6\pdl\drivers/peripheral/scb/cy_scb_spi.h **** *
  93:Generated_Source\PSoC6\pdl\drivers/peripheral/scb/cy_scb_spi.h **** * \snippet SCB_CompDatasheet_sut_01_revA.cydsn\spi_snippets.c SPI_CFG_ASSIGN_CLOCK
  94:Generated_Source\PSoC6\pdl\drivers/peripheral/scb/cy_scb_spi.h **** *
ARM GAS  C:\Users\nicpa\AppData\Local\Temp\ccNzlYaQ.s 			page 24


  95:Generated_Source\PSoC6\pdl\drivers/peripheral/scb/cy_scb_spi.h **** ********************************************************************************
  96:Generated_Source\PSoC6\pdl\drivers/peripheral/scb/cy_scb_spi.h **** * \subsection group_scb_spi_data_rate Configure Data Rate
  97:Generated_Source\PSoC6\pdl\drivers/peripheral/scb/cy_scb_spi.h **** ********************************************************************************
  98:Generated_Source\PSoC6\pdl\drivers/peripheral/scb/cy_scb_spi.h **** * To get the SPI slave to operate with the desired data rate, the clk_scb must be
  99:Generated_Source\PSoC6\pdl\drivers/peripheral/scb/cy_scb_spi.h **** * fast enough to provide sufficient oversampling. Use the \ref group_sysclk driver 
 100:Generated_Source\PSoC6\pdl\drivers/peripheral/scb/cy_scb_spi.h **** * API to do that.
 101:Generated_Source\PSoC6\pdl\drivers/peripheral/scb/cy_scb_spi.h **** *
 102:Generated_Source\PSoC6\pdl\drivers/peripheral/scb/cy_scb_spi.h **** * \snippet SCB_CompDatasheet_sut_01_revA.cydsn\spi_snippets.c SPI_CFG_DATA_RATE_SLAVE
 103:Generated_Source\PSoC6\pdl\drivers/peripheral/scb/cy_scb_spi.h **** *
 104:Generated_Source\PSoC6\pdl\drivers/peripheral/scb/cy_scb_spi.h **** * To get the SPI master to operate with the desired data rate, multiply the 
 105:Generated_Source\PSoC6\pdl\drivers/peripheral/scb/cy_scb_spi.h **** * oversample factor by the desired data rate to determine the required 
 106:Generated_Source\PSoC6\pdl\drivers/peripheral/scb/cy_scb_spi.h **** * frequency for clk_scb. Use the \ref group_sysclk driver API to configure 
 107:Generated_Source\PSoC6\pdl\drivers/peripheral/scb/cy_scb_spi.h **** * clk_scb frequency. Set the <em><b>oversample parameter in configuration 
 108:Generated_Source\PSoC6\pdl\drivers/peripheral/scb/cy_scb_spi.h **** * structure</b></em> to define number of SCB clocks in one SCLK period. 
 109:Generated_Source\PSoC6\pdl\drivers/peripheral/scb/cy_scb_spi.h **** * When this value is even, the first and second phases of the SCLK period are 
 110:Generated_Source\PSoC6\pdl\drivers/peripheral/scb/cy_scb_spi.h **** * the same. Otherwise, the first phase is one SCB clock cycle longer than the 
 111:Generated_Source\PSoC6\pdl\drivers/peripheral/scb/cy_scb_spi.h **** * second phase. The level of the first phase of the clock period depends on CPOL
 112:Generated_Source\PSoC6\pdl\drivers/peripheral/scb/cy_scb_spi.h **** * settings: 0 - low level and 1 - high level.
 113:Generated_Source\PSoC6\pdl\drivers/peripheral/scb/cy_scb_spi.h **** *
 114:Generated_Source\PSoC6\pdl\drivers/peripheral/scb/cy_scb_spi.h **** * \snippet SCB_CompDatasheet_sut_01_revA.cydsn\spi_snippets.c SPI_CFG_DATA_RATE_MASTER
 115:Generated_Source\PSoC6\pdl\drivers/peripheral/scb/cy_scb_spi.h **** *
 116:Generated_Source\PSoC6\pdl\drivers/peripheral/scb/cy_scb_spi.h **** * <b>Refer to the technical reference manual (TRM) section SPI sub-section
 117:Generated_Source\PSoC6\pdl\drivers/peripheral/scb/cy_scb_spi.h **** * Oversampling and Bit Rate to get information about how to configure SPI to run 
 118:Generated_Source\PSoC6\pdl\drivers/peripheral/scb/cy_scb_spi.h **** * with desired data rate</b>.
 119:Generated_Source\PSoC6\pdl\drivers/peripheral/scb/cy_scb_spi.h **** *
 120:Generated_Source\PSoC6\pdl\drivers/peripheral/scb/cy_scb_spi.h **** ********************************************************************************
 121:Generated_Source\PSoC6\pdl\drivers/peripheral/scb/cy_scb_spi.h **** * \subsection group_scb_spi_intr Configure Interrupt
 122:Generated_Source\PSoC6\pdl\drivers/peripheral/scb/cy_scb_spi.h **** ********************************************************************************
 123:Generated_Source\PSoC6\pdl\drivers/peripheral/scb/cy_scb_spi.h **** * The interrupt is optional for the SPI operation. To configure the interrupt,
 124:Generated_Source\PSoC6\pdl\drivers/peripheral/scb/cy_scb_spi.h **** * the \ref Cy_SCB_SPI_Interrupt function must be called in the interrupt
 125:Generated_Source\PSoC6\pdl\drivers/peripheral/scb/cy_scb_spi.h **** * handler for the selected SCB instance. Also, this interrupt must be enabled
 126:Generated_Source\PSoC6\pdl\drivers/peripheral/scb/cy_scb_spi.h **** * in the NVIC.
 127:Generated_Source\PSoC6\pdl\drivers/peripheral/scb/cy_scb_spi.h **** * The interrupt must be configured when \ref group_scb_spi_hl will be used.
 128:Generated_Source\PSoC6\pdl\drivers/peripheral/scb/cy_scb_spi.h **** *
 129:Generated_Source\PSoC6\pdl\drivers/peripheral/scb/cy_scb_spi.h **** * \snippet SCB_CompDatasheet_sut_01_revA.cydsn\spi_snippets.c SPI_INTR_A
 130:Generated_Source\PSoC6\pdl\drivers/peripheral/scb/cy_scb_spi.h **** * \snippet SCB_CompDatasheet_sut_01_revA.cydsn\spi_snippets.c SPI_INTR_B
 131:Generated_Source\PSoC6\pdl\drivers/peripheral/scb/cy_scb_spi.h **** *
 132:Generated_Source\PSoC6\pdl\drivers/peripheral/scb/cy_scb_spi.h **** ********************************************************************************
 133:Generated_Source\PSoC6\pdl\drivers/peripheral/scb/cy_scb_spi.h **** * \subsection group_scb_spi_enable Enable SPI
 134:Generated_Source\PSoC6\pdl\drivers/peripheral/scb/cy_scb_spi.h **** ********************************************************************************
 135:Generated_Source\PSoC6\pdl\drivers/peripheral/scb/cy_scb_spi.h **** * Finally, enable the SPI operation by calling \ref Cy_SCB_SPI_Enable.
 136:Generated_Source\PSoC6\pdl\drivers/peripheral/scb/cy_scb_spi.h **** * For the slave, this means that SPI device starts responding to the transfers.
 137:Generated_Source\PSoC6\pdl\drivers/peripheral/scb/cy_scb_spi.h **** * For the master, it is ready to execute transfers.
 138:Generated_Source\PSoC6\pdl\drivers/peripheral/scb/cy_scb_spi.h **** *
 139:Generated_Source\PSoC6\pdl\drivers/peripheral/scb/cy_scb_spi.h **** * \snippet SCB_CompDatasheet_sut_01_revA.cydsn\spi_snippets.c SPI_ENABLE
 140:Generated_Source\PSoC6\pdl\drivers/peripheral/scb/cy_scb_spi.h **** *
 141:Generated_Source\PSoC6\pdl\drivers/peripheral/scb/cy_scb_spi.h **** ********************************************************************************
 142:Generated_Source\PSoC6\pdl\drivers/peripheral/scb/cy_scb_spi.h **** * \section group_scb_spi_use_cases Common Use Cases
 143:Generated_Source\PSoC6\pdl\drivers/peripheral/scb/cy_scb_spi.h **** ********************************************************************************
 144:Generated_Source\PSoC6\pdl\drivers/peripheral/scb/cy_scb_spi.h **** * The SPI API is the same for the master and slave mode operation and
 145:Generated_Source\PSoC6\pdl\drivers/peripheral/scb/cy_scb_spi.h **** * is divided into two categories: \ref group_scb_spi_low_level_functions
 146:Generated_Source\PSoC6\pdl\drivers/peripheral/scb/cy_scb_spi.h **** * and \ref group_scb_spi_high_level_functions. \n
 147:Generated_Source\PSoC6\pdl\drivers/peripheral/scb/cy_scb_spi.h **** * <em>Do not mix <b>High-Level</b> and <b>Low-Level</b> API because a Low-Level
 148:Generated_Source\PSoC6\pdl\drivers/peripheral/scb/cy_scb_spi.h **** * API can adversely affect the operation of a High-Level API.</em>
 149:Generated_Source\PSoC6\pdl\drivers/peripheral/scb/cy_scb_spi.h **** *
 150:Generated_Source\PSoC6\pdl\drivers/peripheral/scb/cy_scb_spi.h **** ********************************************************************************
 151:Generated_Source\PSoC6\pdl\drivers/peripheral/scb/cy_scb_spi.h **** * \subsection group_scb_spi_ll Low-Level API
ARM GAS  C:\Users\nicpa\AppData\Local\Temp\ccNzlYaQ.s 			page 25


 152:Generated_Source\PSoC6\pdl\drivers/peripheral/scb/cy_scb_spi.h **** ********************************************************************************
 153:Generated_Source\PSoC6\pdl\drivers/peripheral/scb/cy_scb_spi.h **** * The \ref group_scb_spi_low_level_functions functions allow
 154:Generated_Source\PSoC6\pdl\drivers/peripheral/scb/cy_scb_spi.h **** * interacting directly with the hardware and do not use \ref Cy_SCB_SPI_Interrupt.
 155:Generated_Source\PSoC6\pdl\drivers/peripheral/scb/cy_scb_spi.h **** * These functions do not require context for operation. Thus, NULL can be
 156:Generated_Source\PSoC6\pdl\drivers/peripheral/scb/cy_scb_spi.h **** * passed for context parameter in \ref Cy_SCB_SPI_Init and \ref Cy_SCB_SPI_Disable 
 157:Generated_Source\PSoC6\pdl\drivers/peripheral/scb/cy_scb_spi.h **** * instead of a pointer to the context structure.
 158:Generated_Source\PSoC6\pdl\drivers/peripheral/scb/cy_scb_spi.h **** *
 159:Generated_Source\PSoC6\pdl\drivers/peripheral/scb/cy_scb_spi.h **** * * To write data into the TX FIFO, use one of the provided functions:
 160:Generated_Source\PSoC6\pdl\drivers/peripheral/scb/cy_scb_spi.h **** *   \ref Cy_SCB_SPI_Write, \ref Cy_SCB_SPI_WriteArray or
 161:Generated_Source\PSoC6\pdl\drivers/peripheral/scb/cy_scb_spi.h **** *   \ref Cy_SCB_SPI_WriteArrayBlocking.
 162:Generated_Source\PSoC6\pdl\drivers/peripheral/scb/cy_scb_spi.h **** *   Note that in the master mode, putting data into the TX FIFO starts a
 163:Generated_Source\PSoC6\pdl\drivers/peripheral/scb/cy_scb_spi.h **** *   transfer. Due to the nature of SPI, the received data is put into the RX FIFO.
 164:Generated_Source\PSoC6\pdl\drivers/peripheral/scb/cy_scb_spi.h **** *
 165:Generated_Source\PSoC6\pdl\drivers/peripheral/scb/cy_scb_spi.h **** * * To read data from the RX FIFO, use one of the provided functions:
 166:Generated_Source\PSoC6\pdl\drivers/peripheral/scb/cy_scb_spi.h **** *   \ref Cy_SCB_SPI_Read or \ref Cy_SCB_SPI_ReadArray. Again due to the nature 
 167:Generated_Source\PSoC6\pdl\drivers/peripheral/scb/cy_scb_spi.h **** *   of SPI these functions do not start a transfer on the bus, they only read 
 168:Generated_Source\PSoC6\pdl\drivers/peripheral/scb/cy_scb_spi.h **** *   data out of the RX FIFO that has already been received.
 169:Generated_Source\PSoC6\pdl\drivers/peripheral/scb/cy_scb_spi.h **** *
 170:Generated_Source\PSoC6\pdl\drivers/peripheral/scb/cy_scb_spi.h **** * * The statuses can be polled using: \ref Cy_SCB_SPI_GetRxFifoStatus,
 171:Generated_Source\PSoC6\pdl\drivers/peripheral/scb/cy_scb_spi.h **** *   \ref Cy_SCB_SPI_GetTxFifoStatus and \ref Cy_SCB_SPI_GetSlaveMasterStatus.
 172:Generated_Source\PSoC6\pdl\drivers/peripheral/scb/cy_scb_spi.h **** *   <em>The statuses are <b>W1C (Write 1 to Clear)</b> and after a status
 173:Generated_Source\PSoC6\pdl\drivers/peripheral/scb/cy_scb_spi.h **** *   is set, it must be cleared.</em> Note that there are statuses evaluated as level.
 174:Generated_Source\PSoC6\pdl\drivers/peripheral/scb/cy_scb_spi.h **** *   These statuses remain set until an event is true. Therefore, after the clear
 175:Generated_Source\PSoC6\pdl\drivers/peripheral/scb/cy_scb_spi.h **** *   operation, the status is cleared but then it is restored (if the event is still
 176:Generated_Source\PSoC6\pdl\drivers/peripheral/scb/cy_scb_spi.h **** *   true).
 177:Generated_Source\PSoC6\pdl\drivers/peripheral/scb/cy_scb_spi.h **** *   Also, the following functions can be used for polling as well
 178:Generated_Source\PSoC6\pdl\drivers/peripheral/scb/cy_scb_spi.h **** *   \ref Cy_SCB_SPI_IsBusBusy, \ref Cy_SCB_SPI_IsTxComplete,
 179:Generated_Source\PSoC6\pdl\drivers/peripheral/scb/cy_scb_spi.h **** *   \ref Cy_SCB_SPI_GetNumInRxFifo and \ref Cy_SCB_SPI_GetNumInTxFifo.
 180:Generated_Source\PSoC6\pdl\drivers/peripheral/scb/cy_scb_spi.h **** *
 181:Generated_Source\PSoC6\pdl\drivers/peripheral/scb/cy_scb_spi.h **** * \snippet SCB_CompDatasheet_sut_01_revA.cydsn\spi_snippets.c SPI_TRANFER_DATA_LL
 182:Generated_Source\PSoC6\pdl\drivers/peripheral/scb/cy_scb_spi.h **** *
 183:Generated_Source\PSoC6\pdl\drivers/peripheral/scb/cy_scb_spi.h **** ********************************************************************************
 184:Generated_Source\PSoC6\pdl\drivers/peripheral/scb/cy_scb_spi.h **** * \subsection group_scb_spi_hl High-Level API
 185:Generated_Source\PSoC6\pdl\drivers/peripheral/scb/cy_scb_spi.h **** ********************************************************************************
 186:Generated_Source\PSoC6\pdl\drivers/peripheral/scb/cy_scb_spi.h **** * The \ref group_scb_spi_high_level_functions API use \ref Cy_SCB_SPI_Interrupt
 187:Generated_Source\PSoC6\pdl\drivers/peripheral/scb/cy_scb_spi.h **** * to execute the transfer. Call \ref Cy_SCB_SPI_Transfer to start communication: for master 
 188:Generated_Source\PSoC6\pdl\drivers/peripheral/scb/cy_scb_spi.h **** * mode calling this function starts a transaction with the slave. For slave mode 
 189:Generated_Source\PSoC6\pdl\drivers/peripheral/scb/cy_scb_spi.h **** * the read and write buffers are prepared for the communication with the master.
 190:Generated_Source\PSoC6\pdl\drivers/peripheral/scb/cy_scb_spi.h **** * After a transfer is started, the \ref Cy_SCB_SPI_Interrupt handles the
 191:Generated_Source\PSoC6\pdl\drivers/peripheral/scb/cy_scb_spi.h **** * transfer until its completion. Therefore, the \ref Cy_SCB_SPI_Interrupt function 
 192:Generated_Source\PSoC6\pdl\drivers/peripheral/scb/cy_scb_spi.h **** * must be called inside the user interrupt handler to make the High-Level API work. 
 193:Generated_Source\PSoC6\pdl\drivers/peripheral/scb/cy_scb_spi.h **** * To monitor the status of the transfer operation, use \ref Cy_SCB_SPI_GetTransferStatus.
 194:Generated_Source\PSoC6\pdl\drivers/peripheral/scb/cy_scb_spi.h **** * Alternatively, use \ref Cy_SCB_SPI_RegisterCallback to register a callback
 195:Generated_Source\PSoC6\pdl\drivers/peripheral/scb/cy_scb_spi.h **** * function to be notified about \ref group_scb_spi_macros_callback_events.
 196:Generated_Source\PSoC6\pdl\drivers/peripheral/scb/cy_scb_spi.h **** *
 197:Generated_Source\PSoC6\pdl\drivers/peripheral/scb/cy_scb_spi.h **** * \snippet SCB_CompDatasheet_sut_01_revA.cydsn\spi_snippets.c SPI_TRANFER_DATA
 198:Generated_Source\PSoC6\pdl\drivers/peripheral/scb/cy_scb_spi.h **** *
 199:Generated_Source\PSoC6\pdl\drivers/peripheral/scb/cy_scb_spi.h **** ********************************************************************************
 200:Generated_Source\PSoC6\pdl\drivers/peripheral/scb/cy_scb_spi.h **** * \section group_scb_spi_dma_trig DMA Trigger
 201:Generated_Source\PSoC6\pdl\drivers/peripheral/scb/cy_scb_spi.h **** ********************************************************************************
 202:Generated_Source\PSoC6\pdl\drivers/peripheral/scb/cy_scb_spi.h **** * The SCB provides TX and RX output trigger signals that can be routed to the
 203:Generated_Source\PSoC6\pdl\drivers/peripheral/scb/cy_scb_spi.h **** * DMA controller inputs. These signals are assigned based on the data availability
 204:Generated_Source\PSoC6\pdl\drivers/peripheral/scb/cy_scb_spi.h **** * in the TX and RX FIFOs appropriately.
 205:Generated_Source\PSoC6\pdl\drivers/peripheral/scb/cy_scb_spi.h **** *
 206:Generated_Source\PSoC6\pdl\drivers/peripheral/scb/cy_scb_spi.h **** * * The RX trigger signal is active while the number of data
 207:Generated_Source\PSoC6\pdl\drivers/peripheral/scb/cy_scb_spi.h **** *   elements in the RX FIFO is greater than the value of RX FIFO level. Use
 208:Generated_Source\PSoC6\pdl\drivers/peripheral/scb/cy_scb_spi.h **** *   function \ref Cy_SCB_SetRxFifoLevel or set configuration structure
ARM GAS  C:\Users\nicpa\AppData\Local\Temp\ccNzlYaQ.s 			page 26


 209:Generated_Source\PSoC6\pdl\drivers/peripheral/scb/cy_scb_spi.h **** *   rxFifoTriggerLevel parameter to configure RX FIFO level value. \n
 210:Generated_Source\PSoC6\pdl\drivers/peripheral/scb/cy_scb_spi.h **** *   <em>For example, the RX FIFO has 8 data elements and the RX FIFO level is 0.
 211:Generated_Source\PSoC6\pdl\drivers/peripheral/scb/cy_scb_spi.h **** *   The RX trigger signal is active until DMA reads all data from
 212:Generated_Source\PSoC6\pdl\drivers/peripheral/scb/cy_scb_spi.h **** *   the RX FIFO.</em>
 213:Generated_Source\PSoC6\pdl\drivers/peripheral/scb/cy_scb_spi.h **** *
 214:Generated_Source\PSoC6\pdl\drivers/peripheral/scb/cy_scb_spi.h **** * * The TX trigger signal is active while the number of data elements
 215:Generated_Source\PSoC6\pdl\drivers/peripheral/scb/cy_scb_spi.h **** *   in the TX FIFO is less than the value of TX FIFO level. Use function
 216:Generated_Source\PSoC6\pdl\drivers/peripheral/scb/cy_scb_spi.h **** *   \ref Cy_SCB_SetTxFifoLevel or set configuration structure txFifoTriggerLevel
 217:Generated_Source\PSoC6\pdl\drivers/peripheral/scb/cy_scb_spi.h **** *   parameter to configure TX FIFO level value. \n
 218:Generated_Source\PSoC6\pdl\drivers/peripheral/scb/cy_scb_spi.h **** *   <em>For example, the TX FIFO has 0 data elements (empty) and the TX FIFO level
 219:Generated_Source\PSoC6\pdl\drivers/peripheral/scb/cy_scb_spi.h **** *   is 7. The TX trigger signal is active until DMA loads TX FIFO
 220:Generated_Source\PSoC6\pdl\drivers/peripheral/scb/cy_scb_spi.h **** *   with 8 data elements (note that after the first TX load operation, the data 
 221:Generated_Source\PSoC6\pdl\drivers/peripheral/scb/cy_scb_spi.h **** *   element goes to the shift register and TX FIFO is empty).</em>
 222:Generated_Source\PSoC6\pdl\drivers/peripheral/scb/cy_scb_spi.h **** *
 223:Generated_Source\PSoC6\pdl\drivers/peripheral/scb/cy_scb_spi.h **** * To route SCB TX or RX trigger signals to the DMA controller, use \ref group_trigmux
 224:Generated_Source\PSoC6\pdl\drivers/peripheral/scb/cy_scb_spi.h **** * driver API.
 225:Generated_Source\PSoC6\pdl\drivers/peripheral/scb/cy_scb_spi.h **** *
 226:Generated_Source\PSoC6\pdl\drivers/peripheral/scb/cy_scb_spi.h **** * \note
 227:Generated_Source\PSoC6\pdl\drivers/peripheral/scb/cy_scb_spi.h **** * To properly handle DMA level request signal activation and de-activation from the SCB
 228:Generated_Source\PSoC6\pdl\drivers/peripheral/scb/cy_scb_spi.h **** * peripheral block the DMA Descriptor typically must be configured to re-trigger
 229:Generated_Source\PSoC6\pdl\drivers/peripheral/scb/cy_scb_spi.h **** * after 16 Clk_Slow cycles.
 230:Generated_Source\PSoC6\pdl\drivers/peripheral/scb/cy_scb_spi.h **** *
 231:Generated_Source\PSoC6\pdl\drivers/peripheral/scb/cy_scb_spi.h **** ********************************************************************************
 232:Generated_Source\PSoC6\pdl\drivers/peripheral/scb/cy_scb_spi.h **** * \section group_scb_spi_lp Low Power Support
 233:Generated_Source\PSoC6\pdl\drivers/peripheral/scb/cy_scb_spi.h **** ********************************************************************************
 234:Generated_Source\PSoC6\pdl\drivers/peripheral/scb/cy_scb_spi.h **** * The SPI driver provides callback functions to handle power mode transitions.
 235:Generated_Source\PSoC6\pdl\drivers/peripheral/scb/cy_scb_spi.h **** * The callback \ref Cy_SCB_SPI_DeepSleepCallback must be called
 236:Generated_Source\PSoC6\pdl\drivers/peripheral/scb/cy_scb_spi.h **** * during execution of \ref Cy_SysPm_CpuEnterDeepSleep; \ref Cy_SCB_SPI_HibernateCallback
 237:Generated_Source\PSoC6\pdl\drivers/peripheral/scb/cy_scb_spi.h **** * must be called during execution of \ref Cy_SysPm_SystemEnterHibernate. To trigger the
 238:Generated_Source\PSoC6\pdl\drivers/peripheral/scb/cy_scb_spi.h **** * callback execution, the callback must be registered before calling the
 239:Generated_Source\PSoC6\pdl\drivers/peripheral/scb/cy_scb_spi.h **** * power mode transition function. Refer to \ref group_syspm driver for more
 240:Generated_Source\PSoC6\pdl\drivers/peripheral/scb/cy_scb_spi.h **** * information about power mode transitions and callback registration.
 241:Generated_Source\PSoC6\pdl\drivers/peripheral/scb/cy_scb_spi.h **** * 
 242:Generated_Source\PSoC6\pdl\drivers/peripheral/scb/cy_scb_spi.h **** * The SPI master is disabled during Deep Sleep and Hibernate and stops driving 
 243:Generated_Source\PSoC6\pdl\drivers/peripheral/scb/cy_scb_spi.h **** * the output pins. The state of the SPI master output pins SCLK, SS, and MOSI is 
 244:Generated_Source\PSoC6\pdl\drivers/peripheral/scb/cy_scb_spi.h **** * High-Z, which can cause unexpected behavior of the SPI Slave due to possible 
 245:Generated_Source\PSoC6\pdl\drivers/peripheral/scb/cy_scb_spi.h **** * glitches on these lines. These pins must keep the inactive level (the same state 
 246:Generated_Source\PSoC6\pdl\drivers/peripheral/scb/cy_scb_spi.h **** * when SPI master is enabled and does not transfer data) before entering Deep 
 247:Generated_Source\PSoC6\pdl\drivers/peripheral/scb/cy_scb_spi.h **** * Sleep or Hibernate mode. To do that, write the GPIO data register of each pin 
 248:Generated_Source\PSoC6\pdl\drivers/peripheral/scb/cy_scb_spi.h **** * to the inactive level for each output pin. Then configure High-Speed Input 
 249:Generated_Source\PSoC6\pdl\drivers/peripheral/scb/cy_scb_spi.h **** * Output Multiplexer (HSIOM) of each pin to be controlled by the GPIO (use 
 250:Generated_Source\PSoC6\pdl\drivers/peripheral/scb/cy_scb_spi.h **** * \ref group_gpio driver API). After after exiting Deep Sleep mode the SPI 
 251:Generated_Source\PSoC6\pdl\drivers/peripheral/scb/cy_scb_spi.h **** * master must be enabled and the pins configuration restored to return the 
 252:Generated_Source\PSoC6\pdl\drivers/peripheral/scb/cy_scb_spi.h **** * SPI master control of the pins (after exiting Hibernate mode, the 
 253:Generated_Source\PSoC6\pdl\drivers/peripheral/scb/cy_scb_spi.h **** * system initialization code does the same). Copy either or 
 254:Generated_Source\PSoC6\pdl\drivers/peripheral/scb/cy_scb_spi.h **** * both \ref Cy_SCB_SPI_DeepSleepCallback and \ref Cy_SCB_SPI_HibernateCallback 
 255:Generated_Source\PSoC6\pdl\drivers/peripheral/scb/cy_scb_spi.h **** * as appropriate, and make the changes described above inside the function.
 256:Generated_Source\PSoC6\pdl\drivers/peripheral/scb/cy_scb_spi.h **** * Alternately, external pull-up or pull-down resistors can be connected 
 257:Generated_Source\PSoC6\pdl\drivers/peripheral/scb/cy_scb_spi.h **** * to the appropriate SPI lines to keep them inactive during Deep-Sleep or 
 258:Generated_Source\PSoC6\pdl\drivers/peripheral/scb/cy_scb_spi.h **** * Hibernate.
 259:Generated_Source\PSoC6\pdl\drivers/peripheral/scb/cy_scb_spi.h **** *
 260:Generated_Source\PSoC6\pdl\drivers/peripheral/scb/cy_scb_spi.h **** * \note
 261:Generated_Source\PSoC6\pdl\drivers/peripheral/scb/cy_scb_spi.h **** * Only applicable for <b>rev-08 of the CY8CKIT-062-BLE</b>.
 262:Generated_Source\PSoC6\pdl\drivers/peripheral/scb/cy_scb_spi.h **** * For proper operation, when the SPI slave is configured to be a wakeup
 263:Generated_Source\PSoC6\pdl\drivers/peripheral/scb/cy_scb_spi.h **** * source from Deep Sleep mode, the \ref Cy_SCB_SPI_DeepSleepCallback must be
 264:Generated_Source\PSoC6\pdl\drivers/peripheral/scb/cy_scb_spi.h **** * copied and modified. Refer to the function description to get the details.
 265:Generated_Source\PSoC6\pdl\drivers/peripheral/scb/cy_scb_spi.h **** *
ARM GAS  C:\Users\nicpa\AppData\Local\Temp\ccNzlYaQ.s 			page 27


 266:Generated_Source\PSoC6\pdl\drivers/peripheral/scb/cy_scb_spi.h **** ********************************************************************************
 267:Generated_Source\PSoC6\pdl\drivers/peripheral/scb/cy_scb_spi.h **** * \section group_scb_spi_more_information More Information
 268:Generated_Source\PSoC6\pdl\drivers/peripheral/scb/cy_scb_spi.h **** ********************************************************************************
 269:Generated_Source\PSoC6\pdl\drivers/peripheral/scb/cy_scb_spi.h **** * For more information on the SCB peripheral, refer to the technical reference
 270:Generated_Source\PSoC6\pdl\drivers/peripheral/scb/cy_scb_spi.h **** * manual (TRM).
 271:Generated_Source\PSoC6\pdl\drivers/peripheral/scb/cy_scb_spi.h **** *
 272:Generated_Source\PSoC6\pdl\drivers/peripheral/scb/cy_scb_spi.h **** ********************************************************************************
 273:Generated_Source\PSoC6\pdl\drivers/peripheral/scb/cy_scb_spi.h **** * \section group_scb_spi_MISRA MISRA-C Compliance
 274:Generated_Source\PSoC6\pdl\drivers/peripheral/scb/cy_scb_spi.h **** ********************************************************************************
 275:Generated_Source\PSoC6\pdl\drivers/peripheral/scb/cy_scb_spi.h **** * <table class="doxtable">
 276:Generated_Source\PSoC6\pdl\drivers/peripheral/scb/cy_scb_spi.h **** *   <tr>
 277:Generated_Source\PSoC6\pdl\drivers/peripheral/scb/cy_scb_spi.h **** *     <th>MISRA Rule</th>
 278:Generated_Source\PSoC6\pdl\drivers/peripheral/scb/cy_scb_spi.h **** *     <th>Rule Class (Required/Advisory)</th>
 279:Generated_Source\PSoC6\pdl\drivers/peripheral/scb/cy_scb_spi.h **** *     <th>Rule Description</th>
 280:Generated_Source\PSoC6\pdl\drivers/peripheral/scb/cy_scb_spi.h **** *     <th>Description of Deviation(s)</th>
 281:Generated_Source\PSoC6\pdl\drivers/peripheral/scb/cy_scb_spi.h **** *   </tr>
 282:Generated_Source\PSoC6\pdl\drivers/peripheral/scb/cy_scb_spi.h **** *   <tr>
 283:Generated_Source\PSoC6\pdl\drivers/peripheral/scb/cy_scb_spi.h **** *     <td>11.4</td>
 284:Generated_Source\PSoC6\pdl\drivers/peripheral/scb/cy_scb_spi.h **** *     <td>A</td>
 285:Generated_Source\PSoC6\pdl\drivers/peripheral/scb/cy_scb_spi.h **** *     <td>A cast should not be performed between a pointer to object type and
 286:Generated_Source\PSoC6\pdl\drivers/peripheral/scb/cy_scb_spi.h **** *         a different pointer to object type.</td>
 287:Generated_Source\PSoC6\pdl\drivers/peripheral/scb/cy_scb_spi.h **** *     <td>
 288:Generated_Source\PSoC6\pdl\drivers/peripheral/scb/cy_scb_spi.h **** *         * The pointer to the buffer memory is void to allow handling
 289:Generated_Source\PSoC6\pdl\drivers/peripheral/scb/cy_scb_spi.h **** *         different data types: uint8_t (4-8 bits) or uint16_t (9-16 bits).
 290:Generated_Source\PSoC6\pdl\drivers/peripheral/scb/cy_scb_spi.h **** *         The cast operation is safe because the configuration is verified
 291:Generated_Source\PSoC6\pdl\drivers/peripheral/scb/cy_scb_spi.h **** *         before operation is performed.
 292:Generated_Source\PSoC6\pdl\drivers/peripheral/scb/cy_scb_spi.h **** *         * The functions \ref Cy_SCB_SPI_DeepSleepCallback and
 293:Generated_Source\PSoC6\pdl\drivers/peripheral/scb/cy_scb_spi.h **** *         \ref Cy_SCB_SPI_HibernateCallback are callback of
 294:Generated_Source\PSoC6\pdl\drivers/peripheral/scb/cy_scb_spi.h **** *         \ref cy_en_syspm_status_t type. The cast operation safety in these
 295:Generated_Source\PSoC6\pdl\drivers/peripheral/scb/cy_scb_spi.h **** *         functions becomes the user's responsibility because pointers are
 296:Generated_Source\PSoC6\pdl\drivers/peripheral/scb/cy_scb_spi.h **** *         initialized when callback is registered in SysPm driver.</td>
 297:Generated_Source\PSoC6\pdl\drivers/peripheral/scb/cy_scb_spi.h **** *   </tr>
 298:Generated_Source\PSoC6\pdl\drivers/peripheral/scb/cy_scb_spi.h **** *   <tr>
 299:Generated_Source\PSoC6\pdl\drivers/peripheral/scb/cy_scb_spi.h **** *     <td>13.7</td>
 300:Generated_Source\PSoC6\pdl\drivers/peripheral/scb/cy_scb_spi.h **** *     <td>R</td>
 301:Generated_Source\PSoC6\pdl\drivers/peripheral/scb/cy_scb_spi.h **** *     <td>Boolean operations whose results are invariant shall not be
 302:Generated_Source\PSoC6\pdl\drivers/peripheral/scb/cy_scb_spi.h **** *         permitted.</td>
 303:Generated_Source\PSoC6\pdl\drivers/peripheral/scb/cy_scb_spi.h **** *     <td>The SCB block parameters can be a constant false or true depends on
 304:Generated_Source\PSoC6\pdl\drivers/peripheral/scb/cy_scb_spi.h **** *         the selected device and cause this violation.</td>
 305:Generated_Source\PSoC6\pdl\drivers/peripheral/scb/cy_scb_spi.h **** *   </tr>
 306:Generated_Source\PSoC6\pdl\drivers/peripheral/scb/cy_scb_spi.h **** *   <tr>
 307:Generated_Source\PSoC6\pdl\drivers/peripheral/scb/cy_scb_spi.h **** *     <td>14.1</td>
 308:Generated_Source\PSoC6\pdl\drivers/peripheral/scb/cy_scb_spi.h **** *     <td>R</td>
 309:Generated_Source\PSoC6\pdl\drivers/peripheral/scb/cy_scb_spi.h **** *     <td>There shall be no unreachable code.</td>
 310:Generated_Source\PSoC6\pdl\drivers/peripheral/scb/cy_scb_spi.h **** *     <td>The SCB block parameters can be a constant false or true depends on
 311:Generated_Source\PSoC6\pdl\drivers/peripheral/scb/cy_scb_spi.h **** *         the selected device and cause code to be unreachable.</td>
 312:Generated_Source\PSoC6\pdl\drivers/peripheral/scb/cy_scb_spi.h **** *   </tr>
 313:Generated_Source\PSoC6\pdl\drivers/peripheral/scb/cy_scb_spi.h **** *   <tr>
 314:Generated_Source\PSoC6\pdl\drivers/peripheral/scb/cy_scb_spi.h **** *     <td>14.2</td>
 315:Generated_Source\PSoC6\pdl\drivers/peripheral/scb/cy_scb_spi.h **** *     <td>R</td>
 316:Generated_Source\PSoC6\pdl\drivers/peripheral/scb/cy_scb_spi.h **** *     <td>All non-null statements shall either: a) have at least one side-effect
 317:Generated_Source\PSoC6\pdl\drivers/peripheral/scb/cy_scb_spi.h **** *         however executed, or b) cause control flow to change.</td>
 318:Generated_Source\PSoC6\pdl\drivers/peripheral/scb/cy_scb_spi.h **** *     <td>The unused function parameters are cast to void. This statement
 319:Generated_Source\PSoC6\pdl\drivers/peripheral/scb/cy_scb_spi.h **** *         has no side-effect and is used to suppress a compiler warning.</td>
 320:Generated_Source\PSoC6\pdl\drivers/peripheral/scb/cy_scb_spi.h **** *   </tr>
 321:Generated_Source\PSoC6\pdl\drivers/peripheral/scb/cy_scb_spi.h **** *   <tr>
 322:Generated_Source\PSoC6\pdl\drivers/peripheral/scb/cy_scb_spi.h **** *     <td>14.7</td>
ARM GAS  C:\Users\nicpa\AppData\Local\Temp\ccNzlYaQ.s 			page 28


 323:Generated_Source\PSoC6\pdl\drivers/peripheral/scb/cy_scb_spi.h **** *     <td>R</td>
 324:Generated_Source\PSoC6\pdl\drivers/peripheral/scb/cy_scb_spi.h **** *     <td>A function shall have a single point of exit at the end of the
 325:Generated_Source\PSoC6\pdl\drivers/peripheral/scb/cy_scb_spi.h **** *         function.</td>
 326:Generated_Source\PSoC6\pdl\drivers/peripheral/scb/cy_scb_spi.h **** *     <td>The functions can return from several points. This is done to improve
 327:Generated_Source\PSoC6\pdl\drivers/peripheral/scb/cy_scb_spi.h **** *         code clarity when returning error status code if input parameters
 328:Generated_Source\PSoC6\pdl\drivers/peripheral/scb/cy_scb_spi.h **** *         validation is failed.</td>
 329:Generated_Source\PSoC6\pdl\drivers/peripheral/scb/cy_scb_spi.h **** *   </tr>
 330:Generated_Source\PSoC6\pdl\drivers/peripheral/scb/cy_scb_spi.h **** * </table>
 331:Generated_Source\PSoC6\pdl\drivers/peripheral/scb/cy_scb_spi.h **** *
 332:Generated_Source\PSoC6\pdl\drivers/peripheral/scb/cy_scb_spi.h **** * \section group_scb_spi_changelog Changelog
 333:Generated_Source\PSoC6\pdl\drivers/peripheral/scb/cy_scb_spi.h **** * <table class="doxtable">
 334:Generated_Source\PSoC6\pdl\drivers/peripheral/scb/cy_scb_spi.h **** *   <tr><th>Version</th><th>Changes</th><th>Reason for Change</th></tr>
 335:Generated_Source\PSoC6\pdl\drivers/peripheral/scb/cy_scb_spi.h **** *   <tr>
 336:Generated_Source\PSoC6\pdl\drivers/peripheral/scb/cy_scb_spi.h **** *     <td rowspan="2">2.20</td>
 337:Generated_Source\PSoC6\pdl\drivers/peripheral/scb/cy_scb_spi.h **** *     <td>Flattened the organization of the driver source code into the single 
 338:Generated_Source\PSoC6\pdl\drivers/peripheral/scb/cy_scb_spi.h **** *         source directory and the single include directory.
 339:Generated_Source\PSoC6\pdl\drivers/peripheral/scb/cy_scb_spi.h **** *     </td>
 340:Generated_Source\PSoC6\pdl\drivers/peripheral/scb/cy_scb_spi.h **** *     <td>Driver library directory-structure simplification.</td>
 341:Generated_Source\PSoC6\pdl\drivers/peripheral/scb/cy_scb_spi.h **** *   </tr>
 342:Generated_Source\PSoC6\pdl\drivers/peripheral/scb/cy_scb_spi.h **** *   <tr>
 343:Generated_Source\PSoC6\pdl\drivers/peripheral/scb/cy_scb_spi.h **** *     <td>Added register access layer. Use register access macros instead
 344:Generated_Source\PSoC6\pdl\drivers/peripheral/scb/cy_scb_spi.h **** *         of direct register access using dereferenced pointers.</td>
 345:Generated_Source\PSoC6\pdl\drivers/peripheral/scb/cy_scb_spi.h **** *     <td>Makes register access device-independent, so that the PDL does 
 346:Generated_Source\PSoC6\pdl\drivers/peripheral/scb/cy_scb_spi.h **** *         not need to be recompiled for each supported part number.</td>
 347:Generated_Source\PSoC6\pdl\drivers/peripheral/scb/cy_scb_spi.h **** *   </tr>
 348:Generated_Source\PSoC6\pdl\drivers/peripheral/scb/cy_scb_spi.h **** *   <tr>
 349:Generated_Source\PSoC6\pdl\drivers/peripheral/scb/cy_scb_spi.h **** *     <td>2.10</td>
 350:Generated_Source\PSoC6\pdl\drivers/peripheral/scb/cy_scb_spi.h **** *     <td>None.</td>
 351:Generated_Source\PSoC6\pdl\drivers/peripheral/scb/cy_scb_spi.h **** *     <td>SCB I2C driver updated.</td>
 352:Generated_Source\PSoC6\pdl\drivers/peripheral/scb/cy_scb_spi.h **** *   </tr>
 353:Generated_Source\PSoC6\pdl\drivers/peripheral/scb/cy_scb_spi.h **** *   <tr>
 354:Generated_Source\PSoC6\pdl\drivers/peripheral/scb/cy_scb_spi.h **** *     <td rowspan="4"> 2.0</td>
 355:Generated_Source\PSoC6\pdl\drivers/peripheral/scb/cy_scb_spi.h **** *     <td>Fixed SPI callback notification when error event occurred.</td>
 356:Generated_Source\PSoC6\pdl\drivers/peripheral/scb/cy_scb_spi.h **** *     <td>The SPI callback passed incorrect event value if error event occurred.</td>
 357:Generated_Source\PSoC6\pdl\drivers/peripheral/scb/cy_scb_spi.h **** *   </tr>
 358:Generated_Source\PSoC6\pdl\drivers/peripheral/scb/cy_scb_spi.h **** *   <tr>
 359:Generated_Source\PSoC6\pdl\drivers/peripheral/scb/cy_scb_spi.h **** *     <td>Added parameters validation for public API.</td>
 360:Generated_Source\PSoC6\pdl\drivers/peripheral/scb/cy_scb_spi.h **** *     <td></td>
 361:Generated_Source\PSoC6\pdl\drivers/peripheral/scb/cy_scb_spi.h **** *   </tr>
 362:Generated_Source\PSoC6\pdl\drivers/peripheral/scb/cy_scb_spi.h **** *   <tr>
 363:Generated_Source\PSoC6\pdl\drivers/peripheral/scb/cy_scb_spi.h **** *     <td>Replaced variables that have limited range of values with enumerated
 364:Generated_Source\PSoC6\pdl\drivers/peripheral/scb/cy_scb_spi.h **** *         types.</td>
 365:Generated_Source\PSoC6\pdl\drivers/peripheral/scb/cy_scb_spi.h **** *     <td></td>
 366:Generated_Source\PSoC6\pdl\drivers/peripheral/scb/cy_scb_spi.h **** *   </tr>
 367:Generated_Source\PSoC6\pdl\drivers/peripheral/scb/cy_scb_spi.h **** *   <tr>
 368:Generated_Source\PSoC6\pdl\drivers/peripheral/scb/cy_scb_spi.h **** *     <td>Added missing "cy_cb_" to the callback function type names.</td>
 369:Generated_Source\PSoC6\pdl\drivers/peripheral/scb/cy_scb_spi.h **** *     <td></td>
 370:Generated_Source\PSoC6\pdl\drivers/peripheral/scb/cy_scb_spi.h **** *   </tr>
 371:Generated_Source\PSoC6\pdl\drivers/peripheral/scb/cy_scb_spi.h **** *   <tr>
 372:Generated_Source\PSoC6\pdl\drivers/peripheral/scb/cy_scb_spi.h **** *     <td>1.0</td>
 373:Generated_Source\PSoC6\pdl\drivers/peripheral/scb/cy_scb_spi.h **** *     <td>Initial version.</td>
 374:Generated_Source\PSoC6\pdl\drivers/peripheral/scb/cy_scb_spi.h **** *     <td></td>
 375:Generated_Source\PSoC6\pdl\drivers/peripheral/scb/cy_scb_spi.h **** *   </tr>
 376:Generated_Source\PSoC6\pdl\drivers/peripheral/scb/cy_scb_spi.h **** * </table>
 377:Generated_Source\PSoC6\pdl\drivers/peripheral/scb/cy_scb_spi.h **** *
 378:Generated_Source\PSoC6\pdl\drivers/peripheral/scb/cy_scb_spi.h **** * \defgroup group_scb_spi_macros Macros
 379:Generated_Source\PSoC6\pdl\drivers/peripheral/scb/cy_scb_spi.h **** * \defgroup group_scb_spi_functions Functions
ARM GAS  C:\Users\nicpa\AppData\Local\Temp\ccNzlYaQ.s 			page 29


 380:Generated_Source\PSoC6\pdl\drivers/peripheral/scb/cy_scb_spi.h **** * \{
 381:Generated_Source\PSoC6\pdl\drivers/peripheral/scb/cy_scb_spi.h **** * \defgroup group_scb_spi_general_functions General
 382:Generated_Source\PSoC6\pdl\drivers/peripheral/scb/cy_scb_spi.h **** * \defgroup group_scb_spi_high_level_functions High-Level
 383:Generated_Source\PSoC6\pdl\drivers/peripheral/scb/cy_scb_spi.h **** * \defgroup group_scb_spi_low_level_functions Low-Level
 384:Generated_Source\PSoC6\pdl\drivers/peripheral/scb/cy_scb_spi.h **** * \defgroup group_scb_spi_interrupt_functions Interrupt
 385:Generated_Source\PSoC6\pdl\drivers/peripheral/scb/cy_scb_spi.h **** * \defgroup group_scb_spi_low_power_functions Low Power Callbacks
 386:Generated_Source\PSoC6\pdl\drivers/peripheral/scb/cy_scb_spi.h **** * \}
 387:Generated_Source\PSoC6\pdl\drivers/peripheral/scb/cy_scb_spi.h **** * \defgroup group_scb_spi_data_structures Data Structures
 388:Generated_Source\PSoC6\pdl\drivers/peripheral/scb/cy_scb_spi.h **** * \defgroup group_scb_spi_enums Enumerated Types
 389:Generated_Source\PSoC6\pdl\drivers/peripheral/scb/cy_scb_spi.h **** */
 390:Generated_Source\PSoC6\pdl\drivers/peripheral/scb/cy_scb_spi.h **** 
 391:Generated_Source\PSoC6\pdl\drivers/peripheral/scb/cy_scb_spi.h **** #if !defined(CY_SCB_SPI_H)
 392:Generated_Source\PSoC6\pdl\drivers/peripheral/scb/cy_scb_spi.h **** #define CY_SCB_SPI_H
 393:Generated_Source\PSoC6\pdl\drivers/peripheral/scb/cy_scb_spi.h **** 
 394:Generated_Source\PSoC6\pdl\drivers/peripheral/scb/cy_scb_spi.h **** #include "cy_scb_common.h"
 395:Generated_Source\PSoC6\pdl\drivers/peripheral/scb/cy_scb_spi.h **** 
 396:Generated_Source\PSoC6\pdl\drivers/peripheral/scb/cy_scb_spi.h **** #if defined(__cplusplus)
 397:Generated_Source\PSoC6\pdl\drivers/peripheral/scb/cy_scb_spi.h **** extern "C" {
 398:Generated_Source\PSoC6\pdl\drivers/peripheral/scb/cy_scb_spi.h **** #endif
 399:Generated_Source\PSoC6\pdl\drivers/peripheral/scb/cy_scb_spi.h **** 
 400:Generated_Source\PSoC6\pdl\drivers/peripheral/scb/cy_scb_spi.h **** /*******************************************************************************
 401:Generated_Source\PSoC6\pdl\drivers/peripheral/scb/cy_scb_spi.h **** *                               Enumerated Types
 402:Generated_Source\PSoC6\pdl\drivers/peripheral/scb/cy_scb_spi.h **** *******************************************************************************/
 403:Generated_Source\PSoC6\pdl\drivers/peripheral/scb/cy_scb_spi.h **** 
 404:Generated_Source\PSoC6\pdl\drivers/peripheral/scb/cy_scb_spi.h **** /**
 405:Generated_Source\PSoC6\pdl\drivers/peripheral/scb/cy_scb_spi.h **** * \addtogroup group_scb_spi_enums
 406:Generated_Source\PSoC6\pdl\drivers/peripheral/scb/cy_scb_spi.h **** * \{
 407:Generated_Source\PSoC6\pdl\drivers/peripheral/scb/cy_scb_spi.h **** */
 408:Generated_Source\PSoC6\pdl\drivers/peripheral/scb/cy_scb_spi.h **** 
 409:Generated_Source\PSoC6\pdl\drivers/peripheral/scb/cy_scb_spi.h **** /** SPI status codes */
 410:Generated_Source\PSoC6\pdl\drivers/peripheral/scb/cy_scb_spi.h **** typedef enum
 411:Generated_Source\PSoC6\pdl\drivers/peripheral/scb/cy_scb_spi.h **** {
 412:Generated_Source\PSoC6\pdl\drivers/peripheral/scb/cy_scb_spi.h ****     /** Operation completed successfully */
 413:Generated_Source\PSoC6\pdl\drivers/peripheral/scb/cy_scb_spi.h ****     CY_SCB_SPI_SUCCESS = 0U,
 414:Generated_Source\PSoC6\pdl\drivers/peripheral/scb/cy_scb_spi.h **** 
 415:Generated_Source\PSoC6\pdl\drivers/peripheral/scb/cy_scb_spi.h ****     /** One or more of input parameters are invalid */
 416:Generated_Source\PSoC6\pdl\drivers/peripheral/scb/cy_scb_spi.h ****     CY_SCB_SPI_BAD_PARAM = (CY_SCB_ID | CY_PDL_STATUS_ERROR | CY_SCB_SPI_ID | 1U),
 417:Generated_Source\PSoC6\pdl\drivers/peripheral/scb/cy_scb_spi.h **** 
 418:Generated_Source\PSoC6\pdl\drivers/peripheral/scb/cy_scb_spi.h ****     /**
 419:Generated_Source\PSoC6\pdl\drivers/peripheral/scb/cy_scb_spi.h ****     * SPI is busy processing a transfer.
 420:Generated_Source\PSoC6\pdl\drivers/peripheral/scb/cy_scb_spi.h ****     */
 421:Generated_Source\PSoC6\pdl\drivers/peripheral/scb/cy_scb_spi.h ****     CY_SCB_SPI_TRANSFER_BUSY = (CY_SCB_ID | CY_PDL_STATUS_ERROR | CY_SCB_SPI_ID | 2U)
 422:Generated_Source\PSoC6\pdl\drivers/peripheral/scb/cy_scb_spi.h **** } cy_en_scb_spi_status_t;
 423:Generated_Source\PSoC6\pdl\drivers/peripheral/scb/cy_scb_spi.h **** 
 424:Generated_Source\PSoC6\pdl\drivers/peripheral/scb/cy_scb_spi.h **** /** SPI Modes */
 425:Generated_Source\PSoC6\pdl\drivers/peripheral/scb/cy_scb_spi.h **** typedef enum
 426:Generated_Source\PSoC6\pdl\drivers/peripheral/scb/cy_scb_spi.h **** {
 427:Generated_Source\PSoC6\pdl\drivers/peripheral/scb/cy_scb_spi.h ****     CY_SCB_SPI_SLAVE,   /**< Configures SCB for SPI Slave operation  */
 428:Generated_Source\PSoC6\pdl\drivers/peripheral/scb/cy_scb_spi.h ****     CY_SCB_SPI_MASTER,  /**< Configures SCB for SPI Master operation */
 429:Generated_Source\PSoC6\pdl\drivers/peripheral/scb/cy_scb_spi.h **** } cy_en_scb_spi_mode_t;
 430:Generated_Source\PSoC6\pdl\drivers/peripheral/scb/cy_scb_spi.h **** 
 431:Generated_Source\PSoC6\pdl\drivers/peripheral/scb/cy_scb_spi.h **** /** SPI Submodes */
 432:Generated_Source\PSoC6\pdl\drivers/peripheral/scb/cy_scb_spi.h **** typedef enum
 433:Generated_Source\PSoC6\pdl\drivers/peripheral/scb/cy_scb_spi.h **** {
 434:Generated_Source\PSoC6\pdl\drivers/peripheral/scb/cy_scb_spi.h ****     /** Configures an SPI for a standard Motorola SPI operation */
 435:Generated_Source\PSoC6\pdl\drivers/peripheral/scb/cy_scb_spi.h ****     CY_SCB_SPI_MOTOROLA     = 0x0U,
 436:Generated_Source\PSoC6\pdl\drivers/peripheral/scb/cy_scb_spi.h **** 
ARM GAS  C:\Users\nicpa\AppData\Local\Temp\ccNzlYaQ.s 			page 30


 437:Generated_Source\PSoC6\pdl\drivers/peripheral/scb/cy_scb_spi.h ****     /**
 438:Generated_Source\PSoC6\pdl\drivers/peripheral/scb/cy_scb_spi.h ****     * Configures the SPI for the TI SPI operation. In the TI mode, the slave
 439:Generated_Source\PSoC6\pdl\drivers/peripheral/scb/cy_scb_spi.h ****     * select is a pulse. In this case, the pulse coincides with the first bit.
 440:Generated_Source\PSoC6\pdl\drivers/peripheral/scb/cy_scb_spi.h ****     */
 441:Generated_Source\PSoC6\pdl\drivers/peripheral/scb/cy_scb_spi.h ****     CY_SCB_SPI_TI_COINCIDES = 0x01U,
 442:Generated_Source\PSoC6\pdl\drivers/peripheral/scb/cy_scb_spi.h **** 
 443:Generated_Source\PSoC6\pdl\drivers/peripheral/scb/cy_scb_spi.h ****     /**
 444:Generated_Source\PSoC6\pdl\drivers/peripheral/scb/cy_scb_spi.h ****     * Configures an SPI for the National SPI operation. This is a half-duplex
 445:Generated_Source\PSoC6\pdl\drivers/peripheral/scb/cy_scb_spi.h ****     * mode of operation.
 446:Generated_Source\PSoC6\pdl\drivers/peripheral/scb/cy_scb_spi.h ****     */
 447:Generated_Source\PSoC6\pdl\drivers/peripheral/scb/cy_scb_spi.h ****     CY_SCB_SPI_NATIONAL     = 0x02U,
 448:Generated_Source\PSoC6\pdl\drivers/peripheral/scb/cy_scb_spi.h **** 
 449:Generated_Source\PSoC6\pdl\drivers/peripheral/scb/cy_scb_spi.h ****     /**
 450:Generated_Source\PSoC6\pdl\drivers/peripheral/scb/cy_scb_spi.h ****     * Configures an SPI for the TI SPI operation, in the TI mode. The slave
 451:Generated_Source\PSoC6\pdl\drivers/peripheral/scb/cy_scb_spi.h ****     * select is a pulse. In this case the pulse precedes the first bit.
 452:Generated_Source\PSoC6\pdl\drivers/peripheral/scb/cy_scb_spi.h ****     */
 453:Generated_Source\PSoC6\pdl\drivers/peripheral/scb/cy_scb_spi.h ****     CY_SCB_SPI_TI_PRECEDES  = 0x05U,
 454:Generated_Source\PSoC6\pdl\drivers/peripheral/scb/cy_scb_spi.h **** } cy_en_scb_spi_sub_mode_t;
 455:Generated_Source\PSoC6\pdl\drivers/peripheral/scb/cy_scb_spi.h **** 
 456:Generated_Source\PSoC6\pdl\drivers/peripheral/scb/cy_scb_spi.h **** /** SPI SCLK Modes */
 457:Generated_Source\PSoC6\pdl\drivers/peripheral/scb/cy_scb_spi.h **** typedef enum
 458:Generated_Source\PSoC6\pdl\drivers/peripheral/scb/cy_scb_spi.h **** {
 459:Generated_Source\PSoC6\pdl\drivers/peripheral/scb/cy_scb_spi.h ****     CY_SCB_SPI_CPHA0_CPOL0 = 0U,   /**< Clock is active low, data is changed on first edge   */
 460:Generated_Source\PSoC6\pdl\drivers/peripheral/scb/cy_scb_spi.h ****     CY_SCB_SPI_CPHA0_CPOL1 = 1U,   /**< Clock is active high, data is changed on first edge  */
 461:Generated_Source\PSoC6\pdl\drivers/peripheral/scb/cy_scb_spi.h ****     CY_SCB_SPI_CPHA1_CPOL0 = 2U,   /**< Clock is active low, data is changed on second edge  */
 462:Generated_Source\PSoC6\pdl\drivers/peripheral/scb/cy_scb_spi.h ****     CY_SCB_SPI_CPHA1_CPOL1 = 3U,   /**< Clock is active high, data is changed on second edge */
 463:Generated_Source\PSoC6\pdl\drivers/peripheral/scb/cy_scb_spi.h **** } cy_en_scb_spi_sclk_mode_t;
 464:Generated_Source\PSoC6\pdl\drivers/peripheral/scb/cy_scb_spi.h **** 
 465:Generated_Source\PSoC6\pdl\drivers/peripheral/scb/cy_scb_spi.h **** /** SPI Slave Selects */
 466:Generated_Source\PSoC6\pdl\drivers/peripheral/scb/cy_scb_spi.h **** typedef enum
 467:Generated_Source\PSoC6\pdl\drivers/peripheral/scb/cy_scb_spi.h **** {
 468:Generated_Source\PSoC6\pdl\drivers/peripheral/scb/cy_scb_spi.h ****     CY_SCB_SPI_SLAVE_SELECT0 = 0U,   /**< Master will use Slave Select 0 */
 469:Generated_Source\PSoC6\pdl\drivers/peripheral/scb/cy_scb_spi.h ****     CY_SCB_SPI_SLAVE_SELECT1 = 1U,   /**< Master will use Slave Select 1 */
 470:Generated_Source\PSoC6\pdl\drivers/peripheral/scb/cy_scb_spi.h ****     CY_SCB_SPI_SLAVE_SELECT2 = 2U,   /**< Master will use Slave Select 2 */
 471:Generated_Source\PSoC6\pdl\drivers/peripheral/scb/cy_scb_spi.h ****     CY_SCB_SPI_SLAVE_SELECT3 = 3U,   /**< Master will use Slave Select 3 */
 472:Generated_Source\PSoC6\pdl\drivers/peripheral/scb/cy_scb_spi.h **** } cy_en_scb_spi_slave_select_t;
 473:Generated_Source\PSoC6\pdl\drivers/peripheral/scb/cy_scb_spi.h **** 
 474:Generated_Source\PSoC6\pdl\drivers/peripheral/scb/cy_scb_spi.h **** /** SPI Polarity */
 475:Generated_Source\PSoC6\pdl\drivers/peripheral/scb/cy_scb_spi.h **** typedef enum
 476:Generated_Source\PSoC6\pdl\drivers/peripheral/scb/cy_scb_spi.h **** {
 477:Generated_Source\PSoC6\pdl\drivers/peripheral/scb/cy_scb_spi.h ****     CY_SCB_SPI_ACTIVE_LOW  = 0U,    /**< Signal in question is active low */
 478:Generated_Source\PSoC6\pdl\drivers/peripheral/scb/cy_scb_spi.h ****     CY_SCB_SPI_ACTIVE_HIGH = 1U,    /**< Signal in question is active high */
 479:Generated_Source\PSoC6\pdl\drivers/peripheral/scb/cy_scb_spi.h **** } cy_en_scb_spi_polarity_t;
 480:Generated_Source\PSoC6\pdl\drivers/peripheral/scb/cy_scb_spi.h **** 
 481:Generated_Source\PSoC6\pdl\drivers/peripheral/scb/cy_scb_spi.h **** /** \} group_scb_spi_enums */
 482:Generated_Source\PSoC6\pdl\drivers/peripheral/scb/cy_scb_spi.h **** 
 483:Generated_Source\PSoC6\pdl\drivers/peripheral/scb/cy_scb_spi.h **** 
 484:Generated_Source\PSoC6\pdl\drivers/peripheral/scb/cy_scb_spi.h **** /*******************************************************************************
 485:Generated_Source\PSoC6\pdl\drivers/peripheral/scb/cy_scb_spi.h **** *                            Type Definitions
 486:Generated_Source\PSoC6\pdl\drivers/peripheral/scb/cy_scb_spi.h **** *******************************************************************************/
 487:Generated_Source\PSoC6\pdl\drivers/peripheral/scb/cy_scb_spi.h **** 
 488:Generated_Source\PSoC6\pdl\drivers/peripheral/scb/cy_scb_spi.h **** /**
 489:Generated_Source\PSoC6\pdl\drivers/peripheral/scb/cy_scb_spi.h **** * \addtogroup group_scb_spi_data_structures
 490:Generated_Source\PSoC6\pdl\drivers/peripheral/scb/cy_scb_spi.h **** * \{
 491:Generated_Source\PSoC6\pdl\drivers/peripheral/scb/cy_scb_spi.h **** */
 492:Generated_Source\PSoC6\pdl\drivers/peripheral/scb/cy_scb_spi.h **** 
 493:Generated_Source\PSoC6\pdl\drivers/peripheral/scb/cy_scb_spi.h **** /**
ARM GAS  C:\Users\nicpa\AppData\Local\Temp\ccNzlYaQ.s 			page 31


 494:Generated_Source\PSoC6\pdl\drivers/peripheral/scb/cy_scb_spi.h **** * Provides the typedef for the callback function called in the
 495:Generated_Source\PSoC6\pdl\drivers/peripheral/scb/cy_scb_spi.h **** * \ref Cy_SCB_SPI_Interrupt to notify the user about occurrences of
 496:Generated_Source\PSoC6\pdl\drivers/peripheral/scb/cy_scb_spi.h **** * \ref group_scb_spi_macros_callback_events.
 497:Generated_Source\PSoC6\pdl\drivers/peripheral/scb/cy_scb_spi.h **** */
 498:Generated_Source\PSoC6\pdl\drivers/peripheral/scb/cy_scb_spi.h **** typedef void (* cy_cb_scb_spi_handle_events_t)(uint32_t event);
 499:Generated_Source\PSoC6\pdl\drivers/peripheral/scb/cy_scb_spi.h **** 
 500:Generated_Source\PSoC6\pdl\drivers/peripheral/scb/cy_scb_spi.h **** 
 501:Generated_Source\PSoC6\pdl\drivers/peripheral/scb/cy_scb_spi.h **** /** SPI configuration structure */
 502:Generated_Source\PSoC6\pdl\drivers/peripheral/scb/cy_scb_spi.h **** typedef struct cy_stc_scb_spi_config
 503:Generated_Source\PSoC6\pdl\drivers/peripheral/scb/cy_scb_spi.h **** {
 504:Generated_Source\PSoC6\pdl\drivers/peripheral/scb/cy_scb_spi.h ****     /** Specifies the mode of operation */
 505:Generated_Source\PSoC6\pdl\drivers/peripheral/scb/cy_scb_spi.h ****     cy_en_scb_spi_mode_t    spiMode;
 506:Generated_Source\PSoC6\pdl\drivers/peripheral/scb/cy_scb_spi.h **** 
 507:Generated_Source\PSoC6\pdl\drivers/peripheral/scb/cy_scb_spi.h ****     /** Specifies the submode of SPI operation */
 508:Generated_Source\PSoC6\pdl\drivers/peripheral/scb/cy_scb_spi.h ****     cy_en_scb_spi_sub_mode_t    subMode;
 509:Generated_Source\PSoC6\pdl\drivers/peripheral/scb/cy_scb_spi.h **** 
 510:Generated_Source\PSoC6\pdl\drivers/peripheral/scb/cy_scb_spi.h ****     /**
 511:Generated_Source\PSoC6\pdl\drivers/peripheral/scb/cy_scb_spi.h ****     * Configures the SCLK operation for Motorola sub-mode, ignored for all
 512:Generated_Source\PSoC6\pdl\drivers/peripheral/scb/cy_scb_spi.h ****     * other submodes
 513:Generated_Source\PSoC6\pdl\drivers/peripheral/scb/cy_scb_spi.h ****     */
 514:Generated_Source\PSoC6\pdl\drivers/peripheral/scb/cy_scb_spi.h ****     cy_en_scb_spi_sclk_mode_t    sclkMode;
 515:Generated_Source\PSoC6\pdl\drivers/peripheral/scb/cy_scb_spi.h **** 
 516:Generated_Source\PSoC6\pdl\drivers/peripheral/scb/cy_scb_spi.h ****     /**
 517:Generated_Source\PSoC6\pdl\drivers/peripheral/scb/cy_scb_spi.h ****     * Oversample factor for SPI.
 518:Generated_Source\PSoC6\pdl\drivers/peripheral/scb/cy_scb_spi.h ****     * * For the master mode, the data rate is the SCB clock / oversample
 519:Generated_Source\PSoC6\pdl\drivers/peripheral/scb/cy_scb_spi.h ****     *   (the valid range is 4 to 16, when MISO is used; if MISO is not used
 520:Generated_Source\PSoC6\pdl\drivers/peripheral/scb/cy_scb_spi.h ****     *   then the valid range is 2 to 16).
 521:Generated_Source\PSoC6\pdl\drivers/peripheral/scb/cy_scb_spi.h ****     * * For the slave mode, the oversample value is ignored. The data rate is
 522:Generated_Source\PSoC6\pdl\drivers/peripheral/scb/cy_scb_spi.h ****     *   determined by the SCB clock frequency.
 523:Generated_Source\PSoC6\pdl\drivers/peripheral/scb/cy_scb_spi.h ****     */
 524:Generated_Source\PSoC6\pdl\drivers/peripheral/scb/cy_scb_spi.h ****     uint32_t    oversample;
 525:Generated_Source\PSoC6\pdl\drivers/peripheral/scb/cy_scb_spi.h **** 
 526:Generated_Source\PSoC6\pdl\drivers/peripheral/scb/cy_scb_spi.h ****     /**
 527:Generated_Source\PSoC6\pdl\drivers/peripheral/scb/cy_scb_spi.h ****     * The width of RX data (valid range 4-16). It must be the same as
 528:Generated_Source\PSoC6\pdl\drivers/peripheral/scb/cy_scb_spi.h ****     * \ref txDataWidth except in National sub-mode.
 529:Generated_Source\PSoC6\pdl\drivers/peripheral/scb/cy_scb_spi.h ****     */
 530:Generated_Source\PSoC6\pdl\drivers/peripheral/scb/cy_scb_spi.h ****     uint32_t    rxDataWidth;
 531:Generated_Source\PSoC6\pdl\drivers/peripheral/scb/cy_scb_spi.h **** 
 532:Generated_Source\PSoC6\pdl\drivers/peripheral/scb/cy_scb_spi.h ****     /**
 533:Generated_Source\PSoC6\pdl\drivers/peripheral/scb/cy_scb_spi.h ****     * The width of TX data (valid range 4-16). It must be the same as
 534:Generated_Source\PSoC6\pdl\drivers/peripheral/scb/cy_scb_spi.h ****     * \ref rxDataWidth except in National sub-mode.
 535:Generated_Source\PSoC6\pdl\drivers/peripheral/scb/cy_scb_spi.h ****     */
 536:Generated_Source\PSoC6\pdl\drivers/peripheral/scb/cy_scb_spi.h ****     uint32_t    txDataWidth;
 537:Generated_Source\PSoC6\pdl\drivers/peripheral/scb/cy_scb_spi.h **** 
 538:Generated_Source\PSoC6\pdl\drivers/peripheral/scb/cy_scb_spi.h ****     /**
 539:Generated_Source\PSoC6\pdl\drivers/peripheral/scb/cy_scb_spi.h ****     * Enables the hardware to shift out the data element MSB first, otherwise,
 540:Generated_Source\PSoC6\pdl\drivers/peripheral/scb/cy_scb_spi.h ****     * LSB first
 541:Generated_Source\PSoC6\pdl\drivers/peripheral/scb/cy_scb_spi.h ****     */
 542:Generated_Source\PSoC6\pdl\drivers/peripheral/scb/cy_scb_spi.h ****     bool        enableMsbFirst;
 543:Generated_Source\PSoC6\pdl\drivers/peripheral/scb/cy_scb_spi.h **** 
 544:Generated_Source\PSoC6\pdl\drivers/peripheral/scb/cy_scb_spi.h ****     /**
 545:Generated_Source\PSoC6\pdl\drivers/peripheral/scb/cy_scb_spi.h ****     * Enables the master to generate a continuous SCLK regardless of whether
 546:Generated_Source\PSoC6\pdl\drivers/peripheral/scb/cy_scb_spi.h ****     * there is data to send
 547:Generated_Source\PSoC6\pdl\drivers/peripheral/scb/cy_scb_spi.h ****     */
 548:Generated_Source\PSoC6\pdl\drivers/peripheral/scb/cy_scb_spi.h ****     bool        enableFreeRunSclk;
 549:Generated_Source\PSoC6\pdl\drivers/peripheral/scb/cy_scb_spi.h **** 
 550:Generated_Source\PSoC6\pdl\drivers/peripheral/scb/cy_scb_spi.h ****     /**
ARM GAS  C:\Users\nicpa\AppData\Local\Temp\ccNzlYaQ.s 			page 32


 551:Generated_Source\PSoC6\pdl\drivers/peripheral/scb/cy_scb_spi.h ****     * Enables a digital 3-tap median filter to be applied to the input
 552:Generated_Source\PSoC6\pdl\drivers/peripheral/scb/cy_scb_spi.h ****     * of the RX FIFO to filter glitches on the line.
 553:Generated_Source\PSoC6\pdl\drivers/peripheral/scb/cy_scb_spi.h ****     */
 554:Generated_Source\PSoC6\pdl\drivers/peripheral/scb/cy_scb_spi.h ****     bool        enableInputFilter;
 555:Generated_Source\PSoC6\pdl\drivers/peripheral/scb/cy_scb_spi.h **** 
 556:Generated_Source\PSoC6\pdl\drivers/peripheral/scb/cy_scb_spi.h ****     /**
 557:Generated_Source\PSoC6\pdl\drivers/peripheral/scb/cy_scb_spi.h ****     * Enables the master to sample MISO line one half clock later to allow
 558:Generated_Source\PSoC6\pdl\drivers/peripheral/scb/cy_scb_spi.h ****     * better timings.
 559:Generated_Source\PSoC6\pdl\drivers/peripheral/scb/cy_scb_spi.h ****     */
 560:Generated_Source\PSoC6\pdl\drivers/peripheral/scb/cy_scb_spi.h ****     bool        enableMisoLateSample;
 561:Generated_Source\PSoC6\pdl\drivers/peripheral/scb/cy_scb_spi.h **** 
 562:Generated_Source\PSoC6\pdl\drivers/peripheral/scb/cy_scb_spi.h ****     /**
 563:Generated_Source\PSoC6\pdl\drivers/peripheral/scb/cy_scb_spi.h ****     * Enables the master to transmit each data element separated by a
 564:Generated_Source\PSoC6\pdl\drivers/peripheral/scb/cy_scb_spi.h ****     * de-assertion of the slave select line (only applicable for the master
 565:Generated_Source\PSoC6\pdl\drivers/peripheral/scb/cy_scb_spi.h ****     * mode)
 566:Generated_Source\PSoC6\pdl\drivers/peripheral/scb/cy_scb_spi.h ****     */
 567:Generated_Source\PSoC6\pdl\drivers/peripheral/scb/cy_scb_spi.h ****     bool        enableTransferSeperation;
 568:Generated_Source\PSoC6\pdl\drivers/peripheral/scb/cy_scb_spi.h **** 
 569:Generated_Source\PSoC6\pdl\drivers/peripheral/scb/cy_scb_spi.h ****     /**
 570:Generated_Source\PSoC6\pdl\drivers/peripheral/scb/cy_scb_spi.h ****     * Sets active polarity of each SS line.
 571:Generated_Source\PSoC6\pdl\drivers/peripheral/scb/cy_scb_spi.h ****     * This is a bit mask: bit 0 corresponds to SS0 and so on to SS3.
 572:Generated_Source\PSoC6\pdl\drivers/peripheral/scb/cy_scb_spi.h ****     * 1 means active high, a 0 means active low.
 573:Generated_Source\PSoC6\pdl\drivers/peripheral/scb/cy_scb_spi.h ****     */
 574:Generated_Source\PSoC6\pdl\drivers/peripheral/scb/cy_scb_spi.h ****     uint32_t    ssPolarity;
 575:Generated_Source\PSoC6\pdl\drivers/peripheral/scb/cy_scb_spi.h **** 
 576:Generated_Source\PSoC6\pdl\drivers/peripheral/scb/cy_scb_spi.h ****     /**
 577:Generated_Source\PSoC6\pdl\drivers/peripheral/scb/cy_scb_spi.h ****     * When set, the slave will wake the device when the slave select line
 578:Generated_Source\PSoC6\pdl\drivers/peripheral/scb/cy_scb_spi.h ****     * becomes active.
 579:Generated_Source\PSoC6\pdl\drivers/peripheral/scb/cy_scb_spi.h ****     * Note that not all SCBs support this mode. Consult the device
 580:Generated_Source\PSoC6\pdl\drivers/peripheral/scb/cy_scb_spi.h ****     * datasheet to determine which SCBs support wake from Deep Sleep.
 581:Generated_Source\PSoC6\pdl\drivers/peripheral/scb/cy_scb_spi.h ****     */
 582:Generated_Source\PSoC6\pdl\drivers/peripheral/scb/cy_scb_spi.h ****     bool        enableWakeFromSleep;
 583:Generated_Source\PSoC6\pdl\drivers/peripheral/scb/cy_scb_spi.h **** 
 584:Generated_Source\PSoC6\pdl\drivers/peripheral/scb/cy_scb_spi.h ****     /**
 585:Generated_Source\PSoC6\pdl\drivers/peripheral/scb/cy_scb_spi.h ****     * When there are more entries in the RX FIFO then this level
 586:Generated_Source\PSoC6\pdl\drivers/peripheral/scb/cy_scb_spi.h ****     * the RX trigger output goes high. This output can be connected
 587:Generated_Source\PSoC6\pdl\drivers/peripheral/scb/cy_scb_spi.h ****     * to a DMA channel through a trigger mux.
 588:Generated_Source\PSoC6\pdl\drivers/peripheral/scb/cy_scb_spi.h ****     * Also, it controls the \ref CY_SCB_SPI_RX_TRIGGER interrupt source.
 589:Generated_Source\PSoC6\pdl\drivers/peripheral/scb/cy_scb_spi.h ****     */
 590:Generated_Source\PSoC6\pdl\drivers/peripheral/scb/cy_scb_spi.h ****     uint32_t    rxFifoTriggerLevel;
 591:Generated_Source\PSoC6\pdl\drivers/peripheral/scb/cy_scb_spi.h **** 
 592:Generated_Source\PSoC6\pdl\drivers/peripheral/scb/cy_scb_spi.h ****     /**
 593:Generated_Source\PSoC6\pdl\drivers/peripheral/scb/cy_scb_spi.h ****     * Bits set in this mask will allow events to cause an interrupt
 594:Generated_Source\PSoC6\pdl\drivers/peripheral/scb/cy_scb_spi.h ****     * (See \ref group_scb_spi_macros_rx_fifo_status for the set of constant)
 595:Generated_Source\PSoC6\pdl\drivers/peripheral/scb/cy_scb_spi.h ****     */
 596:Generated_Source\PSoC6\pdl\drivers/peripheral/scb/cy_scb_spi.h ****     uint32_t    rxFifoIntEnableMask;
 597:Generated_Source\PSoC6\pdl\drivers/peripheral/scb/cy_scb_spi.h **** 
 598:Generated_Source\PSoC6\pdl\drivers/peripheral/scb/cy_scb_spi.h ****     /**
 599:Generated_Source\PSoC6\pdl\drivers/peripheral/scb/cy_scb_spi.h ****     * When there are fewer entries in the TX FIFO then this level
 600:Generated_Source\PSoC6\pdl\drivers/peripheral/scb/cy_scb_spi.h ****     * the TX trigger output goes high. This output can be connected
 601:Generated_Source\PSoC6\pdl\drivers/peripheral/scb/cy_scb_spi.h ****     * to a DMA channel through a trigger mux.
 602:Generated_Source\PSoC6\pdl\drivers/peripheral/scb/cy_scb_spi.h ****     * Also, it controls the \ref CY_SCB_SPI_TX_TRIGGER interrupt source.
 603:Generated_Source\PSoC6\pdl\drivers/peripheral/scb/cy_scb_spi.h ****     */
 604:Generated_Source\PSoC6\pdl\drivers/peripheral/scb/cy_scb_spi.h ****     uint32_t    txFifoTriggerLevel;
 605:Generated_Source\PSoC6\pdl\drivers/peripheral/scb/cy_scb_spi.h **** 
 606:Generated_Source\PSoC6\pdl\drivers/peripheral/scb/cy_scb_spi.h ****     /**
 607:Generated_Source\PSoC6\pdl\drivers/peripheral/scb/cy_scb_spi.h ****     * Bits set in this mask allow events to cause an interrupt
ARM GAS  C:\Users\nicpa\AppData\Local\Temp\ccNzlYaQ.s 			page 33


 608:Generated_Source\PSoC6\pdl\drivers/peripheral/scb/cy_scb_spi.h ****     * (See \ref group_scb_spi_macros_tx_fifo_status for the set of constants)
 609:Generated_Source\PSoC6\pdl\drivers/peripheral/scb/cy_scb_spi.h ****     */
 610:Generated_Source\PSoC6\pdl\drivers/peripheral/scb/cy_scb_spi.h ****     uint32_t    txFifoIntEnableMask;
 611:Generated_Source\PSoC6\pdl\drivers/peripheral/scb/cy_scb_spi.h **** 
 612:Generated_Source\PSoC6\pdl\drivers/peripheral/scb/cy_scb_spi.h ****     /**
 613:Generated_Source\PSoC6\pdl\drivers/peripheral/scb/cy_scb_spi.h ****     * Bits set in this mask allow events to cause an interrupt
 614:Generated_Source\PSoC6\pdl\drivers/peripheral/scb/cy_scb_spi.h ****     * (See \ref group_scb_spi_macros_master_slave_status for the set of
 615:Generated_Source\PSoC6\pdl\drivers/peripheral/scb/cy_scb_spi.h ****     * constants)
 616:Generated_Source\PSoC6\pdl\drivers/peripheral/scb/cy_scb_spi.h ****     */
 617:Generated_Source\PSoC6\pdl\drivers/peripheral/scb/cy_scb_spi.h ****     uint32_t    masterSlaveIntEnableMask;
 618:Generated_Source\PSoC6\pdl\drivers/peripheral/scb/cy_scb_spi.h **** 
 619:Generated_Source\PSoC6\pdl\drivers/peripheral/scb/cy_scb_spi.h **** }cy_stc_scb_spi_config_t;
 620:Generated_Source\PSoC6\pdl\drivers/peripheral/scb/cy_scb_spi.h **** 
 621:Generated_Source\PSoC6\pdl\drivers/peripheral/scb/cy_scb_spi.h **** /** SPI context structure.
 622:Generated_Source\PSoC6\pdl\drivers/peripheral/scb/cy_scb_spi.h **** * All fields for the context structure are internal. Firmware never reads or
 623:Generated_Source\PSoC6\pdl\drivers/peripheral/scb/cy_scb_spi.h **** * writes these values. Firmware allocates the structure and provides the
 624:Generated_Source\PSoC6\pdl\drivers/peripheral/scb/cy_scb_spi.h **** * address of the structure to the driver in function calls. Firmware must
 625:Generated_Source\PSoC6\pdl\drivers/peripheral/scb/cy_scb_spi.h **** * ensure that the defined instance of this structure remains in scope
 626:Generated_Source\PSoC6\pdl\drivers/peripheral/scb/cy_scb_spi.h **** * while the drive is in use.
 627:Generated_Source\PSoC6\pdl\drivers/peripheral/scb/cy_scb_spi.h **** */
 628:Generated_Source\PSoC6\pdl\drivers/peripheral/scb/cy_scb_spi.h **** typedef struct cy_stc_scb_spi_context
 629:Generated_Source\PSoC6\pdl\drivers/peripheral/scb/cy_scb_spi.h **** {
 630:Generated_Source\PSoC6\pdl\drivers/peripheral/scb/cy_scb_spi.h ****     /** \cond INTERNAL */
 631:Generated_Source\PSoC6\pdl\drivers/peripheral/scb/cy_scb_spi.h ****     uint32_t volatile status;       /**< The receive status */
 632:Generated_Source\PSoC6\pdl\drivers/peripheral/scb/cy_scb_spi.h **** 
 633:Generated_Source\PSoC6\pdl\drivers/peripheral/scb/cy_scb_spi.h ****     void    *rxBuf;                 /**< The pointer to the receive buffer */
 634:Generated_Source\PSoC6\pdl\drivers/peripheral/scb/cy_scb_spi.h ****     uint32_t rxBufSize;             /**< The receive buffer size */
 635:Generated_Source\PSoC6\pdl\drivers/peripheral/scb/cy_scb_spi.h ****     uint32_t volatile rxBufIdx;     /**< The current location in the receive buffer */
 636:Generated_Source\PSoC6\pdl\drivers/peripheral/scb/cy_scb_spi.h **** 
 637:Generated_Source\PSoC6\pdl\drivers/peripheral/scb/cy_scb_spi.h ****     void    *txBuf;                 /**< The pointer to the transmit buffer */
 638:Generated_Source\PSoC6\pdl\drivers/peripheral/scb/cy_scb_spi.h ****     uint32_t txBufSize;             /**< The transmit buffer size */
 639:Generated_Source\PSoC6\pdl\drivers/peripheral/scb/cy_scb_spi.h ****     uint32_t volatile txBufIdx;     /**< The current location in the transmit buffer */
 640:Generated_Source\PSoC6\pdl\drivers/peripheral/scb/cy_scb_spi.h **** 
 641:Generated_Source\PSoC6\pdl\drivers/peripheral/scb/cy_scb_spi.h ****     /**
 642:Generated_Source\PSoC6\pdl\drivers/peripheral/scb/cy_scb_spi.h ****     * The pointer to an event callback that is called when any of
 643:Generated_Source\PSoC6\pdl\drivers/peripheral/scb/cy_scb_spi.h ****     * \ref group_scb_spi_macros_callback_events occurs
 644:Generated_Source\PSoC6\pdl\drivers/peripheral/scb/cy_scb_spi.h ****     */
 645:Generated_Source\PSoC6\pdl\drivers/peripheral/scb/cy_scb_spi.h ****     cy_cb_scb_spi_handle_events_t cbEvents;
 646:Generated_Source\PSoC6\pdl\drivers/peripheral/scb/cy_scb_spi.h **** 
 647:Generated_Source\PSoC6\pdl\drivers/peripheral/scb/cy_scb_spi.h **** #if !defined(NDEBUG)
 648:Generated_Source\PSoC6\pdl\drivers/peripheral/scb/cy_scb_spi.h ****     uint32_t initKey;               /**< Tracks the context initialization */
 649:Generated_Source\PSoC6\pdl\drivers/peripheral/scb/cy_scb_spi.h **** #endif /* !(NDEBUG) */
 650:Generated_Source\PSoC6\pdl\drivers/peripheral/scb/cy_scb_spi.h ****     /** \endcond */
 651:Generated_Source\PSoC6\pdl\drivers/peripheral/scb/cy_scb_spi.h **** } cy_stc_scb_spi_context_t;
 652:Generated_Source\PSoC6\pdl\drivers/peripheral/scb/cy_scb_spi.h **** 
 653:Generated_Source\PSoC6\pdl\drivers/peripheral/scb/cy_scb_spi.h **** /** \} group_scb_spi_data_structures */
 654:Generated_Source\PSoC6\pdl\drivers/peripheral/scb/cy_scb_spi.h **** 
 655:Generated_Source\PSoC6\pdl\drivers/peripheral/scb/cy_scb_spi.h **** 
 656:Generated_Source\PSoC6\pdl\drivers/peripheral/scb/cy_scb_spi.h **** /*******************************************************************************
 657:Generated_Source\PSoC6\pdl\drivers/peripheral/scb/cy_scb_spi.h **** *                          Function Prototypes
 658:Generated_Source\PSoC6\pdl\drivers/peripheral/scb/cy_scb_spi.h **** *******************************************************************************/
 659:Generated_Source\PSoC6\pdl\drivers/peripheral/scb/cy_scb_spi.h **** 
 660:Generated_Source\PSoC6\pdl\drivers/peripheral/scb/cy_scb_spi.h **** /**
 661:Generated_Source\PSoC6\pdl\drivers/peripheral/scb/cy_scb_spi.h **** * \addtogroup group_scb_spi_general_functions
 662:Generated_Source\PSoC6\pdl\drivers/peripheral/scb/cy_scb_spi.h **** * \{
 663:Generated_Source\PSoC6\pdl\drivers/peripheral/scb/cy_scb_spi.h **** */
 664:Generated_Source\PSoC6\pdl\drivers/peripheral/scb/cy_scb_spi.h **** cy_en_scb_spi_status_t Cy_SCB_SPI_Init(CySCB_Type *base, cy_stc_scb_spi_config_t const *config,
ARM GAS  C:\Users\nicpa\AppData\Local\Temp\ccNzlYaQ.s 			page 34


 665:Generated_Source\PSoC6\pdl\drivers/peripheral/scb/cy_scb_spi.h ****                                        cy_stc_scb_spi_context_t *context);
 666:Generated_Source\PSoC6\pdl\drivers/peripheral/scb/cy_scb_spi.h **** void Cy_SCB_SPI_DeInit (CySCB_Type *base);
 667:Generated_Source\PSoC6\pdl\drivers/peripheral/scb/cy_scb_spi.h **** __STATIC_INLINE void Cy_SCB_SPI_Enable(CySCB_Type *base);
 668:Generated_Source\PSoC6\pdl\drivers/peripheral/scb/cy_scb_spi.h **** void Cy_SCB_SPI_Disable(CySCB_Type *base, cy_stc_scb_spi_context_t *context);
 669:Generated_Source\PSoC6\pdl\drivers/peripheral/scb/cy_scb_spi.h **** 
 670:Generated_Source\PSoC6\pdl\drivers/peripheral/scb/cy_scb_spi.h **** __STATIC_INLINE void Cy_SCB_SPI_SetActiveSlaveSelect(CySCB_Type *base,
 671:Generated_Source\PSoC6\pdl\drivers/peripheral/scb/cy_scb_spi.h ****                                     cy_en_scb_spi_slave_select_t slaveSelect);
 672:Generated_Source\PSoC6\pdl\drivers/peripheral/scb/cy_scb_spi.h **** __STATIC_INLINE void Cy_SCB_SPI_SetActiveSlaveSelectPolarity(CySCB_Type *base,
 673:Generated_Source\PSoC6\pdl\drivers/peripheral/scb/cy_scb_spi.h ****                                     cy_en_scb_spi_slave_select_t slaveSelect,
 674:Generated_Source\PSoC6\pdl\drivers/peripheral/scb/cy_scb_spi.h ****                                     cy_en_scb_spi_polarity_t polarity);
 675:Generated_Source\PSoC6\pdl\drivers/peripheral/scb/cy_scb_spi.h **** 
 676:Generated_Source\PSoC6\pdl\drivers/peripheral/scb/cy_scb_spi.h **** __STATIC_INLINE bool Cy_SCB_SPI_IsBusBusy(CySCB_Type const *base);
 677:Generated_Source\PSoC6\pdl\drivers/peripheral/scb/cy_scb_spi.h **** /** \} group_scb_spi_general_functions */
 678:Generated_Source\PSoC6\pdl\drivers/peripheral/scb/cy_scb_spi.h **** 
 679:Generated_Source\PSoC6\pdl\drivers/peripheral/scb/cy_scb_spi.h **** /**
 680:Generated_Source\PSoC6\pdl\drivers/peripheral/scb/cy_scb_spi.h **** * \addtogroup group_scb_spi_high_level_functions
 681:Generated_Source\PSoC6\pdl\drivers/peripheral/scb/cy_scb_spi.h **** * \{
 682:Generated_Source\PSoC6\pdl\drivers/peripheral/scb/cy_scb_spi.h **** */
 683:Generated_Source\PSoC6\pdl\drivers/peripheral/scb/cy_scb_spi.h **** cy_en_scb_spi_status_t Cy_SCB_SPI_Transfer(CySCB_Type *base, void *txBuffer, void *rxBuffer, uint32
 684:Generated_Source\PSoC6\pdl\drivers/peripheral/scb/cy_scb_spi.h ****                                            cy_stc_scb_spi_context_t *context);
 685:Generated_Source\PSoC6\pdl\drivers/peripheral/scb/cy_scb_spi.h **** void     Cy_SCB_SPI_AbortTransfer    (CySCB_Type *base, cy_stc_scb_spi_context_t *context);
 686:Generated_Source\PSoC6\pdl\drivers/peripheral/scb/cy_scb_spi.h **** uint32_t Cy_SCB_SPI_GetTransferStatus(CySCB_Type const *base, cy_stc_scb_spi_context_t const *conte
 687:Generated_Source\PSoC6\pdl\drivers/peripheral/scb/cy_scb_spi.h **** uint32_t Cy_SCB_SPI_GetNumTransfered (CySCB_Type const *base, cy_stc_scb_spi_context_t const *conte
 688:Generated_Source\PSoC6\pdl\drivers/peripheral/scb/cy_scb_spi.h **** /** \} group_scb_spi_high_level_functions */
 689:Generated_Source\PSoC6\pdl\drivers/peripheral/scb/cy_scb_spi.h **** 
 690:Generated_Source\PSoC6\pdl\drivers/peripheral/scb/cy_scb_spi.h **** /**
 691:Generated_Source\PSoC6\pdl\drivers/peripheral/scb/cy_scb_spi.h **** * \addtogroup group_scb_spi_low_level_functions
 692:Generated_Source\PSoC6\pdl\drivers/peripheral/scb/cy_scb_spi.h **** * \{
 693:Generated_Source\PSoC6\pdl\drivers/peripheral/scb/cy_scb_spi.h **** */
 694:Generated_Source\PSoC6\pdl\drivers/peripheral/scb/cy_scb_spi.h **** __STATIC_INLINE uint32_t Cy_SCB_SPI_Read     (CySCB_Type const *base);
 695:Generated_Source\PSoC6\pdl\drivers/peripheral/scb/cy_scb_spi.h **** __STATIC_INLINE uint32_t Cy_SCB_SPI_ReadArray(CySCB_Type const *base, void *buffer, uint32_t size);
 696:Generated_Source\PSoC6\pdl\drivers/peripheral/scb/cy_scb_spi.h **** 
 697:Generated_Source\PSoC6\pdl\drivers/peripheral/scb/cy_scb_spi.h **** __STATIC_INLINE uint32_t Cy_SCB_SPI_Write     (CySCB_Type *base, uint32_t data);
 698:Generated_Source\PSoC6\pdl\drivers/peripheral/scb/cy_scb_spi.h **** __STATIC_INLINE uint32_t Cy_SCB_SPI_WriteArray(CySCB_Type *base, void *buffer, uint32_t size);
 699:Generated_Source\PSoC6\pdl\drivers/peripheral/scb/cy_scb_spi.h **** __STATIC_INLINE void     Cy_SCB_SPI_WriteArrayBlocking(CySCB_Type *base, void *buffer, uint32_t siz
 700:Generated_Source\PSoC6\pdl\drivers/peripheral/scb/cy_scb_spi.h **** 
 701:Generated_Source\PSoC6\pdl\drivers/peripheral/scb/cy_scb_spi.h **** __STATIC_INLINE uint32_t Cy_SCB_SPI_GetTxFifoStatus  (CySCB_Type const *base);
 702:Generated_Source\PSoC6\pdl\drivers/peripheral/scb/cy_scb_spi.h **** __STATIC_INLINE void     Cy_SCB_SPI_ClearTxFifoStatus(CySCB_Type *base, uint32_t clearMask);
 703:Generated_Source\PSoC6\pdl\drivers/peripheral/scb/cy_scb_spi.h **** 
 704:Generated_Source\PSoC6\pdl\drivers/peripheral/scb/cy_scb_spi.h **** __STATIC_INLINE uint32_t Cy_SCB_SPI_GetRxFifoStatus  (CySCB_Type const *base);
 705:Generated_Source\PSoC6\pdl\drivers/peripheral/scb/cy_scb_spi.h **** __STATIC_INLINE void     Cy_SCB_SPI_ClearRxFifoStatus(CySCB_Type *base, uint32_t clearMask);
 706:Generated_Source\PSoC6\pdl\drivers/peripheral/scb/cy_scb_spi.h **** 
 707:Generated_Source\PSoC6\pdl\drivers/peripheral/scb/cy_scb_spi.h **** __STATIC_INLINE uint32_t Cy_SCB_SPI_GetSlaveMasterStatus  (CySCB_Type const *base);
 708:Generated_Source\PSoC6\pdl\drivers/peripheral/scb/cy_scb_spi.h **** __STATIC_INLINE void     Cy_SCB_SPI_ClearSlaveMasterStatus(CySCB_Type *base, uint32_t clearMask);
 709:Generated_Source\PSoC6\pdl\drivers/peripheral/scb/cy_scb_spi.h **** 
 710:Generated_Source\PSoC6\pdl\drivers/peripheral/scb/cy_scb_spi.h **** __STATIC_INLINE uint32_t Cy_SCB_SPI_GetNumInTxFifo(CySCB_Type const *base);
 711:Generated_Source\PSoC6\pdl\drivers/peripheral/scb/cy_scb_spi.h **** __STATIC_INLINE bool     Cy_SCB_SPI_IsTxComplete  (CySCB_Type const *base);
 712:Generated_Source\PSoC6\pdl\drivers/peripheral/scb/cy_scb_spi.h **** 
 713:Generated_Source\PSoC6\pdl\drivers/peripheral/scb/cy_scb_spi.h **** __STATIC_INLINE uint32_t Cy_SCB_SPI_GetNumInRxFifo(CySCB_Type const *base);
 714:Generated_Source\PSoC6\pdl\drivers/peripheral/scb/cy_scb_spi.h **** 
 715:Generated_Source\PSoC6\pdl\drivers/peripheral/scb/cy_scb_spi.h **** __STATIC_INLINE void Cy_SCB_SPI_ClearRxFifo(CySCB_Type *base);
 716:Generated_Source\PSoC6\pdl\drivers/peripheral/scb/cy_scb_spi.h **** __STATIC_INLINE void Cy_SCB_SPI_ClearTxFifo(CySCB_Type *base);
 717:Generated_Source\PSoC6\pdl\drivers/peripheral/scb/cy_scb_spi.h **** /** \} group_scb_spi_low_level_functions */
 718:Generated_Source\PSoC6\pdl\drivers/peripheral/scb/cy_scb_spi.h **** 
 719:Generated_Source\PSoC6\pdl\drivers/peripheral/scb/cy_scb_spi.h **** /**
 720:Generated_Source\PSoC6\pdl\drivers/peripheral/scb/cy_scb_spi.h **** * \addtogroup group_scb_spi_interrupt_functions
 721:Generated_Source\PSoC6\pdl\drivers/peripheral/scb/cy_scb_spi.h **** * \{
ARM GAS  C:\Users\nicpa\AppData\Local\Temp\ccNzlYaQ.s 			page 35


 722:Generated_Source\PSoC6\pdl\drivers/peripheral/scb/cy_scb_spi.h **** */
 723:Generated_Source\PSoC6\pdl\drivers/peripheral/scb/cy_scb_spi.h **** void Cy_SCB_SPI_Interrupt(CySCB_Type *base, cy_stc_scb_spi_context_t *context);
 724:Generated_Source\PSoC6\pdl\drivers/peripheral/scb/cy_scb_spi.h **** 
 725:Generated_Source\PSoC6\pdl\drivers/peripheral/scb/cy_scb_spi.h **** __STATIC_INLINE void Cy_SCB_SPI_RegisterCallback(CySCB_Type const *base, cy_cb_scb_spi_handle_event
 726:Generated_Source\PSoC6\pdl\drivers/peripheral/scb/cy_scb_spi.h ****                                                  cy_stc_scb_spi_context_t *context);
 727:Generated_Source\PSoC6\pdl\drivers/peripheral/scb/cy_scb_spi.h **** /** \} group_scb_spi_interrupt_functions */
 728:Generated_Source\PSoC6\pdl\drivers/peripheral/scb/cy_scb_spi.h **** 
 729:Generated_Source\PSoC6\pdl\drivers/peripheral/scb/cy_scb_spi.h **** /**
 730:Generated_Source\PSoC6\pdl\drivers/peripheral/scb/cy_scb_spi.h **** * \addtogroup group_scb_spi_low_power_functions
 731:Generated_Source\PSoC6\pdl\drivers/peripheral/scb/cy_scb_spi.h **** * \{
 732:Generated_Source\PSoC6\pdl\drivers/peripheral/scb/cy_scb_spi.h **** */
 733:Generated_Source\PSoC6\pdl\drivers/peripheral/scb/cy_scb_spi.h **** cy_en_syspm_status_t Cy_SCB_SPI_DeepSleepCallback(cy_stc_syspm_callback_params_t *callbackParams, c
 734:Generated_Source\PSoC6\pdl\drivers/peripheral/scb/cy_scb_spi.h **** cy_en_syspm_status_t Cy_SCB_SPI_HibernateCallback(cy_stc_syspm_callback_params_t *callbackParams, c
 735:Generated_Source\PSoC6\pdl\drivers/peripheral/scb/cy_scb_spi.h **** /** \} group_scb_spi_low_power_functions */
 736:Generated_Source\PSoC6\pdl\drivers/peripheral/scb/cy_scb_spi.h **** 
 737:Generated_Source\PSoC6\pdl\drivers/peripheral/scb/cy_scb_spi.h **** 
 738:Generated_Source\PSoC6\pdl\drivers/peripheral/scb/cy_scb_spi.h **** /*******************************************************************************
 739:Generated_Source\PSoC6\pdl\drivers/peripheral/scb/cy_scb_spi.h **** *                               API Constants
 740:Generated_Source\PSoC6\pdl\drivers/peripheral/scb/cy_scb_spi.h **** *******************************************************************************/
 741:Generated_Source\PSoC6\pdl\drivers/peripheral/scb/cy_scb_spi.h **** 
 742:Generated_Source\PSoC6\pdl\drivers/peripheral/scb/cy_scb_spi.h **** /**
 743:Generated_Source\PSoC6\pdl\drivers/peripheral/scb/cy_scb_spi.h **** * \addtogroup group_scb_spi_macros
 744:Generated_Source\PSoC6\pdl\drivers/peripheral/scb/cy_scb_spi.h **** * \{
 745:Generated_Source\PSoC6\pdl\drivers/peripheral/scb/cy_scb_spi.h **** */
 746:Generated_Source\PSoC6\pdl\drivers/peripheral/scb/cy_scb_spi.h **** 
 747:Generated_Source\PSoC6\pdl\drivers/peripheral/scb/cy_scb_spi.h **** /**
 748:Generated_Source\PSoC6\pdl\drivers/peripheral/scb/cy_scb_spi.h **** * \defgroup group_scb_spi_macros_tx_fifo_status SPI TX FIFO Statuses
 749:Generated_Source\PSoC6\pdl\drivers/peripheral/scb/cy_scb_spi.h **** * Macros to check SPI TX FIFO status returned by \ref Cy_SCB_SPI_GetTxFifoStatus
 750:Generated_Source\PSoC6\pdl\drivers/peripheral/scb/cy_scb_spi.h **** * function or assign mask for \ref Cy_SCB_SPI_ClearTxFifoStatus function.
 751:Generated_Source\PSoC6\pdl\drivers/peripheral/scb/cy_scb_spi.h **** * Each SPI TX FIFO status is encoded in a separate bit, therefore multiple bits
 752:Generated_Source\PSoC6\pdl\drivers/peripheral/scb/cy_scb_spi.h **** * may be set to indicate the current status.
 753:Generated_Source\PSoC6\pdl\drivers/peripheral/scb/cy_scb_spi.h **** * \{
 754:Generated_Source\PSoC6\pdl\drivers/peripheral/scb/cy_scb_spi.h **** */
 755:Generated_Source\PSoC6\pdl\drivers/peripheral/scb/cy_scb_spi.h **** /** The number of entries in the TX FIFO is less than the TX FIFO trigger level
 756:Generated_Source\PSoC6\pdl\drivers/peripheral/scb/cy_scb_spi.h **** * value
 757:Generated_Source\PSoC6\pdl\drivers/peripheral/scb/cy_scb_spi.h **** */
 758:Generated_Source\PSoC6\pdl\drivers/peripheral/scb/cy_scb_spi.h **** #define CY_SCB_SPI_TX_TRIGGER       (SCB_INTR_TX_TRIGGER_Msk)
 759:Generated_Source\PSoC6\pdl\drivers/peripheral/scb/cy_scb_spi.h **** 
 760:Generated_Source\PSoC6\pdl\drivers/peripheral/scb/cy_scb_spi.h **** /** The TX FIFO is not full, there is a space for more data */
 761:Generated_Source\PSoC6\pdl\drivers/peripheral/scb/cy_scb_spi.h **** #define CY_SCB_SPI_TX_NOT_FULL      (SCB_INTR_TX_NOT_FULL_Msk)
 762:Generated_Source\PSoC6\pdl\drivers/peripheral/scb/cy_scb_spi.h **** 
 763:Generated_Source\PSoC6\pdl\drivers/peripheral/scb/cy_scb_spi.h **** /**
 764:Generated_Source\PSoC6\pdl\drivers/peripheral/scb/cy_scb_spi.h **** * The TX FIFO is empty, note that there may still be data in the shift register.
 765:Generated_Source\PSoC6\pdl\drivers/peripheral/scb/cy_scb_spi.h **** */
 766:Generated_Source\PSoC6\pdl\drivers/peripheral/scb/cy_scb_spi.h **** #define CY_SCB_SPI_TX_EMPTY         (SCB_INTR_TX_EMPTY_Msk)
 767:Generated_Source\PSoC6\pdl\drivers/peripheral/scb/cy_scb_spi.h **** 
 768:Generated_Source\PSoC6\pdl\drivers/peripheral/scb/cy_scb_spi.h **** /** An attempt to write to the full TX FIFO */
 769:Generated_Source\PSoC6\pdl\drivers/peripheral/scb/cy_scb_spi.h **** #define CY_SCB_SPI_TX_OVERFLOW      (SCB_INTR_TX_OVERFLOW_Msk)
 770:Generated_Source\PSoC6\pdl\drivers/peripheral/scb/cy_scb_spi.h **** 
 771:Generated_Source\PSoC6\pdl\drivers/peripheral/scb/cy_scb_spi.h **** /**
 772:Generated_Source\PSoC6\pdl\drivers/peripheral/scb/cy_scb_spi.h **** * Applicable only for the slave mode. The master tried to read more
 773:Generated_Source\PSoC6\pdl\drivers/peripheral/scb/cy_scb_spi.h **** * data elements than available.
 774:Generated_Source\PSoC6\pdl\drivers/peripheral/scb/cy_scb_spi.h **** */
 775:Generated_Source\PSoC6\pdl\drivers/peripheral/scb/cy_scb_spi.h **** #define CY_SCB_SPI_TX_UNDERFLOW     (SCB_INTR_TX_UNDERFLOW_Msk)
 776:Generated_Source\PSoC6\pdl\drivers/peripheral/scb/cy_scb_spi.h **** /** \} group_scb_spi_macros_tx_fifo_status */
 777:Generated_Source\PSoC6\pdl\drivers/peripheral/scb/cy_scb_spi.h **** 
 778:Generated_Source\PSoC6\pdl\drivers/peripheral/scb/cy_scb_spi.h **** /**
ARM GAS  C:\Users\nicpa\AppData\Local\Temp\ccNzlYaQ.s 			page 36


 779:Generated_Source\PSoC6\pdl\drivers/peripheral/scb/cy_scb_spi.h **** * \defgroup group_scb_spi_macros_rx_fifo_status SPI RX FIFO Statuses
 780:Generated_Source\PSoC6\pdl\drivers/peripheral/scb/cy_scb_spi.h **** * \{
 781:Generated_Source\PSoC6\pdl\drivers/peripheral/scb/cy_scb_spi.h **** * Macros to check SPI RX FIFO status returned by \ref Cy_SCB_SPI_GetRxFifoStatus
 782:Generated_Source\PSoC6\pdl\drivers/peripheral/scb/cy_scb_spi.h **** * function or assign mask for \ref Cy_SCB_SPI_ClearRxFifoStatus function.
 783:Generated_Source\PSoC6\pdl\drivers/peripheral/scb/cy_scb_spi.h **** * Each SPI RX FIFO status is encoded in a separate bit, therefore multiple
 784:Generated_Source\PSoC6\pdl\drivers/peripheral/scb/cy_scb_spi.h **** * bits may be set to indicate the current status.
 785:Generated_Source\PSoC6\pdl\drivers/peripheral/scb/cy_scb_spi.h **** */
 786:Generated_Source\PSoC6\pdl\drivers/peripheral/scb/cy_scb_spi.h **** /** The number of entries in the RX FIFO is more than the RX FIFO trigger
 787:Generated_Source\PSoC6\pdl\drivers/peripheral/scb/cy_scb_spi.h **** * level value.
 788:Generated_Source\PSoC6\pdl\drivers/peripheral/scb/cy_scb_spi.h **** */
 789:Generated_Source\PSoC6\pdl\drivers/peripheral/scb/cy_scb_spi.h **** #define CY_SCB_SPI_RX_TRIGGER       (SCB_INTR_RX_TRIGGER_Msk)
 790:Generated_Source\PSoC6\pdl\drivers/peripheral/scb/cy_scb_spi.h **** 
 791:Generated_Source\PSoC6\pdl\drivers/peripheral/scb/cy_scb_spi.h **** /** The RX FIFO is not empty, there is data to read */
 792:Generated_Source\PSoC6\pdl\drivers/peripheral/scb/cy_scb_spi.h **** #define CY_SCB_SPI_RX_NOT_EMPTY     (SCB_INTR_RX_NOT_EMPTY_Msk)
 793:Generated_Source\PSoC6\pdl\drivers/peripheral/scb/cy_scb_spi.h **** 
 794:Generated_Source\PSoC6\pdl\drivers/peripheral/scb/cy_scb_spi.h **** /**
 795:Generated_Source\PSoC6\pdl\drivers/peripheral/scb/cy_scb_spi.h **** * The RX FIFO is full. There is no more space for additional data.
 796:Generated_Source\PSoC6\pdl\drivers/peripheral/scb/cy_scb_spi.h **** * Any additional data will be dropped.
 797:Generated_Source\PSoC6\pdl\drivers/peripheral/scb/cy_scb_spi.h **** */
 798:Generated_Source\PSoC6\pdl\drivers/peripheral/scb/cy_scb_spi.h **** #define CY_SCB_SPI_RX_FULL          (SCB_INTR_RX_FULL_Msk)
 799:Generated_Source\PSoC6\pdl\drivers/peripheral/scb/cy_scb_spi.h **** 
 800:Generated_Source\PSoC6\pdl\drivers/peripheral/scb/cy_scb_spi.h **** /**
 801:Generated_Source\PSoC6\pdl\drivers/peripheral/scb/cy_scb_spi.h **** * The RX FIFO was full and there was an attempt to write to it.
 802:Generated_Source\PSoC6\pdl\drivers/peripheral/scb/cy_scb_spi.h **** * This additional data was dropped.
 803:Generated_Source\PSoC6\pdl\drivers/peripheral/scb/cy_scb_spi.h **** */
 804:Generated_Source\PSoC6\pdl\drivers/peripheral/scb/cy_scb_spi.h **** #define CY_SCB_SPI_RX_OVERFLOW      (SCB_INTR_RX_OVERFLOW_Msk)
 805:Generated_Source\PSoC6\pdl\drivers/peripheral/scb/cy_scb_spi.h **** 
 806:Generated_Source\PSoC6\pdl\drivers/peripheral/scb/cy_scb_spi.h **** /** An attempt to read from an empty RX FIFO */
 807:Generated_Source\PSoC6\pdl\drivers/peripheral/scb/cy_scb_spi.h **** #define CY_SCB_SPI_RX_UNDERFLOW     (SCB_INTR_RX_UNDERFLOW_Msk)
 808:Generated_Source\PSoC6\pdl\drivers/peripheral/scb/cy_scb_spi.h **** /** \} group_scb_spi_macros_rx_fifo_status */
 809:Generated_Source\PSoC6\pdl\drivers/peripheral/scb/cy_scb_spi.h **** 
 810:Generated_Source\PSoC6\pdl\drivers/peripheral/scb/cy_scb_spi.h **** /**
 811:Generated_Source\PSoC6\pdl\drivers/peripheral/scb/cy_scb_spi.h **** * \defgroup group_scb_spi_macros_master_slave_status SPI Master and Slave Statuses
 812:Generated_Source\PSoC6\pdl\drivers/peripheral/scb/cy_scb_spi.h **** * \{
 813:Generated_Source\PSoC6\pdl\drivers/peripheral/scb/cy_scb_spi.h **** * Macros to check SPI Mater and Slave status returned by \ref Cy_SCB_SPI_GetSlaveMasterStatus
 814:Generated_Source\PSoC6\pdl\drivers/peripheral/scb/cy_scb_spi.h **** * function or assign mask for \ref Cy_SCB_SPI_ClearSlaveMasterStatus function.
 815:Generated_Source\PSoC6\pdl\drivers/peripheral/scb/cy_scb_spi.h **** */
 816:Generated_Source\PSoC6\pdl\drivers/peripheral/scb/cy_scb_spi.h **** /** The slave was deselected at the wrong time */
 817:Generated_Source\PSoC6\pdl\drivers/peripheral/scb/cy_scb_spi.h **** #define CY_SCB_SPI_SLAVE_ERR       (SCB_INTR_S_SPI_BUS_ERROR_Msk)
 818:Generated_Source\PSoC6\pdl\drivers/peripheral/scb/cy_scb_spi.h **** 
 819:Generated_Source\PSoC6\pdl\drivers/peripheral/scb/cy_scb_spi.h **** /** The master has transmitted all data elements from FIFO and shifter */
 820:Generated_Source\PSoC6\pdl\drivers/peripheral/scb/cy_scb_spi.h **** #define CY_SCB_SPI_MASTER_DONE     (SCB_INTR_M_SPI_DONE_Msk)
 821:Generated_Source\PSoC6\pdl\drivers/peripheral/scb/cy_scb_spi.h **** /** \} group_scb_spi_macros_master_slave_status */
 822:Generated_Source\PSoC6\pdl\drivers/peripheral/scb/cy_scb_spi.h **** 
 823:Generated_Source\PSoC6\pdl\drivers/peripheral/scb/cy_scb_spi.h **** /**
 824:Generated_Source\PSoC6\pdl\drivers/peripheral/scb/cy_scb_spi.h **** * \defgroup group_scb_spi_macros_xfer_status SPI Transfer Status
 825:Generated_Source\PSoC6\pdl\drivers/peripheral/scb/cy_scb_spi.h **** * \{
 826:Generated_Source\PSoC6\pdl\drivers/peripheral/scb/cy_scb_spi.h **** * Macros to check current SPI transfer status returned by 
 827:Generated_Source\PSoC6\pdl\drivers/peripheral/scb/cy_scb_spi.h **** * \ref Cy_SCB_SPI_GetTransferStatus function. 
 828:Generated_Source\PSoC6\pdl\drivers/peripheral/scb/cy_scb_spi.h **** * Each SPI transfer status is encoded in a separate bit, therefore multiple bits
 829:Generated_Source\PSoC6\pdl\drivers/peripheral/scb/cy_scb_spi.h **** * may be set to indicate the current status.
 830:Generated_Source\PSoC6\pdl\drivers/peripheral/scb/cy_scb_spi.h **** */
 831:Generated_Source\PSoC6\pdl\drivers/peripheral/scb/cy_scb_spi.h **** /**
 832:Generated_Source\PSoC6\pdl\drivers/peripheral/scb/cy_scb_spi.h **** * Transfer operation started by \ref Cy_SCB_SPI_Transfer is in progress
 833:Generated_Source\PSoC6\pdl\drivers/peripheral/scb/cy_scb_spi.h **** */
 834:Generated_Source\PSoC6\pdl\drivers/peripheral/scb/cy_scb_spi.h **** #define CY_SCB_SPI_TRANSFER_ACTIVE     (0x01UL)
 835:Generated_Source\PSoC6\pdl\drivers/peripheral/scb/cy_scb_spi.h **** 
ARM GAS  C:\Users\nicpa\AppData\Local\Temp\ccNzlYaQ.s 			page 37


 836:Generated_Source\PSoC6\pdl\drivers/peripheral/scb/cy_scb_spi.h **** /**
 837:Generated_Source\PSoC6\pdl\drivers/peripheral/scb/cy_scb_spi.h **** * All data elements specified by \ref Cy_SCB_SPI_Transfer for transmission
 838:Generated_Source\PSoC6\pdl\drivers/peripheral/scb/cy_scb_spi.h **** * have been loaded into the TX FIFO
 839:Generated_Source\PSoC6\pdl\drivers/peripheral/scb/cy_scb_spi.h **** */
 840:Generated_Source\PSoC6\pdl\drivers/peripheral/scb/cy_scb_spi.h **** #define CY_SCB_SPI_TRANSFER_IN_FIFO    (0x02UL)
 841:Generated_Source\PSoC6\pdl\drivers/peripheral/scb/cy_scb_spi.h **** 
 842:Generated_Source\PSoC6\pdl\drivers/peripheral/scb/cy_scb_spi.h **** /** The slave was deselected at the wrong time. */
 843:Generated_Source\PSoC6\pdl\drivers/peripheral/scb/cy_scb_spi.h **** #define CY_SCB_SPI_SLAVE_TRANSFER_ERR  (SCB_INTR_S_SPI_BUS_ERROR_Msk)
 844:Generated_Source\PSoC6\pdl\drivers/peripheral/scb/cy_scb_spi.h **** 
 845:Generated_Source\PSoC6\pdl\drivers/peripheral/scb/cy_scb_spi.h **** /**
 846:Generated_Source\PSoC6\pdl\drivers/peripheral/scb/cy_scb_spi.h **** * RX FIFO was full and there was an attempt to write to it.
 847:Generated_Source\PSoC6\pdl\drivers/peripheral/scb/cy_scb_spi.h **** * This additional data was dropped.
 848:Generated_Source\PSoC6\pdl\drivers/peripheral/scb/cy_scb_spi.h **** */
 849:Generated_Source\PSoC6\pdl\drivers/peripheral/scb/cy_scb_spi.h **** #define CY_SCB_SPI_TRANSFER_OVERFLOW   (SCB_INTR_RX_OVERFLOW_Msk)
 850:Generated_Source\PSoC6\pdl\drivers/peripheral/scb/cy_scb_spi.h **** 
 851:Generated_Source\PSoC6\pdl\drivers/peripheral/scb/cy_scb_spi.h **** /**
 852:Generated_Source\PSoC6\pdl\drivers/peripheral/scb/cy_scb_spi.h **** * Applicable only for the slave mode. The master tried to read more
 853:Generated_Source\PSoC6\pdl\drivers/peripheral/scb/cy_scb_spi.h **** * data elements than available in the TX FIFO.
 854:Generated_Source\PSoC6\pdl\drivers/peripheral/scb/cy_scb_spi.h **** */
 855:Generated_Source\PSoC6\pdl\drivers/peripheral/scb/cy_scb_spi.h **** #define CY_SCB_SPI_TRANSFER_UNDERFLOW  (SCB_INTR_TX_UNDERFLOW_Msk)
 856:Generated_Source\PSoC6\pdl\drivers/peripheral/scb/cy_scb_spi.h **** /** \} group_scb_spi_macros_xfer_status */
 857:Generated_Source\PSoC6\pdl\drivers/peripheral/scb/cy_scb_spi.h **** 
 858:Generated_Source\PSoC6\pdl\drivers/peripheral/scb/cy_scb_spi.h **** /**
 859:Generated_Source\PSoC6\pdl\drivers/peripheral/scb/cy_scb_spi.h **** * \defgroup group_scb_spi_macros_callback_events SPI Callback Events
 860:Generated_Source\PSoC6\pdl\drivers/peripheral/scb/cy_scb_spi.h **** * \{
 861:Generated_Source\PSoC6\pdl\drivers/peripheral/scb/cy_scb_spi.h **** * Macros to check SPI events passed by \ref cy_cb_scb_spi_handle_events_t callback.
 862:Generated_Source\PSoC6\pdl\drivers/peripheral/scb/cy_scb_spi.h **** * Note that only single event is notified by the callback when it is called.
 863:Generated_Source\PSoC6\pdl\drivers/peripheral/scb/cy_scb_spi.h **** */
 864:Generated_Source\PSoC6\pdl\drivers/peripheral/scb/cy_scb_spi.h **** /**
 865:Generated_Source\PSoC6\pdl\drivers/peripheral/scb/cy_scb_spi.h **** * All data elements specified by \ref Cy_SCB_SPI_Transfer for transmission
 866:Generated_Source\PSoC6\pdl\drivers/peripheral/scb/cy_scb_spi.h **** * have been loaded into the TX FIFO
 867:Generated_Source\PSoC6\pdl\drivers/peripheral/scb/cy_scb_spi.h **** */
 868:Generated_Source\PSoC6\pdl\drivers/peripheral/scb/cy_scb_spi.h **** #define CY_SCB_SPI_TRANSFER_IN_FIFO_EVENT  (0x01U)
 869:Generated_Source\PSoC6\pdl\drivers/peripheral/scb/cy_scb_spi.h **** 
 870:Generated_Source\PSoC6\pdl\drivers/peripheral/scb/cy_scb_spi.h **** /** The transfer operation started by \ref Cy_SCB_SPI_Transfer is complete */
 871:Generated_Source\PSoC6\pdl\drivers/peripheral/scb/cy_scb_spi.h **** #define CY_SCB_SPI_TRANSFER_CMPLT_EVENT    (0x02U)
 872:Generated_Source\PSoC6\pdl\drivers/peripheral/scb/cy_scb_spi.h **** 
 873:Generated_Source\PSoC6\pdl\drivers/peripheral/scb/cy_scb_spi.h **** /**
 874:Generated_Source\PSoC6\pdl\drivers/peripheral/scb/cy_scb_spi.h **** * An error occurred during the transfer. This includes overflow, underflow
 875:Generated_Source\PSoC6\pdl\drivers/peripheral/scb/cy_scb_spi.h **** * and a transfer error. Check \ref Cy_SCB_SPI_GetTransferStatus.
 876:Generated_Source\PSoC6\pdl\drivers/peripheral/scb/cy_scb_spi.h **** */
 877:Generated_Source\PSoC6\pdl\drivers/peripheral/scb/cy_scb_spi.h **** #define CY_SCB_SPI_TRANSFER_ERR_EVENT      (0x04U)
 878:Generated_Source\PSoC6\pdl\drivers/peripheral/scb/cy_scb_spi.h **** /** \} group_scb_spi_macros_callback_events */
 879:Generated_Source\PSoC6\pdl\drivers/peripheral/scb/cy_scb_spi.h **** 
 880:Generated_Source\PSoC6\pdl\drivers/peripheral/scb/cy_scb_spi.h **** 
 881:Generated_Source\PSoC6\pdl\drivers/peripheral/scb/cy_scb_spi.h **** /** Default TX value when no TX buffer is defined */
 882:Generated_Source\PSoC6\pdl\drivers/peripheral/scb/cy_scb_spi.h **** #define CY_SCB_SPI_DEFAULT_TX  (0x0000FFFFUL)
 883:Generated_Source\PSoC6\pdl\drivers/peripheral/scb/cy_scb_spi.h **** 
 884:Generated_Source\PSoC6\pdl\drivers/peripheral/scb/cy_scb_spi.h **** /** Data returned by the hardware when an empty RX FIFO is read */
 885:Generated_Source\PSoC6\pdl\drivers/peripheral/scb/cy_scb_spi.h **** #define CY_SCB_SPI_RX_NO_DATA  (0xFFFFFFFFUL)
 886:Generated_Source\PSoC6\pdl\drivers/peripheral/scb/cy_scb_spi.h **** 
 887:Generated_Source\PSoC6\pdl\drivers/peripheral/scb/cy_scb_spi.h **** 
 888:Generated_Source\PSoC6\pdl\drivers/peripheral/scb/cy_scb_spi.h **** /*******************************************************************************
 889:Generated_Source\PSoC6\pdl\drivers/peripheral/scb/cy_scb_spi.h **** *                          Internal Constants
 890:Generated_Source\PSoC6\pdl\drivers/peripheral/scb/cy_scb_spi.h **** *******************************************************************************/
 891:Generated_Source\PSoC6\pdl\drivers/peripheral/scb/cy_scb_spi.h **** 
 892:Generated_Source\PSoC6\pdl\drivers/peripheral/scb/cy_scb_spi.h **** /** \cond INTERNAL */
ARM GAS  C:\Users\nicpa\AppData\Local\Temp\ccNzlYaQ.s 			page 38


 893:Generated_Source\PSoC6\pdl\drivers/peripheral/scb/cy_scb_spi.h **** #define CY_SCB_SPI_RX_INTR_MASK  (CY_SCB_SPI_RX_TRIGGER  | CY_SCB_SPI_RX_NOT_EMPTY | CY_SCB_SPI_RX_
 894:Generated_Source\PSoC6\pdl\drivers/peripheral/scb/cy_scb_spi.h ****                                   CY_SCB_SPI_RX_OVERFLOW | CY_SCB_SPI_RX_UNDERFLOW)
 895:Generated_Source\PSoC6\pdl\drivers/peripheral/scb/cy_scb_spi.h **** 
 896:Generated_Source\PSoC6\pdl\drivers/peripheral/scb/cy_scb_spi.h **** #define CY_SCB_SPI_TX_INTR_MASK  (CY_SCB_SPI_TX_TRIGGER  | CY_SCB_SPI_TX_NOT_FULL | CY_SCB_SPI_TX_E
 897:Generated_Source\PSoC6\pdl\drivers/peripheral/scb/cy_scb_spi.h ****                                   CY_SCB_SPI_TX_OVERFLOW | CY_SCB_SPI_TX_UNDERFLOW)
 898:Generated_Source\PSoC6\pdl\drivers/peripheral/scb/cy_scb_spi.h **** 
 899:Generated_Source\PSoC6\pdl\drivers/peripheral/scb/cy_scb_spi.h **** #define CY_SCB_SPI_MASTER_SLAVE_INTR_MASK (CY_SCB_SPI_MASTER_DONE | CY_SCB_SPI_SLAVE_ERR)
 900:Generated_Source\PSoC6\pdl\drivers/peripheral/scb/cy_scb_spi.h **** 
 901:Generated_Source\PSoC6\pdl\drivers/peripheral/scb/cy_scb_spi.h **** #define CY_SCB_SPI_TRANSFER_ERR    (CY_SCB_SPI_SLAVE_TRANSFER_ERR | CY_SCB_SPI_TRANSFER_OVERFLOW | 
 902:Generated_Source\PSoC6\pdl\drivers/peripheral/scb/cy_scb_spi.h ****                                     CY_SCB_SPI_TRANSFER_UNDERFLOW)
 903:Generated_Source\PSoC6\pdl\drivers/peripheral/scb/cy_scb_spi.h **** 
 904:Generated_Source\PSoC6\pdl\drivers/peripheral/scb/cy_scb_spi.h **** #define CY_SCB_SPI_INIT_KEY        (0x00ABCDEFUL)
 905:Generated_Source\PSoC6\pdl\drivers/peripheral/scb/cy_scb_spi.h **** 
 906:Generated_Source\PSoC6\pdl\drivers/peripheral/scb/cy_scb_spi.h **** #define CY_SCB_SPI_IS_MODE_VALID(mode)          ( (CY_SCB_SPI_SLAVE  == (mode)) || \
 907:Generated_Source\PSoC6\pdl\drivers/peripheral/scb/cy_scb_spi.h ****                                                   (CY_SCB_SPI_MASTER == (mode)) )
 908:Generated_Source\PSoC6\pdl\drivers/peripheral/scb/cy_scb_spi.h **** 
 909:Generated_Source\PSoC6\pdl\drivers/peripheral/scb/cy_scb_spi.h **** #define CY_SCB_SPI_IS_SUB_MODE_VALID(subMode)   ( (CY_SCB_SPI_MOTOROLA     == (subMode)) || \
 910:Generated_Source\PSoC6\pdl\drivers/peripheral/scb/cy_scb_spi.h ****                                                   (CY_SCB_SPI_TI_COINCIDES == (subMode)) || \
 911:Generated_Source\PSoC6\pdl\drivers/peripheral/scb/cy_scb_spi.h ****                                                   (CY_SCB_SPI_TI_PRECEDES  == (subMode)) || \
 912:Generated_Source\PSoC6\pdl\drivers/peripheral/scb/cy_scb_spi.h ****                                                   (CY_SCB_SPI_NATIONAL     == (subMode)) )
 913:Generated_Source\PSoC6\pdl\drivers/peripheral/scb/cy_scb_spi.h **** 
 914:Generated_Source\PSoC6\pdl\drivers/peripheral/scb/cy_scb_spi.h **** #define CY_SCB_SPI_IS_SCLK_MODE_VALID(clkMode)  ( (CY_SCB_SPI_CPHA0_CPOL0 == (clkMode)) || \
 915:Generated_Source\PSoC6\pdl\drivers/peripheral/scb/cy_scb_spi.h ****                                                   (CY_SCB_SPI_CPHA0_CPOL1 == (clkMode)) || \
 916:Generated_Source\PSoC6\pdl\drivers/peripheral/scb/cy_scb_spi.h ****                                                   (CY_SCB_SPI_CPHA1_CPOL0 == (clkMode)) || \
 917:Generated_Source\PSoC6\pdl\drivers/peripheral/scb/cy_scb_spi.h ****                                                   (CY_SCB_SPI_CPHA1_CPOL1 == (clkMode)) )
 918:Generated_Source\PSoC6\pdl\drivers/peripheral/scb/cy_scb_spi.h **** 
 919:Generated_Source\PSoC6\pdl\drivers/peripheral/scb/cy_scb_spi.h **** #define CY_SCB_SPI_IS_POLARITY_VALID(polarity)  ( (CY_SCB_SPI_ACTIVE_LOW  == (polarity)) || \
 920:Generated_Source\PSoC6\pdl\drivers/peripheral/scb/cy_scb_spi.h ****                                                   (CY_SCB_SPI_ACTIVE_HIGH == (polarity)) )
 921:Generated_Source\PSoC6\pdl\drivers/peripheral/scb/cy_scb_spi.h **** 
 922:Generated_Source\PSoC6\pdl\drivers/peripheral/scb/cy_scb_spi.h **** #define CY_SCB_SPI_IS_SLAVE_SEL_VALID(ss)       ( (CY_SCB_SPI_SLAVE_SELECT0 == (ss)) || \
 923:Generated_Source\PSoC6\pdl\drivers/peripheral/scb/cy_scb_spi.h ****                                                   (CY_SCB_SPI_SLAVE_SELECT1 == (ss)) || \
 924:Generated_Source\PSoC6\pdl\drivers/peripheral/scb/cy_scb_spi.h ****                                                   (CY_SCB_SPI_SLAVE_SELECT2 == (ss)) || \
 925:Generated_Source\PSoC6\pdl\drivers/peripheral/scb/cy_scb_spi.h ****                                                   (CY_SCB_SPI_SLAVE_SELECT3 == (ss)) )
 926:Generated_Source\PSoC6\pdl\drivers/peripheral/scb/cy_scb_spi.h **** 
 927:Generated_Source\PSoC6\pdl\drivers/peripheral/scb/cy_scb_spi.h **** #define CY_SCB_SPI_IS_OVERSAMPLE_VALID(ovs, mode)   ( (CY_SCB_SPI_MASTER == (mode)) ? (((ovs) >= 2U
 928:Generated_Source\PSoC6\pdl\drivers/peripheral/scb/cy_scb_spi.h **** #define CY_SCB_SPI_IS_DATA_WIDTH_VALID(width)       ( ((width) >= 4UL) && ((width) <= 16UL) )
 929:Generated_Source\PSoC6\pdl\drivers/peripheral/scb/cy_scb_spi.h **** #define CY_SCB_SPI_IS_SS_POLARITY_VALID(polarity)   ( (0UL == ((polarity) & (~0x0FUL))) )
 930:Generated_Source\PSoC6\pdl\drivers/peripheral/scb/cy_scb_spi.h **** #define CY_SCB_SPI_IS_BUFFER_VALID(txBuffer, rxBuffer, size)  ( ((size) > 0UL)  && \
 931:Generated_Source\PSoC6\pdl\drivers/peripheral/scb/cy_scb_spi.h ****                                                                  (false == ((NULL == (txBuffer)) &&
 932:Generated_Source\PSoC6\pdl\drivers/peripheral/scb/cy_scb_spi.h **** 
 933:Generated_Source\PSoC6\pdl\drivers/peripheral/scb/cy_scb_spi.h **** #define CY_SCB_SPI_IS_BOTH_DATA_WIDTH_VALID(subMode, rxWidth, txWidth)  ( (CY_SCB_SPI_NATIONAL != (
 934:Generated_Source\PSoC6\pdl\drivers/peripheral/scb/cy_scb_spi.h ****                                                                                     ((rxWidth) == (
 935:Generated_Source\PSoC6\pdl\drivers/peripheral/scb/cy_scb_spi.h **** 
 936:Generated_Source\PSoC6\pdl\drivers/peripheral/scb/cy_scb_spi.h **** /** \endcond */
 937:Generated_Source\PSoC6\pdl\drivers/peripheral/scb/cy_scb_spi.h **** 
 938:Generated_Source\PSoC6\pdl\drivers/peripheral/scb/cy_scb_spi.h **** /** \} group_scb_spi_macros */
 939:Generated_Source\PSoC6\pdl\drivers/peripheral/scb/cy_scb_spi.h **** 
 940:Generated_Source\PSoC6\pdl\drivers/peripheral/scb/cy_scb_spi.h **** 
 941:Generated_Source\PSoC6\pdl\drivers/peripheral/scb/cy_scb_spi.h **** /*******************************************************************************
 942:Generated_Source\PSoC6\pdl\drivers/peripheral/scb/cy_scb_spi.h **** *                     In-line Function Implementation
 943:Generated_Source\PSoC6\pdl\drivers/peripheral/scb/cy_scb_spi.h **** *******************************************************************************/
 944:Generated_Source\PSoC6\pdl\drivers/peripheral/scb/cy_scb_spi.h **** 
 945:Generated_Source\PSoC6\pdl\drivers/peripheral/scb/cy_scb_spi.h **** /**
 946:Generated_Source\PSoC6\pdl\drivers/peripheral/scb/cy_scb_spi.h **** * \addtogroup group_scb_spi_general_functions
 947:Generated_Source\PSoC6\pdl\drivers/peripheral/scb/cy_scb_spi.h **** * \{
 948:Generated_Source\PSoC6\pdl\drivers/peripheral/scb/cy_scb_spi.h **** */
 949:Generated_Source\PSoC6\pdl\drivers/peripheral/scb/cy_scb_spi.h **** 
ARM GAS  C:\Users\nicpa\AppData\Local\Temp\ccNzlYaQ.s 			page 39


 950:Generated_Source\PSoC6\pdl\drivers/peripheral/scb/cy_scb_spi.h **** /*******************************************************************************
 951:Generated_Source\PSoC6\pdl\drivers/peripheral/scb/cy_scb_spi.h **** * Function Name: Cy_SCB_SPI_Enable
 952:Generated_Source\PSoC6\pdl\drivers/peripheral/scb/cy_scb_spi.h **** ****************************************************************************//**
 953:Generated_Source\PSoC6\pdl\drivers/peripheral/scb/cy_scb_spi.h **** *
 954:Generated_Source\PSoC6\pdl\drivers/peripheral/scb/cy_scb_spi.h **** * Enables the SCB block for the SPI operation.
 955:Generated_Source\PSoC6\pdl\drivers/peripheral/scb/cy_scb_spi.h **** *
 956:Generated_Source\PSoC6\pdl\drivers/peripheral/scb/cy_scb_spi.h **** * \param base
 957:Generated_Source\PSoC6\pdl\drivers/peripheral/scb/cy_scb_spi.h **** * The pointer to the SPI SCB instance.
 958:Generated_Source\PSoC6\pdl\drivers/peripheral/scb/cy_scb_spi.h **** *
 959:Generated_Source\PSoC6\pdl\drivers/peripheral/scb/cy_scb_spi.h **** *******************************************************************************/
 960:Generated_Source\PSoC6\pdl\drivers/peripheral/scb/cy_scb_spi.h **** __STATIC_INLINE void Cy_SCB_SPI_Enable(CySCB_Type *base)
 961:Generated_Source\PSoC6\pdl\drivers/peripheral/scb/cy_scb_spi.h **** {
 962:Generated_Source\PSoC6\pdl\drivers/peripheral/scb/cy_scb_spi.h ****     SCB_CTRL(base) |= SCB_CTRL_ENABLED_Msk;
 154              		.loc 4 962 0
 155 000e 2368     		ldr	r3, [r4]
 156 0010 43F00043 		orr	r3, r3, #-2147483648
 157 0014 2360     		str	r3, [r4]
 158              	.LVL8:
 159              	.LBE144:
 160              	.LBE143:
 161              	.LBB145:
 162              	.LBB146:
 163              		.file 5 "Generated_Source\\PSoC6\\pdl\\drivers/peripheral/gpio/cy_gpio.h"
   1:Generated_Source\PSoC6\pdl\drivers/peripheral/gpio/cy_gpio.h **** /***************************************************************************//**
   2:Generated_Source\PSoC6\pdl\drivers/peripheral/gpio/cy_gpio.h **** * \file cy_gpio.h
   3:Generated_Source\PSoC6\pdl\drivers/peripheral/gpio/cy_gpio.h **** * \version 1.20
   4:Generated_Source\PSoC6\pdl\drivers/peripheral/gpio/cy_gpio.h **** *
   5:Generated_Source\PSoC6\pdl\drivers/peripheral/gpio/cy_gpio.h **** * Provides an API declaration of the GPIO driver
   6:Generated_Source\PSoC6\pdl\drivers/peripheral/gpio/cy_gpio.h **** *
   7:Generated_Source\PSoC6\pdl\drivers/peripheral/gpio/cy_gpio.h **** ********************************************************************************
   8:Generated_Source\PSoC6\pdl\drivers/peripheral/gpio/cy_gpio.h **** * \copyright
   9:Generated_Source\PSoC6\pdl\drivers/peripheral/gpio/cy_gpio.h **** * Copyright 2016-2018, Cypress Semiconductor Corporation. All rights reserved.
  10:Generated_Source\PSoC6\pdl\drivers/peripheral/gpio/cy_gpio.h **** * You may use this file only in accordance with the license, terms, conditions,
  11:Generated_Source\PSoC6\pdl\drivers/peripheral/gpio/cy_gpio.h **** * disclaimers, and limitations in the end user license agreement accompanying
  12:Generated_Source\PSoC6\pdl\drivers/peripheral/gpio/cy_gpio.h **** * the software package with which this file was provided.
  13:Generated_Source\PSoC6\pdl\drivers/peripheral/gpio/cy_gpio.h **** *******************************************************************************/
  14:Generated_Source\PSoC6\pdl\drivers/peripheral/gpio/cy_gpio.h **** 
  15:Generated_Source\PSoC6\pdl\drivers/peripheral/gpio/cy_gpio.h **** /**
  16:Generated_Source\PSoC6\pdl\drivers/peripheral/gpio/cy_gpio.h **** * \addtogroup group_gpio
  17:Generated_Source\PSoC6\pdl\drivers/peripheral/gpio/cy_gpio.h **** * \{
  18:Generated_Source\PSoC6\pdl\drivers/peripheral/gpio/cy_gpio.h **** * The GPIO driver provides an API to configure and access device Input/Output pins.
  19:Generated_Source\PSoC6\pdl\drivers/peripheral/gpio/cy_gpio.h **** *
  20:Generated_Source\PSoC6\pdl\drivers/peripheral/gpio/cy_gpio.h **** * The functions and other declarations used in this driver are in cy_gpio.h. 
  21:Generated_Source\PSoC6\pdl\drivers/peripheral/gpio/cy_gpio.h **** * You can include cy_pdl.h (ModusToolbox only) to get access to all functions 
  22:Generated_Source\PSoC6\pdl\drivers/peripheral/gpio/cy_gpio.h **** * and declarations in the PDL.
  23:Generated_Source\PSoC6\pdl\drivers/peripheral/gpio/cy_gpio.h **** *
  24:Generated_Source\PSoC6\pdl\drivers/peripheral/gpio/cy_gpio.h **** * IO pins include all general purpose types such as GPIO, SIO, HSIO, AUXIO, and
  25:Generated_Source\PSoC6\pdl\drivers/peripheral/gpio/cy_gpio.h **** * their variants.
  26:Generated_Source\PSoC6\pdl\drivers/peripheral/gpio/cy_gpio.h **** *
  27:Generated_Source\PSoC6\pdl\drivers/peripheral/gpio/cy_gpio.h **** * Initialization can be performed either at the port level or by configuring the
  28:Generated_Source\PSoC6\pdl\drivers/peripheral/gpio/cy_gpio.h **** * individual pins. For efficient use of code space, port
  29:Generated_Source\PSoC6\pdl\drivers/peripheral/gpio/cy_gpio.h **** * configuration should be used in the field. Refer to the product device header files 
  30:Generated_Source\PSoC6\pdl\drivers/peripheral/gpio/cy_gpio.h **** * for the list of supported ports and pins.
  31:Generated_Source\PSoC6\pdl\drivers/peripheral/gpio/cy_gpio.h **** * 
  32:Generated_Source\PSoC6\pdl\drivers/peripheral/gpio/cy_gpio.h **** * - Single pin configuration is performed by using \ref Cy_GPIO_Pin_FastInit 
  33:Generated_Source\PSoC6\pdl\drivers/peripheral/gpio/cy_gpio.h **** *   (provide specific values) or \ref Cy_GPIO_Pin_Init (provide a filled
  34:Generated_Source\PSoC6\pdl\drivers/peripheral/gpio/cy_gpio.h **** *   cy_stc_gpio_pin_config_t structure).
ARM GAS  C:\Users\nicpa\AppData\Local\Temp\ccNzlYaQ.s 			page 40


  35:Generated_Source\PSoC6\pdl\drivers/peripheral/gpio/cy_gpio.h **** * - An entire port can be configured using \ref Cy_GPIO_Port_Init. Provide a filled 
  36:Generated_Source\PSoC6\pdl\drivers/peripheral/gpio/cy_gpio.h **** *   cy_stc_gpio_prt_config_t structure. The values in the structure are 
  37:Generated_Source\PSoC6\pdl\drivers/peripheral/gpio/cy_gpio.h **** *   bitfields representing the desired value for each pin in the port.
  38:Generated_Source\PSoC6\pdl\drivers/peripheral/gpio/cy_gpio.h **** * - Pin configuration and management is based on the port address and pin number.
  39:Generated_Source\PSoC6\pdl\drivers/peripheral/gpio/cy_gpio.h **** *   \ref Cy_GPIO_PortToAddr function can optionally be used to calculate the port
  40:Generated_Source\PSoC6\pdl\drivers/peripheral/gpio/cy_gpio.h **** *   address from the port number at run-time.
  41:Generated_Source\PSoC6\pdl\drivers/peripheral/gpio/cy_gpio.h **** *
  42:Generated_Source\PSoC6\pdl\drivers/peripheral/gpio/cy_gpio.h **** * Once the pin/port initialization is complete, each pin can be accessed by 
  43:Generated_Source\PSoC6\pdl\drivers/peripheral/gpio/cy_gpio.h **** * specifying the port (GPIO_PRT_Type) and the pin (0-7) in the provided API 
  44:Generated_Source\PSoC6\pdl\drivers/peripheral/gpio/cy_gpio.h **** * functions.
  45:Generated_Source\PSoC6\pdl\drivers/peripheral/gpio/cy_gpio.h **** *
  46:Generated_Source\PSoC6\pdl\drivers/peripheral/gpio/cy_gpio.h **** * \section group_gpio_configuration Configuration Considerations
  47:Generated_Source\PSoC6\pdl\drivers/peripheral/gpio/cy_gpio.h **** *
  48:Generated_Source\PSoC6\pdl\drivers/peripheral/gpio/cy_gpio.h **** * 1. Pin multiplexing is controlled through the High-Speed IO Matrix (HSIOM) selection.
  49:Generated_Source\PSoC6\pdl\drivers/peripheral/gpio/cy_gpio.h **** *    This allows the pin to connect to signal sources/sinks throughout the device,
  50:Generated_Source\PSoC6\pdl\drivers/peripheral/gpio/cy_gpio.h **** *    as defined by the pin HSIOM selection options (en_hsiom_sel_t).
  51:Generated_Source\PSoC6\pdl\drivers/peripheral/gpio/cy_gpio.h **** * 2. All pins are initialized to High-Z drive mode with HSIOM connected to CPU (SW
  52:Generated_Source\PSoC6\pdl\drivers/peripheral/gpio/cy_gpio.h **** *    control digital pin only) at Power-On-Reset(POR).
  53:Generated_Source\PSoC6\pdl\drivers/peripheral/gpio/cy_gpio.h **** * 3. Some API functions perform read-modify-write operations on shared port
  54:Generated_Source\PSoC6\pdl\drivers/peripheral/gpio/cy_gpio.h **** *    registers. These functions are not thread safe and care must be taken when
  55:Generated_Source\PSoC6\pdl\drivers/peripheral/gpio/cy_gpio.h **** *    called by the application.
  56:Generated_Source\PSoC6\pdl\drivers/peripheral/gpio/cy_gpio.h **** * 4. Digital input buffer provides a high-impedance buffer for the external 
  57:Generated_Source\PSoC6\pdl\drivers/peripheral/gpio/cy_gpio.h **** *    digital input. The input buffer is connected to the HSIOM for routing to 
  58:Generated_Source\PSoC6\pdl\drivers/peripheral/gpio/cy_gpio.h **** *    the CPU port registers and selected peripheral. Enabling the input 
  59:Generated_Source\PSoC6\pdl\drivers/peripheral/gpio/cy_gpio.h **** *    buffer provides possibility to read the pin state via the CPU.
  60:Generated_Source\PSoC6\pdl\drivers/peripheral/gpio/cy_gpio.h **** *    If pin is connected to an analog signal, the input buffer should be 
  61:Generated_Source\PSoC6\pdl\drivers/peripheral/gpio/cy_gpio.h **** *    disabled to avoid crowbar currents. For more information refer to device 
  62:Generated_Source\PSoC6\pdl\drivers/peripheral/gpio/cy_gpio.h **** *    TRM and the device datasheet.
  63:Generated_Source\PSoC6\pdl\drivers/peripheral/gpio/cy_gpio.h **** *
  64:Generated_Source\PSoC6\pdl\drivers/peripheral/gpio/cy_gpio.h **** * Multiple pins on a port can be updated using direct port register writes with an
  65:Generated_Source\PSoC6\pdl\drivers/peripheral/gpio/cy_gpio.h **** * appropriate port mask. An example is shown below, highlighting the different ways of 
  66:Generated_Source\PSoC6\pdl\drivers/peripheral/gpio/cy_gpio.h **** * configuring Port 1 pins using:
  67:Generated_Source\PSoC6\pdl\drivers/peripheral/gpio/cy_gpio.h **** * 
  68:Generated_Source\PSoC6\pdl\drivers/peripheral/gpio/cy_gpio.h **** * - Port output data register
  69:Generated_Source\PSoC6\pdl\drivers/peripheral/gpio/cy_gpio.h **** * - Port output data set register
  70:Generated_Source\PSoC6\pdl\drivers/peripheral/gpio/cy_gpio.h **** * - Port output data clear register
  71:Generated_Source\PSoC6\pdl\drivers/peripheral/gpio/cy_gpio.h **** *
  72:Generated_Source\PSoC6\pdl\drivers/peripheral/gpio/cy_gpio.h **** * \snippet gpio/gpio_v1_10_sut_01.cydsn/main_cm4.c Cy_GPIO_Snippet
  73:Generated_Source\PSoC6\pdl\drivers/peripheral/gpio/cy_gpio.h **** *
  74:Generated_Source\PSoC6\pdl\drivers/peripheral/gpio/cy_gpio.h **** * \section group_gpio_more_information More Information
  75:Generated_Source\PSoC6\pdl\drivers/peripheral/gpio/cy_gpio.h **** *
  76:Generated_Source\PSoC6\pdl\drivers/peripheral/gpio/cy_gpio.h **** * Refer to the technical reference manual (TRM) and the device datasheet.
  77:Generated_Source\PSoC6\pdl\drivers/peripheral/gpio/cy_gpio.h **** *
  78:Generated_Source\PSoC6\pdl\drivers/peripheral/gpio/cy_gpio.h **** * \section group_gpio_MISRA MISRA-C Compliance
  79:Generated_Source\PSoC6\pdl\drivers/peripheral/gpio/cy_gpio.h **** * The GPIO driver has the following specific deviations:
  80:Generated_Source\PSoC6\pdl\drivers/peripheral/gpio/cy_gpio.h **** *
  81:Generated_Source\PSoC6\pdl\drivers/peripheral/gpio/cy_gpio.h **** * <table class="doxtable">
  82:Generated_Source\PSoC6\pdl\drivers/peripheral/gpio/cy_gpio.h **** *   <tr>
  83:Generated_Source\PSoC6\pdl\drivers/peripheral/gpio/cy_gpio.h **** *     <th>MISRA Rule</th>
  84:Generated_Source\PSoC6\pdl\drivers/peripheral/gpio/cy_gpio.h **** *     <th>Rule Class (Required/Advisory)</th>
  85:Generated_Source\PSoC6\pdl\drivers/peripheral/gpio/cy_gpio.h **** *     <th>Rule Description</th>
  86:Generated_Source\PSoC6\pdl\drivers/peripheral/gpio/cy_gpio.h **** *     <th>Description of Deviation(s)</th>
  87:Generated_Source\PSoC6\pdl\drivers/peripheral/gpio/cy_gpio.h **** *   </tr>
  88:Generated_Source\PSoC6\pdl\drivers/peripheral/gpio/cy_gpio.h **** *   <tr>
  89:Generated_Source\PSoC6\pdl\drivers/peripheral/gpio/cy_gpio.h **** *     <td>11.4</td>
  90:Generated_Source\PSoC6\pdl\drivers/peripheral/gpio/cy_gpio.h **** *     <td>A</td>
  91:Generated_Source\PSoC6\pdl\drivers/peripheral/gpio/cy_gpio.h **** *     <td>A cast should not be performed between a pointer to object type and
ARM GAS  C:\Users\nicpa\AppData\Local\Temp\ccNzlYaQ.s 			page 41


  92:Generated_Source\PSoC6\pdl\drivers/peripheral/gpio/cy_gpio.h **** *         a different pointer to object type.</td>
  93:Generated_Source\PSoC6\pdl\drivers/peripheral/gpio/cy_gpio.h **** *     <td> This code is safe because the elements of both GPIO_PRT_V1_Type and GPIO_PRT_V2_Type 
