ARM GAS  C:\Users\nicpa\AppData\Local\Temp\ccJTz91h.s 			page 1


   1              		.syntax unified
   2              		.cpu cortex-m4
   3              		.eabi_attribute 27, 1
   4              		.fpu fpv4-sp-d16
   5              		.eabi_attribute 20, 1
   6              		.eabi_attribute 21, 1
   7              		.eabi_attribute 23, 3
   8              		.eabi_attribute 24, 1
   9              		.eabi_attribute 25, 1
  10              		.eabi_attribute 26, 1
  11              		.eabi_attribute 30, 1
  12              		.eabi_attribute 34, 1
  13              		.eabi_attribute 18, 4
  14              		.thumb
  15              		.syntax unified
  16              		.file	"GUI_X_RTOS.c"
  17              		.text
  18              	.Ltext0:
  19              		.cfi_sections	.debug_frame
  20              		.section	.text.GUI_X_GetTime,"ax",%progbits
  21              		.align	2
  22              		.global	GUI_X_GetTime
  23              		.thumb
  24              		.thumb_func
  25              		.type	GUI_X_GetTime, %function
  26              	GUI_X_GetTime:
  27              	.LFB137:
  28              		.file 1 "GUI_X_RTOS.c"
   1:GUI_X_RTOS.c  **** /*********************************************************************
   2:GUI_X_RTOS.c  **** *                SEGGER Microcontroller GmbH & Co. KG                *
   3:GUI_X_RTOS.c  **** *        Solutions for real time microcontroller applications        *
   4:GUI_X_RTOS.c  **** **********************************************************************
   5:GUI_X_RTOS.c  **** *                                                                    *
   6:GUI_X_RTOS.c  **** *        (c) 1996 - 2017  SEGGER Microcontroller GmbH & Co. KG       *
   7:GUI_X_RTOS.c  **** *                                                                    *
   8:GUI_X_RTOS.c  **** *        Internet: www.segger.com    Support:  support@segger.com    *
   9:GUI_X_RTOS.c  **** *                                                                    *
  10:GUI_X_RTOS.c  **** **********************************************************************
  11:GUI_X_RTOS.c  **** 
  12:GUI_X_RTOS.c  **** ** emWin V5.46 - Graphical user interface for embedded applications **
  13:GUI_X_RTOS.c  **** All  Intellectual Property rights  in the Software belongs to  SEGGER.
  14:GUI_X_RTOS.c  **** emWin is protected by  international copyright laws.  Knowledge of the
  15:GUI_X_RTOS.c  **** source code may not be used to write a similar product.  This file may
  16:GUI_X_RTOS.c  **** only be used in accordance with the following terms:
  17:GUI_X_RTOS.c  **** 
  18:GUI_X_RTOS.c  **** The software  has been licensed to  Cypress Semiconductor Corporation,
  19:GUI_X_RTOS.c  **** whose registered  office is situated  at 198 Champion Ct. San Jose, CA 
  20:GUI_X_RTOS.c  **** 95134 USA  solely for the  purposes of creating  libraries for Cypress
  21:GUI_X_RTOS.c  **** PSoC3 and  PSoC5 processor-based devices,  sublicensed and distributed
  22:GUI_X_RTOS.c  **** under  the  terms  and  conditions  of  the  Cypress  End User License
  23:GUI_X_RTOS.c  **** Agreement.
  24:GUI_X_RTOS.c  **** Full source code is available at: www.segger.com
  25:GUI_X_RTOS.c  **** 
  26:GUI_X_RTOS.c  **** We appreciate your understanding and fairness.
  27:GUI_X_RTOS.c  **** ----------------------------------------------------------------------
  28:GUI_X_RTOS.c  **** Licensing information
  29:GUI_X_RTOS.c  **** Licensor:                 SEGGER Microcontroller Systems LLC
ARM GAS  C:\Users\nicpa\AppData\Local\Temp\ccJTz91h.s 			page 2


  30:GUI_X_RTOS.c  **** Licensed to:              Cypress Semiconductor Corp, 198 Champion Ct., San Jose, CA 95134, USA
  31:GUI_X_RTOS.c  **** Licensed SEGGER software: emWin
  32:GUI_X_RTOS.c  **** License number:           GUI-00319
  33:GUI_X_RTOS.c  **** License model:            Services and License Agreement, signed June 10th, 2009
  34:GUI_X_RTOS.c  **** Licensed platform:        Any Cypress platform (Initial targets are: PSoC3, PSoC5)
  35:GUI_X_RTOS.c  **** ----------------------------------------------------------------------
  36:GUI_X_RTOS.c  **** Support and Update Agreement (SUA)
  37:GUI_X_RTOS.c  **** SUA period:               2009-06-12 - 2022-07-27
  38:GUI_X_RTOS.c  **** Contact to extend SUA:    sales@segger.com
  39:GUI_X_RTOS.c  **** ----------------------------------------------------------------------
  40:GUI_X_RTOS.c  **** File        : GUI_X_RTOS.c
  41:GUI_X_RTOS.c  **** Purpose     : Config / System dependent externals for GUI
  42:GUI_X_RTOS.c  **** ---------------------------END-OF-HEADER------------------------------
  43:GUI_X_RTOS.c  **** */
  44:GUI_X_RTOS.c  **** 
  45:GUI_X_RTOS.c  **** #include <stdio.h>
  46:GUI_X_RTOS.c  **** #include "FreeRTOS.h"
  47:GUI_X_RTOS.c  **** #include "semphr.h"
  48:GUI_X_RTOS.c  **** #include "task.h"
  49:GUI_X_RTOS.c  **** #include "GUI.h"
  50:GUI_X_RTOS.c  **** 
  51:GUI_X_RTOS.c  **** /*********************************************************************
  52:GUI_X_RTOS.c  **** *
  53:GUI_X_RTOS.c  **** *       Static data
  54:GUI_X_RTOS.c  **** *
  55:GUI_X_RTOS.c  **** **********************************************************************
  56:GUI_X_RTOS.c  **** */
  57:GUI_X_RTOS.c  **** static SemaphoreHandle_t _Semaphore;
  58:GUI_X_RTOS.c  **** 
  59:GUI_X_RTOS.c  **** /*********************************************************************
  60:GUI_X_RTOS.c  **** *
  61:GUI_X_RTOS.c  **** *       Public code
  62:GUI_X_RTOS.c  **** *
  63:GUI_X_RTOS.c  **** **********************************************************************
  64:GUI_X_RTOS.c  **** */
  65:GUI_X_RTOS.c  **** /*********************************************************************
  66:GUI_X_RTOS.c  **** *
  67:GUI_X_RTOS.c  **** *      Timing:
  68:GUI_X_RTOS.c  **** *                 GUI_GetTime()
  69:GUI_X_RTOS.c  **** *                 GUI_Delay(int)
  70:GUI_X_RTOS.c  **** 
  71:GUI_X_RTOS.c  ****   Some timing dependent routines require a GetTime
  72:GUI_X_RTOS.c  ****   and delay funtion. Default time unit (tick), normally is
  73:GUI_X_RTOS.c  ****   1 ms.
  74:GUI_X_RTOS.c  **** */
  75:GUI_X_RTOS.c  **** 
  76:GUI_X_RTOS.c  **** int GUI_X_GetTime(void) {
  29              		.loc 1 76 0
  30              		.cfi_startproc
  31              		@ args = 0, pretend = 0, frame = 0
  32              		@ frame_needed = 0, uses_anonymous_args = 0
  33 0000 08B5     		push	{r3, lr}
  34              		.cfi_def_cfa_offset 8
  35              		.cfi_offset 3, -8
  36              		.cfi_offset 14, -4
  77:GUI_X_RTOS.c  ****   return xTaskGetTickCount() * portTICK_PERIOD_MS;
  37              		.loc 1 77 0
ARM GAS  C:\Users\nicpa\AppData\Local\Temp\ccJTz91h.s 			page 3


  38 0002 FFF7FEFF 		bl	xTaskGetTickCount
  39              	.LVL0:
  78:GUI_X_RTOS.c  **** }
  40              		.loc 1 78 0
  41 0006 08BD     		pop	{r3, pc}
  42              		.cfi_endproc
  43              	.LFE137:
  44              		.size	GUI_X_GetTime, .-GUI_X_GetTime
  45              		.section	.text.GUI_X_Delay,"ax",%progbits
  46              		.align	2
  47              		.global	GUI_X_Delay
  48              		.thumb
  49              		.thumb_func
  50              		.type	GUI_X_Delay, %function
  51              	GUI_X_Delay:
  52              	.LFB138:
  79:GUI_X_RTOS.c  **** 
  80:GUI_X_RTOS.c  **** void GUI_X_Delay(int Period) {
  53              		.loc 1 80 0
  54              		.cfi_startproc
  55              		@ args = 0, pretend = 0, frame = 0
  56              		@ frame_needed = 0, uses_anonymous_args = 0
  57              	.LVL1:
  58 0000 08B5     		push	{r3, lr}
  59              		.cfi_def_cfa_offset 8
  60              		.cfi_offset 3, -8
  61              		.cfi_offset 14, -4
  81:GUI_X_RTOS.c  ****   vTaskDelay(Period / portTICK_PERIOD_MS);
  62              		.loc 1 81 0
  63 0002 FFF7FEFF 		bl	vTaskDelay
  64              	.LVL2:
  65 0006 08BD     		pop	{r3, pc}
  66              		.cfi_endproc
  67              	.LFE138:
  68              		.size	GUI_X_Delay, .-GUI_X_Delay
  69              		.section	.text.GUI_X_ExecIdle,"ax",%progbits
  70              		.align	2
  71              		.global	GUI_X_ExecIdle
  72              		.thumb
  73              		.thumb_func
  74              		.type	GUI_X_ExecIdle, %function
  75              	GUI_X_ExecIdle:
  76              	.LFB139:
  82:GUI_X_RTOS.c  **** }
  83:GUI_X_RTOS.c  **** 
  84:GUI_X_RTOS.c  **** /*********************************************************************
  85:GUI_X_RTOS.c  **** *
  86:GUI_X_RTOS.c  **** *       GUI_X_ExecIdle()
  87:GUI_X_RTOS.c  **** *
  88:GUI_X_RTOS.c  **** */
  89:GUI_X_RTOS.c  **** void GUI_X_ExecIdle(void) {
  77              		.loc 1 89 0
  78              		.cfi_startproc
  79              		@ args = 0, pretend = 0, frame = 0
  80              		@ frame_needed = 0, uses_anonymous_args = 0
  81 0000 08B5     		push	{r3, lr}
  82              		.cfi_def_cfa_offset 8
ARM GAS  C:\Users\nicpa\AppData\Local\Temp\ccJTz91h.s 			page 4


  83              		.cfi_offset 3, -8
  84              		.cfi_offset 14, -4
  90:GUI_X_RTOS.c  ****   vTaskDelay(1 / portTICK_PERIOD_MS);
  85              		.loc 1 90 0
  86 0002 0120     		movs	r0, #1
  87 0004 FFF7FEFF 		bl	vTaskDelay
  88              	.LVL3:
  89 0008 08BD     		pop	{r3, pc}
  90              		.cfi_endproc
  91              	.LFE139:
  92              		.size	GUI_X_ExecIdle, .-GUI_X_ExecIdle
  93 000a 00BF     		.section	.text.GUI_X_InitOS,"ax",%progbits
  94              		.align	2
  95              		.global	GUI_X_InitOS
  96              		.thumb
  97              		.thumb_func
  98              		.type	GUI_X_InitOS, %function
  99              	GUI_X_InitOS:
 100              	.LFB140:
  91:GUI_X_RTOS.c  **** }
  92:GUI_X_RTOS.c  **** 
  93:GUI_X_RTOS.c  **** /*********************************************************************
  94:GUI_X_RTOS.c  **** *
  95:GUI_X_RTOS.c  **** *      Multitasking:
  96:GUI_X_RTOS.c  **** *
  97:GUI_X_RTOS.c  **** *                 GUI_X_InitOS()
  98:GUI_X_RTOS.c  **** *                 GUI_X_GetTaskId()
  99:GUI_X_RTOS.c  **** *                 GUI_X_Lock()
 100:GUI_X_RTOS.c  **** *                 GUI_X_Unlock()
 101:GUI_X_RTOS.c  **** *
 102:GUI_X_RTOS.c  **** * Note:
 103:GUI_X_RTOS.c  **** *   The following routines are required only if emWin is used in a
 104:GUI_X_RTOS.c  **** *   true multi task environment, which means you have more than one
 105:GUI_X_RTOS.c  **** *   thread using the emWin API.
 106:GUI_X_RTOS.c  **** *   In this case the
 107:GUI_X_RTOS.c  **** *                       #define GUI_OS 1
 108:GUI_X_RTOS.c  **** *  needs to be in GUIConf.h
 109:GUI_X_RTOS.c  **** */
 110:GUI_X_RTOS.c  **** void GUI_X_InitOS(void)    { _Semaphore = xSemaphoreCreateMutex(); }
 101              		.loc 1 110 0
 102              		.cfi_startproc
 103              		@ args = 0, pretend = 0, frame = 0
 104              		@ frame_needed = 0, uses_anonymous_args = 0
 105 0000 08B5     		push	{r3, lr}
 106              		.cfi_def_cfa_offset 8
 107              		.cfi_offset 3, -8
 108              		.cfi_offset 14, -4
 109              		.loc 1 110 0
 110 0002 0120     		movs	r0, #1
 111 0004 FFF7FEFF 		bl	xQueueCreateMutex
 112              	.LVL4:
 113 0008 014B     		ldr	r3, .L9
 114 000a 1860     		str	r0, [r3]
 115 000c 08BD     		pop	{r3, pc}
 116              	.L10:
 117 000e 00BF     		.align	2
 118              	.L9:
ARM GAS  C:\Users\nicpa\AppData\Local\Temp\ccJTz91h.s 			page 5


 119 0010 00000000 		.word	.LANCHOR0
 120              		.cfi_endproc
 121              	.LFE140:
 122              		.size	GUI_X_InitOS, .-GUI_X_InitOS
 123              		.section	.text.GUI_X_Unlock,"ax",%progbits
 124              		.align	2
 125              		.global	GUI_X_Unlock
 126              		.thumb
 127              		.thumb_func
 128              		.type	GUI_X_Unlock, %function
 129              	GUI_X_Unlock:
 130              	.LFB141:
 111:GUI_X_RTOS.c  **** void GUI_X_Unlock(void)    { xSemaphoreGive(_Semaphore); }
 131              		.loc 1 111 0
 132              		.cfi_startproc
 133              		@ args = 0, pretend = 0, frame = 0
 134              		@ frame_needed = 0, uses_anonymous_args = 0
 135 0000 08B5     		push	{r3, lr}
 136              		.cfi_def_cfa_offset 8
 137              		.cfi_offset 3, -8
 138              		.cfi_offset 14, -4
 139              		.loc 1 111 0
 140 0002 0023     		movs	r3, #0
 141 0004 1A46     		mov	r2, r3
 142 0006 1946     		mov	r1, r3
 143 0008 0248     		ldr	r0, .L13
 144 000a 0068     		ldr	r0, [r0]
 145 000c FFF7FEFF 		bl	xQueueGenericSend
 146              	.LVL5:
 147 0010 08BD     		pop	{r3, pc}
 148              	.L14:
 149 0012 00BF     		.align	2
 150              	.L13:
 151 0014 00000000 		.word	.LANCHOR0
 152              		.cfi_endproc
 153              	.LFE141:
 154              		.size	GUI_X_Unlock, .-GUI_X_Unlock
 155              		.section	.text.GUI_X_Lock,"ax",%progbits
 156              		.align	2
 157              		.global	GUI_X_Lock
 158              		.thumb
 159              		.thumb_func
 160              		.type	GUI_X_Lock, %function
 161              	GUI_X_Lock:
 162              	.LFB142:
 112:GUI_X_RTOS.c  **** void GUI_X_Lock(void)      { xSemaphoreTake(_Semaphore, portMAX_DELAY);  }
 163              		.loc 1 112 0
 164              		.cfi_startproc
 165              		@ args = 0, pretend = 0, frame = 0
 166              		@ frame_needed = 0, uses_anonymous_args = 0
 167 0000 08B5     		push	{r3, lr}
 168              		.cfi_def_cfa_offset 8
 169              		.cfi_offset 3, -8
 170              		.cfi_offset 14, -4
 171              		.loc 1 112 0
 172 0002 4FF0FF31 		mov	r1, #-1
 173 0006 024B     		ldr	r3, .L17
ARM GAS  C:\Users\nicpa\AppData\Local\Temp\ccJTz91h.s 			page 6


 174 0008 1868     		ldr	r0, [r3]
 175 000a FFF7FEFF 		bl	xQueueSemaphoreTake
 176              	.LVL6:
 177 000e 08BD     		pop	{r3, pc}
 178              	.L18:
 179              		.align	2
 180              	.L17:
 181 0010 00000000 		.word	.LANCHOR0
 182              		.cfi_endproc
 183              	.LFE142:
 184              		.size	GUI_X_Lock, .-GUI_X_Lock
 185              		.section	.text.GUI_X_GetTaskId,"ax",%progbits
 186              		.align	2
 187              		.global	GUI_X_GetTaskId
 188              		.thumb
 189              		.thumb_func
 190              		.type	GUI_X_GetTaskId, %function
 191              	GUI_X_GetTaskId:
 192              	.LFB143:
 113:GUI_X_RTOS.c  **** U32  GUI_X_GetTaskId(void) { return (U32)xTaskGetCurrentTaskHandle(); }
 193              		.loc 1 113 0
 194              		.cfi_startproc
 195              		@ args = 0, pretend = 0, frame = 0
 196              		@ frame_needed = 0, uses_anonymous_args = 0
 197 0000 08B5     		push	{r3, lr}
 198              		.cfi_def_cfa_offset 8
 199              		.cfi_offset 3, -8
 200              		.cfi_offset 14, -4
 201              		.loc 1 113 0
 202 0002 FFF7FEFF 		bl	xTaskGetCurrentTaskHandle
 203              	.LVL7:
 204 0006 08BD     		pop	{r3, pc}
 205              		.cfi_endproc
 206              	.LFE143:
 207              		.size	GUI_X_GetTaskId, .-GUI_X_GetTaskId
 208              		.section	.text.GUI_X_Log,"ax",%progbits
 209              		.align	2
 210              		.global	GUI_X_Log
 211              		.thumb
 212              		.thumb_func
 213              		.type	GUI_X_Log, %function
 214              	GUI_X_Log:
 215              	.LFB144:
 114:GUI_X_RTOS.c  **** 
 115:GUI_X_RTOS.c  **** /*********************************************************************
 116:GUI_X_RTOS.c  **** *
 117:GUI_X_RTOS.c  **** *      Logging: OS dependent
 118:GUI_X_RTOS.c  **** 
 119:GUI_X_RTOS.c  **** Note:
 120:GUI_X_RTOS.c  ****   Logging is used in higher debug levels only. The typical target
 121:GUI_X_RTOS.c  ****   build does not use logging and does therefor not require any of
 122:GUI_X_RTOS.c  ****   the logging routines below. For a release build without logging
 123:GUI_X_RTOS.c  ****   the routines below may be eliminated to save some space.
 124:GUI_X_RTOS.c  ****   (If the linker is not function aware and eliminates unreferenced
 125:GUI_X_RTOS.c  ****   functions automatically)
 126:GUI_X_RTOS.c  **** 
 127:GUI_X_RTOS.c  **** */
ARM GAS  C:\Users\nicpa\AppData\Local\Temp\ccJTz91h.s 			page 7


 128:GUI_X_RTOS.c  **** #define OS_SendString(s) GUI_USE_PARA(s)
 129:GUI_X_RTOS.c  **** void GUI_X_Log     (const char *s) { GUI_USE_PARA(s); }
 216              		.loc 1 129 0
 217              		.cfi_startproc
 218              		@ args = 0, pretend = 0, frame = 0
 219              		@ frame_needed = 0, uses_anonymous_args = 0
 220              		@ link register save eliminated.
 221              	.LVL8:
 222 0000 7047     		bx	lr
 223              		.cfi_endproc
 224              	.LFE144:
 225              		.size	GUI_X_Log, .-GUI_X_Log
 226 0002 00BF     		.section	.text.GUI_X_Warn,"ax",%progbits
 227              		.align	2
 228              		.global	GUI_X_Warn
 229              		.thumb
 230              		.thumb_func
 231              		.type	GUI_X_Warn, %function
 232              	GUI_X_Warn:
 233              	.LFB145:
 130:GUI_X_RTOS.c  **** void GUI_X_Warn    (const char *s) { GUI_USE_PARA(s); }
 234              		.loc 1 130 0
 235              		.cfi_startproc
 236              		@ args = 0, pretend = 0, frame = 0
 237              		@ frame_needed = 0, uses_anonymous_args = 0
 238              		@ link register save eliminated.
 239              	.LVL9:
 240 0000 7047     		bx	lr
 241              		.cfi_endproc
 242              	.LFE145:
 243              		.size	GUI_X_Warn, .-GUI_X_Warn
 244 0002 00BF     		.section	.text.GUI_X_ErrorOut,"ax",%progbits
 245              		.align	2
 246              		.global	GUI_X_ErrorOut
 247              		.thumb
 248              		.thumb_func
 249              		.type	GUI_X_ErrorOut, %function
 250              	GUI_X_ErrorOut:
 251              	.LFB146:
 131:GUI_X_RTOS.c  **** void GUI_X_ErrorOut(const char *s) { GUI_USE_PARA(s); }
 252              		.loc 1 131 0
 253              		.cfi_startproc
 254              		@ args = 0, pretend = 0, frame = 0
 255              		@ frame_needed = 0, uses_anonymous_args = 0
 256              		@ link register save eliminated.
 257              	.LVL10:
 258 0000 7047     		bx	lr
 259              		.cfi_endproc
 260              	.LFE146:
 261              		.size	GUI_X_ErrorOut, .-GUI_X_ErrorOut
 262 0002 00BF     		.section	.text.GUI_X_Init,"ax",%progbits
 263              		.align	2
 264              		.global	GUI_X_Init
 265              		.thumb
 266              		.thumb_func
 267              		.type	GUI_X_Init, %function
 268              	GUI_X_Init:
ARM GAS  C:\Users\nicpa\AppData\Local\Temp\ccJTz91h.s 			page 8


 269              	.LFB147:
 132:GUI_X_RTOS.c  **** 
 133:GUI_X_RTOS.c  **** /*********************************************************************
 134:GUI_X_RTOS.c  **** *
 135:GUI_X_RTOS.c  **** *      GUI_X_Init()
 136:GUI_X_RTOS.c  **** *
 137:GUI_X_RTOS.c  **** * Note:
 138:GUI_X_RTOS.c  **** *   This routine is called from GUI_Init() in any case whether there
 139:GUI_X_RTOS.c  **** *   is an RTOS or not. You can use it for additional initializations
 140:GUI_X_RTOS.c  **** *   needed.
 141:GUI_X_RTOS.c  **** */
 142:GUI_X_RTOS.c  **** 
 143:GUI_X_RTOS.c  **** void GUI_X_Init(void) {
 270              		.loc 1 143 0
 271              		.cfi_startproc
 272              		@ args = 0, pretend = 0, frame = 0
 273              		@ frame_needed = 0, uses_anonymous_args = 0
 274              		@ link register save eliminated.
 275 0000 7047     		bx	lr
 276              		.cfi_endproc
 277              	.LFE147:
 278              		.size	GUI_X_Init, .-GUI_X_Init
 279 0002 00BF     		.bss
 280              		.align	2
 281              		.set	.LANCHOR0,. + 0
 282              		.type	_Semaphore, %object
 283              		.size	_Semaphore, 4
 284              	_Semaphore:
 285 0000 00000000 		.space	4
 286              		.text
 287              	.Letext0:
 288              		.file 2 "c:\\program files (x86)\\cypress\\psoc creator\\4.4\\psoc creator\\import\\gnu\\arm\\5.4.
 289              		.file 3 "c:\\program files (x86)\\cypress\\psoc creator\\4.4\\psoc creator\\import\\gnu\\arm\\5.4.
 290              		.file 4 "Generated_Source\\PSoC6\\pdl\\rtos/FreeRTOS/10.0.1/Source/portable/GCC/CM4F/portmacro.h"
 291              		.file 5 "Generated_Source\\PSoC6\\pdl\\rtos/FreeRTOS/10.0.1/Source/include/queue.h"
 292              		.file 6 "Generated_Source\\PSoC6\\pdl\\rtos/FreeRTOS/10.0.1/Source/include/semphr.h"
 293              		.file 7 "Generated_Source\\PSoC6\\pdl\\rtos/FreeRTOS/10.0.1/Source/include/task.h"
 294              		.file 8 ".\\CMSIS\\Core\\Include/core_cm4.h"