ARM GAS  C:\Users\nicpa\AppData\Local\Temp\ccVDkpUd.s 			page 1


   1              		.syntax unified
   2              		.cpu cortex-m4
   3              		.eabi_attribute 27, 1
   4              		.fpu fpv4-sp-d16
   5              		.eabi_attribute 20, 1
   6              		.eabi_attribute 21, 1
   7              		.eabi_attribute 23, 3
   8              		.eabi_attribute 24, 1
   9              		.eabi_attribute 25, 1
  10              		.eabi_attribute 26, 1
  11              		.eabi_attribute 30, 1
  12              		.eabi_attribute 34, 1
  13              		.eabi_attribute 18, 4
  14              		.thumb
  15              		.syntax unified
  16              		.file	"LCDConf.c"
  17              		.text
  18              	.Ltext0:
  19              		.cfi_sections	.debug_frame
  20              		.section	.text.LCD_X_Config,"ax",%progbits
  21              		.align	2
  22              		.global	LCD_X_Config
  23              		.thumb
  24              		.thumb_func
  25              		.type	LCD_X_Config, %function
  26              	LCD_X_Config:
  27              	.LFB132:
  28              		.file 1 "LCDConf.c"
   1:LCDConf.c     **** /*********************************************************************
   2:LCDConf.c     **** *                SEGGER Microcontroller GmbH & Co. KG                *
   3:LCDConf.c     **** *        Solutions for real time microcontroller applications        *
   4:LCDConf.c     **** **********************************************************************
   5:LCDConf.c     **** *                                                                    *
   6:LCDConf.c     **** *        (c) 1996 - 2017  SEGGER Microcontroller GmbH & Co. KG       *
   7:LCDConf.c     **** *                                                                    *
   8:LCDConf.c     **** *        Internet: www.segger.com    Support:  support@segger.com    *
   9:LCDConf.c     **** *                                                                    *
  10:LCDConf.c     **** **********************************************************************
  11:LCDConf.c     **** 
  12:LCDConf.c     **** ** emWin V5.46 - Graphical user interface for embedded applications **
  13:LCDConf.c     **** All  Intellectual Property rights  in the Software belongs to  SEGGER.
  14:LCDConf.c     **** emWin is protected by  international copyright laws.  Knowledge of the
  15:LCDConf.c     **** source code may not be used to write a similar product.  This file may
  16:LCDConf.c     **** only be used in accordance with the following terms:
  17:LCDConf.c     **** 
  18:LCDConf.c     **** The software  has been licensed to  Cypress Semiconductor Corporation,
  19:LCDConf.c     **** whose registered  office is situated  at 198 Champion Ct. San Jose, CA 
  20:LCDConf.c     **** 95134 USA  solely for the  purposes of creating  libraries for Cypress
  21:LCDConf.c     **** PSoC3 and  PSoC5 processor-based devices,  sublicensed and distributed
  22:LCDConf.c     **** under  the  terms  and  conditions  of  the  Cypress  End User License
  23:LCDConf.c     **** Agreement.
  24:LCDConf.c     **** Full source code is available at: www.segger.com
  25:LCDConf.c     **** 
  26:LCDConf.c     **** We appreciate your understanding and fairness.
  27:LCDConf.c     **** ----------------------------------------------------------------------
  28:LCDConf.c     **** Licensing information
  29:LCDConf.c     **** Licensor:                 SEGGER Microcontroller Systems LLC
ARM GAS  C:\Users\nicpa\AppData\Local\Temp\ccVDkpUd.s 			page 2


  30:LCDConf.c     **** Licensed to:              Cypress Semiconductor Corp, 198 Champion Ct., San Jose, CA 95134, USA
  31:LCDConf.c     **** Licensed SEGGER software: emWin
  32:LCDConf.c     **** License number:           GUI-00319
  33:LCDConf.c     **** License model:            Services and License Agreement, signed June 10th, 2009
  34:LCDConf.c     **** Licensed platform:        Any Cypress platform (Initial targets are: PSoC3, PSoC5)
  35:LCDConf.c     **** ----------------------------------------------------------------------
  36:LCDConf.c     **** Support and Update Agreement (SUA)
  37:LCDConf.c     **** SUA period:               2009-06-12 - 2022-07-27
  38:LCDConf.c     **** Contact to extend SUA:    sales@segger.com
  39:LCDConf.c     **** ----------------------------------------------------------------------
  40:LCDConf.c     **** File        : LCDConf.c
  41:LCDConf.c     **** Purpose     : Display configuration file for GUIDRV_Bitplains to be
  42:LCDConf.c     ****               used without any display controller. This implementation
  43:LCDConf.c     ****               has been written and tested with the RSKR32C111 with
  44:LCDConf.c     ****               Visualization Add On.
  45:LCDConf.c     **** ---------------------------END-OF-HEADER------------------------------
  46:LCDConf.c     **** */
  47:LCDConf.c     **** 
  48:LCDConf.c     **** #include <stddef.h>
  49:LCDConf.c     **** #include "syslib/cy_syslib.h"
  50:LCDConf.c     **** 
  51:LCDConf.c     **** #include "GUI.h"
  52:LCDConf.c     **** 
  53:LCDConf.c     **** #include "GUIDRV_BitPlains.h"
  54:LCDConf.c     **** 
  55:LCDConf.c     **** /*********************************************************************
  56:LCDConf.c     **** *
  57:LCDConf.c     **** *       Layer configuration
  58:LCDConf.c     **** *
  59:LCDConf.c     **** **********************************************************************
  60:LCDConf.c     **** */
  61:LCDConf.c     **** //
  62:LCDConf.c     **** // Physical display size
  63:LCDConf.c     **** //
  64:LCDConf.c     **** #define XSIZE_PHYS 264
  65:LCDConf.c     **** #define YSIZE_PHYS 176
  66:LCDConf.c     **** 
  67:LCDConf.c     **** //
  68:LCDConf.c     **** // Initial color conversion API
  69:LCDConf.c     **** //
  70:LCDConf.c     **** #define COLOR_CONVERSION GUICC_1
  71:LCDConf.c     **** 
  72:LCDConf.c     **** /*********************************************************************
  73:LCDConf.c     **** *
  74:LCDConf.c     **** *       Configuration checking
  75:LCDConf.c     **** *
  76:LCDConf.c     **** **********************************************************************
  77:LCDConf.c     **** */
  78:LCDConf.c     **** //
  79:LCDConf.c     **** // Checking display driver configuration
  80:LCDConf.c     **** //
  81:LCDConf.c     **** #ifndef   XSIZE_PHYS
  82:LCDConf.c     ****   #error Physical X size of display is not defined!
  83:LCDConf.c     **** #endif
  84:LCDConf.c     **** #ifndef   YSIZE_PHYS
  85:LCDConf.c     ****   #error Physical Y size of display is not defined!
  86:LCDConf.c     **** #endif
ARM GAS  C:\Users\nicpa\AppData\Local\Temp\ccVDkpUd.s 			page 3


  87:LCDConf.c     **** #ifndef   COLOR_CONVERSION
  88:LCDConf.c     ****   #error Color conversion not defined!
  89:LCDConf.c     **** #endif
  90:LCDConf.c     **** 
  91:LCDConf.c     **** //
  92:LCDConf.c     **** // Number of bytes per line
  93:LCDConf.c     **** //
  94:LCDConf.c     **** #define BYTES_PER_LINE ((XSIZE_PHYS + 7) >> 3)
  95:LCDConf.c     **** 
  96:LCDConf.c     **** /*********************************************************************
  97:LCDConf.c     **** *
  98:LCDConf.c     **** *       Static data
  99:LCDConf.c     **** *
 100:LCDConf.c     **** **********************************************************************
 101:LCDConf.c     **** */
 102:LCDConf.c     **** //
 103:LCDConf.c     **** // Data arrays to be used by the display driver
 104:LCDConf.c     **** //
 105:LCDConf.c     **** static U8 _aPlain_0[BYTES_PER_LINE * YSIZE_PHYS];
 106:LCDConf.c     **** 
 107:LCDConf.c     **** //
 108:LCDConf.c     **** // Structure to be passed to the driver
 109:LCDConf.c     **** //
 110:LCDConf.c     **** static struct {
 111:LCDConf.c     ****   U8 * apVRAM[8];
 112:LCDConf.c     **** } _VRAM_Desc = {{
 113:LCDConf.c     ****   _aPlain_0,
 114:LCDConf.c     **** }};
 115:LCDConf.c     **** 
 116:LCDConf.c     **** /*********************************************************************
 117:LCDConf.c     **** *
 118:LCDConf.c     **** *       Public code
 119:LCDConf.c     **** *
 120:LCDConf.c     **** **********************************************************************
 121:LCDConf.c     **** */
 122:LCDConf.c     **** /*********************************************************************
 123:LCDConf.c     **** *
 124:LCDConf.c     **** *       LCD_X_Config
 125:LCDConf.c     **** *
 126:LCDConf.c     **** * Purpose:
 127:LCDConf.c     **** *   Called during the initialization process in order to set up the
 128:LCDConf.c     **** *   display driver configuration.
 129:LCDConf.c     **** *   
 130:LCDConf.c     **** */
 131:LCDConf.c     **** void LCD_X_Config(void) {
  29              		.loc 1 131 0
  30              		.cfi_startproc
  31              		@ args = 0, pretend = 0, frame = 8
  32              		@ frame_needed = 0, uses_anonymous_args = 0
  33 0000 10B5     		push	{r4, lr}
  34              		.cfi_def_cfa_offset 8
  35              		.cfi_offset 4, -8
  36              		.cfi_offset 14, -4
  37 0002 82B0     		sub	sp, sp, #8
  38              		.cfi_def_cfa_offset 16
 132:LCDConf.c     **** 	
 133:LCDConf.c     **** 	GUI_DEVICE * pDevice;
ARM GAS  C:\Users\nicpa\AppData\Local\Temp\ccVDkpUd.s 			page 4


 134:LCDConf.c     **** 	CONFIG_BITPLAINS Config;
 135:LCDConf.c     **** 	
 136:LCDConf.c     **** 	Config.Mirror = 1;
  39              		.loc 1 136 0
  40 0004 02AC     		add	r4, sp, #8
  41 0006 0123     		movs	r3, #1
  42 0008 44F8043D 		str	r3, [r4, #-4]!
 137:LCDConf.c     **** 	
 138:LCDConf.c     **** 	
 139:LCDConf.c     ****   //
 140:LCDConf.c     ****   // Set display driver and color conversion for 1st layer
 141:LCDConf.c     ****   //
 142:LCDConf.c     ****   pDevice = GUI_DEVICE_CreateAndLink(GUIDRV_BITPLAINS, COLOR_CONVERSION, 0, 0);
  43              		.loc 1 142 0
  44 000c 0023     		movs	r3, #0
  45 000e 1A46     		mov	r2, r3
  46 0010 1449     		ldr	r1, .L5
  47 0012 1548     		ldr	r0, .L5+4
  48 0014 FFF7FEFF 		bl	GUI_DEVICE_CreateAndLink
  49              	.LVL0:
 143:LCDConf.c     ****   GUIDRV_BitPlains_Config(pDevice, &Config);
  50              		.loc 1 143 0
  51 0018 2146     		mov	r1, r4
  52 001a FFF7FEFF 		bl	GUIDRV_BitPlains_Config
  53              	.LVL1:
 144:LCDConf.c     **** 
 145:LCDConf.c     ****   //
 146:LCDConf.c     ****   // Display driver configuration
 147:LCDConf.c     ****   //
 148:LCDConf.c     ****   if (LCD_GetSwapXY()) {
  54              		.loc 1 148 0
  55 001e FFF7FEFF 		bl	LCD_GetSwapXY
  56              	.LVL2:
  57 0022 60B1     		cbz	r0, .L2
 149:LCDConf.c     ****     LCD_SetSizeEx (0, YSIZE_PHYS, XSIZE_PHYS);
  58              		.loc 1 149 0
  59 0024 4FF48472 		mov	r2, #264
  60 0028 B021     		movs	r1, #176
  61 002a 0020     		movs	r0, #0
  62 002c FFF7FEFF 		bl	LCD_SetSizeEx
  63              	.LVL3:
 150:LCDConf.c     ****     LCD_SetVSizeEx(0, YSIZE_PHYS, XSIZE_PHYS);
  64              		.loc 1 150 0
  65 0030 4FF48472 		mov	r2, #264
  66 0034 B021     		movs	r1, #176
  67 0036 0020     		movs	r0, #0
  68 0038 FFF7FEFF 		bl	LCD_SetVSizeEx
  69              	.LVL4:
  70 003c 0BE0     		b	.L3
  71              	.L2:
 151:LCDConf.c     ****   } else {
 152:LCDConf.c     ****     LCD_SetSizeEx (0, XSIZE_PHYS, YSIZE_PHYS);
  72              		.loc 1 152 0
  73 003e B022     		movs	r2, #176
  74 0040 4FF48471 		mov	r1, #264
  75 0044 0020     		movs	r0, #0
  76 0046 FFF7FEFF 		bl	LCD_SetSizeEx
ARM GAS  C:\Users\nicpa\AppData\Local\Temp\ccVDkpUd.s 			page 5


  77              	.LVL5:
 153:LCDConf.c     ****     LCD_SetVSizeEx(0, XSIZE_PHYS, YSIZE_PHYS);
  78              		.loc 1 153 0
  79 004a B022     		movs	r2, #176
  80 004c 4FF48471 		mov	r1, #264
  81 0050 0020     		movs	r0, #0
  82 0052 FFF7FEFF 		bl	LCD_SetVSizeEx
  83              	.LVL6:
  84              	.L3:
 154:LCDConf.c     ****   }
 155:LCDConf.c     ****   //
 156:LCDConf.c     ****   // Initialize VRAM access off driver
 157:LCDConf.c     ****   //
 158:LCDConf.c     ****   LCD_SetVRAMAddrEx(0, (void *)&_VRAM_Desc);
  85              		.loc 1 158 0
  86 0056 0549     		ldr	r1, .L5+8
  87 0058 0020     		movs	r0, #0
  88 005a FFF7FEFF 		bl	LCD_SetVRAMAddrEx
  89              	.LVL7:
 159:LCDConf.c     **** }
  90              		.loc 1 159 0
  91 005e 02B0     		add	sp, sp, #8
  92              		.cfi_def_cfa_offset 8
  93              		@ sp needed
  94 0060 10BD     		pop	{r4, pc}
  95              	.L6:
  96 0062 00BF     		.align	2
  97              	.L5:
  98 0064 00000000 		.word	LCD_API_ColorConv_1
  99 0068 00000000 		.word	GUIDRV_BitPlains_API
 100 006c 00000000 		.word	.LANCHOR0
 101              		.cfi_endproc
 102              	.LFE132:
 103              		.size	LCD_X_Config, .-LCD_X_Config
 104              		.section	.text.LCD_X_DisplayDriver,"ax",%progbits
 105              		.align	2
 106              		.global	LCD_X_DisplayDriver
 107              		.thumb
 108              		.thumb_func
 109              		.type	LCD_X_DisplayDriver, %function
 110              	LCD_X_DisplayDriver:
 111              	.LFB133:
 160:LCDConf.c     **** 
 161:LCDConf.c     **** /*********************************************************************
 162:LCDConf.c     **** *
 163:LCDConf.c     **** *       LCD_X_DisplayDriver
 164:LCDConf.c     **** *
 165:LCDConf.c     **** * Purpose:
 166:LCDConf.c     **** *   This function is called by the display driver for several purposes.
 167:LCDConf.c     **** *   To support the according task the routine needs to be adapted to
 168:LCDConf.c     **** *   the display controller. Please note that the commands marked with
 169:LCDConf.c     **** *   'optional' are not cogently required and should only be adapted if 
 170:LCDConf.c     **** *   the display controller supports these features.
 171:LCDConf.c     **** *
 172:LCDConf.c     **** * Parameter:
 173:LCDConf.c     **** *   LayerIndex - Index of layer to be configured
 174:LCDConf.c     **** *   Cmd        - Please refer to the details in the switch statement below
ARM GAS  C:\Users\nicpa\AppData\Local\Temp\ccVDkpUd.s 			page 6


 175:LCDConf.c     **** *   pData      - Pointer to a LCD_X_DATA structure
 176:LCDConf.c     **** *
 177:LCDConf.c     **** * Return Value:
 178:LCDConf.c     **** *   < -1 - Error
 179:LCDConf.c     **** *     -1 - Command not handled
 180:LCDConf.c     **** *      0 - Ok
 181:LCDConf.c     **** */
 182:LCDConf.c     **** int LCD_X_DisplayDriver(unsigned LayerIndex, unsigned Cmd, void * p) {
 112              		.loc 1 182 0
 113              		.cfi_startproc
 114              		@ args = 0, pretend = 0, frame = 0
 115              		@ frame_needed = 0, uses_anonymous_args = 0
 116              		@ link register save eliminated.
 117              	.LVL8:
 183:LCDConf.c     ****   int r;
 184:LCDConf.c     ****   GUI_USE_PARA(LayerIndex);
 185:LCDConf.c     ****   GUI_USE_PARA(p);
 186:LCDConf.c     **** 
 187:LCDConf.c     ****   switch (Cmd) {
 118              		.loc 1 187 0
 119 0000 0129     		cmp	r1, #1
 120 0002 01D1     		bne	.L11
 188:LCDConf.c     ****   case LCD_X_INITCONTROLLER: {
 189:LCDConf.c     **** 	//
 190:LCDConf.c     ****     // Called during the initialization process in order to set up the
 191:LCDConf.c     ****     // display controller and put it into operation. If the display
 192:LCDConf.c     ****     // controller is not initialized by any external routine this needs
 193:LCDConf.c     ****     // to be adapted by the customer...
 194:LCDConf.c     ****     //
 195:LCDConf.c     ****     return 0;
 121              		.loc 1 195 0
 122 0004 0020     		movs	r0, #0
 123              	.LVL9:
 124 0006 7047     		bx	lr
 125              	.LVL10:
 126              	.L11:
 196:LCDConf.c     ****   }
 197:LCDConf.c     ****   default:
 198:LCDConf.c     ****     r = -1;
 199:LCDConf.c     ****   }
 200:LCDConf.c     ****   return r;
 127              		.loc 1 200 0
 128 0008 4FF0FF30 		mov	r0, #-1
 129              	.LVL11:
 201:LCDConf.c     **** }
 130              		.loc 1 201 0
 131 000c 7047     		bx	lr
 132              		.cfi_endproc
 133              	.LFE133:
 134              		.size	LCD_X_DisplayDriver, .-LCD_X_DisplayDriver
 135 000e 00BF     		.section	.text.LCD_GetDisplayBuffer,"ax",%progbits
 136              		.align	2
 137              		.global	LCD_GetDisplayBuffer
 138              		.thumb
 139              		.thumb_func
 140              		.type	LCD_GetDisplayBuffer, %function
 141              	LCD_GetDisplayBuffer:
ARM GAS  C:\Users\nicpa\AppData\Local\Temp\ccVDkpUd.s 			page 7


 142              	.LFB134:
 202:LCDConf.c     **** 
 203:LCDConf.c     **** /*********************************************************************
 204:LCDConf.c     **** *
 205:LCDConf.c     **** *       LCD_GetDisplayBuffer
 206:LCDConf.c     **** *
 207:LCDConf.c     **** * Purpose:
 208:LCDConf.c     **** *   This function returns the pointer to EmWin's dispay buffer
 209:LCDConf.c     **** 
 210:LCDConf.c     **** * Parameter:
 211:LCDConf.c     **** *   None
 212:LCDConf.c     **** *
 213:LCDConf.c     **** * Return Value:
 214:LCDConf.c     **** *   U8* - Pointer to the EmWin's display buffer
 215:LCDConf.c     **** */
 216:LCDConf.c     **** U8* LCD_GetDisplayBuffer(void)
 217:LCDConf.c     **** {
 143              		.loc 1 217 0
 144              		.cfi_startproc
 145              		@ args = 0, pretend = 0, frame = 0
 146              		@ frame_needed = 0, uses_anonymous_args = 0
 147              		@ link register save eliminated.
 218:LCDConf.c     ****   /* Copy the Bitplains display buffer to user memory */
 219:LCDConf.c     ****   return _aPlain_0;
 220:LCDConf.c     **** }
 148              		.loc 1 220 0
 149 0000 0048     		ldr	r0, .L13
 150 0002 7047     		bx	lr
 151              	.L14:
 152              		.align	2
 153              	.L13:
 154 0004 00000000 		.word	.LANCHOR1
 155              		.cfi_endproc
 156              	.LFE134:
 157              		.size	LCD_GetDisplayBuffer, .-LCD_GetDisplayBuffer
 158              		.data
 159              		.align	2
 160              		.set	.LANCHOR0,. + 0
 161              		.type	_VRAM_Desc, %object
 162              		.size	_VRAM_Desc, 32
 163              	_VRAM_Desc:
 164 0000 00000000 		.word	_aPlain_0
 165 0004 00000000 		.space	28
 165      00000000 
 165      00000000 
 165      00000000 
 165      00000000 
 166              		.bss
 167              		.align	2
 168              		.set	.LANCHOR1,. + 0
 169              		.type	_aPlain_0, %object
 170              		.size	_aPlain_0, 5808
 171              	_aPlain_0:
 172 0000 00000000 		.space	5808
 172      00000000 
 172      00000000 
 172      00000000 
ARM GAS  C:\Users\nicpa\AppData\Local\Temp\ccVDkpUd.s 			page 8


 172      00000000 
 173              		.text
 174              	.Letext0:
 175              		.file 2 "c:\\program files (x86)\\cypress\\psoc creator\\4.4\\psoc creator\\import\\gnu\\arm\\5.4.
 176              		.file 3 "c:\\program files (x86)\\cypress\\psoc creator\\4.4\\psoc creator\\import\\gnu\\arm\\5.4.
 177              		.file 4 "Generated_Source\\PSoC6\\pdl\\middleware/emWin/code/include/LCD.h"
 178              		.file 5 "Generated_Source\\PSoC6\\pdl\\middleware/emWin/code/include/GUI.h"
 179              		.file 6 "Generated_Source\\PSoC6\\pdl\\middleware/emWin/code/drivers/BitPlains/GUIDRV_BitPlains.h"
 180              		.file 7 ".\\CMSIS\\Core\\Include/core_cm4.h"