ARM GAS  C:\Users\nicpa\AppData\Local\Temp\ccPr5feD.s 			page 1


   1              		.syntax unified
   2              		.cpu cortex-m4
   3              		.eabi_attribute 27, 1
   4              		.fpu fpv4-sp-d16
   5              		.eabi_attribute 20, 1
   6              		.eabi_attribute 21, 1
   7              		.eabi_attribute 23, 3
   8              		.eabi_attribute 24, 1
   9              		.eabi_attribute 25, 1
  10              		.eabi_attribute 26, 1
  11              		.eabi_attribute 30, 1
  12              		.eabi_attribute 34, 1
  13              		.eabi_attribute 18, 4
  14              		.thumb
  15              		.syntax unified
  16              		.file	"LED_task.c"
  17              		.text
  18              	.Ltext0:
  19              		.cfi_sections	.debug_frame
  20              		.section	.text.updateMenu,"ax",%progbits
  21              		.align	2
  22              		.global	updateMenu
  23              		.thumb
  24              		.thumb_func
  25              		.type	updateMenu, %function
  26              	updateMenu:
  27              	.LFB699:
  28              		.file 1 "LED_task.c"
   1:LED_task.c    **** /* ========================================
   2:LED_task.c    ****  *
   3:LED_task.c    **** 
   4:LED_task.c    ****  *
   5:LED_task.c    ****  * ========================================
   6:LED_task.c    **** */
   7:LED_task.c    **** 
   8:LED_task.c    **** #include "LED_task.h"
   9:LED_task.c    **** 
  10:LED_task.c    **** //uint32_t red_example[]={99513,98160,99413,98419,99319,98729,99145,99050,98949,99419,98798,99851,9
  11:LED_task.c    **** //uint32_t ir_example[]={99513,98160,99413,98419,99319,98729,99145,99050,98949,99419,98798,99851,98
  12:LED_task.c    **** 
  13:LED_task.c    **** 
  14:LED_task.c    **** /*******************************************************************************
  15:LED_task.c    **** * Function Name: void updateMenu(int n)
  16:LED_task.c    **** ********************************************************************************
  17:LED_task.c    **** *
  18:LED_task.c    **** * Summary:  
  19:LED_task.c    **** * Elle met à jour l’affichage du menu sur l’écran en fonction du numéro d’option appelé. 
  20:LED_task.c    **** * correspondant à ce numéro sera la seule en gras. 
  21:LED_task.c    **** *
  22:LED_task.c    **** * Parameters:
  23:LED_task.c    **** *  int n : numéro de l’option (sur 4)
  24:LED_task.c    **** *
  25:LED_task.c    **** * Return:
  26:LED_task.c    **** *  None
  27:LED_task.c    **** *
  28:LED_task.c    **** * Side Effects:
  29:LED_task.c    **** *  L’écran prend quelque temps avant de s’actualiser.
ARM GAS  C:\Users\nicpa\AppData\Local\Temp\ccPr5feD.s 			page 2


  30:LED_task.c    **** *
  31:LED_task.c    **** *******************************************************************************/
  32:LED_task.c    **** 
  33:LED_task.c    **** void updateMenu(int n){
  29              		.loc 1 33 0
  30              		.cfi_startproc
  31              		@ args = 0, pretend = 0, frame = 0
  32              		@ frame_needed = 0, uses_anonymous_args = 0
  33              	.LVL0:
  34 0000 10B5     		push	{r4, lr}
  35              		.cfi_def_cfa_offset 8
  36              		.cfi_offset 4, -8
  37              		.cfi_offset 14, -4
  38 0002 0446     		mov	r4, r0
  34:LED_task.c    ****     
  35:LED_task.c    ****     GUI_Clear();
  39              		.loc 1 35 0
  40 0004 FFF7FEFF 		bl	GUI_Clear
  41              	.LVL1:
  36:LED_task.c    ****     
  37:LED_task.c    ****     GUI_SetPenSize(2);
  42              		.loc 1 37 0
  43 0008 0220     		movs	r0, #2
  44 000a FFF7FEFF 		bl	GUI_SetPenSize
  45              	.LVL2:
  38:LED_task.c    ****     GUI_SetColor(GUI_BLACK);
  46              		.loc 1 38 0
  47 000e 0020     		movs	r0, #0
  48 0010 FFF7FEFF 		bl	GUI_SetColor
  49              	.LVL3:
  39:LED_task.c    ****     GUI_SetBkColor(GUI_WHITE);
  50              		.loc 1 39 0
  51 0014 6FF07F40 		mvn	r0, #-16777216
  52 0018 FFF7FEFF 		bl	GUI_SetBkColor
  53              	.LVL4:
  40:LED_task.c    ****     
  41:LED_task.c    ****     
  42:LED_task.c    ****     //Rectangle
  43:LED_task.c    ****     GUI_DrawRect(1,1,263,175);
  54              		.loc 1 43 0
  55 001c AF23     		movs	r3, #175
  56 001e 40F20712 		movw	r2, #263
  57 0022 0121     		movs	r1, #1
  58 0024 0846     		mov	r0, r1
  59 0026 FFF7FEFF 		bl	GUI_DrawRect
  60              	.LVL5:
  44:LED_task.c    ****     
  45:LED_task.c    **** 
  46:LED_task.c    ****     GUI_SetPenSize(2);
  61              		.loc 1 46 0
  62 002a 0220     		movs	r0, #2
  63 002c FFF7FEFF 		bl	GUI_SetPenSize
  64              	.LVL6:
  47:LED_task.c    ****     GUI_DrawLine(95,30,170,30);
  65              		.loc 1 47 0
  66 0030 1E23     		movs	r3, #30
  67 0032 AA22     		movs	r2, #170
ARM GAS  C:\Users\nicpa\AppData\Local\Temp\ccPr5feD.s 			page 3


  68 0034 1946     		mov	r1, r3
  69 0036 5F20     		movs	r0, #95
  70 0038 FFF7FEFF 		bl	GUI_DrawLine
  71              	.LVL7:
  48:LED_task.c    ****     
  49:LED_task.c    ****     GUI_SetColor(GUI_BLACK);
  72              		.loc 1 49 0
  73 003c 0020     		movs	r0, #0
  74 003e FFF7FEFF 		bl	GUI_SetColor
  75              	.LVL8:
  50:LED_task.c    ****     GUI_SetBkColor(GUI_WHITE);
  76              		.loc 1 50 0
  77 0042 6FF07F40 		mvn	r0, #-16777216
  78 0046 FFF7FEFF 		bl	GUI_SetBkColor
  79              	.LVL9:
  51:LED_task.c    ****     
  52:LED_task.c    ****     //Write MENU
  53:LED_task.c    ****     GUI_SetFont(GUI_FONT_24B_1);
  80              		.loc 1 53 0
  81 004a 4848     		ldr	r0, .L9
  82 004c FFF7FEFF 		bl	GUI_SetFont
  83              	.LVL10:
  54:LED_task.c    ****     GUI_SetTextAlign(GUI_TA_CENTER);
  84              		.loc 1 54 0
  85 0050 0220     		movs	r0, #2
  86 0052 FFF7FEFF 		bl	GUI_SetTextAlign
  87              	.LVL11:
  55:LED_task.c    ****     GUI_DispStringAt("MENU",135 ,5);
  88              		.loc 1 55 0
  89 0056 0522     		movs	r2, #5
  90 0058 8721     		movs	r1, #135
  91 005a 4548     		ldr	r0, .L9+4
  92 005c FFF7FEFF 		bl	GUI_DispStringAt
  93              	.LVL12:
  56:LED_task.c    ****     
  57:LED_task.c    ****     
  58:LED_task.c    ****     GUI_SetFont(GUI_FONT_16_1);
  94              		.loc 1 58 0
  95 0060 4448     		ldr	r0, .L9+8
  96 0062 FFF7FEFF 		bl	GUI_SetFont
  97              	.LVL13:
  59:LED_task.c    ****     if(alerte)
  98              		.loc 1 59 0
  99 0066 444B     		ldr	r3, .L9+12
 100 0068 1B78     		ldrb	r3, [r3]	@ zero_extendqisi2
 101 006a 2BB1     		cbz	r3, .L2
  60:LED_task.c    ****     {
  61:LED_task.c    ****         GUI_DispStringAt("A",250 ,155);
 102              		.loc 1 61 0
 103 006c 9B22     		movs	r2, #155
 104 006e FA21     		movs	r1, #250
 105 0070 4248     		ldr	r0, .L9+16
 106 0072 FFF7FEFF 		bl	GUI_DispStringAt
 107              	.LVL14:
 108 0076 04E0     		b	.L3
 109              	.L2:
  62:LED_task.c    ****     }
ARM GAS  C:\Users\nicpa\AppData\Local\Temp\ccPr5feD.s 			page 4


  63:LED_task.c    ****     else
  64:LED_task.c    ****     {
  65:LED_task.c    ****         GUI_DispStringAt("D",250 ,155);
 110              		.loc 1 65 0
 111 0078 9B22     		movs	r2, #155
 112 007a FA21     		movs	r1, #250
 113 007c 4048     		ldr	r0, .L9+20
 114 007e FFF7FEFF 		bl	GUI_DispStringAt
 115              	.LVL15:
 116              	.L3:
  66:LED_task.c    ****     }
  67:LED_task.c    ****     
  68:LED_task.c    ****     
  69:LED_task.c    ****     
  70:LED_task.c    ****     //Write options
  71:LED_task.c    ****     if(n == 1)
 117              		.loc 1 71 0
 118 0082 012C     		cmp	r4, #1
 119 0084 19D1     		bne	.L4
  72:LED_task.c    ****     {
  73:LED_task.c    ****         GUI_SetFont(GUI_FONT_16B_1);
 120              		.loc 1 73 0
 121 0086 3F48     		ldr	r0, .L9+24
 122 0088 FFF7FEFF 		bl	GUI_SetFont
 123              	.LVL16:
  74:LED_task.c    ****         GUI_DispStringAt("Show oxygenated signal",40 ,40);
 124              		.loc 1 74 0
 125 008c 2822     		movs	r2, #40
 126 008e 1146     		mov	r1, r2
 127 0090 3D48     		ldr	r0, .L9+28
 128 0092 FFF7FEFF 		bl	GUI_DispStringAt
 129              	.LVL17:
  75:LED_task.c    ****         GUI_SetFont(GUI_FONT_16_1);
 130              		.loc 1 75 0
 131 0096 3748     		ldr	r0, .L9+8
 132 0098 FFF7FEFF 		bl	GUI_SetFont
 133              	.LVL18:
  76:LED_task.c    ****         GUI_DispStringAt("Show non-oxygenated signal",40 ,75);
 134              		.loc 1 76 0
 135 009c 4B22     		movs	r2, #75
 136 009e 2821     		movs	r1, #40
 137 00a0 3A48     		ldr	r0, .L9+32
 138 00a2 FFF7FEFF 		bl	GUI_DispStringAt
 139              	.LVL19:
  77:LED_task.c    ****         GUI_DispStringAt("Change intensity of LED",40 ,110);
 140              		.loc 1 77 0
 141 00a6 6E22     		movs	r2, #110
 142 00a8 2821     		movs	r1, #40
 143 00aa 3948     		ldr	r0, .L9+36
 144 00ac FFF7FEFF 		bl	GUI_DispStringAt
 145              	.LVL20:
  78:LED_task.c    ****         GUI_DispStringAt("Change the heart rate interval",40 ,145);
 146              		.loc 1 78 0
 147 00b0 9122     		movs	r2, #145
 148 00b2 2821     		movs	r1, #40
 149 00b4 3748     		ldr	r0, .L9+40
 150 00b6 FFF7FEFF 		bl	GUI_DispStringAt
ARM GAS  C:\Users\nicpa\AppData\Local\Temp\ccPr5feD.s 			page 5


 151              	.LVL21:
 152              	.L4:
  79:LED_task.c    ****     }
  80:LED_task.c    ****     if(n == 2)
 153              		.loc 1 80 0
 154 00ba 022C     		cmp	r4, #2
 155 00bc 19D1     		bne	.L5
  81:LED_task.c    ****     {
  82:LED_task.c    ****         GUI_SetFont(GUI_FONT_16B_1);
 156              		.loc 1 82 0
 157 00be 3148     		ldr	r0, .L9+24
 158 00c0 FFF7FEFF 		bl	GUI_SetFont
 159              	.LVL22:
  83:LED_task.c    ****         GUI_DispStringAt("Show non-oxygenated signal",40 ,75);
 160              		.loc 1 83 0
 161 00c4 4B22     		movs	r2, #75
 162 00c6 2821     		movs	r1, #40
 163 00c8 3048     		ldr	r0, .L9+32
 164 00ca FFF7FEFF 		bl	GUI_DispStringAt
 165              	.LVL23:
  84:LED_task.c    ****         GUI_SetFont(GUI_FONT_16_1);
 166              		.loc 1 84 0
 167 00ce 2948     		ldr	r0, .L9+8
 168 00d0 FFF7FEFF 		bl	GUI_SetFont
 169              	.LVL24:
  85:LED_task.c    ****         GUI_DispStringAt("Show oxygenated signal",40 ,40);
 170              		.loc 1 85 0
 171 00d4 2822     		movs	r2, #40
 172 00d6 1146     		mov	r1, r2
 173 00d8 2B48     		ldr	r0, .L9+28
 174 00da FFF7FEFF 		bl	GUI_DispStringAt
 175              	.LVL25:
  86:LED_task.c    ****         GUI_DispStringAt("Change intensity of LED",40 ,110);
 176              		.loc 1 86 0
 177 00de 6E22     		movs	r2, #110
 178 00e0 2821     		movs	r1, #40
 179 00e2 2B48     		ldr	r0, .L9+36
 180 00e4 FFF7FEFF 		bl	GUI_DispStringAt
 181              	.LVL26:
  87:LED_task.c    ****         GUI_DispStringAt("Change the heart rate interval",40 ,145);
 182              		.loc 1 87 0
 183 00e8 9122     		movs	r2, #145
 184 00ea 2821     		movs	r1, #40
 185 00ec 2948     		ldr	r0, .L9+40
 186 00ee FFF7FEFF 		bl	GUI_DispStringAt
 187              	.LVL27:
 188              	.L5:
  88:LED_task.c    ****     }
  89:LED_task.c    ****     if(n == 3)
 189              		.loc 1 89 0
 190 00f2 032C     		cmp	r4, #3
 191 00f4 19D1     		bne	.L6
  90:LED_task.c    ****     {
  91:LED_task.c    ****         GUI_SetFont(GUI_FONT_16B_1);
 192              		.loc 1 91 0
 193 00f6 2348     		ldr	r0, .L9+24
 194 00f8 FFF7FEFF 		bl	GUI_SetFont
ARM GAS  C:\Users\nicpa\AppData\Local\Temp\ccPr5feD.s 			page 6


 195              	.LVL28:
  92:LED_task.c    ****         GUI_DispStringAt("Change intensity of LED",40 ,110); 
 196              		.loc 1 92 0
 197 00fc 6E22     		movs	r2, #110
 198 00fe 2821     		movs	r1, #40
 199 0100 2348     		ldr	r0, .L9+36
 200 0102 FFF7FEFF 		bl	GUI_DispStringAt
 201              	.LVL29:
  93:LED_task.c    ****         GUI_SetFont(GUI_FONT_16_1);
 202              		.loc 1 93 0
 203 0106 1B48     		ldr	r0, .L9+8
 204 0108 FFF7FEFF 		bl	GUI_SetFont
 205              	.LVL30:
  94:LED_task.c    ****         GUI_DispStringAt("Show oxygenated signal",40 ,40);
 206              		.loc 1 94 0
 207 010c 2822     		movs	r2, #40
 208 010e 1146     		mov	r1, r2
 209 0110 1D48     		ldr	r0, .L9+28
 210 0112 FFF7FEFF 		bl	GUI_DispStringAt
 211              	.LVL31:
  95:LED_task.c    ****         GUI_DispStringAt("Show non-oxygenated signal",40 ,75);
 212              		.loc 1 95 0
 213 0116 4B22     		movs	r2, #75
 214 0118 2821     		movs	r1, #40
 215 011a 1C48     		ldr	r0, .L9+32
 216 011c FFF7FEFF 		bl	GUI_DispStringAt
 217              	.LVL32:
  96:LED_task.c    ****         GUI_DispStringAt("Change the heart rate interval",40 ,145);
 218              		.loc 1 96 0
 219 0120 9122     		movs	r2, #145
 220 0122 2821     		movs	r1, #40
 221 0124 1B48     		ldr	r0, .L9+40
 222 0126 FFF7FEFF 		bl	GUI_DispStringAt
 223              	.LVL33:
 224              	.L6:
  97:LED_task.c    ****     }
  98:LED_task.c    ****     if(n == 4)
 225              		.loc 1 98 0
 226 012a 042C     		cmp	r4, #4
 227 012c 19D1     		bne	.L7
  99:LED_task.c    ****     {
 100:LED_task.c    ****         GUI_SetFont(GUI_FONT_16_1);
 228              		.loc 1 100 0
 229 012e 1148     		ldr	r0, .L9+8
 230 0130 FFF7FEFF 		bl	GUI_SetFont
 231              	.LVL34:
 101:LED_task.c    ****         GUI_DispStringAt("Show oxygenated signal",40 ,40);
 232              		.loc 1 101 0
 233 0134 2822     		movs	r2, #40
 234 0136 1146     		mov	r1, r2
 235 0138 1348     		ldr	r0, .L9+28
 236 013a FFF7FEFF 		bl	GUI_DispStringAt
 237              	.LVL35:
 102:LED_task.c    ****         GUI_DispStringAt("Show non-oxygenated signal",40 ,75);
 238              		.loc 1 102 0
 239 013e 4B22     		movs	r2, #75
 240 0140 2821     		movs	r1, #40
ARM GAS  C:\Users\nicpa\AppData\Local\Temp\ccPr5feD.s 			page 7


 241 0142 1248     		ldr	r0, .L9+32
 242 0144 FFF7FEFF 		bl	GUI_DispStringAt
 243              	.LVL36:
 103:LED_task.c    ****         GUI_DispStringAt("Change intensity of LED",40 ,110);
 244              		.loc 1 103 0
 245 0148 6E22     		movs	r2, #110
 246 014a 2821     		movs	r1, #40
 247 014c 1048     		ldr	r0, .L9+36
 248 014e FFF7FEFF 		bl	GUI_DispStringAt
 249              	.LVL37:
 104:LED_task.c    ****         GUI_SetFont(GUI_FONT_16B_1);
 250              		.loc 1 104 0
 251 0152 0C48     		ldr	r0, .L9+24
 252 0154 FFF7FEFF 		bl	GUI_SetFont
 253              	.LVL38:
 105:LED_task.c    ****         GUI_DispStringAt("Change the heart rate interval",40 ,145);
 254              		.loc 1 105 0
 255 0158 9122     		movs	r2, #145
 256 015a 2821     		movs	r1, #40
 257 015c 0D48     		ldr	r0, .L9+40
 258 015e FFF7FEFF 		bl	GUI_DispStringAt
 259              	.LVL39:
 260              	.L7:
 106:LED_task.c    ****     }
 107:LED_task.c    ****     
 108:LED_task.c    ****     
 109:LED_task.c    ****     UpdateDisplay(CY_EINK_FULL_2STAGE, true);
 261              		.loc 1 109 0
 262 0162 0121     		movs	r1, #1
 263 0164 0220     		movs	r0, #2
 264 0166 FFF7FEFF 		bl	UpdateDisplay
 265              	.LVL40:
 266 016a 10BD     		pop	{r4, pc}
 267              	.LVL41:
 268              	.L10:
 269              		.align	2
 270              	.L9:
 271 016c 00000000 		.word	GUI_Font24B_1
 272 0170 00000000 		.word	.LC0
 273 0174 00000000 		.word	GUI_Font16_1
 274 0178 00000000 		.word	alerte
 275 017c 08000000 		.word	.LC1
 276 0180 0C000000 		.word	.LC2
 277 0184 00000000 		.word	GUI_Font16B_1
 278 0188 10000000 		.word	.LC3
 279 018c 28000000 		.word	.LC4
 280 0190 44000000 		.word	.LC5
 281 0194 5C000000 		.word	.LC6
 282              		.cfi_endproc
 283              	.LFE699:
 284              		.size	updateMenu, .-updateMenu
 285              		.section	.text.updateLED,"ax",%progbits
 286              		.align	2
 287              		.global	updateLED
 288              		.thumb
 289              		.thumb_func
 290              		.type	updateLED, %function
ARM GAS  C:\Users\nicpa\AppData\Local\Temp\ccPr5feD.s 			page 8


 291              	updateLED:
 292              	.LFB700:
 110:LED_task.c    ****     
 111:LED_task.c    **** }
 112:LED_task.c    **** 
 113:LED_task.c    **** 
 114:LED_task.c    **** 
 115:LED_task.c    **** /*******************************************************************************
 116:LED_task.c    **** * Function Name: void updateLED(void)
 117:LED_task.c    **** ********************************************************************************
 118:LED_task.c    **** *
 119:LED_task.c    **** * Summary:  
 120:LED_task.c    **** * Elle met à jour l’affichage de la page LED sur l’écran. Principalement, elle affiche la var
 121:LED_task.c    **** * l’intensité de la LED.
 122:LED_task.c    **** *
 123:LED_task.c    **** * Parameters:
 124:LED_task.c    **** *  None
 125:LED_task.c    **** *
 126:LED_task.c    **** * Return:
 127:LED_task.c    **** *  None
 128:LED_task.c    **** *
 129:LED_task.c    **** * Side Effects:
 130:LED_task.c    **** *  L’écran prend quelque temps avant de s’actualiser.
 131:LED_task.c    **** *
 132:LED_task.c    **** *******************************************************************************/
 133:LED_task.c    **** 
 134:LED_task.c    **** void updateLED(){
 293              		.loc 1 134 0
 294              		.cfi_startproc
 295              		@ args = 0, pretend = 0, frame = 8
 296              		@ frame_needed = 0, uses_anonymous_args = 0
 297 0000 10B5     		push	{r4, lr}
 298              		.cfi_def_cfa_offset 8
 299              		.cfi_offset 4, -8
 300              		.cfi_offset 14, -4
 301 0002 82B0     		sub	sp, sp, #8
 302              		.cfi_def_cfa_offset 16
 135:LED_task.c    ****    
 136:LED_task.c    ****     GUI_Clear();
 303              		.loc 1 136 0
 304 0004 FFF7FEFF 		bl	GUI_Clear
 305              	.LVL42:
 137:LED_task.c    ****     
 138:LED_task.c    ****     GUI_SetPenSize(2);
 306              		.loc 1 138 0
 307 0008 0220     		movs	r0, #2
 308 000a FFF7FEFF 		bl	GUI_SetPenSize
 309              	.LVL43:
 139:LED_task.c    ****     GUI_SetColor(GUI_BLACK);
 310              		.loc 1 139 0
 311 000e 0020     		movs	r0, #0
 312 0010 FFF7FEFF 		bl	GUI_SetColor
 313              	.LVL44:
 140:LED_task.c    ****     GUI_SetBkColor(GUI_WHITE);
 314              		.loc 1 140 0
 315 0014 6FF07F40 		mvn	r0, #-16777216
 316 0018 FFF7FEFF 		bl	GUI_SetBkColor
ARM GAS  C:\Users\nicpa\AppData\Local\Temp\ccPr5feD.s 			page 9


 317              	.LVL45:
 141:LED_task.c    ****     
 142:LED_task.c    ****     //Rectangle
 143:LED_task.c    ****     GUI_DrawRect(1,1,263,175);
 318              		.loc 1 143 0
 319 001c AF23     		movs	r3, #175
 320 001e 40F20712 		movw	r2, #263
 321 0022 0121     		movs	r1, #1
 322 0024 0846     		mov	r0, r1
 323 0026 FFF7FEFF 		bl	GUI_DrawRect
 324              	.LVL46:
 144:LED_task.c    ****     GUI_DrawRect(95,70,160,120);
 325              		.loc 1 144 0
 326 002a 7823     		movs	r3, #120
 327 002c A022     		movs	r2, #160
 328 002e 4621     		movs	r1, #70
 329 0030 5F20     		movs	r0, #95
 330 0032 FFF7FEFF 		bl	GUI_DrawRect
 331              	.LVL47:
 145:LED_task.c    **** 
 146:LED_task.c    ****     
 147:LED_task.c    ****     GUI_SetFont(GUI_FONT_16_1);
 332              		.loc 1 147 0
 333 0036 1348     		ldr	r0, .L13
 334 0038 FFF7FEFF 		bl	GUI_SetFont
 335              	.LVL48:
 148:LED_task.c    ****     GUI_SetTextAlign(GUI_TA_CENTER);;
 336              		.loc 1 148 0
 337 003c 0220     		movs	r0, #2
 338 003e FFF7FEFF 		bl	GUI_SetTextAlign
 339              	.LVL49:
 149:LED_task.c    ****     
 150:LED_task.c    ****    
 151:LED_task.c    ****     GUI_SetFont(GUI_FONT_32B_1);
 340              		.loc 1 151 0
 341 0042 1148     		ldr	r0, .L13+4
 342 0044 FFF7FEFF 		bl	GUI_SetFont
 343              	.LVL50:
 152:LED_task.c    ****     char valeur_LED[4] = "";
 344              		.loc 1 152 0
 345 0048 02AC     		add	r4, sp, #8
 346 004a 0023     		movs	r3, #0
 347 004c 44F8043D 		str	r3, [r4, #-4]!
 153:LED_task.c    ****     sprintf(valeur_LED,"%d",(int)LED);
 348              		.loc 1 153 0
 349 0050 0E4B     		ldr	r3, .L13+8
 350 0052 1A68     		ldr	r2, [r3]
 351 0054 0E49     		ldr	r1, .L13+12
 352 0056 2046     		mov	r0, r4
 353 0058 FFF7FEFF 		bl	sprintf
 354              	.LVL51:
 154:LED_task.c    **** 
 155:LED_task.c    ****     GUI_DispStringAt(valeur_LED, 130, 80);
 355              		.loc 1 155 0
 356 005c 5022     		movs	r2, #80
 357 005e 8221     		movs	r1, #130
 358 0060 2046     		mov	r0, r4
ARM GAS  C:\Users\nicpa\AppData\Local\Temp\ccPr5feD.s 			page 10


 359 0062 FFF7FEFF 		bl	GUI_DispStringAt
 360              	.LVL52:
 156:LED_task.c    ****     
 157:LED_task.c    ****     GUI_SetFont(GUI_FONT_16B_1);
 361              		.loc 1 157 0
 362 0066 0B48     		ldr	r0, .L13+16
 363 0068 FFF7FEFF 		bl	GUI_SetFont
 364              	.LVL53:
 158:LED_task.c    ****     GUI_DispStringAt("CHANGE LED VALUE", 60 ,15);
 365              		.loc 1 158 0
 366 006c 0F22     		movs	r2, #15
 367 006e 3C21     		movs	r1, #60
 368 0070 0948     		ldr	r0, .L13+20
 369 0072 FFF7FEFF 		bl	GUI_DispStringAt
 370              	.LVL54:
 159:LED_task.c    ****     
 160:LED_task.c    ****     UpdateDisplay(CY_EINK_FULL_2STAGE, true);
 371              		.loc 1 160 0
 372 0076 0121     		movs	r1, #1
 373 0078 0220     		movs	r0, #2
 374 007a FFF7FEFF 		bl	UpdateDisplay
 375              	.LVL55:
 161:LED_task.c    **** }
 376              		.loc 1 161 0
 377 007e 02B0     		add	sp, sp, #8
 378              		.cfi_def_cfa_offset 8
 379              		@ sp needed
 380 0080 10BD     		pop	{r4, pc}
 381              	.L14:
 382 0082 00BF     		.align	2
 383              	.L13:
 384 0084 00000000 		.word	GUI_Font16_1
 385 0088 00000000 		.word	GUI_Font32B_1
 386 008c 00000000 		.word	LED
 387 0090 7C000000 		.word	.LC7
 388 0094 00000000 		.word	GUI_Font16B_1
 389 0098 80000000 		.word	.LC8
 390              		.cfi_endproc
 391              	.LFE700:
 392              		.size	updateLED, .-updateLED
 393              		.section	.text.updateHR,"ax",%progbits
 394              		.align	2
 395              		.global	updateHR
 396              		.thumb
 397              		.thumb_func
 398              		.type	updateHR, %function
 399              	updateHR:
 400              	.LFB701:
 162:LED_task.c    **** 
 163:LED_task.c    **** /*******************************************************************************
 164:LED_task.c    **** * Function Name: void updateHR(void)
 165:LED_task.c    **** ********************************************************************************
 166:LED_task.c    **** *
 167:LED_task.c    **** * Summary:  
 168:LED_task.c    **** * Elle met à jour l’affichage de la page HR sur l’écran. Principalement, elle affiche les var
 169:LED_task.c    **** * fréquence cardiaque maximale et minimale tolérées. 
 170:LED_task.c    **** *
ARM GAS  C:\Users\nicpa\AppData\Local\Temp\ccPr5feD.s 			page 11


 171:LED_task.c    **** * Parameters:
 172:LED_task.c    **** *  None
 173:LED_task.c    **** *
 174:LED_task.c    **** * Return:
 175:LED_task.c    **** *  None
 176:LED_task.c    **** *
 177:LED_task.c    **** * Side Effects:
 178:LED_task.c    **** *  L’écran prend quelque temps avant de s’actualiser.
 179:LED_task.c    **** *
 180:LED_task.c    **** *******************************************************************************/
 181:LED_task.c    **** 
 182:LED_task.c    **** void updateHR(){
 401              		.loc 1 182 0
 402              		.cfi_startproc
 403              		@ args = 0, pretend = 0, frame = 8
 404              		@ frame_needed = 0, uses_anonymous_args = 0
 405 0000 10B5     		push	{r4, lr}
 406              		.cfi_def_cfa_offset 8
 407              		.cfi_offset 4, -8
 408              		.cfi_offset 14, -4
 409 0002 82B0     		sub	sp, sp, #8
 410              		.cfi_def_cfa_offset 16
 183:LED_task.c    ****    
 184:LED_task.c    ****    
 185:LED_task.c    ****     GUI_Clear();
 411              		.loc 1 185 0
 412 0004 FFF7FEFF 		bl	GUI_Clear
 413              	.LVL56:
 186:LED_task.c    ****     
 187:LED_task.c    ****     GUI_SetPenSize(2);
 414              		.loc 1 187 0
 415 0008 0220     		movs	r0, #2
 416 000a FFF7FEFF 		bl	GUI_SetPenSize
 417              	.LVL57:
 188:LED_task.c    ****     GUI_SetColor(GUI_BLACK);
 418              		.loc 1 188 0
 419 000e 0020     		movs	r0, #0
 420 0010 FFF7FEFF 		bl	GUI_SetColor
 421              	.LVL58:
 189:LED_task.c    ****     GUI_SetBkColor(GUI_WHITE);
 422              		.loc 1 189 0
 423 0014 6FF07F40 		mvn	r0, #-16777216
 424 0018 FFF7FEFF 		bl	GUI_SetBkColor
 425              	.LVL59:
 190:LED_task.c    ****     
 191:LED_task.c    ****     //Rectangle
 192:LED_task.c    ****     GUI_DrawRect(1,1,263,175);
 426              		.loc 1 192 0
 427 001c AF23     		movs	r3, #175
 428 001e 40F20712 		movw	r2, #263
 429 0022 0121     		movs	r1, #1
 430 0024 0846     		mov	r0, r1
 431 0026 FFF7FEFF 		bl	GUI_DrawRect
 432              	.LVL60:
 193:LED_task.c    ****     GUI_DrawRect(30,70,90,120);
 433              		.loc 1 193 0
 434 002a 7823     		movs	r3, #120
ARM GAS  C:\Users\nicpa\AppData\Local\Temp\ccPr5feD.s 			page 12


 435 002c 5A22     		movs	r2, #90
 436 002e 4621     		movs	r1, #70
 437 0030 1E20     		movs	r0, #30
 438 0032 FFF7FEFF 		bl	GUI_DrawRect
 439              	.LVL61:
 194:LED_task.c    ****     GUI_DrawRect(150,70,225,120);
 440              		.loc 1 194 0
 441 0036 7823     		movs	r3, #120
 442 0038 E122     		movs	r2, #225
 443 003a 4621     		movs	r1, #70
 444 003c 9620     		movs	r0, #150
 445 003e FFF7FEFF 		bl	GUI_DrawRect
 446              	.LVL62:
 195:LED_task.c    **** 
 196:LED_task.c    ****     
 197:LED_task.c    ****     GUI_SetFont(GUI_FONT_16_1);
 447              		.loc 1 197 0
 448 0042 1D48     		ldr	r0, .L17
 449 0044 FFF7FEFF 		bl	GUI_SetFont
 450              	.LVL63:
 198:LED_task.c    ****     GUI_SetTextAlign(GUI_TA_CENTER);;
 451              		.loc 1 198 0
 452 0048 0220     		movs	r0, #2
 453 004a FFF7FEFF 		bl	GUI_SetTextAlign
 454              	.LVL64:
 199:LED_task.c    ****     
 200:LED_task.c    ****    
 201:LED_task.c    ****     GUI_SetFont(GUI_FONT_32B_1);
 455              		.loc 1 201 0
 456 004e 1B48     		ldr	r0, .L17+4
 457 0050 FFF7FEFF 		bl	GUI_SetFont
 458              	.LVL65:
 202:LED_task.c    ****     char frequence_max[4] = "";
 459              		.loc 1 202 0
 460 0054 0023     		movs	r3, #0
 461 0056 0193     		str	r3, [sp, #4]
 203:LED_task.c    ****     char frequence_min[4] = "";
 462              		.loc 1 203 0
 463 0058 0093     		str	r3, [sp]
 204:LED_task.c    ****     sprintf(frequence_max,"%d",(int)hrmax);
 464              		.loc 1 204 0
 465 005a 194C     		ldr	r4, .L17+8
 466 005c 194B     		ldr	r3, .L17+12
 467 005e 1A68     		ldr	r2, [r3]
 468 0060 2146     		mov	r1, r4
 469 0062 01A8     		add	r0, sp, #4
 470 0064 FFF7FEFF 		bl	sprintf
 471              	.LVL66:
 205:LED_task.c    ****     sprintf(frequence_min,"%d",(int)hrmin);
 472              		.loc 1 205 0
 473 0068 174B     		ldr	r3, .L17+16
 474 006a 1A68     		ldr	r2, [r3]
 475 006c 2146     		mov	r1, r4
 476 006e 6846     		mov	r0, sp
 477 0070 FFF7FEFF 		bl	sprintf
 478              	.LVL67:
 206:LED_task.c    **** 
ARM GAS  C:\Users\nicpa\AppData\Local\Temp\ccPr5feD.s 			page 13


 207:LED_task.c    ****     GUI_DispStringAt(frequence_min, 60, 80);
 479              		.loc 1 207 0
 480 0074 5022     		movs	r2, #80
 481 0076 3C21     		movs	r1, #60
 482 0078 6846     		mov	r0, sp
 483 007a FFF7FEFF 		bl	GUI_DispStringAt
 484              	.LVL68:
 208:LED_task.c    ****     GUI_DispStringAt(frequence_max, 165, 80);
 485              		.loc 1 208 0
 486 007e 5022     		movs	r2, #80
 487 0080 A521     		movs	r1, #165
 488 0082 01A8     		add	r0, sp, #4
 489 0084 FFF7FEFF 		bl	GUI_DispStringAt
 490              	.LVL69:
 209:LED_task.c    ****     
 210:LED_task.c    ****     GUI_SetFont(GUI_FONT_16B_1);
 491              		.loc 1 210 0
 492 0088 1048     		ldr	r0, .L17+20
 493 008a FFF7FEFF 		bl	GUI_SetFont
 494              	.LVL70:
 211:LED_task.c    ****     GUI_DispStringAt("Min Heart Rate",10 ,130);
 495              		.loc 1 211 0
 496 008e 8222     		movs	r2, #130
 497 0090 0A21     		movs	r1, #10
 498 0092 0F48     		ldr	r0, .L17+24
 499 0094 FFF7FEFF 		bl	GUI_DispStringAt
 500              	.LVL71:
 212:LED_task.c    ****     GUI_DispStringAt("Max Heart Rate", 135 ,130);
 501              		.loc 1 212 0
 502 0098 8222     		movs	r2, #130
 503 009a 8721     		movs	r1, #135
 504 009c 0D48     		ldr	r0, .L17+28
 505 009e FFF7FEFF 		bl	GUI_DispStringAt
 506              	.LVL72:
 213:LED_task.c    ****     GUI_DispStringAt("CHANGE HEART RATE INTERVAL",30 ,15);
 507              		.loc 1 213 0
 508 00a2 0F22     		movs	r2, #15
 509 00a4 1E21     		movs	r1, #30
 510 00a6 0C48     		ldr	r0, .L17+32
 511 00a8 FFF7FEFF 		bl	GUI_DispStringAt
 512              	.LVL73:
 214:LED_task.c    ****     
 215:LED_task.c    ****     UpdateDisplay(CY_EINK_FULL_2STAGE, true);
 513              		.loc 1 215 0
 514 00ac 0121     		movs	r1, #1
 515 00ae 0220     		movs	r0, #2
 516 00b0 FFF7FEFF 		bl	UpdateDisplay
 517              	.LVL74:
 216:LED_task.c    ****     
 217:LED_task.c    **** }
 518              		.loc 1 217 0
 519 00b4 02B0     		add	sp, sp, #8
 520              		.cfi_def_cfa_offset 8
 521              		@ sp needed
 522 00b6 10BD     		pop	{r4, pc}
 523              	.L18:
 524              		.align	2
ARM GAS  C:\Users\nicpa\AppData\Local\Temp\ccPr5feD.s 			page 14


 525              	.L17:
 526 00b8 00000000 		.word	GUI_Font16_1
 527 00bc 00000000 		.word	GUI_Font32B_1
 528 00c0 7C000000 		.word	.LC7
 529 00c4 00000000 		.word	hrmax
 530 00c8 00000000 		.word	hrmin
 531 00cc 00000000 		.word	GUI_Font16B_1
 532 00d0 94000000 		.word	.LC9
 533 00d4 A4000000 		.word	.LC10
 534 00d8 B4000000 		.word	.LC11
 535              		.cfi_endproc
 536              	.LFE701:
 537              		.size	updateHR, .-updateHR
 538              		.section	.text.updateSignal,"ax",%progbits
 539              		.align	2
 540              		.global	updateSignal
 541              		.thumb
 542              		.thumb_func
 543              		.type	updateSignal, %function
 544              	updateSignal:
 545              	.LFB702:
 218:LED_task.c    **** 
 219:LED_task.c    **** 
 220:LED_task.c    **** /*******************************************************************************
 221:LED_task.c    **** * Function Name: void updateSignal(float32 *vecteur, uint32_t fc, uint32_t spo2, float32 AC, float3
 222:LED_task.c    **** ********************************************************************************
 223:LED_task.c    **** *
 224:LED_task.c    **** * Summary:  
 225:LED_task.c    **** * Elle met à jour l’affichage du signal, du spo2 et de la fréquence cardiaque. Le signal est af
 226:LED_task.c    **** * forme de courbe et une seule valeur sur 4 est utilisée.
 227:LED_task.c    **** *
 228:LED_task.c    **** * Parameters:
 229:LED_task.c    **** *  float32 *vecteur : données du signal
 230:LED_task.c    **** * uint32_t fc : fréquence cardiaque mesurée
 231:LED_task.c    **** * uint32_t spo2 : taux spo2 mesuré
 232:LED_task.c    **** * float32 AC : amplitude du signal
 233:LED_task.c    **** * float32 DC : décalage du signal
 234:LED_task.c    **** *
 235:LED_task.c    **** * Return:
 236:LED_task.c    **** *  None
 237:LED_task.c    **** *
 238:LED_task.c    **** * Side Effects:
 239:LED_task.c    **** *  L’écran prend quelque temps avant de s’actualiser.
 240:LED_task.c    **** *
 241:LED_task.c    **** *******************************************************************************/
 242:LED_task.c    **** 
 243:LED_task.c    **** void updateSignal(float32 *vecteur, uint32_t fc, uint32_t spo2, float32 AC, float32 DC){
 546              		.loc 1 243 0
 547              		.cfi_startproc
 548              		@ args = 4, pretend = 0, frame = 512
 549              		@ frame_needed = 0, uses_anonymous_args = 0
 550              	.LVL75:
 551 0000 2DE9F041 		push	{r4, r5, r6, r7, r8, lr}
 552              		.cfi_def_cfa_offset 24
 553              		.cfi_offset 4, -24
 554              		.cfi_offset 5, -20
 555              		.cfi_offset 6, -16
ARM GAS  C:\Users\nicpa\AppData\Local\Temp\ccPr5feD.s 			page 15


 556              		.cfi_offset 7, -12
 557              		.cfi_offset 8, -8
 558              		.cfi_offset 14, -4
 559 0004 2DED028B 		vpush.64	{d8}
 560              		.cfi_def_cfa_offset 32
 561              		.cfi_offset 80, -32
 562              		.cfi_offset 81, -28
 563 0008 ADF5007D 		sub	sp, sp, #512
 564              		.cfi_def_cfa_offset 544
 565 000c 0646     		mov	r6, r0
 566 000e 0F46     		mov	r7, r1
 567 0010 9046     		mov	r8, r2
 568 0012 08EE103A 		vmov	s16, r3
 569 0016 DDED888A 		vldr.32	s17, [sp, #544]
 244:LED_task.c    ****     
 245:LED_task.c    ****     GUI_Clear();
 570              		.loc 1 245 0
 571 001a FFF7FEFF 		bl	GUI_Clear
 572              	.LVL76:
 246:LED_task.c    ****     
 247:LED_task.c    ****     GUI_SetPenSize(2);
 573              		.loc 1 247 0
 574 001e 0220     		movs	r0, #2
 575 0020 FFF7FEFF 		bl	GUI_SetPenSize
 576              	.LVL77:
 248:LED_task.c    ****     GUI_SetColor(GUI_BLACK);
 577              		.loc 1 248 0
 578 0024 0020     		movs	r0, #0
 579 0026 FFF7FEFF 		bl	GUI_SetColor
 580              	.LVL78:
 249:LED_task.c    ****     GUI_SetBkColor(GUI_WHITE);
 581              		.loc 1 249 0
 582 002a 6FF07F40 		mvn	r0, #-16777216
 583 002e FFF7FEFF 		bl	GUI_SetBkColor
 584              	.LVL79:
 250:LED_task.c    **** 
 251:LED_task.c    ****     int j=500;
 252:LED_task.c    ****    
 253:LED_task.c    ****     int tableauX[125];
 254:LED_task.c    ****     
 255:LED_task.c    ****     if (!LED_flag)
 585              		.loc 1 255 0
 586 0032 5E4B     		ldr	r3, .L29
 587 0034 1B78     		ldrb	r3, [r3]	@ zero_extendqisi2
 588 0036 002B     		cmp	r3, #0
 589 0038 3FD1     		bne	.L20
 590 003a 04E0     		b	.L21
 591              	.LVL80:
 592              	.L22:
 593              	.LBB19:
 256:LED_task.c    ****     {
 257:LED_task.c    ****         for(int i=0; i<125;i++)
 258:LED_task.c    ****         {
 259:LED_task.c    ****             tableauX[i]=2*i;
 594              		.loc 1 259 0 discriminator 3
 595 003c 5900     		lsls	r1, r3, #1
 596 003e 03AA     		add	r2, sp, #12
ARM GAS  C:\Users\nicpa\AppData\Local\Temp\ccPr5feD.s 			page 16


 597 0040 42F82310 		str	r1, [r2, r3, lsl #2]
 257:LED_task.c    ****         {
 598              		.loc 1 257 0 discriminator 3
 599 0044 0133     		adds	r3, r3, #1
 600              	.LVL81:
 601              	.L21:
 257:LED_task.c    ****         {
 602              		.loc 1 257 0 is_stmt 0 discriminator 1
 603 0046 7C2B     		cmp	r3, #124
 604 0048 F8DD     		ble	.L22
 605 004a 0025     		movs	r5, #0
 606 004c 4FF4FA73 		mov	r3, #500
 607              	.LVL82:
 608 0050 31E0     		b	.L23
 609              	.LVL83:
 610              	.L24:
 611              	.LBE19:
 612              	.LBB20:
 613              	.LBB21:
 260:LED_task.c    ****         }
 261:LED_task.c    ****     
 262:LED_task.c    ****         for(int i=0; i<124;i++)
 263:LED_task.c    ****         {
 264:LED_task.c    ****             int Y0 = (int)(150-((vecteur[j]-(DC-(AC)))*150)/(2*AC));
 614              		.loc 1 264 0 is_stmt 1 discriminator 3
 615 0052 06EB8302 		add	r2, r6, r3, lsl #2
 616 0056 D2ED006A 		vldr.32	s13, [r2]
 617 005a 38EEC85A 		vsub.f32	s10, s17, s16
 618 005e 76EEC56A 		vsub.f32	s13, s13, s10
 619 0062 DFED537A 		vldr.32	s15, .L29+4
 620 0066 66EEA76A 		vmul.f32	s13, s13, s15
 621 006a 78EE085A 		vadd.f32	s11, s16, s16
 622 006e 86EEA56A 		vdiv.f32	s12, s13, s11
 623 0072 77EEC66A 		vsub.f32	s13, s15, s12
 624              	.LVL84:
 265:LED_task.c    ****             int Y1 = (int)(150-((vecteur[j+4]-(DC-(AC)))*150)/(2*AC));
 625              		.loc 1 265 0 discriminator 3
 626 0076 1C1D     		adds	r4, r3, #4
 627 0078 06EB8403 		add	r3, r6, r4, lsl #2
 628              	.LVL85:
 629 007c 93ED007A 		vldr.32	s14, [r3]
 630 0080 37EE457A 		vsub.f32	s14, s14, s10
 631 0084 27EE277A 		vmul.f32	s14, s14, s15
 632 0088 87EE256A 		vdiv.f32	s12, s14, s11
 633 008c 77EEC67A 		vsub.f32	s15, s15, s12
 634              	.LVL86:
 266:LED_task.c    ****             int X0 = tableauX[i]+7;
 635              		.loc 1 266 0 discriminator 3
 636 0090 03AB     		add	r3, sp, #12
 637 0092 53F82500 		ldr	r0, [r3, r5, lsl #2]
 638              	.LVL87:
 267:LED_task.c    ****             int X1 = tableauX[i+1]+7;
 639              		.loc 1 267 0 discriminator 3
 640 0096 0135     		adds	r5, r5, #1
 641              	.LVL88:
 642 0098 53F82520 		ldr	r2, [r3, r5, lsl #2]
 643              	.LVL89:
ARM GAS  C:\Users\nicpa\AppData\Local\Temp\ccPr5feD.s 			page 17


 268:LED_task.c    ****             GUI_DrawLine(X0, Y0, X1, Y1);
 644              		.loc 1 268 0 discriminator 3
 645 009c FDEEE77A 		vcvt.s32.f32	s15, s15
 646              	.LVL90:
 647 00a0 17EE903A 		vmov	r3, s15	@ int
 648 00a4 0732     		adds	r2, r2, #7
 649              	.LVL91:
 650 00a6 FDEEE67A 		vcvt.s32.f32	s15, s13
 651              	.LVL92:
 652 00aa 17EE901A 		vmov	r1, s15	@ int
 653 00ae 0730     		adds	r0, r0, #7
 654              	.LVL93:
 655 00b0 FFF7FEFF 		bl	GUI_DrawLine
 656              	.LVL94:
 269:LED_task.c    ****             j=j+4;
 657              		.loc 1 269 0 discriminator 3
 658 00b4 2346     		mov	r3, r4
 659              	.LVL95:
 660              	.L23:
 661              	.LBE21:
 262:LED_task.c    ****         {
 662              		.loc 1 262 0 discriminator 1
 663 00b6 7B2D     		cmp	r5, #123
 664 00b8 CBDD     		ble	.L24
 665              	.LVL96:
 666              	.L20:
 667              	.LBE20:
 270:LED_task.c    ****         }
 271:LED_task.c    ****     }
 272:LED_task.c    ****     
 273:LED_task.c    ****     if(alerte && LED_flag)
 668              		.loc 1 273 0
 669 00ba 3E4B     		ldr	r3, .L29+8
 670 00bc 1B78     		ldrb	r3, [r3]	@ zero_extendqisi2
 671 00be B3B1     		cbz	r3, .L25
 672              		.loc 1 273 0 is_stmt 0 discriminator 1
 673 00c0 3A4B     		ldr	r3, .L29
 674 00c2 1B78     		ldrb	r3, [r3]	@ zero_extendqisi2
 675 00c4 9BB1     		cbz	r3, .L25
 274:LED_task.c    ****     {
 275:LED_task.c    ****         GUI_DrawLine(75, 75, 200, 75);
 676              		.loc 1 275 0 is_stmt 1
 677 00c6 4B23     		movs	r3, #75
 678 00c8 C822     		movs	r2, #200
 679 00ca 1946     		mov	r1, r3
 680 00cc 1846     		mov	r0, r3
 681 00ce FFF7FEFF 		bl	GUI_DrawLine
 682              	.LVL97:
 276:LED_task.c    ****         GUI_SetFont(GUI_FONT_16B_1);
 683              		.loc 1 276 0
 684 00d2 3948     		ldr	r0, .L29+12
 685 00d4 FFF7FEFF 		bl	GUI_SetFont
 686              	.LVL98:
 277:LED_task.c    ****         GUI_DispStringAt("Movement detected", 75 ,55);   
 687              		.loc 1 277 0
 688 00d8 3722     		movs	r2, #55
 689 00da 4B21     		movs	r1, #75
ARM GAS  C:\Users\nicpa\AppData\Local\Temp\ccPr5feD.s 			page 18


 690 00dc 3748     		ldr	r0, .L29+16
 691 00de FFF7FEFF 		bl	GUI_DispStringAt
 692              	.LVL99:
 693              	.LBB22:
 694              	.LBB23:
 695              		.file 2 "Generated_Source\\PSoC6\\pdl\\drivers/peripheral/gpio/cy_gpio.h"
   1:Generated_Source\PSoC6\pdl\drivers/peripheral/gpio/cy_gpio.h **** /***************************************************************************//**
   2:Generated_Source\PSoC6\pdl\drivers/peripheral/gpio/cy_gpio.h **** * \file cy_gpio.h
   3:Generated_Source\PSoC6\pdl\drivers/peripheral/gpio/cy_gpio.h **** * \version 1.20
   4:Generated_Source\PSoC6\pdl\drivers/peripheral/gpio/cy_gpio.h **** *
   5:Generated_Source\PSoC6\pdl\drivers/peripheral/gpio/cy_gpio.h **** * Provides an API declaration of the GPIO driver
   6:Generated_Source\PSoC6\pdl\drivers/peripheral/gpio/cy_gpio.h **** *
   7:Generated_Source\PSoC6\pdl\drivers/peripheral/gpio/cy_gpio.h **** ********************************************************************************
   8:Generated_Source\PSoC6\pdl\drivers/peripheral/gpio/cy_gpio.h **** * \copyright
   9:Generated_Source\PSoC6\pdl\drivers/peripheral/gpio/cy_gpio.h **** * Copyright 2016-2018, Cypress Semiconductor Corporation. All rights reserved.
  10:Generated_Source\PSoC6\pdl\drivers/peripheral/gpio/cy_gpio.h **** * You may use this file only in accordance with the license, terms, conditions,
  11:Generated_Source\PSoC6\pdl\drivers/peripheral/gpio/cy_gpio.h **** * disclaimers, and limitations in the end user license agreement accompanying
  12:Generated_Source\PSoC6\pdl\drivers/peripheral/gpio/cy_gpio.h **** * the software package with which this file was provided.
  13:Generated_Source\PSoC6\pdl\drivers/peripheral/gpio/cy_gpio.h **** *******************************************************************************/
  14:Generated_Source\PSoC6\pdl\drivers/peripheral/gpio/cy_gpio.h **** 
  15:Generated_Source\PSoC6\pdl\drivers/peripheral/gpio/cy_gpio.h **** /**
  16:Generated_Source\PSoC6\pdl\drivers/peripheral/gpio/cy_gpio.h **** * \addtogroup group_gpio
  17:Generated_Source\PSoC6\pdl\drivers/peripheral/gpio/cy_gpio.h **** * \{
  18:Generated_Source\PSoC6\pdl\drivers/peripheral/gpio/cy_gpio.h **** * The GPIO driver provides an API to configure and access device Input/Output pins.
  19:Generated_Source\PSoC6\pdl\drivers/peripheral/gpio/cy_gpio.h **** *
  20:Generated_Source\PSoC6\pdl\drivers/peripheral/gpio/cy_gpio.h **** * The functions and other declarations used in this driver are in cy_gpio.h. 
  21:Generated_Source\PSoC6\pdl\drivers/peripheral/gpio/cy_gpio.h **** * You can include cy_pdl.h (ModusToolbox only) to get access to all functions 
  22:Generated_Source\PSoC6\pdl\drivers/peripheral/gpio/cy_gpio.h **** * and declarations in the PDL.
  23:Generated_Source\PSoC6\pdl\drivers/peripheral/gpio/cy_gpio.h **** *
  24:Generated_Source\PSoC6\pdl\drivers/peripheral/gpio/cy_gpio.h **** * IO pins include all general purpose types such as GPIO, SIO, HSIO, AUXIO, and
  25:Generated_Source\PSoC6\pdl\drivers/peripheral/gpio/cy_gpio.h **** * their variants.
  26:Generated_Source\PSoC6\pdl\drivers/peripheral/gpio/cy_gpio.h **** *
  27:Generated_Source\PSoC6\pdl\drivers/peripheral/gpio/cy_gpio.h **** * Initialization can be performed either at the port level or by configuring the
  28:Generated_Source\PSoC6\pdl\drivers/peripheral/gpio/cy_gpio.h **** * individual pins. For efficient use of code space, port
  29:Generated_Source\PSoC6\pdl\drivers/peripheral/gpio/cy_gpio.h **** * configuration should be used in the field. Refer to the product device header files 
  30:Generated_Source\PSoC6\pdl\drivers/peripheral/gpio/cy_gpio.h **** * for the list of supported ports and pins.
  31:Generated_Source\PSoC6\pdl\drivers/peripheral/gpio/cy_gpio.h **** * 
  32:Generated_Source\PSoC6\pdl\drivers/peripheral/gpio/cy_gpio.h **** * - Single pin configuration is performed by using \ref Cy_GPIO_Pin_FastInit 
  33:Generated_Source\PSoC6\pdl\drivers/peripheral/gpio/cy_gpio.h **** *   (provide specific values) or \ref Cy_GPIO_Pin_Init (provide a filled
  34:Generated_Source\PSoC6\pdl\drivers/peripheral/gpio/cy_gpio.h **** *   cy_stc_gpio_pin_config_t structure).
  35:Generated_Source\PSoC6\pdl\drivers/peripheral/gpio/cy_gpio.h **** * - An entire port can be configured using \ref Cy_GPIO_Port_Init. Provide a filled 
  36:Generated_Source\PSoC6\pdl\drivers/peripheral/gpio/cy_gpio.h **** *   cy_stc_gpio_prt_config_t structure. The values in the structure are 
  37:Generated_Source\PSoC6\pdl\drivers/peripheral/gpio/cy_gpio.h **** *   bitfields representing the desired value for each pin in the port.
  38:Generated_Source\PSoC6\pdl\drivers/peripheral/gpio/cy_gpio.h **** * - Pin configuration and management is based on the port address and pin number.
  39:Generated_Source\PSoC6\pdl\drivers/peripheral/gpio/cy_gpio.h **** *   \ref Cy_GPIO_PortToAddr function can optionally be used to calculate the port
  40:Generated_Source\PSoC6\pdl\drivers/peripheral/gpio/cy_gpio.h **** *   address from the port number at run-time.
  41:Generated_Source\PSoC6\pdl\drivers/peripheral/gpio/cy_gpio.h **** *
  42:Generated_Source\PSoC6\pdl\drivers/peripheral/gpio/cy_gpio.h **** * Once the pin/port initialization is complete, each pin can be accessed by 
  43:Generated_Source\PSoC6\pdl\drivers/peripheral/gpio/cy_gpio.h **** * specifying the port (GPIO_PRT_Type) and the pin (0-7) in the provided API 
  44:Generated_Source\PSoC6\pdl\drivers/peripheral/gpio/cy_gpio.h **** * functions.
  45:Generated_Source\PSoC6\pdl\drivers/peripheral/gpio/cy_gpio.h **** *
  46:Generated_Source\PSoC6\pdl\drivers/peripheral/gpio/cy_gpio.h **** * \section group_gpio_configuration Configuration Considerations
  47:Generated_Source\PSoC6\pdl\drivers/peripheral/gpio/cy_gpio.h **** *
  48:Generated_Source\PSoC6\pdl\drivers/peripheral/gpio/cy_gpio.h **** * 1. Pin multiplexing is controlled through the High-Speed IO Matrix (HSIOM) selection.
  49:Generated_Source\PSoC6\pdl\drivers/peripheral/gpio/cy_gpio.h **** *    This allows the pin to connect to signal sources/sinks throughout the device,
  50:Generated_Source\PSoC6\pdl\drivers/peripheral/gpio/cy_gpio.h **** *    as defined by the pin HSIOM selection options (en_hsiom_sel_t).
  51:Generated_Source\PSoC6\pdl\drivers/peripheral/gpio/cy_gpio.h **** * 2. All pins are initialized to High-Z drive mode with HSIOM connected to CPU (SW
ARM GAS  C:\Users\nicpa\AppData\Local\Temp\ccPr5feD.s 			page 19


  52:Generated_Source\PSoC6\pdl\drivers/peripheral/gpio/cy_gpio.h **** *    control digital pin only) at Power-On-Reset(POR).
  53:Generated_Source\PSoC6\pdl\drivers/peripheral/gpio/cy_gpio.h **** * 3. Some API functions perform read-modify-write operations on shared port
  54:Generated_Source\PSoC6\pdl\drivers/peripheral/gpio/cy_gpio.h **** *    registers. These functions are not thread safe and care must be taken when
  55:Generated_Source\PSoC6\pdl\drivers/peripheral/gpio/cy_gpio.h **** *    called by the application.
  56:Generated_Source\PSoC6\pdl\drivers/peripheral/gpio/cy_gpio.h **** * 4. Digital input buffer provides a high-impedance buffer for the external 
  57:Generated_Source\PSoC6\pdl\drivers/peripheral/gpio/cy_gpio.h **** *    digital input. The input buffer is connected to the HSIOM for routing to 
  58:Generated_Source\PSoC6\pdl\drivers/peripheral/gpio/cy_gpio.h **** *    the CPU port registers and selected peripheral. Enabling the input 
  59:Generated_Source\PSoC6\pdl\drivers/peripheral/gpio/cy_gpio.h **** *    buffer provides possibility to read the pin state via the CPU.
  60:Generated_Source\PSoC6\pdl\drivers/peripheral/gpio/cy_gpio.h **** *    If pin is connected to an analog signal, the input buffer should be 
  61:Generated_Source\PSoC6\pdl\drivers/peripheral/gpio/cy_gpio.h **** *    disabled to avoid crowbar currents. For more information refer to device 
  62:Generated_Source\PSoC6\pdl\drivers/peripheral/gpio/cy_gpio.h **** *    TRM and the device datasheet.
  63:Generated_Source\PSoC6\pdl\drivers/peripheral/gpio/cy_gpio.h **** *
  64:Generated_Source\PSoC6\pdl\drivers/peripheral/gpio/cy_gpio.h **** * Multiple pins on a port can be updated using direct port register writes with an
  65:Generated_Source\PSoC6\pdl\drivers/peripheral/gpio/cy_gpio.h **** * appropriate port mask. An example is shown below, highlighting the different ways of 
  66:Generated_Source\PSoC6\pdl\drivers/peripheral/gpio/cy_gpio.h **** * configuring Port 1 pins using:
  67:Generated_Source\PSoC6\pdl\drivers/peripheral/gpio/cy_gpio.h **** * 
  68:Generated_Source\PSoC6\pdl\drivers/peripheral/gpio/cy_gpio.h **** * - Port output data register
  69:Generated_Source\PSoC6\pdl\drivers/peripheral/gpio/cy_gpio.h **** * - Port output data set register
  70:Generated_Source\PSoC6\pdl\drivers/peripheral/gpio/cy_gpio.h **** * - Port output data clear register
  71:Generated_Source\PSoC6\pdl\drivers/peripheral/gpio/cy_gpio.h **** *
  72:Generated_Source\PSoC6\pdl\drivers/peripheral/gpio/cy_gpio.h **** * \snippet gpio/gpio_v1_10_sut_01.cydsn/main_cm4.c Cy_GPIO_Snippet
  73:Generated_Source\PSoC6\pdl\drivers/peripheral/gpio/cy_gpio.h **** *
  74:Generated_Source\PSoC6\pdl\drivers/peripheral/gpio/cy_gpio.h **** * \section group_gpio_more_information More Information
  75:Generated_Source\PSoC6\pdl\drivers/peripheral/gpio/cy_gpio.h **** *
  76:Generated_Source\PSoC6\pdl\drivers/peripheral/gpio/cy_gpio.h **** * Refer to the technical reference manual (TRM) and the device datasheet.
  77:Generated_Source\PSoC6\pdl\drivers/peripheral/gpio/cy_gpio.h **** *
  78:Generated_Source\PSoC6\pdl\drivers/peripheral/gpio/cy_gpio.h **** * \section group_gpio_MISRA MISRA-C Compliance
  79:Generated_Source\PSoC6\pdl\drivers/peripheral/gpio/cy_gpio.h **** * The GPIO driver has the following specific deviations:
  80:Generated_Source\PSoC6\pdl\drivers/peripheral/gpio/cy_gpio.h **** *
  81:Generated_Source\PSoC6\pdl\drivers/peripheral/gpio/cy_gpio.h **** * <table class="doxtable">
  82:Generated_Source\PSoC6\pdl\drivers/peripheral/gpio/cy_gpio.h **** *   <tr>
  83:Generated_Source\PSoC6\pdl\drivers/peripheral/gpio/cy_gpio.h **** *     <th>MISRA Rule</th>
  84:Generated_Source\PSoC6\pdl\drivers/peripheral/gpio/cy_gpio.h **** *     <th>Rule Class (Required/Advisory)</th>
  85:Generated_Source\PSoC6\pdl\drivers/peripheral/gpio/cy_gpio.h **** *     <th>Rule Description</th>
  86:Generated_Source\PSoC6\pdl\drivers/peripheral/gpio/cy_gpio.h **** *     <th>Description of Deviation(s)</th>
  87:Generated_Source\PSoC6\pdl\drivers/peripheral/gpio/cy_gpio.h **** *   </tr>
  88:Generated_Source\PSoC6\pdl\drivers/peripheral/gpio/cy_gpio.h **** *   <tr>
  89:Generated_Source\PSoC6\pdl\drivers/peripheral/gpio/cy_gpio.h **** *     <td>11.4</td>
  90:Generated_Source\PSoC6\pdl\drivers/peripheral/gpio/cy_gpio.h **** *     <td>A</td>
  91:Generated_Source\PSoC6\pdl\drivers/peripheral/gpio/cy_gpio.h **** *     <td>A cast should not be performed between a pointer to object type and
  92:Generated_Source\PSoC6\pdl\drivers/peripheral/gpio/cy_gpio.h **** *         a different pointer to object type.</td>
  93:Generated_Source\PSoC6\pdl\drivers/peripheral/gpio/cy_gpio.h **** *     <td> This code is safe because the elements of both GPIO_PRT_V1_Type and GPIO_PRT_V2_Type 
  94:Generated_Source\PSoC6\pdl\drivers/peripheral/gpio/cy_gpio.h **** *          types have identical alignment.</td>
  95:Generated_Source\PSoC6\pdl\drivers/peripheral/gpio/cy_gpio.h **** *   </tr>
  96:Generated_Source\PSoC6\pdl\drivers/peripheral/gpio/cy_gpio.h **** *   <tr>
  97:Generated_Source\PSoC6\pdl\drivers/peripheral/gpio/cy_gpio.h **** *     <td>16.7</td>
  98:Generated_Source\PSoC6\pdl\drivers/peripheral/gpio/cy_gpio.h **** *     <td>A</td>
  99:Generated_Source\PSoC6\pdl\drivers/peripheral/gpio/cy_gpio.h **** *     <td>A pointer parameter in a function prototype should be declared as pointer 
 100:Generated_Source\PSoC6\pdl\drivers/peripheral/gpio/cy_gpio.h **** *         to const if the pointer is not used to modify the addressed object.</td>
 101:Generated_Source\PSoC6\pdl\drivers/peripheral/gpio/cy_gpio.h **** *     <td>The objects pointed to by the base addresses of the GPIO port are not always modified.
 102:Generated_Source\PSoC6\pdl\drivers/peripheral/gpio/cy_gpio.h **** *         While a const qualifier can be used in select scenarios, it brings little benefit
 103:Generated_Source\PSoC6\pdl\drivers/peripheral/gpio/cy_gpio.h **** *         in adding this to the affected functions. </td>
 104:Generated_Source\PSoC6\pdl\drivers/peripheral/gpio/cy_gpio.h **** *   </tr>
 105:Generated_Source\PSoC6\pdl\drivers/peripheral/gpio/cy_gpio.h **** * </table>
 106:Generated_Source\PSoC6\pdl\drivers/peripheral/gpio/cy_gpio.h **** *
 107:Generated_Source\PSoC6\pdl\drivers/peripheral/gpio/cy_gpio.h **** * \section group_gpio_changelog Changelog
 108:Generated_Source\PSoC6\pdl\drivers/peripheral/gpio/cy_gpio.h **** * <table class="doxtable">
ARM GAS  C:\Users\nicpa\AppData\Local\Temp\ccPr5feD.s 			page 20


 109:Generated_Source\PSoC6\pdl\drivers/peripheral/gpio/cy_gpio.h **** *   <tr><th>Version</th><th>Changes</th><th>Reason for Change</th></tr>
 110:Generated_Source\PSoC6\pdl\drivers/peripheral/gpio/cy_gpio.h **** *   <tr>
 111:Generated_Source\PSoC6\pdl\drivers/peripheral/gpio/cy_gpio.h **** *     <td rowspan="3">1.20</td>
 112:Generated_Source\PSoC6\pdl\drivers/peripheral/gpio/cy_gpio.h **** *     <td>Flattened the organization of the driver source code into the single source directory and
 113:Generated_Source\PSoC6\pdl\drivers/peripheral/gpio/cy_gpio.h **** *     <td>Driver library directory-structure simplification.</td>
 114:Generated_Source\PSoC6\pdl\drivers/peripheral/gpio/cy_gpio.h **** *   </tr>
 115:Generated_Source\PSoC6\pdl\drivers/peripheral/gpio/cy_gpio.h **** *   <tr>
 116:Generated_Source\PSoC6\pdl\drivers/peripheral/gpio/cy_gpio.h **** *     <td>Added the functions for configuring the AMux bus splitter switch cells:
 117:Generated_Source\PSoC6\pdl\drivers/peripheral/gpio/cy_gpio.h **** *     - \ref Cy_GPIO_SetAmuxSplit
 118:Generated_Source\PSoC6\pdl\drivers/peripheral/gpio/cy_gpio.h **** *     - \ref Cy_GPIO_GetAmuxSplit
 119:Generated_Source\PSoC6\pdl\drivers/peripheral/gpio/cy_gpio.h **** *     </td>
 120:Generated_Source\PSoC6\pdl\drivers/peripheral/gpio/cy_gpio.h **** *     <td>Added a new functionality related to AMux bus.</td>
 121:Generated_Source\PSoC6\pdl\drivers/peripheral/gpio/cy_gpio.h **** *   </tr>
 122:Generated_Source\PSoC6\pdl\drivers/peripheral/gpio/cy_gpio.h **** *   <tr>
 123:Generated_Source\PSoC6\pdl\drivers/peripheral/gpio/cy_gpio.h **** *     <td>Added register access layer. Use register access macros instead
 124:Generated_Source\PSoC6\pdl\drivers/peripheral/gpio/cy_gpio.h **** *         of direct register access using dereferenced pointers.</td>
 125:Generated_Source\PSoC6\pdl\drivers/peripheral/gpio/cy_gpio.h **** *     <td>Makes register access device-independent, so that the PDL does 
 126:Generated_Source\PSoC6\pdl\drivers/peripheral/gpio/cy_gpio.h **** *         not need to be recompiled for each supported part number.</td>
 127:Generated_Source\PSoC6\pdl\drivers/peripheral/gpio/cy_gpio.h **** *   </tr>
 128:Generated_Source\PSoC6\pdl\drivers/peripheral/gpio/cy_gpio.h **** *   <tr>
 129:Generated_Source\PSoC6\pdl\drivers/peripheral/gpio/cy_gpio.h **** *     <td>1.10.1</td>
 130:Generated_Source\PSoC6\pdl\drivers/peripheral/gpio/cy_gpio.h **** *     <td>Updated description for the functions: \ref Cy_GPIO_GetInterruptStatus, 
 131:Generated_Source\PSoC6\pdl\drivers/peripheral/gpio/cy_gpio.h **** *         \ref Cy_GPIO_GetInterruptMask, \ref Cy_GPIO_GetInterruptStatusMasked.
 132:Generated_Source\PSoC6\pdl\drivers/peripheral/gpio/cy_gpio.h **** *
 133:Generated_Source\PSoC6\pdl\drivers/peripheral/gpio/cy_gpio.h **** *         Minor documentation edits.
 134:Generated_Source\PSoC6\pdl\drivers/peripheral/gpio/cy_gpio.h **** *     </td>
 135:Generated_Source\PSoC6\pdl\drivers/peripheral/gpio/cy_gpio.h **** *     <td>Documentation update and clarification</td>
 136:Generated_Source\PSoC6\pdl\drivers/peripheral/gpio/cy_gpio.h **** *   </tr>
 137:Generated_Source\PSoC6\pdl\drivers/peripheral/gpio/cy_gpio.h **** *   <tr>
 138:Generated_Source\PSoC6\pdl\drivers/peripheral/gpio/cy_gpio.h **** *     <td>1.10</td>
 139:Generated_Source\PSoC6\pdl\drivers/peripheral/gpio/cy_gpio.h **** *     <td>Added input parameter validation to the API functions</td>
 140:Generated_Source\PSoC6\pdl\drivers/peripheral/gpio/cy_gpio.h **** *     <td></td>
 141:Generated_Source\PSoC6\pdl\drivers/peripheral/gpio/cy_gpio.h **** *   </tr>
 142:Generated_Source\PSoC6\pdl\drivers/peripheral/gpio/cy_gpio.h **** *   <tr>
 143:Generated_Source\PSoC6\pdl\drivers/peripheral/gpio/cy_gpio.h **** *     <td>1.0</td>
 144:Generated_Source\PSoC6\pdl\drivers/peripheral/gpio/cy_gpio.h **** *     <td>Initial version</td>
 145:Generated_Source\PSoC6\pdl\drivers/peripheral/gpio/cy_gpio.h **** *     <td></td>
 146:Generated_Source\PSoC6\pdl\drivers/peripheral/gpio/cy_gpio.h **** *   </tr>
 147:Generated_Source\PSoC6\pdl\drivers/peripheral/gpio/cy_gpio.h **** * </table>
 148:Generated_Source\PSoC6\pdl\drivers/peripheral/gpio/cy_gpio.h **** *
 149:Generated_Source\PSoC6\pdl\drivers/peripheral/gpio/cy_gpio.h **** * \defgroup group_gpio_macros Macros
 150:Generated_Source\PSoC6\pdl\drivers/peripheral/gpio/cy_gpio.h **** * \defgroup group_gpio_functions Functions
 151:Generated_Source\PSoC6\pdl\drivers/peripheral/gpio/cy_gpio.h **** * \{
 152:Generated_Source\PSoC6\pdl\drivers/peripheral/gpio/cy_gpio.h **** *   \defgroup group_gpio_functions_init       Initialization Functions
 153:Generated_Source\PSoC6\pdl\drivers/peripheral/gpio/cy_gpio.h **** *   \defgroup group_gpio_functions_gpio       GPIO Functions
 154:Generated_Source\PSoC6\pdl\drivers/peripheral/gpio/cy_gpio.h **** *   \defgroup group_gpio_functions_sio        SIO Functions
 155:Generated_Source\PSoC6\pdl\drivers/peripheral/gpio/cy_gpio.h **** *   \defgroup group_gpio_functions_interrupt  Port Interrupt Functions
 156:Generated_Source\PSoC6\pdl\drivers/peripheral/gpio/cy_gpio.h **** * \}
 157:Generated_Source\PSoC6\pdl\drivers/peripheral/gpio/cy_gpio.h **** * \defgroup group_gpio_data_structures Data Structures
 158:Generated_Source\PSoC6\pdl\drivers/peripheral/gpio/cy_gpio.h **** * \defgroup group_gpio_enums Enumerated Types
 159:Generated_Source\PSoC6\pdl\drivers/peripheral/gpio/cy_gpio.h **** */
 160:Generated_Source\PSoC6\pdl\drivers/peripheral/gpio/cy_gpio.h **** 
 161:Generated_Source\PSoC6\pdl\drivers/peripheral/gpio/cy_gpio.h **** #if !defined(CY_GPIO_H)
 162:Generated_Source\PSoC6\pdl\drivers/peripheral/gpio/cy_gpio.h **** #define CY_GPIO_H
 163:Generated_Source\PSoC6\pdl\drivers/peripheral/gpio/cy_gpio.h **** 
 164:Generated_Source\PSoC6\pdl\drivers/peripheral/gpio/cy_gpio.h **** #include <stddef.h>
 165:Generated_Source\PSoC6\pdl\drivers/peripheral/gpio/cy_gpio.h **** #include "cy_device.h"
ARM GAS  C:\Users\nicpa\AppData\Local\Temp\ccPr5feD.s 			page 21


 166:Generated_Source\PSoC6\pdl\drivers/peripheral/gpio/cy_gpio.h **** #include "cy_device_headers.h"
 167:Generated_Source\PSoC6\pdl\drivers/peripheral/gpio/cy_gpio.h **** #include "cy_syslib.h"
 168:Generated_Source\PSoC6\pdl\drivers/peripheral/gpio/cy_gpio.h **** 
 169:Generated_Source\PSoC6\pdl\drivers/peripheral/gpio/cy_gpio.h **** #if defined(__cplusplus)
 170:Generated_Source\PSoC6\pdl\drivers/peripheral/gpio/cy_gpio.h **** extern "C" {
 171:Generated_Source\PSoC6\pdl\drivers/peripheral/gpio/cy_gpio.h **** #endif
 172:Generated_Source\PSoC6\pdl\drivers/peripheral/gpio/cy_gpio.h **** 
 173:Generated_Source\PSoC6\pdl\drivers/peripheral/gpio/cy_gpio.h **** /** \addtogroup group_gpio_macros
 174:Generated_Source\PSoC6\pdl\drivers/peripheral/gpio/cy_gpio.h **** * \{
 175:Generated_Source\PSoC6\pdl\drivers/peripheral/gpio/cy_gpio.h **** */
 176:Generated_Source\PSoC6\pdl\drivers/peripheral/gpio/cy_gpio.h **** 
 177:Generated_Source\PSoC6\pdl\drivers/peripheral/gpio/cy_gpio.h **** /** Driver major version */
 178:Generated_Source\PSoC6\pdl\drivers/peripheral/gpio/cy_gpio.h **** #define CY_GPIO_DRV_VERSION_MAJOR       1
 179:Generated_Source\PSoC6\pdl\drivers/peripheral/gpio/cy_gpio.h **** 
 180:Generated_Source\PSoC6\pdl\drivers/peripheral/gpio/cy_gpio.h **** /** Driver minor version */
 181:Generated_Source\PSoC6\pdl\drivers/peripheral/gpio/cy_gpio.h **** #define CY_GPIO_DRV_VERSION_MINOR       20
 182:Generated_Source\PSoC6\pdl\drivers/peripheral/gpio/cy_gpio.h **** 
 183:Generated_Source\PSoC6\pdl\drivers/peripheral/gpio/cy_gpio.h **** /** GPIO driver ID */
 184:Generated_Source\PSoC6\pdl\drivers/peripheral/gpio/cy_gpio.h **** #define CY_GPIO_ID CY_PDL_DRV_ID(0x16U)
 185:Generated_Source\PSoC6\pdl\drivers/peripheral/gpio/cy_gpio.h **** 
 186:Generated_Source\PSoC6\pdl\drivers/peripheral/gpio/cy_gpio.h **** /** \} group_gpio_macros */
 187:Generated_Source\PSoC6\pdl\drivers/peripheral/gpio/cy_gpio.h **** 
 188:Generated_Source\PSoC6\pdl\drivers/peripheral/gpio/cy_gpio.h **** 
 189:Generated_Source\PSoC6\pdl\drivers/peripheral/gpio/cy_gpio.h **** /***************************************
 190:Generated_Source\PSoC6\pdl\drivers/peripheral/gpio/cy_gpio.h **** *       Enumerations
 191:Generated_Source\PSoC6\pdl\drivers/peripheral/gpio/cy_gpio.h **** ***************************************/
 192:Generated_Source\PSoC6\pdl\drivers/peripheral/gpio/cy_gpio.h **** /**
 193:Generated_Source\PSoC6\pdl\drivers/peripheral/gpio/cy_gpio.h **** * \addtogroup group_gpio_enums
 194:Generated_Source\PSoC6\pdl\drivers/peripheral/gpio/cy_gpio.h **** * \{
 195:Generated_Source\PSoC6\pdl\drivers/peripheral/gpio/cy_gpio.h **** */
 196:Generated_Source\PSoC6\pdl\drivers/peripheral/gpio/cy_gpio.h **** 
 197:Generated_Source\PSoC6\pdl\drivers/peripheral/gpio/cy_gpio.h **** /** GPIO Driver error codes */
 198:Generated_Source\PSoC6\pdl\drivers/peripheral/gpio/cy_gpio.h **** typedef enum 
 199:Generated_Source\PSoC6\pdl\drivers/peripheral/gpio/cy_gpio.h **** {
 200:Generated_Source\PSoC6\pdl\drivers/peripheral/gpio/cy_gpio.h ****     CY_GPIO_SUCCESS   = 0x00U,                                    /**< Returned successful */
 201:Generated_Source\PSoC6\pdl\drivers/peripheral/gpio/cy_gpio.h ****     CY_GPIO_BAD_PARAM = CY_GPIO_ID | CY_PDL_STATUS_ERROR | 0x01U, /**< Bad parameter was passed */
 202:Generated_Source\PSoC6\pdl\drivers/peripheral/gpio/cy_gpio.h **** } cy_en_gpio_status_t;
 203:Generated_Source\PSoC6\pdl\drivers/peripheral/gpio/cy_gpio.h **** 
 204:Generated_Source\PSoC6\pdl\drivers/peripheral/gpio/cy_gpio.h **** /** AMux switch open/close config */
 205:Generated_Source\PSoC6\pdl\drivers/peripheral/gpio/cy_gpio.h **** typedef enum
 206:Generated_Source\PSoC6\pdl\drivers/peripheral/gpio/cy_gpio.h **** {
 207:Generated_Source\PSoC6\pdl\drivers/peripheral/gpio/cy_gpio.h ****     CY_GPIO_AMUX_OPENALL,   /**< Open ground switch. Open right switch. Open left switch */
 208:Generated_Source\PSoC6\pdl\drivers/peripheral/gpio/cy_gpio.h ****     CY_GPIO_AMUX_L,         /**< Open ground switch. Open right switch. Close left switch */
 209:Generated_Source\PSoC6\pdl\drivers/peripheral/gpio/cy_gpio.h ****     CY_GPIO_AMUX_R,         /**< Open ground switch. Close right switch. Open left switch */
 210:Generated_Source\PSoC6\pdl\drivers/peripheral/gpio/cy_gpio.h ****     CY_GPIO_AMUX_LR,        /**< Open ground switch. Close right switch. Close left switch */
 211:Generated_Source\PSoC6\pdl\drivers/peripheral/gpio/cy_gpio.h ****     CY_GPIO_AMUX_G,         /**< Close ground switch. Open right switch. Open left switch */
 212:Generated_Source\PSoC6\pdl\drivers/peripheral/gpio/cy_gpio.h ****     CY_GPIO_AMUX_GL,        /**< Close ground switch. Open right switch. Close left switch */
 213:Generated_Source\PSoC6\pdl\drivers/peripheral/gpio/cy_gpio.h ****     CY_GPIO_AMUX_GR,        /**< Close ground switch. Close right switch. Open left switch */
 214:Generated_Source\PSoC6\pdl\drivers/peripheral/gpio/cy_gpio.h ****     CY_GPIO_AMUX_GLR,       /**< Close ground switch. Close right switch. Close left switch */
 215:Generated_Source\PSoC6\pdl\drivers/peripheral/gpio/cy_gpio.h **** }cy_en_gpio_amuxconnect_t;
 216:Generated_Source\PSoC6\pdl\drivers/peripheral/gpio/cy_gpio.h **** 
 217:Generated_Source\PSoC6\pdl\drivers/peripheral/gpio/cy_gpio.h **** /**
 218:Generated_Source\PSoC6\pdl\drivers/peripheral/gpio/cy_gpio.h **** * AMux Bus selection
 219:Generated_Source\PSoC6\pdl\drivers/peripheral/gpio/cy_gpio.h **** */
 220:Generated_Source\PSoC6\pdl\drivers/peripheral/gpio/cy_gpio.h **** typedef enum
 221:Generated_Source\PSoC6\pdl\drivers/peripheral/gpio/cy_gpio.h **** {
 222:Generated_Source\PSoC6\pdl\drivers/peripheral/gpio/cy_gpio.h ****     CY_GPIO_AMUXBUSA,       /**< AMuxBus A */
ARM GAS  C:\Users\nicpa\AppData\Local\Temp\ccPr5feD.s 			page 22


 223:Generated_Source\PSoC6\pdl\drivers/peripheral/gpio/cy_gpio.h ****     CY_GPIO_AMUXBUSB        /**< AMuxBus B */
 224:Generated_Source\PSoC6\pdl\drivers/peripheral/gpio/cy_gpio.h **** }cy_en_gpio_amuxselect_t;
 225:Generated_Source\PSoC6\pdl\drivers/peripheral/gpio/cy_gpio.h **** 
 226:Generated_Source\PSoC6\pdl\drivers/peripheral/gpio/cy_gpio.h **** /** \} group_gpio_enums */
 227:Generated_Source\PSoC6\pdl\drivers/peripheral/gpio/cy_gpio.h **** 
 228:Generated_Source\PSoC6\pdl\drivers/peripheral/gpio/cy_gpio.h **** 
 229:Generated_Source\PSoC6\pdl\drivers/peripheral/gpio/cy_gpio.h **** /***************************************
 230:Generated_Source\PSoC6\pdl\drivers/peripheral/gpio/cy_gpio.h **** *       Configuration Structures
 231:Generated_Source\PSoC6\pdl\drivers/peripheral/gpio/cy_gpio.h **** ***************************************/
 232:Generated_Source\PSoC6\pdl\drivers/peripheral/gpio/cy_gpio.h **** 
 233:Generated_Source\PSoC6\pdl\drivers/peripheral/gpio/cy_gpio.h **** /**
 234:Generated_Source\PSoC6\pdl\drivers/peripheral/gpio/cy_gpio.h **** * \addtogroup group_gpio_data_structures
 235:Generated_Source\PSoC6\pdl\drivers/peripheral/gpio/cy_gpio.h **** * \{
 236:Generated_Source\PSoC6\pdl\drivers/peripheral/gpio/cy_gpio.h **** */
 237:Generated_Source\PSoC6\pdl\drivers/peripheral/gpio/cy_gpio.h **** 
 238:Generated_Source\PSoC6\pdl\drivers/peripheral/gpio/cy_gpio.h **** /** This structure is used to initialize a port of GPIO pins */
 239:Generated_Source\PSoC6\pdl\drivers/peripheral/gpio/cy_gpio.h **** typedef struct 
 240:Generated_Source\PSoC6\pdl\drivers/peripheral/gpio/cy_gpio.h **** {
 241:Generated_Source\PSoC6\pdl\drivers/peripheral/gpio/cy_gpio.h ****     uint32_t out;           /**< Initial output data for the IO pins in the port */
 242:Generated_Source\PSoC6\pdl\drivers/peripheral/gpio/cy_gpio.h ****     uint32_t intrMask;      /**< Interrupt enable mask for the port interrupt */
 243:Generated_Source\PSoC6\pdl\drivers/peripheral/gpio/cy_gpio.h ****     uint32_t intrCfg;       /**< Port pin interrupt edge detection configuration */
 244:Generated_Source\PSoC6\pdl\drivers/peripheral/gpio/cy_gpio.h ****     uint32_t cfg;           /**< Port pin drive modes and input buffer enable configuration */
 245:Generated_Source\PSoC6\pdl\drivers/peripheral/gpio/cy_gpio.h ****     uint32_t cfgIn;         /**< Port pin input buffer configuration */
 246:Generated_Source\PSoC6\pdl\drivers/peripheral/gpio/cy_gpio.h ****     uint32_t cfgOut;        /**< Port pin output buffer configuration */
 247:Generated_Source\PSoC6\pdl\drivers/peripheral/gpio/cy_gpio.h ****     uint32_t cfgSIO;        /**< Port SIO pins configuration */
 248:Generated_Source\PSoC6\pdl\drivers/peripheral/gpio/cy_gpio.h ****     uint32_t sel0Active;    /**< HSIOM selection for port pins 0,1,2,3 */
 249:Generated_Source\PSoC6\pdl\drivers/peripheral/gpio/cy_gpio.h ****     uint32_t sel1Active;    /**< HSIOM selection for port pins 4,5,6,7 */
 250:Generated_Source\PSoC6\pdl\drivers/peripheral/gpio/cy_gpio.h **** } cy_stc_gpio_prt_config_t;
 251:Generated_Source\PSoC6\pdl\drivers/peripheral/gpio/cy_gpio.h **** 
 252:Generated_Source\PSoC6\pdl\drivers/peripheral/gpio/cy_gpio.h **** /** This structure is used to initialize a single GPIO pin */
 253:Generated_Source\PSoC6\pdl\drivers/peripheral/gpio/cy_gpio.h **** typedef struct
 254:Generated_Source\PSoC6\pdl\drivers/peripheral/gpio/cy_gpio.h **** {
 255:Generated_Source\PSoC6\pdl\drivers/peripheral/gpio/cy_gpio.h ****     uint32_t outVal;         /**< Pin output state */
 256:Generated_Source\PSoC6\pdl\drivers/peripheral/gpio/cy_gpio.h ****     uint32_t driveMode;      /**< Drive mode */
 257:Generated_Source\PSoC6\pdl\drivers/peripheral/gpio/cy_gpio.h ****     en_hsiom_sel_t hsiom;    /**< HSIOM selection */
 258:Generated_Source\PSoC6\pdl\drivers/peripheral/gpio/cy_gpio.h ****     uint32_t intEdge;        /**< Interrupt Edge type */
 259:Generated_Source\PSoC6\pdl\drivers/peripheral/gpio/cy_gpio.h ****     uint32_t intMask;        /**< Interrupt enable mask */
 260:Generated_Source\PSoC6\pdl\drivers/peripheral/gpio/cy_gpio.h ****     uint32_t vtrip;          /**< Input buffer voltage trip type */
 261:Generated_Source\PSoC6\pdl\drivers/peripheral/gpio/cy_gpio.h ****     uint32_t slewRate;       /**< Output buffer slew rate */
 262:Generated_Source\PSoC6\pdl\drivers/peripheral/gpio/cy_gpio.h ****     uint32_t driveSel;       /**< Drive strength */
 263:Generated_Source\PSoC6\pdl\drivers/peripheral/gpio/cy_gpio.h ****     uint32_t vregEn;         /**< SIO pair output buffer mode */
 264:Generated_Source\PSoC6\pdl\drivers/peripheral/gpio/cy_gpio.h ****     uint32_t ibufMode;       /**< SIO pair input buffer mode */
 265:Generated_Source\PSoC6\pdl\drivers/peripheral/gpio/cy_gpio.h ****     uint32_t vtripSel;       /**< SIO pair input buffer trip point */
 266:Generated_Source\PSoC6\pdl\drivers/peripheral/gpio/cy_gpio.h ****     uint32_t vrefSel;        /**< SIO pair reference voltage for input buffer trip point */
 267:Generated_Source\PSoC6\pdl\drivers/peripheral/gpio/cy_gpio.h ****     uint32_t vohSel;         /**< SIO pair regulated voltage output level */
 268:Generated_Source\PSoC6\pdl\drivers/peripheral/gpio/cy_gpio.h **** } cy_stc_gpio_pin_config_t;
 269:Generated_Source\PSoC6\pdl\drivers/peripheral/gpio/cy_gpio.h **** 
 270:Generated_Source\PSoC6\pdl\drivers/peripheral/gpio/cy_gpio.h **** /** \} group_gpio_data_structures */
 271:Generated_Source\PSoC6\pdl\drivers/peripheral/gpio/cy_gpio.h **** 
 272:Generated_Source\PSoC6\pdl\drivers/peripheral/gpio/cy_gpio.h **** /***************************************
 273:Generated_Source\PSoC6\pdl\drivers/peripheral/gpio/cy_gpio.h **** *        Constants
 274:Generated_Source\PSoC6\pdl\drivers/peripheral/gpio/cy_gpio.h **** ***************************************/
 275:Generated_Source\PSoC6\pdl\drivers/peripheral/gpio/cy_gpio.h **** 
 276:Generated_Source\PSoC6\pdl\drivers/peripheral/gpio/cy_gpio.h **** /** \cond INTERNAL */
 277:Generated_Source\PSoC6\pdl\drivers/peripheral/gpio/cy_gpio.h **** 
 278:Generated_Source\PSoC6\pdl\drivers/peripheral/gpio/cy_gpio.h **** /* General Constants */
 279:Generated_Source\PSoC6\pdl\drivers/peripheral/gpio/cy_gpio.h **** #define CY_GPIO_PRT_HALF                       (4UL)      /**< Half-way point of a GPIO port */
ARM GAS  C:\Users\nicpa\AppData\Local\Temp\ccPr5feD.s 			page 23


 280:Generated_Source\PSoC6\pdl\drivers/peripheral/gpio/cy_gpio.h **** #define CY_GPIO_PRT_DEINIT                     (0UL)      /**< De-init value for port registers */
 281:Generated_Source\PSoC6\pdl\drivers/peripheral/gpio/cy_gpio.h **** 
 282:Generated_Source\PSoC6\pdl\drivers/peripheral/gpio/cy_gpio.h **** /* GPIO Masks */
 283:Generated_Source\PSoC6\pdl\drivers/peripheral/gpio/cy_gpio.h **** #define CY_GPIO_HSIOM_MASK                     (0x1FUL)   /**< HSIOM selection mask */
 284:Generated_Source\PSoC6\pdl\drivers/peripheral/gpio/cy_gpio.h **** #define CY_GPIO_OUT_MASK                       (0x01UL)   /**< Single pin mask for OUT register */
 285:Generated_Source\PSoC6\pdl\drivers/peripheral/gpio/cy_gpio.h **** #define CY_GPIO_IN_MASK                        (0x01UL)   /**< Single pin mask for IN register */
 286:Generated_Source\PSoC6\pdl\drivers/peripheral/gpio/cy_gpio.h **** #define CY_GPIO_CFG_DM_MASK                    (0x0FUL)   /**< Single pin mask for drive mode in CF
 287:Generated_Source\PSoC6\pdl\drivers/peripheral/gpio/cy_gpio.h **** #define CY_GPIO_CFG_IN_VTRIP_SEL_MASK          (0x01UL)   /**< Single pin mask for VTRIP selection 
 288:Generated_Source\PSoC6\pdl\drivers/peripheral/gpio/cy_gpio.h **** #define CY_GPIO_CFG_OUT_SLOW_MASK              (0x01UL)   /**< Single pin mask for slew rate in CFG
 289:Generated_Source\PSoC6\pdl\drivers/peripheral/gpio/cy_gpio.h **** #define CY_GPIO_CFG_OUT_DRIVE_SEL_MASK         (0x03UL)   /**< Single pin mask for drive strength i
 290:Generated_Source\PSoC6\pdl\drivers/peripheral/gpio/cy_gpio.h **** #define CY_GPIO_INTR_STATUS_MASK               (0x01UL)   /**< Single pin mask for interrupt status
 291:Generated_Source\PSoC6\pdl\drivers/peripheral/gpio/cy_gpio.h **** #define CY_GPIO_INTR_EN_MASK                   (0x01UL)   /**< Single pin mask for interrupt status
 292:Generated_Source\PSoC6\pdl\drivers/peripheral/gpio/cy_gpio.h **** #define CY_GPIO_INTR_MASKED_MASK               (0x01UL)   /**< Single pin mask for masked interrupt
 293:Generated_Source\PSoC6\pdl\drivers/peripheral/gpio/cy_gpio.h **** #define CY_GPIO_INTR_SET_MASK                  (0x01UL)   /**< Single pin mask for setting the inte
 294:Generated_Source\PSoC6\pdl\drivers/peripheral/gpio/cy_gpio.h **** #define CY_GPIO_INTR_EDGE_MASK                 (0x03UL)   /**< Single pin mask for interrupt edge t
 295:Generated_Source\PSoC6\pdl\drivers/peripheral/gpio/cy_gpio.h **** #define CY_GPIO_INTR_FLT_EDGE_MASK             (0x07UL)   /**< Single pin mask for setting filtered
 296:Generated_Source\PSoC6\pdl\drivers/peripheral/gpio/cy_gpio.h **** 
 297:Generated_Source\PSoC6\pdl\drivers/peripheral/gpio/cy_gpio.h **** /* SIO Masks */
 298:Generated_Source\PSoC6\pdl\drivers/peripheral/gpio/cy_gpio.h **** #define CY_GPIO_VREG_EN_MASK                   (0x01UL)   /**< Single SIO pin mask for voltage regu
 299:Generated_Source\PSoC6\pdl\drivers/peripheral/gpio/cy_gpio.h **** #define CY_GPIO_IBUF_MASK                      (0x01UL)   /**< Single SIO pin mask for input buffer
 300:Generated_Source\PSoC6\pdl\drivers/peripheral/gpio/cy_gpio.h **** #define CY_GPIO_IBUF_SHIFT                     (0x01UL)   /**< Single SIO pin shift for input buffe
 301:Generated_Source\PSoC6\pdl\drivers/peripheral/gpio/cy_gpio.h **** #define CY_GPIO_VTRIP_SEL_MASK                 (0x01UL)   /**< Single SIO pin mask for the input bu
 302:Generated_Source\PSoC6\pdl\drivers/peripheral/gpio/cy_gpio.h **** #define CY_GPIO_VTRIP_SEL_SHIFT                (0x02UL)   /**< Single SIO pin shift for the input b
 303:Generated_Source\PSoC6\pdl\drivers/peripheral/gpio/cy_gpio.h **** #define CY_GPIO_VREF_SEL_MASK                  (0x03UL)   /**< Single SIO pin mask for voltage refe
 304:Generated_Source\PSoC6\pdl\drivers/peripheral/gpio/cy_gpio.h **** #define CY_GPIO_VREF_SEL_SHIFT                 (0x03UL)   /**< Single SIO pin shift for voltage ref
 305:Generated_Source\PSoC6\pdl\drivers/peripheral/gpio/cy_gpio.h **** #define CY_GPIO_VOH_SEL_MASK                   (0x07UL)   /**< Single SIO pin mask for VOH */
 306:Generated_Source\PSoC6\pdl\drivers/peripheral/gpio/cy_gpio.h **** #define CY_GPIO_VOH_SEL_SHIFT                  (0x05UL)   /**< Single SIO pin shift for VOH */
 307:Generated_Source\PSoC6\pdl\drivers/peripheral/gpio/cy_gpio.h **** 
 308:Generated_Source\PSoC6\pdl\drivers/peripheral/gpio/cy_gpio.h **** /* Special mask for SIO pin pair setting */
 309:Generated_Source\PSoC6\pdl\drivers/peripheral/gpio/cy_gpio.h **** #define CY_GPIO_SIO_ODD_PIN_MASK               (0x00FEUL) /**< SIO pin pair selection mask */
 310:Generated_Source\PSoC6\pdl\drivers/peripheral/gpio/cy_gpio.h **** #define CY_GPIO_SIO_PIN_MASK                   (0x00FFUL) /**< SIO pin pair mask */
 311:Generated_Source\PSoC6\pdl\drivers/peripheral/gpio/cy_gpio.h **** 
 312:Generated_Source\PSoC6\pdl\drivers/peripheral/gpio/cy_gpio.h **** /* Offsets */
 313:Generated_Source\PSoC6\pdl\drivers/peripheral/gpio/cy_gpio.h **** #define CY_GPIO_HSIOM_OFFSET                   (3UL)      /**< Offset for HSIOM */
 314:Generated_Source\PSoC6\pdl\drivers/peripheral/gpio/cy_gpio.h **** #define CY_GPIO_DRIVE_MODE_OFFSET              (2UL)      /**< Offset for Drive mode */
 315:Generated_Source\PSoC6\pdl\drivers/peripheral/gpio/cy_gpio.h **** #define CY_GPIO_INBUF_OFFSET                   (3UL)      /**< Offset for input buffer */
 316:Generated_Source\PSoC6\pdl\drivers/peripheral/gpio/cy_gpio.h **** #define CY_GPIO_CFG_OUT_DRIVE_OFFSET           (16UL)     /**< Offset for drive strength */
 317:Generated_Source\PSoC6\pdl\drivers/peripheral/gpio/cy_gpio.h **** #define CY_GPIO_INTR_CFG_OFFSET                (1UL)      /**< Offset for interrupt config */
 318:Generated_Source\PSoC6\pdl\drivers/peripheral/gpio/cy_gpio.h **** #define CY_GPIO_INTR_FILT_OFFSET               (18UL)     /**< Offset for filtered interrupt config
 319:Generated_Source\PSoC6\pdl\drivers/peripheral/gpio/cy_gpio.h **** #define CY_GPIO_CFG_SIO_OFFSET                 (2UL)      /**< Offset for SIO config */
 320:Generated_Source\PSoC6\pdl\drivers/peripheral/gpio/cy_gpio.h **** 
 321:Generated_Source\PSoC6\pdl\drivers/peripheral/gpio/cy_gpio.h **** /* Parameter validation constants */
 322:Generated_Source\PSoC6\pdl\drivers/peripheral/gpio/cy_gpio.h **** #define CY_GPIO_PINS_MAX                       (8UL)      /**< Number of pins in the port */
 323:Generated_Source\PSoC6\pdl\drivers/peripheral/gpio/cy_gpio.h **** #define CY_GPIO_PRT_PINS_MASK                  (0x0000000FFUL)
 324:Generated_Source\PSoC6\pdl\drivers/peripheral/gpio/cy_gpio.h **** #define CY_GPIO_PRT_INTR_CFG_EDGE_SEL_MASK     (GPIO_PRT_INTR_CFG_EDGE0_SEL_Msk | \
 325:Generated_Source\PSoC6\pdl\drivers/peripheral/gpio/cy_gpio.h ****                                                 GPIO_PRT_INTR_CFG_EDGE1_SEL_Msk | \
 326:Generated_Source\PSoC6\pdl\drivers/peripheral/gpio/cy_gpio.h ****                                                 GPIO_PRT_INTR_CFG_EDGE2_SEL_Msk | \
 327:Generated_Source\PSoC6\pdl\drivers/peripheral/gpio/cy_gpio.h ****                                                 GPIO_PRT_INTR_CFG_EDGE3_SEL_Msk | \
 328:Generated_Source\PSoC6\pdl\drivers/peripheral/gpio/cy_gpio.h ****                                                 GPIO_PRT_INTR_CFG_EDGE4_SEL_Msk | \
 329:Generated_Source\PSoC6\pdl\drivers/peripheral/gpio/cy_gpio.h ****                                                 GPIO_PRT_INTR_CFG_EDGE5_SEL_Msk | \
 330:Generated_Source\PSoC6\pdl\drivers/peripheral/gpio/cy_gpio.h ****                                                 GPIO_PRT_INTR_CFG_EDGE6_SEL_Msk | \
 331:Generated_Source\PSoC6\pdl\drivers/peripheral/gpio/cy_gpio.h ****                                                 GPIO_PRT_INTR_CFG_EDGE7_SEL_Msk)
 332:Generated_Source\PSoC6\pdl\drivers/peripheral/gpio/cy_gpio.h **** #define CY_GPIO_PRT_INTR_CFG_RANGE_MASK        (CY_GPIO_PRT_INTR_CFG_EDGE_SEL_MASK | \
 333:Generated_Source\PSoC6\pdl\drivers/peripheral/gpio/cy_gpio.h ****                                                 GPIO_PRT_INTR_CFG_FLT_EDGE_SEL_Msk | \
 334:Generated_Source\PSoC6\pdl\drivers/peripheral/gpio/cy_gpio.h ****                                                 GPIO_PRT_INTR_CFG_FLT_SEL_Msk)
 335:Generated_Source\PSoC6\pdl\drivers/peripheral/gpio/cy_gpio.h **** #define CY_GPIO_PRT_INT_MASK_MASK              (0x0000001FFUL)
 336:Generated_Source\PSoC6\pdl\drivers/peripheral/gpio/cy_gpio.h **** #define CY_GPIO_PRT_SEL_ACTIVE_MASK            (0x1FFFFFFFUL)
ARM GAS  C:\Users\nicpa\AppData\Local\Temp\ccPr5feD.s 			page 24


 337:Generated_Source\PSoC6\pdl\drivers/peripheral/gpio/cy_gpio.h **** 
 338:Generated_Source\PSoC6\pdl\drivers/peripheral/gpio/cy_gpio.h **** #define GPIO_MAX_SPLIT_CELL_SEGMENTS           (9U)
 339:Generated_Source\PSoC6\pdl\drivers/peripheral/gpio/cy_gpio.h **** 
 340:Generated_Source\PSoC6\pdl\drivers/peripheral/gpio/cy_gpio.h **** /* Parameter validation macros */
 341:Generated_Source\PSoC6\pdl\drivers/peripheral/gpio/cy_gpio.h **** #define CY_GPIO_IS_PIN_VALID(pinNum)           (CY_GPIO_PINS_MAX > (pinNum))
 342:Generated_Source\PSoC6\pdl\drivers/peripheral/gpio/cy_gpio.h **** #define CY_GPIO_IS_FILTER_PIN_VALID(pinNum)    (CY_GPIO_PINS_MAX >= (pinNum))
 343:Generated_Source\PSoC6\pdl\drivers/peripheral/gpio/cy_gpio.h **** #define CY_GPIO_IS_VALUE_VALID(outVal)         (1UL >= (outVal))
 344:Generated_Source\PSoC6\pdl\drivers/peripheral/gpio/cy_gpio.h **** #define CY_GPIO_IS_DM_VALID(driveMode)         (0U == ((driveMode) & (uint32_t)~CY_GPIO_CFG_DM_MASK
 345:Generated_Source\PSoC6\pdl\drivers/peripheral/gpio/cy_gpio.h **** 
 346:Generated_Source\PSoC6\pdl\drivers/peripheral/gpio/cy_gpio.h **** #define CY_GPIO_IS_HSIOM_VALID(hsiom)          (0U == ((hsiom) & (uint32_t)~CY_GPIO_HSIOM_MASK))
 347:Generated_Source\PSoC6\pdl\drivers/peripheral/gpio/cy_gpio.h **** 
 348:Generated_Source\PSoC6\pdl\drivers/peripheral/gpio/cy_gpio.h **** #define CY_GPIO_IS_INT_EDGE_VALID(intEdge)     ((CY_GPIO_INTR_DISABLE  == (intEdge)) || \
 349:Generated_Source\PSoC6\pdl\drivers/peripheral/gpio/cy_gpio.h ****                                                 (CY_GPIO_INTR_RISING   == (intEdge)) || \
 350:Generated_Source\PSoC6\pdl\drivers/peripheral/gpio/cy_gpio.h ****                                                 (CY_GPIO_INTR_FALLING  == (intEdge)) || \
 351:Generated_Source\PSoC6\pdl\drivers/peripheral/gpio/cy_gpio.h ****                                                 (CY_GPIO_INTR_BOTH     == (intEdge)))
 352:Generated_Source\PSoC6\pdl\drivers/peripheral/gpio/cy_gpio.h **** 
 353:Generated_Source\PSoC6\pdl\drivers/peripheral/gpio/cy_gpio.h **** #define CY_GPIO_IS_DRIVE_SEL_VALID(driveSel)   ((CY_GPIO_DRIVE_FULL    == (driveSel)) || \
 354:Generated_Source\PSoC6\pdl\drivers/peripheral/gpio/cy_gpio.h ****                                                 (CY_GPIO_DRIVE_1_2     == (driveSel)) || \
 355:Generated_Source\PSoC6\pdl\drivers/peripheral/gpio/cy_gpio.h ****                                                 (CY_GPIO_DRIVE_1_4     == (driveSel)) || \
 356:Generated_Source\PSoC6\pdl\drivers/peripheral/gpio/cy_gpio.h ****                                                 (CY_GPIO_DRIVE_1_8     == (driveSel)))
 357:Generated_Source\PSoC6\pdl\drivers/peripheral/gpio/cy_gpio.h **** 
 358:Generated_Source\PSoC6\pdl\drivers/peripheral/gpio/cy_gpio.h **** #define CY_GPIO_IS_VREF_SEL_VALID(vrefSel)     ((CY_SIO_VREF_PINREF    == (vrefSel)) || \
 359:Generated_Source\PSoC6\pdl\drivers/peripheral/gpio/cy_gpio.h ****                                                 (CY_SIO_VREF_1_2V      == (vrefSel)) || \
 360:Generated_Source\PSoC6\pdl\drivers/peripheral/gpio/cy_gpio.h ****                                                 (CY_SIO_VREF_AMUX_A    == (vrefSel)) || \
 361:Generated_Source\PSoC6\pdl\drivers/peripheral/gpio/cy_gpio.h ****                                                 (CY_SIO_VREF_AMUX_B    == (vrefSel)))
 362:Generated_Source\PSoC6\pdl\drivers/peripheral/gpio/cy_gpio.h **** 
 363:Generated_Source\PSoC6\pdl\drivers/peripheral/gpio/cy_gpio.h **** #define CY_GPIO_IS_VOH_SEL_VALID(vrefSel)      ((CY_SIO_VOH_1_00       == (vrefSel)) || \
 364:Generated_Source\PSoC6\pdl\drivers/peripheral/gpio/cy_gpio.h ****                                                 (CY_SIO_VOH_1_25       == (vrefSel)) || \
 365:Generated_Source\PSoC6\pdl\drivers/peripheral/gpio/cy_gpio.h ****                                                 (CY_SIO_VOH_1_49       == (vrefSel)) || \
 366:Generated_Source\PSoC6\pdl\drivers/peripheral/gpio/cy_gpio.h ****                                                 (CY_SIO_VOH_1_67       == (vrefSel)) || \
 367:Generated_Source\PSoC6\pdl\drivers/peripheral/gpio/cy_gpio.h ****                                                 (CY_SIO_VOH_2_08       == (vrefSel)) || \
 368:Generated_Source\PSoC6\pdl\drivers/peripheral/gpio/cy_gpio.h ****                                                 (CY_SIO_VOH_2_50       == (vrefSel)) || \
 369:Generated_Source\PSoC6\pdl\drivers/peripheral/gpio/cy_gpio.h ****                                                 (CY_SIO_VOH_2_78       == (vrefSel)) || \
 370:Generated_Source\PSoC6\pdl\drivers/peripheral/gpio/cy_gpio.h ****                                                 (CY_SIO_VOH_4_16       == (vrefSel)))
 371:Generated_Source\PSoC6\pdl\drivers/peripheral/gpio/cy_gpio.h ****                    
 372:Generated_Source\PSoC6\pdl\drivers/peripheral/gpio/cy_gpio.h **** #define CY_GPIO_IS_PIN_BIT_VALID(pinBit)       (0U == ((pinBit) & (uint32_t)~CY_GPIO_PRT_PINS_MASK)
 373:Generated_Source\PSoC6\pdl\drivers/peripheral/gpio/cy_gpio.h **** #define CY_GPIO_IS_INTR_CFG_VALID(intrCfg)     (0U == ((intrCfg) & (uint32_t)~CY_GPIO_PRT_INTR_CFG_
 374:Generated_Source\PSoC6\pdl\drivers/peripheral/gpio/cy_gpio.h **** #define CY_GPIO_IS_INTR_MASK_VALID(intrMask)   (0U == ((intrMask) & (uint32_t)~CY_GPIO_PRT_INT_MASK
 375:Generated_Source\PSoC6\pdl\drivers/peripheral/gpio/cy_gpio.h **** #define CY_GPIO_IS_SEL_ACT_VALID(selActive)    (0U == ((selActive) & (uint32_t)~CY_GPIO_PRT_SEL_ACT
 376:Generated_Source\PSoC6\pdl\drivers/peripheral/gpio/cy_gpio.h **** 
 377:Generated_Source\PSoC6\pdl\drivers/peripheral/gpio/cy_gpio.h **** #define CY_GPIO_IS_AMUX_SPLIT_VALID(switchCtrl)       (((uint32_t) (switchCtrl)) < GPIO_MAX_SPLIT_C
 378:Generated_Source\PSoC6\pdl\drivers/peripheral/gpio/cy_gpio.h **** 
 379:Generated_Source\PSoC6\pdl\drivers/peripheral/gpio/cy_gpio.h **** #define CY_GPIO_IS_AMUX_CONNECT_VALID(amuxConnect)    ((CY_GPIO_AMUX_OPENALL == (amuxConnect)) || \
 380:Generated_Source\PSoC6\pdl\drivers/peripheral/gpio/cy_gpio.h ****                                                        (CY_GPIO_AMUX_L       == (amuxConnect)) || \
 381:Generated_Source\PSoC6\pdl\drivers/peripheral/gpio/cy_gpio.h ****                                                        (CY_GPIO_AMUX_R       == (amuxConnect)) || \
 382:Generated_Source\PSoC6\pdl\drivers/peripheral/gpio/cy_gpio.h ****                                                        (CY_GPIO_AMUX_LR      == (amuxConnect)) || \
 383:Generated_Source\PSoC6\pdl\drivers/peripheral/gpio/cy_gpio.h ****                                                        (CY_GPIO_AMUX_G       == (amuxConnect)) || \
 384:Generated_Source\PSoC6\pdl\drivers/peripheral/gpio/cy_gpio.h ****                                                        (CY_GPIO_AMUX_GL      == (amuxConnect)) || \
 385:Generated_Source\PSoC6\pdl\drivers/peripheral/gpio/cy_gpio.h ****                                                        (CY_GPIO_AMUX_GR      == (amuxConnect)) || \
 386:Generated_Source\PSoC6\pdl\drivers/peripheral/gpio/cy_gpio.h ****                                                        (CY_GPIO_AMUX_GLR     == (amuxConnect)))
 387:Generated_Source\PSoC6\pdl\drivers/peripheral/gpio/cy_gpio.h **** 
 388:Generated_Source\PSoC6\pdl\drivers/peripheral/gpio/cy_gpio.h **** #define CY_GPIO_IS_AMUX_SELECT_VALID(amuxBus)       ((CY_GPIO_AMUXBUSA       == (amuxBus)) || \
 389:Generated_Source\PSoC6\pdl\drivers/peripheral/gpio/cy_gpio.h ****                                                      (CY_GPIO_AMUXBUSB       == (amuxBus)))
 390:Generated_Source\PSoC6\pdl\drivers/peripheral/gpio/cy_gpio.h **** /** \endcond */
 391:Generated_Source\PSoC6\pdl\drivers/peripheral/gpio/cy_gpio.h **** 
 392:Generated_Source\PSoC6\pdl\drivers/peripheral/gpio/cy_gpio.h **** 
 393:Generated_Source\PSoC6\pdl\drivers/peripheral/gpio/cy_gpio.h **** /***************************************
ARM GAS  C:\Users\nicpa\AppData\Local\Temp\ccPr5feD.s 			page 25


 394:Generated_Source\PSoC6\pdl\drivers/peripheral/gpio/cy_gpio.h **** *        Function Constants
 395:Generated_Source\PSoC6\pdl\drivers/peripheral/gpio/cy_gpio.h **** ***************************************/
 396:Generated_Source\PSoC6\pdl\drivers/peripheral/gpio/cy_gpio.h **** 
 397:Generated_Source\PSoC6\pdl\drivers/peripheral/gpio/cy_gpio.h **** /**
 398:Generated_Source\PSoC6\pdl\drivers/peripheral/gpio/cy_gpio.h **** * \addtogroup group_gpio_macros
 399:Generated_Source\PSoC6\pdl\drivers/peripheral/gpio/cy_gpio.h **** * \{
 400:Generated_Source\PSoC6\pdl\drivers/peripheral/gpio/cy_gpio.h **** */
 401:Generated_Source\PSoC6\pdl\drivers/peripheral/gpio/cy_gpio.h **** 
 402:Generated_Source\PSoC6\pdl\drivers/peripheral/gpio/cy_gpio.h **** /**
 403:Generated_Source\PSoC6\pdl\drivers/peripheral/gpio/cy_gpio.h **** * \defgroup group_gpio_driveModes Pin drive mode
 404:Generated_Source\PSoC6\pdl\drivers/peripheral/gpio/cy_gpio.h **** * \{
 405:Generated_Source\PSoC6\pdl\drivers/peripheral/gpio/cy_gpio.h **** * Constants to be used for setting the drive mode of the pin.
 406:Generated_Source\PSoC6\pdl\drivers/peripheral/gpio/cy_gpio.h **** */
 407:Generated_Source\PSoC6\pdl\drivers/peripheral/gpio/cy_gpio.h **** #define CY_GPIO_DM_ANALOG                      (0x00UL) /**< Analog High-Z. Input buffer off */
 408:Generated_Source\PSoC6\pdl\drivers/peripheral/gpio/cy_gpio.h **** #define CY_GPIO_DM_PULLUP_IN_OFF               (0x02UL) /**< Resistive Pull-Up. Input buffer off */
 409:Generated_Source\PSoC6\pdl\drivers/peripheral/gpio/cy_gpio.h **** #define CY_GPIO_DM_PULLDOWN_IN_OFF             (0x03UL) /**< Resistive Pull-Down. Input buffer off 
 410:Generated_Source\PSoC6\pdl\drivers/peripheral/gpio/cy_gpio.h **** #define CY_GPIO_DM_OD_DRIVESLOW_IN_OFF         (0x04UL) /**< Open Drain, Drives Low. Input buffer o
 411:Generated_Source\PSoC6\pdl\drivers/peripheral/gpio/cy_gpio.h **** #define CY_GPIO_DM_OD_DRIVESHIGH_IN_OFF        (0x05UL) /**< Open Drain, Drives High. Input buffer 
 412:Generated_Source\PSoC6\pdl\drivers/peripheral/gpio/cy_gpio.h **** #define CY_GPIO_DM_STRONG_IN_OFF               (0x06UL) /**< Strong Drive. Input buffer off */
 413:Generated_Source\PSoC6\pdl\drivers/peripheral/gpio/cy_gpio.h **** #define CY_GPIO_DM_PULLUP_DOWN_IN_OFF          (0x07UL) /**< Resistive Pull-Up/Down. Input buffer o
 414:Generated_Source\PSoC6\pdl\drivers/peripheral/gpio/cy_gpio.h **** #define CY_GPIO_DM_HIGHZ                       (0x08UL) /**< Digital High-Z. Input buffer on */
 415:Generated_Source\PSoC6\pdl\drivers/peripheral/gpio/cy_gpio.h **** #define CY_GPIO_DM_PULLUP                      (0x0AUL) /**< Resistive Pull-Up. Input buffer on */
 416:Generated_Source\PSoC6\pdl\drivers/peripheral/gpio/cy_gpio.h **** #define CY_GPIO_DM_PULLDOWN                    (0x0BUL) /**< Resistive Pull-Down. Input buffer on *
 417:Generated_Source\PSoC6\pdl\drivers/peripheral/gpio/cy_gpio.h **** #define CY_GPIO_DM_OD_DRIVESLOW                (0x0CUL) /**< Open Drain, Drives Low. Input buffer o
 418:Generated_Source\PSoC6\pdl\drivers/peripheral/gpio/cy_gpio.h **** #define CY_GPIO_DM_OD_DRIVESHIGH               (0x0DUL) /**< Open Drain, Drives High. Input buffer 
 419:Generated_Source\PSoC6\pdl\drivers/peripheral/gpio/cy_gpio.h **** #define CY_GPIO_DM_STRONG                      (0x0EUL) /**< Strong Drive. Input buffer on */
 420:Generated_Source\PSoC6\pdl\drivers/peripheral/gpio/cy_gpio.h **** #define CY_GPIO_DM_PULLUP_DOWN                 (0x0FUL) /**< Resistive Pull-Up/Down. Input buffer o
 421:Generated_Source\PSoC6\pdl\drivers/peripheral/gpio/cy_gpio.h **** /** \} */
 422:Generated_Source\PSoC6\pdl\drivers/peripheral/gpio/cy_gpio.h **** 
 423:Generated_Source\PSoC6\pdl\drivers/peripheral/gpio/cy_gpio.h **** /**
 424:Generated_Source\PSoC6\pdl\drivers/peripheral/gpio/cy_gpio.h **** * \defgroup group_gpio_vtrip Voltage trip mode
 425:Generated_Source\PSoC6\pdl\drivers/peripheral/gpio/cy_gpio.h **** * \{
 426:Generated_Source\PSoC6\pdl\drivers/peripheral/gpio/cy_gpio.h **** * Constants to be used for setting the voltage trip type on the pin.
 427:Generated_Source\PSoC6\pdl\drivers/peripheral/gpio/cy_gpio.h **** */
 428:Generated_Source\PSoC6\pdl\drivers/peripheral/gpio/cy_gpio.h **** #define CY_GPIO_VTRIP_CMOS                     (0x00UL) /**< Input buffer compatible with CMOS and 
 429:Generated_Source\PSoC6\pdl\drivers/peripheral/gpio/cy_gpio.h **** #define CY_GPIO_VTRIP_TTL                      (0x01UL) /**< Input buffer compatible with TTL and M
 430:Generated_Source\PSoC6\pdl\drivers/peripheral/gpio/cy_gpio.h **** /** \} */
 431:Generated_Source\PSoC6\pdl\drivers/peripheral/gpio/cy_gpio.h **** 
 432:Generated_Source\PSoC6\pdl\drivers/peripheral/gpio/cy_gpio.h **** /**
 433:Generated_Source\PSoC6\pdl\drivers/peripheral/gpio/cy_gpio.h **** * \defgroup group_gpio_slewRate Slew Rate Mode
 434:Generated_Source\PSoC6\pdl\drivers/peripheral/gpio/cy_gpio.h **** * \{
 435:Generated_Source\PSoC6\pdl\drivers/peripheral/gpio/cy_gpio.h **** * Constants to be used for setting the slew rate of the pin.
 436:Generated_Source\PSoC6\pdl\drivers/peripheral/gpio/cy_gpio.h **** */
 437:Generated_Source\PSoC6\pdl\drivers/peripheral/gpio/cy_gpio.h **** #define CY_GPIO_SLEW_FAST                      (0x00UL) /**< Fast slew rate */
 438:Generated_Source\PSoC6\pdl\drivers/peripheral/gpio/cy_gpio.h **** #define CY_GPIO_SLEW_SLOW                      (0x01UL) /**< Slow slew rate */
 439:Generated_Source\PSoC6\pdl\drivers/peripheral/gpio/cy_gpio.h **** /** \} */
 440:Generated_Source\PSoC6\pdl\drivers/peripheral/gpio/cy_gpio.h **** 
 441:Generated_Source\PSoC6\pdl\drivers/peripheral/gpio/cy_gpio.h **** /**
 442:Generated_Source\PSoC6\pdl\drivers/peripheral/gpio/cy_gpio.h **** * \defgroup group_gpio_driveStrength Pin drive strength
 443:Generated_Source\PSoC6\pdl\drivers/peripheral/gpio/cy_gpio.h **** * \{
 444:Generated_Source\PSoC6\pdl\drivers/peripheral/gpio/cy_gpio.h **** * Constants to be used for setting the drive strength of the pin.
 445:Generated_Source\PSoC6\pdl\drivers/peripheral/gpio/cy_gpio.h **** */
 446:Generated_Source\PSoC6\pdl\drivers/peripheral/gpio/cy_gpio.h **** #define CY_GPIO_DRIVE_FULL                     (0x00UL) /**< Full drive strength: Max drive current
 447:Generated_Source\PSoC6\pdl\drivers/peripheral/gpio/cy_gpio.h **** #define CY_GPIO_DRIVE_1_2                      (0x01UL) /**< 1/2 drive strength: 1/2 drive current 
 448:Generated_Source\PSoC6\pdl\drivers/peripheral/gpio/cy_gpio.h **** #define CY_GPIO_DRIVE_1_4                      (0x02UL) /**< 1/4 drive strength: 1/4 drive current 
 449:Generated_Source\PSoC6\pdl\drivers/peripheral/gpio/cy_gpio.h **** #define CY_GPIO_DRIVE_1_8                      (0x03UL) /**< 1/8 drive strength: 1/8 drive current 
 450:Generated_Source\PSoC6\pdl\drivers/peripheral/gpio/cy_gpio.h **** /** \} */
ARM GAS  C:\Users\nicpa\AppData\Local\Temp\ccPr5feD.s 			page 26


 451:Generated_Source\PSoC6\pdl\drivers/peripheral/gpio/cy_gpio.h **** 
 452:Generated_Source\PSoC6\pdl\drivers/peripheral/gpio/cy_gpio.h **** /**
 453:Generated_Source\PSoC6\pdl\drivers/peripheral/gpio/cy_gpio.h **** * \defgroup group_gpio_interruptTrigger Interrupt trigger type
 454:Generated_Source\PSoC6\pdl\drivers/peripheral/gpio/cy_gpio.h **** * \{
 455:Generated_Source\PSoC6\pdl\drivers/peripheral/gpio/cy_gpio.h **** * Constants to be used for setting the interrupt trigger type on the pin.
 456:Generated_Source\PSoC6\pdl\drivers/peripheral/gpio/cy_gpio.h **** */
 457:Generated_Source\PSoC6\pdl\drivers/peripheral/gpio/cy_gpio.h **** #define CY_GPIO_INTR_DISABLE                   (0x00UL) /**< Disable the pin interrupt generation *
 458:Generated_Source\PSoC6\pdl\drivers/peripheral/gpio/cy_gpio.h **** #define CY_GPIO_INTR_RISING                    (0x01UL) /**< Rising-Edge interrupt */
 459:Generated_Source\PSoC6\pdl\drivers/peripheral/gpio/cy_gpio.h **** #define CY_GPIO_INTR_FALLING                   (0x02UL) /**< Falling-Edge interrupt */
 460:Generated_Source\PSoC6\pdl\drivers/peripheral/gpio/cy_gpio.h **** #define CY_GPIO_INTR_BOTH                      (0x03UL) /**< Both-Edge interrupt */
 461:Generated_Source\PSoC6\pdl\drivers/peripheral/gpio/cy_gpio.h **** /** \} */
 462:Generated_Source\PSoC6\pdl\drivers/peripheral/gpio/cy_gpio.h **** 
 463:Generated_Source\PSoC6\pdl\drivers/peripheral/gpio/cy_gpio.h **** /**
 464:Generated_Source\PSoC6\pdl\drivers/peripheral/gpio/cy_gpio.h **** * \defgroup group_gpio_sioVreg SIO output buffer mode
 465:Generated_Source\PSoC6\pdl\drivers/peripheral/gpio/cy_gpio.h **** * \{
 466:Generated_Source\PSoC6\pdl\drivers/peripheral/gpio/cy_gpio.h **** * Constants to be used for setting the SIO output buffer mode on the pin.
 467:Generated_Source\PSoC6\pdl\drivers/peripheral/gpio/cy_gpio.h **** */
 468:Generated_Source\PSoC6\pdl\drivers/peripheral/gpio/cy_gpio.h **** #define CY_SIO_VREG_UNREGULATED                (0x00UL) /**< Unregulated output buffer */
 469:Generated_Source\PSoC6\pdl\drivers/peripheral/gpio/cy_gpio.h **** #define CY_SIO_VREG_REGULATED                  (0x01UL) /**< Regulated output buffer */
 470:Generated_Source\PSoC6\pdl\drivers/peripheral/gpio/cy_gpio.h **** /** \} */
 471:Generated_Source\PSoC6\pdl\drivers/peripheral/gpio/cy_gpio.h **** 
 472:Generated_Source\PSoC6\pdl\drivers/peripheral/gpio/cy_gpio.h **** /**
 473:Generated_Source\PSoC6\pdl\drivers/peripheral/gpio/cy_gpio.h **** * \defgroup group_gpio_sioIbuf SIO input buffer mode
 474:Generated_Source\PSoC6\pdl\drivers/peripheral/gpio/cy_gpio.h **** * \{
 475:Generated_Source\PSoC6\pdl\drivers/peripheral/gpio/cy_gpio.h **** * Constants to be used for setting the SIO input buffer mode on the pin.
 476:Generated_Source\PSoC6\pdl\drivers/peripheral/gpio/cy_gpio.h **** */
 477:Generated_Source\PSoC6\pdl\drivers/peripheral/gpio/cy_gpio.h **** #define CY_SIO_IBUF_SINGLEENDED                (0x00UL) /**< Single ended input buffer */
 478:Generated_Source\PSoC6\pdl\drivers/peripheral/gpio/cy_gpio.h **** #define CY_SIO_IBUF_DIFFERENTIAL               (0x01UL) /**< Differential input buffer */
 479:Generated_Source\PSoC6\pdl\drivers/peripheral/gpio/cy_gpio.h **** /** \} */
 480:Generated_Source\PSoC6\pdl\drivers/peripheral/gpio/cy_gpio.h **** 
 481:Generated_Source\PSoC6\pdl\drivers/peripheral/gpio/cy_gpio.h **** /**
 482:Generated_Source\PSoC6\pdl\drivers/peripheral/gpio/cy_gpio.h **** * \defgroup group_gpio_sioVtrip SIO input buffer trip-point
 483:Generated_Source\PSoC6\pdl\drivers/peripheral/gpio/cy_gpio.h **** * \{
 484:Generated_Source\PSoC6\pdl\drivers/peripheral/gpio/cy_gpio.h **** * Constants to be used for setting the SIO input buffer trip-point of the pin.
 485:Generated_Source\PSoC6\pdl\drivers/peripheral/gpio/cy_gpio.h **** */
 486:Generated_Source\PSoC6\pdl\drivers/peripheral/gpio/cy_gpio.h **** #define CY_SIO_VTRIP_CMOS                      (0x00UL) /**< CMOS input buffer (single-ended) */
 487:Generated_Source\PSoC6\pdl\drivers/peripheral/gpio/cy_gpio.h **** #define CY_SIO_VTRIP_TTL                       (0x01UL) /**< TTL input buffer (single-ended) */
 488:Generated_Source\PSoC6\pdl\drivers/peripheral/gpio/cy_gpio.h **** #define CY_SIO_VTRIP_0_5VDDIO_0_5VOH           (0x00UL) /**< 0.5xVddio or 0.5xVoh (differential) */
 489:Generated_Source\PSoC6\pdl\drivers/peripheral/gpio/cy_gpio.h **** #define CY_SIO_VTRIP_0_4VDDIO_1_0VREF          (0x01UL) /**< 0.4xVddio or 0.4xVoh (differential) */
 490:Generated_Source\PSoC6\pdl\drivers/peripheral/gpio/cy_gpio.h **** /** \} */
 491:Generated_Source\PSoC6\pdl\drivers/peripheral/gpio/cy_gpio.h **** 
 492:Generated_Source\PSoC6\pdl\drivers/peripheral/gpio/cy_gpio.h **** /**
 493:Generated_Source\PSoC6\pdl\drivers/peripheral/gpio/cy_gpio.h **** * \defgroup group_gpio_sioVref SIO reference voltage for input buffer trip-point
 494:Generated_Source\PSoC6\pdl\drivers/peripheral/gpio/cy_gpio.h **** * \{
 495:Generated_Source\PSoC6\pdl\drivers/peripheral/gpio/cy_gpio.h **** * Constants to be used for setting the reference voltage of SIO input buffer trip-point.
 496:Generated_Source\PSoC6\pdl\drivers/peripheral/gpio/cy_gpio.h **** */
 497:Generated_Source\PSoC6\pdl\drivers/peripheral/gpio/cy_gpio.h **** #define CY_SIO_VREF_PINREF                     (0x00UL) /**< Vref from analog pin */
 498:Generated_Source\PSoC6\pdl\drivers/peripheral/gpio/cy_gpio.h **** #define CY_SIO_VREF_1_2V                       (0x01UL) /**< Vref from internal 1.2V reference */
 499:Generated_Source\PSoC6\pdl\drivers/peripheral/gpio/cy_gpio.h **** #define CY_SIO_VREF_AMUX_A                     (0x02UL) /**< Vref from AMUXBUS_A */
 500:Generated_Source\PSoC6\pdl\drivers/peripheral/gpio/cy_gpio.h **** #define CY_SIO_VREF_AMUX_B                     (0x03UL) /**< Vref from AMUXBUS_B */
 501:Generated_Source\PSoC6\pdl\drivers/peripheral/gpio/cy_gpio.h **** /** \} */
 502:Generated_Source\PSoC6\pdl\drivers/peripheral/gpio/cy_gpio.h **** 
 503:Generated_Source\PSoC6\pdl\drivers/peripheral/gpio/cy_gpio.h **** /**
 504:Generated_Source\PSoC6\pdl\drivers/peripheral/gpio/cy_gpio.h **** * \defgroup group_gpio_sioVoh Regulated output voltage level (Voh) and input buffer trip-point of a
 505:Generated_Source\PSoC6\pdl\drivers/peripheral/gpio/cy_gpio.h **** * \{
 506:Generated_Source\PSoC6\pdl\drivers/peripheral/gpio/cy_gpio.h **** * Constants to be used for setting the Voh and input buffer trip-point of an SIO pair
 507:Generated_Source\PSoC6\pdl\drivers/peripheral/gpio/cy_gpio.h **** */
ARM GAS  C:\Users\nicpa\AppData\Local\Temp\ccPr5feD.s 			page 27


 508:Generated_Source\PSoC6\pdl\drivers/peripheral/gpio/cy_gpio.h **** #define CY_SIO_VOH_1_00                        (0x00UL) /**< Voh = 1 x Reference */
 509:Generated_Source\PSoC6\pdl\drivers/peripheral/gpio/cy_gpio.h **** #define CY_SIO_VOH_1_25                        (0x01UL) /**< Voh = 1.25 x Reference */
 510:Generated_Source\PSoC6\pdl\drivers/peripheral/gpio/cy_gpio.h **** #define CY_SIO_VOH_1_49                        (0x02UL) /**< Voh = 1.49 x Reference */
 511:Generated_Source\PSoC6\pdl\drivers/peripheral/gpio/cy_gpio.h **** #define CY_SIO_VOH_1_67                        (0x03UL) /**< Voh = 1.67 x Reference */
 512:Generated_Source\PSoC6\pdl\drivers/peripheral/gpio/cy_gpio.h **** #define CY_SIO_VOH_2_08                        (0x04UL) /**< Voh = 2.08 x Reference */
 513:Generated_Source\PSoC6\pdl\drivers/peripheral/gpio/cy_gpio.h **** #define CY_SIO_VOH_2_50                        (0x05UL) /**< Voh = 2.50 x Reference */
 514:Generated_Source\PSoC6\pdl\drivers/peripheral/gpio/cy_gpio.h **** #define CY_SIO_VOH_2_78                        (0x06UL) /**< Voh = 2.78 x Reference */
 515:Generated_Source\PSoC6\pdl\drivers/peripheral/gpio/cy_gpio.h **** #define CY_SIO_VOH_4_16                        (0x07UL) /**< Voh = 4.16 x Reference */
 516:Generated_Source\PSoC6\pdl\drivers/peripheral/gpio/cy_gpio.h **** /** \} */
 517:Generated_Source\PSoC6\pdl\drivers/peripheral/gpio/cy_gpio.h **** 
 518:Generated_Source\PSoC6\pdl\drivers/peripheral/gpio/cy_gpio.h **** /** \} group_gpio_macros */
 519:Generated_Source\PSoC6\pdl\drivers/peripheral/gpio/cy_gpio.h **** 
 520:Generated_Source\PSoC6\pdl\drivers/peripheral/gpio/cy_gpio.h **** /***************************************
 521:Generated_Source\PSoC6\pdl\drivers/peripheral/gpio/cy_gpio.h **** *        Function Prototypes
 522:Generated_Source\PSoC6\pdl\drivers/peripheral/gpio/cy_gpio.h **** ***************************************/
 523:Generated_Source\PSoC6\pdl\drivers/peripheral/gpio/cy_gpio.h **** 
 524:Generated_Source\PSoC6\pdl\drivers/peripheral/gpio/cy_gpio.h **** /**
 525:Generated_Source\PSoC6\pdl\drivers/peripheral/gpio/cy_gpio.h **** * \addtogroup group_gpio_functions
 526:Generated_Source\PSoC6\pdl\drivers/peripheral/gpio/cy_gpio.h **** * \{
 527:Generated_Source\PSoC6\pdl\drivers/peripheral/gpio/cy_gpio.h **** */
 528:Generated_Source\PSoC6\pdl\drivers/peripheral/gpio/cy_gpio.h **** 
 529:Generated_Source\PSoC6\pdl\drivers/peripheral/gpio/cy_gpio.h **** /**
 530:Generated_Source\PSoC6\pdl\drivers/peripheral/gpio/cy_gpio.h **** * \addtogroup group_gpio_functions_init
 531:Generated_Source\PSoC6\pdl\drivers/peripheral/gpio/cy_gpio.h **** * \{
 532:Generated_Source\PSoC6\pdl\drivers/peripheral/gpio/cy_gpio.h **** */
 533:Generated_Source\PSoC6\pdl\drivers/peripheral/gpio/cy_gpio.h **** 
 534:Generated_Source\PSoC6\pdl\drivers/peripheral/gpio/cy_gpio.h **** cy_en_gpio_status_t Cy_GPIO_Pin_Init(GPIO_PRT_Type* base, uint32_t pinNum, const cy_stc_gpio_pin_co
 535:Generated_Source\PSoC6\pdl\drivers/peripheral/gpio/cy_gpio.h **** cy_en_gpio_status_t Cy_GPIO_Port_Init(GPIO_PRT_Type* base, const cy_stc_gpio_prt_config_t *config);
 536:Generated_Source\PSoC6\pdl\drivers/peripheral/gpio/cy_gpio.h **** void Cy_GPIO_Pin_FastInit(GPIO_PRT_Type* base, uint32_t pinNum, uint32_t driveMode, uint32_t outVal
 537:Generated_Source\PSoC6\pdl\drivers/peripheral/gpio/cy_gpio.h **** void Cy_GPIO_Port_Deinit(GPIO_PRT_Type* base);
 538:Generated_Source\PSoC6\pdl\drivers/peripheral/gpio/cy_gpio.h **** __STATIC_INLINE void Cy_GPIO_SetHSIOM(GPIO_PRT_Type* base, uint32_t pinNum, en_hsiom_sel_t value);
 539:Generated_Source\PSoC6\pdl\drivers/peripheral/gpio/cy_gpio.h **** __STATIC_INLINE en_hsiom_sel_t Cy_GPIO_GetHSIOM(GPIO_PRT_Type* base, uint32_t pinNum);
 540:Generated_Source\PSoC6\pdl\drivers/peripheral/gpio/cy_gpio.h **** __STATIC_INLINE GPIO_PRT_Type* Cy_GPIO_PortToAddr(uint32_t portNum);
 541:Generated_Source\PSoC6\pdl\drivers/peripheral/gpio/cy_gpio.h **** 
 542:Generated_Source\PSoC6\pdl\drivers/peripheral/gpio/cy_gpio.h **** /** \} group_gpio_functions_init */
 543:Generated_Source\PSoC6\pdl\drivers/peripheral/gpio/cy_gpio.h **** 
 544:Generated_Source\PSoC6\pdl\drivers/peripheral/gpio/cy_gpio.h **** /**
 545:Generated_Source\PSoC6\pdl\drivers/peripheral/gpio/cy_gpio.h **** * \addtogroup group_gpio_functions_gpio
 546:Generated_Source\PSoC6\pdl\drivers/peripheral/gpio/cy_gpio.h **** * \{
 547:Generated_Source\PSoC6\pdl\drivers/peripheral/gpio/cy_gpio.h **** */
 548:Generated_Source\PSoC6\pdl\drivers/peripheral/gpio/cy_gpio.h **** 
 549:Generated_Source\PSoC6\pdl\drivers/peripheral/gpio/cy_gpio.h **** void Cy_GPIO_SetAmuxSplit(cy_en_amux_split_t switchCtrl, cy_en_gpio_amuxconnect_t amuxConnect, cy_e
 550:Generated_Source\PSoC6\pdl\drivers/peripheral/gpio/cy_gpio.h **** cy_en_gpio_amuxconnect_t Cy_GPIO_GetAmuxSplit(cy_en_amux_split_t switchCtrl, cy_en_gpio_amuxselect_
 551:Generated_Source\PSoC6\pdl\drivers/peripheral/gpio/cy_gpio.h **** 
 552:Generated_Source\PSoC6\pdl\drivers/peripheral/gpio/cy_gpio.h **** __STATIC_INLINE uint32_t Cy_GPIO_Read(GPIO_PRT_Type* base, uint32_t pinNum);
 553:Generated_Source\PSoC6\pdl\drivers/peripheral/gpio/cy_gpio.h **** __STATIC_INLINE void Cy_GPIO_Write(GPIO_PRT_Type* base, uint32_t pinNum, uint32_t value);
 554:Generated_Source\PSoC6\pdl\drivers/peripheral/gpio/cy_gpio.h **** __STATIC_INLINE uint32_t Cy_GPIO_ReadOut(GPIO_PRT_Type* base, uint32_t pinNum);
 555:Generated_Source\PSoC6\pdl\drivers/peripheral/gpio/cy_gpio.h **** __STATIC_INLINE void Cy_GPIO_Set(GPIO_PRT_Type* base, uint32_t pinNum);
 556:Generated_Source\PSoC6\pdl\drivers/peripheral/gpio/cy_gpio.h **** __STATIC_INLINE void Cy_GPIO_Clr(GPIO_PRT_Type* base, uint32_t pinNum);
 557:Generated_Source\PSoC6\pdl\drivers/peripheral/gpio/cy_gpio.h **** __STATIC_INLINE void Cy_GPIO_Inv(GPIO_PRT_Type* base, uint32_t pinNum);
 558:Generated_Source\PSoC6\pdl\drivers/peripheral/gpio/cy_gpio.h **** __STATIC_INLINE void Cy_GPIO_SetDrivemode(GPIO_PRT_Type* base, uint32_t pinNum, uint32_t value);
 559:Generated_Source\PSoC6\pdl\drivers/peripheral/gpio/cy_gpio.h **** __STATIC_INLINE uint32_t Cy_GPIO_GetDrivemode(GPIO_PRT_Type* base, uint32_t pinNum);
 560:Generated_Source\PSoC6\pdl\drivers/peripheral/gpio/cy_gpio.h **** __STATIC_INLINE void Cy_GPIO_SetVtrip(GPIO_PRT_Type* base, uint32_t pinNum, uint32_t value);
 561:Generated_Source\PSoC6\pdl\drivers/peripheral/gpio/cy_gpio.h **** __STATIC_INLINE uint32_t Cy_GPIO_GetVtrip(GPIO_PRT_Type* base, uint32_t pinNum);
 562:Generated_Source\PSoC6\pdl\drivers/peripheral/gpio/cy_gpio.h **** __STATIC_INLINE void Cy_GPIO_SetSlewRate(GPIO_PRT_Type* base, uint32_t pinNum, uint32_t value);
 563:Generated_Source\PSoC6\pdl\drivers/peripheral/gpio/cy_gpio.h **** __STATIC_INLINE uint32_t Cy_GPIO_GetSlewRate(GPIO_PRT_Type* base, uint32_t pinNum);
 564:Generated_Source\PSoC6\pdl\drivers/peripheral/gpio/cy_gpio.h **** __STATIC_INLINE void Cy_GPIO_SetDriveSel(GPIO_PRT_Type* base, uint32_t pinNum, uint32_t value);
ARM GAS  C:\Users\nicpa\AppData\Local\Temp\ccPr5feD.s 			page 28


 565:Generated_Source\PSoC6\pdl\drivers/peripheral/gpio/cy_gpio.h **** __STATIC_INLINE uint32_t Cy_GPIO_GetDriveSel(GPIO_PRT_Type* base, uint32_t pinNum);
 566:Generated_Source\PSoC6\pdl\drivers/peripheral/gpio/cy_gpio.h **** 
 567:Generated_Source\PSoC6\pdl\drivers/peripheral/gpio/cy_gpio.h **** /** \} group_gpio_functions_gpio */
 568:Generated_Source\PSoC6\pdl\drivers/peripheral/gpio/cy_gpio.h **** 
 569:Generated_Source\PSoC6\pdl\drivers/peripheral/gpio/cy_gpio.h **** /**
 570:Generated_Source\PSoC6\pdl\drivers/peripheral/gpio/cy_gpio.h **** * \addtogroup group_gpio_functions_sio
 571:Generated_Source\PSoC6\pdl\drivers/peripheral/gpio/cy_gpio.h **** * \{
 572:Generated_Source\PSoC6\pdl\drivers/peripheral/gpio/cy_gpio.h **** */
 573:Generated_Source\PSoC6\pdl\drivers/peripheral/gpio/cy_gpio.h **** 
 574:Generated_Source\PSoC6\pdl\drivers/peripheral/gpio/cy_gpio.h **** __STATIC_INLINE void Cy_GPIO_SetVregEn(GPIO_PRT_Type* base, uint32_t pinNum, uint32_t value);
 575:Generated_Source\PSoC6\pdl\drivers/peripheral/gpio/cy_gpio.h **** __STATIC_INLINE uint32_t Cy_GPIO_GetVregEn(GPIO_PRT_Type* base, uint32_t pinNum);
 576:Generated_Source\PSoC6\pdl\drivers/peripheral/gpio/cy_gpio.h **** __STATIC_INLINE void Cy_GPIO_SetIbufMode(GPIO_PRT_Type* base, uint32_t pinNum, uint32_t value);
 577:Generated_Source\PSoC6\pdl\drivers/peripheral/gpio/cy_gpio.h **** __STATIC_INLINE uint32_t Cy_GPIO_GetIbufMode(GPIO_PRT_Type* base, uint32_t pinNum);
 578:Generated_Source\PSoC6\pdl\drivers/peripheral/gpio/cy_gpio.h **** __STATIC_INLINE void Cy_GPIO_SetVtripSel(GPIO_PRT_Type* base, uint32_t pinNum, uint32_t value);
 579:Generated_Source\PSoC6\pdl\drivers/peripheral/gpio/cy_gpio.h **** __STATIC_INLINE uint32_t Cy_GPIO_GetVtripSel(GPIO_PRT_Type* base, uint32_t pinNum);
 580:Generated_Source\PSoC6\pdl\drivers/peripheral/gpio/cy_gpio.h **** __STATIC_INLINE void Cy_GPIO_SetVrefSel(GPIO_PRT_Type* base, uint32_t pinNum, uint32_t value);
 581:Generated_Source\PSoC6\pdl\drivers/peripheral/gpio/cy_gpio.h **** __STATIC_INLINE uint32_t Cy_GPIO_GetVrefSel(GPIO_PRT_Type* base, uint32_t pinNum);
 582:Generated_Source\PSoC6\pdl\drivers/peripheral/gpio/cy_gpio.h **** __STATIC_INLINE void Cy_GPIO_SetVohSel(GPIO_PRT_Type* base, uint32_t pinNum, uint32_t value);
 583:Generated_Source\PSoC6\pdl\drivers/peripheral/gpio/cy_gpio.h **** __STATIC_INLINE uint32_t Cy_GPIO_GetVohSel(GPIO_PRT_Type* base, uint32_t pinNum);
 584:Generated_Source\PSoC6\pdl\drivers/peripheral/gpio/cy_gpio.h **** 
 585:Generated_Source\PSoC6\pdl\drivers/peripheral/gpio/cy_gpio.h **** /** \} group_gpio_functions_sio */
 586:Generated_Source\PSoC6\pdl\drivers/peripheral/gpio/cy_gpio.h **** 
 587:Generated_Source\PSoC6\pdl\drivers/peripheral/gpio/cy_gpio.h **** /**
 588:Generated_Source\PSoC6\pdl\drivers/peripheral/gpio/cy_gpio.h **** * \addtogroup group_gpio_functions_interrupt
 589:Generated_Source\PSoC6\pdl\drivers/peripheral/gpio/cy_gpio.h **** * \{
 590:Generated_Source\PSoC6\pdl\drivers/peripheral/gpio/cy_gpio.h **** */
 591:Generated_Source\PSoC6\pdl\drivers/peripheral/gpio/cy_gpio.h **** 
 592:Generated_Source\PSoC6\pdl\drivers/peripheral/gpio/cy_gpio.h **** __STATIC_INLINE uint32_t Cy_GPIO_GetInterruptStatus(GPIO_PRT_Type* base, uint32_t pinNum);
 593:Generated_Source\PSoC6\pdl\drivers/peripheral/gpio/cy_gpio.h **** __STATIC_INLINE void Cy_GPIO_ClearInterrupt(GPIO_PRT_Type* base, uint32_t pinNum);
 594:Generated_Source\PSoC6\pdl\drivers/peripheral/gpio/cy_gpio.h **** __STATIC_INLINE void Cy_GPIO_SetInterruptMask(GPIO_PRT_Type* base, uint32_t pinNum, uint32_t value)
 595:Generated_Source\PSoC6\pdl\drivers/peripheral/gpio/cy_gpio.h **** __STATIC_INLINE uint32_t Cy_GPIO_GetInterruptMask(GPIO_PRT_Type* base, uint32_t pinNum);
 596:Generated_Source\PSoC6\pdl\drivers/peripheral/gpio/cy_gpio.h **** __STATIC_INLINE uint32_t Cy_GPIO_GetInterruptStatusMasked(GPIO_PRT_Type* base, uint32_t pinNum);
 597:Generated_Source\PSoC6\pdl\drivers/peripheral/gpio/cy_gpio.h **** __STATIC_INLINE void Cy_GPIO_SetSwInterrupt(GPIO_PRT_Type* base, uint32_t pinNum);
 598:Generated_Source\PSoC6\pdl\drivers/peripheral/gpio/cy_gpio.h **** __STATIC_INLINE void Cy_GPIO_SetInterruptEdge(GPIO_PRT_Type* base, uint32_t pinNum, uint32_t value)
 599:Generated_Source\PSoC6\pdl\drivers/peripheral/gpio/cy_gpio.h **** __STATIC_INLINE uint32_t Cy_GPIO_GetInterruptEdge(GPIO_PRT_Type* base, uint32_t pinNum);
 600:Generated_Source\PSoC6\pdl\drivers/peripheral/gpio/cy_gpio.h **** __STATIC_INLINE void Cy_GPIO_SetFilter(GPIO_PRT_Type* base, uint32_t value);
 601:Generated_Source\PSoC6\pdl\drivers/peripheral/gpio/cy_gpio.h **** __STATIC_INLINE uint32_t Cy_GPIO_GetFilter(GPIO_PRT_Type* base);
 602:Generated_Source\PSoC6\pdl\drivers/peripheral/gpio/cy_gpio.h **** 
 603:Generated_Source\PSoC6\pdl\drivers/peripheral/gpio/cy_gpio.h **** __STATIC_INLINE uint32_t Cy_GPIO_GetInterruptCause0(void);
 604:Generated_Source\PSoC6\pdl\drivers/peripheral/gpio/cy_gpio.h **** __STATIC_INLINE uint32_t Cy_GPIO_GetInterruptCause1(void);
 605:Generated_Source\PSoC6\pdl\drivers/peripheral/gpio/cy_gpio.h **** __STATIC_INLINE uint32_t Cy_GPIO_GetInterruptCause2(void);
 606:Generated_Source\PSoC6\pdl\drivers/peripheral/gpio/cy_gpio.h **** __STATIC_INLINE uint32_t Cy_GPIO_GetInterruptCause3(void);
 607:Generated_Source\PSoC6\pdl\drivers/peripheral/gpio/cy_gpio.h **** 
 608:Generated_Source\PSoC6\pdl\drivers/peripheral/gpio/cy_gpio.h **** /** \} group_gpio_functions_interrupt */
 609:Generated_Source\PSoC6\pdl\drivers/peripheral/gpio/cy_gpio.h **** 
 610:Generated_Source\PSoC6\pdl\drivers/peripheral/gpio/cy_gpio.h **** 
 611:Generated_Source\PSoC6\pdl\drivers/peripheral/gpio/cy_gpio.h **** /**
 612:Generated_Source\PSoC6\pdl\drivers/peripheral/gpio/cy_gpio.h **** * \addtogroup group_gpio_functions_init
 613:Generated_Source\PSoC6\pdl\drivers/peripheral/gpio/cy_gpio.h **** * \{
 614:Generated_Source\PSoC6\pdl\drivers/peripheral/gpio/cy_gpio.h **** */
 615:Generated_Source\PSoC6\pdl\drivers/peripheral/gpio/cy_gpio.h **** 
 616:Generated_Source\PSoC6\pdl\drivers/peripheral/gpio/cy_gpio.h **** /*******************************************************************************
 617:Generated_Source\PSoC6\pdl\drivers/peripheral/gpio/cy_gpio.h **** * Function Name: Cy_GPIO_SetHSIOM
 618:Generated_Source\PSoC6\pdl\drivers/peripheral/gpio/cy_gpio.h **** ****************************************************************************//**
 619:Generated_Source\PSoC6\pdl\drivers/peripheral/gpio/cy_gpio.h **** *
 620:Generated_Source\PSoC6\pdl\drivers/peripheral/gpio/cy_gpio.h **** * Configures the HSIOM connection to the pin.
 621:Generated_Source\PSoC6\pdl\drivers/peripheral/gpio/cy_gpio.h **** *
ARM GAS  C:\Users\nicpa\AppData\Local\Temp\ccPr5feD.s 			page 29


 622:Generated_Source\PSoC6\pdl\drivers/peripheral/gpio/cy_gpio.h **** * Connects the specified High-Speed Input Output Multiplexer (HSIOM) selection
 623:Generated_Source\PSoC6\pdl\drivers/peripheral/gpio/cy_gpio.h **** * to the pin.
 624:Generated_Source\PSoC6\pdl\drivers/peripheral/gpio/cy_gpio.h **** *
 625:Generated_Source\PSoC6\pdl\drivers/peripheral/gpio/cy_gpio.h **** * \param base
 626:Generated_Source\PSoC6\pdl\drivers/peripheral/gpio/cy_gpio.h **** * Pointer to the pin's port register base address
 627:Generated_Source\PSoC6\pdl\drivers/peripheral/gpio/cy_gpio.h **** *
 628:Generated_Source\PSoC6\pdl\drivers/peripheral/gpio/cy_gpio.h **** * \param pinNum
 629:Generated_Source\PSoC6\pdl\drivers/peripheral/gpio/cy_gpio.h **** * Position of the pin bit-field within the port register
 630:Generated_Source\PSoC6\pdl\drivers/peripheral/gpio/cy_gpio.h **** *
 631:Generated_Source\PSoC6\pdl\drivers/peripheral/gpio/cy_gpio.h **** * \param value
 632:Generated_Source\PSoC6\pdl\drivers/peripheral/gpio/cy_gpio.h **** * HSIOM input selection
 633:Generated_Source\PSoC6\pdl\drivers/peripheral/gpio/cy_gpio.h **** *
 634:Generated_Source\PSoC6\pdl\drivers/peripheral/gpio/cy_gpio.h **** * \note 
 635:Generated_Source\PSoC6\pdl\drivers/peripheral/gpio/cy_gpio.h **** * This function modifies a port register in a read-modify-write operation. It is
 636:Generated_Source\PSoC6\pdl\drivers/peripheral/gpio/cy_gpio.h **** * not thread safe as the resource is shared among multiple pins on a port.
 637:Generated_Source\PSoC6\pdl\drivers/peripheral/gpio/cy_gpio.h **** *
 638:Generated_Source\PSoC6\pdl\drivers/peripheral/gpio/cy_gpio.h **** * \funcusage
 639:Generated_Source\PSoC6\pdl\drivers/peripheral/gpio/cy_gpio.h **** * \snippet gpio/gpio_v1_10_sut_01.cydsn/main_cm4.c snippet_Cy_GPIO_SetHSIOM
 640:Generated_Source\PSoC6\pdl\drivers/peripheral/gpio/cy_gpio.h **** *
 641:Generated_Source\PSoC6\pdl\drivers/peripheral/gpio/cy_gpio.h **** *******************************************************************************/
 642:Generated_Source\PSoC6\pdl\drivers/peripheral/gpio/cy_gpio.h **** __STATIC_INLINE void Cy_GPIO_SetHSIOM(GPIO_PRT_Type* base, uint32_t pinNum, en_hsiom_sel_t value)
 643:Generated_Source\PSoC6\pdl\drivers/peripheral/gpio/cy_gpio.h **** {
 644:Generated_Source\PSoC6\pdl\drivers/peripheral/gpio/cy_gpio.h ****     uint32_t portNum;
 645:Generated_Source\PSoC6\pdl\drivers/peripheral/gpio/cy_gpio.h ****     uint32_t tempReg;
 646:Generated_Source\PSoC6\pdl\drivers/peripheral/gpio/cy_gpio.h ****     HSIOM_PRT_V1_Type* portAddrHSIOM;
 647:Generated_Source\PSoC6\pdl\drivers/peripheral/gpio/cy_gpio.h **** 
 648:Generated_Source\PSoC6\pdl\drivers/peripheral/gpio/cy_gpio.h ****     CY_ASSERT_L2(CY_GPIO_IS_PIN_VALID(pinNum));
 649:Generated_Source\PSoC6\pdl\drivers/peripheral/gpio/cy_gpio.h ****     CY_ASSERT_L2(CY_GPIO_IS_HSIOM_VALID(value));
 650:Generated_Source\PSoC6\pdl\drivers/peripheral/gpio/cy_gpio.h **** 
 651:Generated_Source\PSoC6\pdl\drivers/peripheral/gpio/cy_gpio.h ****     portNum = ((uint32_t)(base) - CY_GPIO_BASE) / GPIO_PRT_SECTION_SIZE;
 652:Generated_Source\PSoC6\pdl\drivers/peripheral/gpio/cy_gpio.h ****     portAddrHSIOM = (HSIOM_PRT_V1_Type*)(CY_HSIOM_BASE + (HSIOM_PRT_SECTION_SIZE * portNum));
 653:Generated_Source\PSoC6\pdl\drivers/peripheral/gpio/cy_gpio.h **** 
 654:Generated_Source\PSoC6\pdl\drivers/peripheral/gpio/cy_gpio.h ****     if(pinNum < CY_GPIO_PRT_HALF)
 655:Generated_Source\PSoC6\pdl\drivers/peripheral/gpio/cy_gpio.h ****     {
 656:Generated_Source\PSoC6\pdl\drivers/peripheral/gpio/cy_gpio.h ****         tempReg = HSIOM_PRT_PORT_SEL0(portAddrHSIOM) & ~(CY_GPIO_HSIOM_MASK << (pinNum << CY_GPIO_H
 657:Generated_Source\PSoC6\pdl\drivers/peripheral/gpio/cy_gpio.h ****         HSIOM_PRT_PORT_SEL0(portAddrHSIOM) = tempReg | ((value & CY_GPIO_HSIOM_MASK) << (pinNum << 
 658:Generated_Source\PSoC6\pdl\drivers/peripheral/gpio/cy_gpio.h ****     }
 659:Generated_Source\PSoC6\pdl\drivers/peripheral/gpio/cy_gpio.h ****     else
 660:Generated_Source\PSoC6\pdl\drivers/peripheral/gpio/cy_gpio.h ****     {
 661:Generated_Source\PSoC6\pdl\drivers/peripheral/gpio/cy_gpio.h ****         pinNum -= CY_GPIO_PRT_HALF;
 662:Generated_Source\PSoC6\pdl\drivers/peripheral/gpio/cy_gpio.h ****         tempReg = HSIOM_PRT_PORT_SEL1(portAddrHSIOM) & ~(CY_GPIO_HSIOM_MASK << (pinNum << CY_GPIO_H
 663:Generated_Source\PSoC6\pdl\drivers/peripheral/gpio/cy_gpio.h ****         HSIOM_PRT_PORT_SEL1(portAddrHSIOM) = tempReg | ((value & CY_GPIO_HSIOM_MASK) << (pinNum << 
 664:Generated_Source\PSoC6\pdl\drivers/peripheral/gpio/cy_gpio.h ****     }
 665:Generated_Source\PSoC6\pdl\drivers/peripheral/gpio/cy_gpio.h **** }
 666:Generated_Source\PSoC6\pdl\drivers/peripheral/gpio/cy_gpio.h **** 
 667:Generated_Source\PSoC6\pdl\drivers/peripheral/gpio/cy_gpio.h **** 
 668:Generated_Source\PSoC6\pdl\drivers/peripheral/gpio/cy_gpio.h **** /*******************************************************************************
 669:Generated_Source\PSoC6\pdl\drivers/peripheral/gpio/cy_gpio.h **** * Function Name: Cy_GPIO_GetHSIOM
 670:Generated_Source\PSoC6\pdl\drivers/peripheral/gpio/cy_gpio.h **** ****************************************************************************//**
 671:Generated_Source\PSoC6\pdl\drivers/peripheral/gpio/cy_gpio.h **** *
 672:Generated_Source\PSoC6\pdl\drivers/peripheral/gpio/cy_gpio.h **** * Returns the current HSIOM multiplexer connection to the pin.
 673:Generated_Source\PSoC6\pdl\drivers/peripheral/gpio/cy_gpio.h **** *
 674:Generated_Source\PSoC6\pdl\drivers/peripheral/gpio/cy_gpio.h **** * \param base
 675:Generated_Source\PSoC6\pdl\drivers/peripheral/gpio/cy_gpio.h **** * Pointer to the pin's port register base address
 676:Generated_Source\PSoC6\pdl\drivers/peripheral/gpio/cy_gpio.h **** *
 677:Generated_Source\PSoC6\pdl\drivers/peripheral/gpio/cy_gpio.h **** * \param pinNum
 678:Generated_Source\PSoC6\pdl\drivers/peripheral/gpio/cy_gpio.h **** * Position of the pin bit-field within the port register
ARM GAS  C:\Users\nicpa\AppData\Local\Temp\ccPr5feD.s 			page 30


 679:Generated_Source\PSoC6\pdl\drivers/peripheral/gpio/cy_gpio.h **** *
 680:Generated_Source\PSoC6\pdl\drivers/peripheral/gpio/cy_gpio.h **** * \return
 681:Generated_Source\PSoC6\pdl\drivers/peripheral/gpio/cy_gpio.h **** * HSIOM input selection
 682:Generated_Source\PSoC6\pdl\drivers/peripheral/gpio/cy_gpio.h **** *
 683:Generated_Source\PSoC6\pdl\drivers/peripheral/gpio/cy_gpio.h **** * \funcusage
 684:Generated_Source\PSoC6\pdl\drivers/peripheral/gpio/cy_gpio.h **** * \snippet gpio/gpio_v1_10_sut_01.cydsn/main_cm4.c snippet_Cy_GPIO_SetHSIOM
 685:Generated_Source\PSoC6\pdl\drivers/peripheral/gpio/cy_gpio.h **** *
 686:Generated_Source\PSoC6\pdl\drivers/peripheral/gpio/cy_gpio.h **** *******************************************************************************/
 687:Generated_Source\PSoC6\pdl\drivers/peripheral/gpio/cy_gpio.h **** __STATIC_INLINE en_hsiom_sel_t Cy_GPIO_GetHSIOM(GPIO_PRT_Type* base, uint32_t pinNum)
 688:Generated_Source\PSoC6\pdl\drivers/peripheral/gpio/cy_gpio.h **** {
 689:Generated_Source\PSoC6\pdl\drivers/peripheral/gpio/cy_gpio.h ****     uint32_t returnValue;
 690:Generated_Source\PSoC6\pdl\drivers/peripheral/gpio/cy_gpio.h ****     uint32_t portNum;
 691:Generated_Source\PSoC6\pdl\drivers/peripheral/gpio/cy_gpio.h ****     HSIOM_PRT_V1_Type* portAddrHSIOM;
 692:Generated_Source\PSoC6\pdl\drivers/peripheral/gpio/cy_gpio.h ****     
 693:Generated_Source\PSoC6\pdl\drivers/peripheral/gpio/cy_gpio.h ****     CY_ASSERT_L2(CY_GPIO_IS_PIN_VALID(pinNum));
 694:Generated_Source\PSoC6\pdl\drivers/peripheral/gpio/cy_gpio.h **** 
 695:Generated_Source\PSoC6\pdl\drivers/peripheral/gpio/cy_gpio.h ****     portNum = ((uint32_t)(base) - CY_GPIO_BASE) / GPIO_PRT_SECTION_SIZE;
 696:Generated_Source\PSoC6\pdl\drivers/peripheral/gpio/cy_gpio.h ****     portAddrHSIOM = (HSIOM_PRT_V1_Type*)(CY_HSIOM_BASE + (HSIOM_PRT_SECTION_SIZE * portNum));
 697:Generated_Source\PSoC6\pdl\drivers/peripheral/gpio/cy_gpio.h **** 
 698:Generated_Source\PSoC6\pdl\drivers/peripheral/gpio/cy_gpio.h ****     if(pinNum < CY_GPIO_PRT_HALF)
 699:Generated_Source\PSoC6\pdl\drivers/peripheral/gpio/cy_gpio.h ****     {
 700:Generated_Source\PSoC6\pdl\drivers/peripheral/gpio/cy_gpio.h ****         returnValue = (HSIOM_PRT_PORT_SEL0(portAddrHSIOM) >> (pinNum << CY_GPIO_HSIOM_OFFSET)) & CY
 701:Generated_Source\PSoC6\pdl\drivers/peripheral/gpio/cy_gpio.h ****     }
 702:Generated_Source\PSoC6\pdl\drivers/peripheral/gpio/cy_gpio.h ****     else
 703:Generated_Source\PSoC6\pdl\drivers/peripheral/gpio/cy_gpio.h ****     {
 704:Generated_Source\PSoC6\pdl\drivers/peripheral/gpio/cy_gpio.h ****         pinNum -= CY_GPIO_PRT_HALF;
 705:Generated_Source\PSoC6\pdl\drivers/peripheral/gpio/cy_gpio.h ****         returnValue = (HSIOM_PRT_PORT_SEL1(portAddrHSIOM) >> (pinNum << CY_GPIO_HSIOM_OFFSET)) & CY
 706:Generated_Source\PSoC6\pdl\drivers/peripheral/gpio/cy_gpio.h ****     }
 707:Generated_Source\PSoC6\pdl\drivers/peripheral/gpio/cy_gpio.h **** 
 708:Generated_Source\PSoC6\pdl\drivers/peripheral/gpio/cy_gpio.h ****     return (en_hsiom_sel_t)returnValue;
 709:Generated_Source\PSoC6\pdl\drivers/peripheral/gpio/cy_gpio.h **** }
 710:Generated_Source\PSoC6\pdl\drivers/peripheral/gpio/cy_gpio.h **** 
 711:Generated_Source\PSoC6\pdl\drivers/peripheral/gpio/cy_gpio.h **** 
 712:Generated_Source\PSoC6\pdl\drivers/peripheral/gpio/cy_gpio.h **** /*******************************************************************************
 713:Generated_Source\PSoC6\pdl\drivers/peripheral/gpio/cy_gpio.h **** * Function Name: Cy_GPIO_PortToAddr
 714:Generated_Source\PSoC6\pdl\drivers/peripheral/gpio/cy_gpio.h **** ****************************************************************************//**
 715:Generated_Source\PSoC6\pdl\drivers/peripheral/gpio/cy_gpio.h **** *
 716:Generated_Source\PSoC6\pdl\drivers/peripheral/gpio/cy_gpio.h **** * Retrieves the port address based on the given port number.
 717:Generated_Source\PSoC6\pdl\drivers/peripheral/gpio/cy_gpio.h **** *
 718:Generated_Source\PSoC6\pdl\drivers/peripheral/gpio/cy_gpio.h **** * This is a helper function to calculate the port base address when given a port
 719:Generated_Source\PSoC6\pdl\drivers/peripheral/gpio/cy_gpio.h **** * number. It is to be used when pin access needs to be calculated at runtime.
 720:Generated_Source\PSoC6\pdl\drivers/peripheral/gpio/cy_gpio.h **** *
 721:Generated_Source\PSoC6\pdl\drivers/peripheral/gpio/cy_gpio.h **** * \param portNum
 722:Generated_Source\PSoC6\pdl\drivers/peripheral/gpio/cy_gpio.h **** * Port number
 723:Generated_Source\PSoC6\pdl\drivers/peripheral/gpio/cy_gpio.h **** *
 724:Generated_Source\PSoC6\pdl\drivers/peripheral/gpio/cy_gpio.h **** * \return
 725:Generated_Source\PSoC6\pdl\drivers/peripheral/gpio/cy_gpio.h **** * Base address of the port register structure
 726:Generated_Source\PSoC6\pdl\drivers/peripheral/gpio/cy_gpio.h **** *
 727:Generated_Source\PSoC6\pdl\drivers/peripheral/gpio/cy_gpio.h **** * \funcusage
 728:Generated_Source\PSoC6\pdl\drivers/peripheral/gpio/cy_gpio.h **** * \snippet gpio/gpio_v1_10_sut_01.cydsn/main_cm4.c snippet_Cy_GPIO_PortToAddr
 729:Generated_Source\PSoC6\pdl\drivers/peripheral/gpio/cy_gpio.h **** *
 730:Generated_Source\PSoC6\pdl\drivers/peripheral/gpio/cy_gpio.h **** *******************************************************************************/
 731:Generated_Source\PSoC6\pdl\drivers/peripheral/gpio/cy_gpio.h **** __STATIC_INLINE GPIO_PRT_Type* Cy_GPIO_PortToAddr(uint32_t portNum)
 732:Generated_Source\PSoC6\pdl\drivers/peripheral/gpio/cy_gpio.h **** {
 733:Generated_Source\PSoC6\pdl\drivers/peripheral/gpio/cy_gpio.h ****     GPIO_PRT_Type* portBase;
 734:Generated_Source\PSoC6\pdl\drivers/peripheral/gpio/cy_gpio.h ****     
 735:Generated_Source\PSoC6\pdl\drivers/peripheral/gpio/cy_gpio.h ****     if(portNum < (uint32_t)IOSS_GPIO_GPIO_PORT_NR)
ARM GAS  C:\Users\nicpa\AppData\Local\Temp\ccPr5feD.s 			page 31


 736:Generated_Source\PSoC6\pdl\drivers/peripheral/gpio/cy_gpio.h ****     {
 737:Generated_Source\PSoC6\pdl\drivers/peripheral/gpio/cy_gpio.h ****         portBase = (GPIO_PRT_Type *)(CY_GPIO_BASE + (GPIO_PRT_SECTION_SIZE * portNum));
 738:Generated_Source\PSoC6\pdl\drivers/peripheral/gpio/cy_gpio.h ****     }
 739:Generated_Source\PSoC6\pdl\drivers/peripheral/gpio/cy_gpio.h ****     else
 740:Generated_Source\PSoC6\pdl\drivers/peripheral/gpio/cy_gpio.h ****     {
 741:Generated_Source\PSoC6\pdl\drivers/peripheral/gpio/cy_gpio.h ****         /* Error: Return default base address */
 742:Generated_Source\PSoC6\pdl\drivers/peripheral/gpio/cy_gpio.h ****         portBase = (GPIO_PRT_Type *)(CY_GPIO_BASE);
 743:Generated_Source\PSoC6\pdl\drivers/peripheral/gpio/cy_gpio.h ****     }
 744:Generated_Source\PSoC6\pdl\drivers/peripheral/gpio/cy_gpio.h **** 
 745:Generated_Source\PSoC6\pdl\drivers/peripheral/gpio/cy_gpio.h ****     return (portBase);
 746:Generated_Source\PSoC6\pdl\drivers/peripheral/gpio/cy_gpio.h **** }
 747:Generated_Source\PSoC6\pdl\drivers/peripheral/gpio/cy_gpio.h **** 
 748:Generated_Source\PSoC6\pdl\drivers/peripheral/gpio/cy_gpio.h **** /** \} group_gpio_functions_init */
 749:Generated_Source\PSoC6\pdl\drivers/peripheral/gpio/cy_gpio.h **** 
 750:Generated_Source\PSoC6\pdl\drivers/peripheral/gpio/cy_gpio.h **** /**
 751:Generated_Source\PSoC6\pdl\drivers/peripheral/gpio/cy_gpio.h **** * \addtogroup group_gpio_functions_gpio
 752:Generated_Source\PSoC6\pdl\drivers/peripheral/gpio/cy_gpio.h **** * \{
 753:Generated_Source\PSoC6\pdl\drivers/peripheral/gpio/cy_gpio.h **** */
 754:Generated_Source\PSoC6\pdl\drivers/peripheral/gpio/cy_gpio.h **** 
 755:Generated_Source\PSoC6\pdl\drivers/peripheral/gpio/cy_gpio.h **** /*******************************************************************************
 756:Generated_Source\PSoC6\pdl\drivers/peripheral/gpio/cy_gpio.h **** * Function Name: Cy_GPIO_Read
 757:Generated_Source\PSoC6\pdl\drivers/peripheral/gpio/cy_gpio.h **** ****************************************************************************//**
 758:Generated_Source\PSoC6\pdl\drivers/peripheral/gpio/cy_gpio.h **** *
 759:Generated_Source\PSoC6\pdl\drivers/peripheral/gpio/cy_gpio.h **** * Reads the current logic level on the input buffer of the pin.
 760:Generated_Source\PSoC6\pdl\drivers/peripheral/gpio/cy_gpio.h **** *
 761:Generated_Source\PSoC6\pdl\drivers/peripheral/gpio/cy_gpio.h **** * \param base
 762:Generated_Source\PSoC6\pdl\drivers/peripheral/gpio/cy_gpio.h **** * Pointer to the pin's port register base address
 763:Generated_Source\PSoC6\pdl\drivers/peripheral/gpio/cy_gpio.h **** *
 764:Generated_Source\PSoC6\pdl\drivers/peripheral/gpio/cy_gpio.h **** * \param pinNum
 765:Generated_Source\PSoC6\pdl\drivers/peripheral/gpio/cy_gpio.h **** * Position of the pin bit-field within the port register.
 766:Generated_Source\PSoC6\pdl\drivers/peripheral/gpio/cy_gpio.h **** * Bit position 8 is the routed pin through the port glitch filter.
 767:Generated_Source\PSoC6\pdl\drivers/peripheral/gpio/cy_gpio.h **** *
 768:Generated_Source\PSoC6\pdl\drivers/peripheral/gpio/cy_gpio.h **** * \return
 769:Generated_Source\PSoC6\pdl\drivers/peripheral/gpio/cy_gpio.h **** * Logic level present on the pin
 770:Generated_Source\PSoC6\pdl\drivers/peripheral/gpio/cy_gpio.h **** *
 771:Generated_Source\PSoC6\pdl\drivers/peripheral/gpio/cy_gpio.h **** * \funcusage
 772:Generated_Source\PSoC6\pdl\drivers/peripheral/gpio/cy_gpio.h **** * \snippet gpio/gpio_v1_10_sut_01.cydsn/main_cm4.c snippet_Cy_GPIO_Read
 773:Generated_Source\PSoC6\pdl\drivers/peripheral/gpio/cy_gpio.h **** *
 774:Generated_Source\PSoC6\pdl\drivers/peripheral/gpio/cy_gpio.h **** *******************************************************************************/
 775:Generated_Source\PSoC6\pdl\drivers/peripheral/gpio/cy_gpio.h **** __STATIC_INLINE uint32_t Cy_GPIO_Read(GPIO_PRT_Type* base, uint32_t pinNum)
 776:Generated_Source\PSoC6\pdl\drivers/peripheral/gpio/cy_gpio.h **** {
 777:Generated_Source\PSoC6\pdl\drivers/peripheral/gpio/cy_gpio.h ****     CY_ASSERT_L2(CY_GPIO_IS_FILTER_PIN_VALID(pinNum));
 778:Generated_Source\PSoC6\pdl\drivers/peripheral/gpio/cy_gpio.h ****     
 779:Generated_Source\PSoC6\pdl\drivers/peripheral/gpio/cy_gpio.h ****     return (GPIO_PRT_IN(base) >> (pinNum)) & CY_GPIO_IN_MASK;
 780:Generated_Source\PSoC6\pdl\drivers/peripheral/gpio/cy_gpio.h **** }
 781:Generated_Source\PSoC6\pdl\drivers/peripheral/gpio/cy_gpio.h **** 
 782:Generated_Source\PSoC6\pdl\drivers/peripheral/gpio/cy_gpio.h **** 
 783:Generated_Source\PSoC6\pdl\drivers/peripheral/gpio/cy_gpio.h **** /*******************************************************************************
 784:Generated_Source\PSoC6\pdl\drivers/peripheral/gpio/cy_gpio.h **** * Function Name: Cy_GPIO_Write
 785:Generated_Source\PSoC6\pdl\drivers/peripheral/gpio/cy_gpio.h **** ****************************************************************************//**
 786:Generated_Source\PSoC6\pdl\drivers/peripheral/gpio/cy_gpio.h **** *
 787:Generated_Source\PSoC6\pdl\drivers/peripheral/gpio/cy_gpio.h **** * Write a logic 0 or logic 1 state to the output driver.
 788:Generated_Source\PSoC6\pdl\drivers/peripheral/gpio/cy_gpio.h **** *
 789:Generated_Source\PSoC6\pdl\drivers/peripheral/gpio/cy_gpio.h **** * This function should be used only for software driven pins. It does not have
 790:Generated_Source\PSoC6\pdl\drivers/peripheral/gpio/cy_gpio.h **** * any effect on peripheral driven pins.
 791:Generated_Source\PSoC6\pdl\drivers/peripheral/gpio/cy_gpio.h **** *
 792:Generated_Source\PSoC6\pdl\drivers/peripheral/gpio/cy_gpio.h **** * \param base
ARM GAS  C:\Users\nicpa\AppData\Local\Temp\ccPr5feD.s 			page 32


 793:Generated_Source\PSoC6\pdl\drivers/peripheral/gpio/cy_gpio.h **** * Pointer to the pin's port register base address
 794:Generated_Source\PSoC6\pdl\drivers/peripheral/gpio/cy_gpio.h **** *
 795:Generated_Source\PSoC6\pdl\drivers/peripheral/gpio/cy_gpio.h **** * \param pinNum
 796:Generated_Source\PSoC6\pdl\drivers/peripheral/gpio/cy_gpio.h **** * Position of the pin bit-field within the port register
 797:Generated_Source\PSoC6\pdl\drivers/peripheral/gpio/cy_gpio.h **** *
 798:Generated_Source\PSoC6\pdl\drivers/peripheral/gpio/cy_gpio.h **** * \param value
 799:Generated_Source\PSoC6\pdl\drivers/peripheral/gpio/cy_gpio.h **** * Logic level to drive out on the pin
 800:Generated_Source\PSoC6\pdl\drivers/peripheral/gpio/cy_gpio.h **** *
 801:Generated_Source\PSoC6\pdl\drivers/peripheral/gpio/cy_gpio.h **** * \funcusage
 802:Generated_Source\PSoC6\pdl\drivers/peripheral/gpio/cy_gpio.h **** * \snippet gpio/gpio_v1_10_sut_01.cydsn/main_cm4.c snippet_Cy_GPIO_Write
 803:Generated_Source\PSoC6\pdl\drivers/peripheral/gpio/cy_gpio.h **** *
 804:Generated_Source\PSoC6\pdl\drivers/peripheral/gpio/cy_gpio.h **** *******************************************************************************/
 805:Generated_Source\PSoC6\pdl\drivers/peripheral/gpio/cy_gpio.h **** __STATIC_INLINE void Cy_GPIO_Write(GPIO_PRT_Type* base, uint32_t pinNum, uint32_t value)
 806:Generated_Source\PSoC6\pdl\drivers/peripheral/gpio/cy_gpio.h **** {
 807:Generated_Source\PSoC6\pdl\drivers/peripheral/gpio/cy_gpio.h ****     CY_ASSERT_L2(CY_GPIO_IS_PIN_VALID(pinNum));
 808:Generated_Source\PSoC6\pdl\drivers/peripheral/gpio/cy_gpio.h ****     CY_ASSERT_L2(CY_GPIO_IS_VALUE_VALID(value));
 809:Generated_Source\PSoC6\pdl\drivers/peripheral/gpio/cy_gpio.h **** 
 810:Generated_Source\PSoC6\pdl\drivers/peripheral/gpio/cy_gpio.h ****     /* Thread-safe: Directly access the pin registers instead of base->OUT */
 811:Generated_Source\PSoC6\pdl\drivers/peripheral/gpio/cy_gpio.h ****     if(0UL == value)
 812:Generated_Source\PSoC6\pdl\drivers/peripheral/gpio/cy_gpio.h ****     {
 813:Generated_Source\PSoC6\pdl\drivers/peripheral/gpio/cy_gpio.h ****         GPIO_PRT_OUT_CLR(base) = CY_GPIO_OUT_MASK << pinNum;
 814:Generated_Source\PSoC6\pdl\drivers/peripheral/gpio/cy_gpio.h ****     }
 815:Generated_Source\PSoC6\pdl\drivers/peripheral/gpio/cy_gpio.h ****     else
 816:Generated_Source\PSoC6\pdl\drivers/peripheral/gpio/cy_gpio.h ****     {
 817:Generated_Source\PSoC6\pdl\drivers/peripheral/gpio/cy_gpio.h ****         GPIO_PRT_OUT_SET(base) = CY_GPIO_OUT_MASK << pinNum;
 696              		.loc 2 817 0
 697 00e2 0822     		movs	r2, #8
 698 00e4 364B     		ldr	r3, .L29+20
 699 00e6 9A60     		str	r2, [r3, #8]
 700              	.LVL100:
 701              	.LBE23:
 702              	.LBE22:
 278:LED_task.c    ****         Cy_GPIO_Write(P0_3_PORT, P0_3_NUM, 1);
 279:LED_task.c    ****         LED_flag = false;
 703              		.loc 1 279 0
 704 00e8 0022     		movs	r2, #0
 705 00ea 304B     		ldr	r3, .L29
 706 00ec 1A70     		strb	r2, [r3]
 707              	.L25:
 280:LED_task.c    ****         
 281:LED_task.c    ****     }
 282:LED_task.c    ****     
 283:LED_task.c    **** 
 284:LED_task.c    ****     
 285:LED_task.c    ****     
 286:LED_task.c    ****     GUI_DrawRect(7,7,257,120);
 708              		.loc 1 286 0
 709 00ee 7823     		movs	r3, #120
 710 00f0 40F20112 		movw	r2, #257
 711 00f4 0721     		movs	r1, #7
 712 00f6 0846     		mov	r0, r1
 713 00f8 FFF7FEFF 		bl	GUI_DrawRect
 714              	.LVL101:
 287:LED_task.c    ****     GUI_SetFont(GUI_FONT_16B_1);
 715              		.loc 1 287 0
 716 00fc 2E48     		ldr	r0, .L29+12
 717 00fe FFF7FEFF 		bl	GUI_SetFont
ARM GAS  C:\Users\nicpa\AppData\Local\Temp\ccPr5feD.s 			page 33


 718              	.LVL102:
 288:LED_task.c    ****     GUI_SetTextAlign(GUI_TA_CENTER);
 719              		.loc 1 288 0
 720 0102 0220     		movs	r0, #2
 721 0104 FFF7FEFF 		bl	GUI_SetTextAlign
 722              	.LVL103:
 289:LED_task.c    ****     char frequence[4] = "";
 723              		.loc 1 289 0
 724 0108 0023     		movs	r3, #0
 725 010a 0293     		str	r3, [sp, #8]
 290:LED_task.c    ****     char taux_oxy[5] = "";
 726              		.loc 1 290 0
 727 010c 0093     		str	r3, [sp]
 728 010e 8DF80430 		strb	r3, [sp, #4]
 291:LED_task.c    ****     sprintf(frequence,"%d",(int)fc);
 729              		.loc 1 291 0
 730 0112 2C4C     		ldr	r4, .L29+24
 731 0114 3A46     		mov	r2, r7
 732 0116 2146     		mov	r1, r4
 733 0118 02A8     		add	r0, sp, #8
 734 011a FFF7FEFF 		bl	sprintf
 735              	.LVL104:
 292:LED_task.c    ****     sprintf(taux_oxy,"%d",(int)spo2);
 736              		.loc 1 292 0
 737 011e 4246     		mov	r2, r8
 738 0120 2146     		mov	r1, r4
 739 0122 6846     		mov	r0, sp
 740 0124 FFF7FEFF 		bl	sprintf
 741              	.LVL105:
 293:LED_task.c    ****     GUI_DispStringAt("SPO2", 190 ,130);
 742              		.loc 1 293 0
 743 0128 8222     		movs	r2, #130
 744 012a BE21     		movs	r1, #190
 745 012c 2648     		ldr	r0, .L29+28
 746 012e FFF7FEFF 		bl	GUI_DispStringAt
 747              	.LVL106:
 294:LED_task.c    ****     GUI_DispStringAt("Heart Rate",40 ,130);
 748              		.loc 1 294 0
 749 0132 8222     		movs	r2, #130
 750 0134 2821     		movs	r1, #40
 751 0136 2548     		ldr	r0, .L29+32
 752 0138 FFF7FEFF 		bl	GUI_DispStringAt
 753              	.LVL107:
 295:LED_task.c    ****     GUI_SetFont(GUI_FONT_16_1);
 754              		.loc 1 295 0
 755 013c 2448     		ldr	r0, .L29+36
 756 013e FFF7FEFF 		bl	GUI_SetFont
 757              	.LVL108:
 296:LED_task.c    ****     GUI_DispStringAt(frequence, 65, 155);
 758              		.loc 1 296 0
 759 0142 9B22     		movs	r2, #155
 760 0144 4121     		movs	r1, #65
 761 0146 02A8     		add	r0, sp, #8
 762 0148 FFF7FEFF 		bl	GUI_DispStringAt
 763              	.LVL109:
 297:LED_task.c    ****     
 298:LED_task.c    ****     
ARM GAS  C:\Users\nicpa\AppData\Local\Temp\ccPr5feD.s 			page 34


 299:LED_task.c    ****     if((fc>hrmax || fc<hrmin)&& alerte)
 764              		.loc 1 299 0
 765 014c 214B     		ldr	r3, .L29+40
 766 014e 1B68     		ldr	r3, [r3]
 767 0150 9F42     		cmp	r7, r3
 768 0152 03D8     		bhi	.L26
 769              		.loc 1 299 0 is_stmt 0 discriminator 2
 770 0154 204B     		ldr	r3, .L29+44
 771 0156 1B68     		ldr	r3, [r3]
 772 0158 9F42     		cmp	r7, r3
 773 015a 10D2     		bcs	.L27
 774              	.L26:
 775              		.loc 1 299 0 discriminator 3
 776 015c 154B     		ldr	r3, .L29+8
 777 015e 1B78     		ldrb	r3, [r3]	@ zero_extendqisi2
 778 0160 6BB1     		cbz	r3, .L27
 300:LED_task.c    ****     {
 301:LED_task.c    ****         GUI_SetFont(GUI_FONT_32B_1);        
 779              		.loc 1 301 0 is_stmt 1
 780 0162 1E48     		ldr	r0, .L29+48
 781 0164 FFF7FEFF 		bl	GUI_SetFont
 782              	.LVL110:
 302:LED_task.c    ****         GUI_DispStringAt("!!!", 25, 145);
 783              		.loc 1 302 0
 784 0168 1D4C     		ldr	r4, .L29+52
 785 016a 9122     		movs	r2, #145
 786 016c 1921     		movs	r1, #25
 787 016e 2046     		mov	r0, r4
 788 0170 FFF7FEFF 		bl	GUI_DispStringAt
 789              	.LVL111:
 303:LED_task.c    ****         GUI_DispStringAt("!!!", 90, 145);
 790              		.loc 1 303 0
 791 0174 9122     		movs	r2, #145
 792 0176 5A21     		movs	r1, #90
 793 0178 2046     		mov	r0, r4
 794 017a FFF7FEFF 		bl	GUI_DispStringAt
 795              	.LVL112:
 796              	.L27:
 304:LED_task.c    ****     }
 305:LED_task.c    ****    
 306:LED_task.c    ****     
 307:LED_task.c    ****     GUI_SetFont(GUI_FONT_16_1);
 797              		.loc 1 307 0
 798 017e 1448     		ldr	r0, .L29+36
 799 0180 FFF7FEFF 		bl	GUI_SetFont
 800              	.LVL113:
 308:LED_task.c    ****     GUI_DispStringAt(taux_oxy, 180, 155);
 801              		.loc 1 308 0
 802 0184 9B22     		movs	r2, #155
 803 0186 B421     		movs	r1, #180
 804 0188 6846     		mov	r0, sp
 805 018a FFF7FEFF 		bl	GUI_DispStringAt
 806              	.LVL114:
 309:LED_task.c    ****     GUI_DispStringAt("%",200 ,155);
 807              		.loc 1 309 0
 808 018e 9B22     		movs	r2, #155
 809 0190 C821     		movs	r1, #200
ARM GAS  C:\Users\nicpa\AppData\Local\Temp\ccPr5feD.s 			page 35


 810 0192 1448     		ldr	r0, .L29+56
 811 0194 FFF7FEFF 		bl	GUI_DispStringAt
 812              	.LVL115:
 310:LED_task.c    ****     
 311:LED_task.c    ****     UpdateDisplay(CY_EINK_FULL_2STAGE, true);
 813              		.loc 1 311 0
 814 0198 0121     		movs	r1, #1
 815 019a 0220     		movs	r0, #2
 816 019c FFF7FEFF 		bl	UpdateDisplay
 817              	.LVL116:
 312:LED_task.c    **** }
 818              		.loc 1 312 0
 819 01a0 0DF5007D 		add	sp, sp, #512
 820              		.cfi_def_cfa_offset 32
 821              		@ sp needed
 822 01a4 BDEC028B 		vldm	sp!, {d8}
 823              		.cfi_restore 80
 824              		.cfi_restore 81
 825              		.cfi_def_cfa_offset 24
 826              	.LVL117:
 827 01a8 BDE8F081 		pop	{r4, r5, r6, r7, r8, pc}
 828              	.LVL118:
 829              	.L30:
 830              		.align	2
 831              	.L29:
 832 01ac 00000000 		.word	LED_flag
 833 01b0 00001643 		.word	1125515264
 834 01b4 00000000 		.word	alerte
 835 01b8 00000000 		.word	GUI_Font16B_1
 836 01bc D0000000 		.word	.LC12
 837 01c0 00003240 		.word	1077018624
 838 01c4 7C000000 		.word	.LC7
 839 01c8 E4000000 		.word	.LC13
 840 01cc EC000000 		.word	.LC14
 841 01d0 00000000 		.word	GUI_Font16_1
 842 01d4 00000000 		.word	hrmax
 843 01d8 00000000 		.word	hrmin
 844 01dc 00000000 		.word	GUI_Font32B_1
 845 01e0 F8000000 		.word	.LC15
 846 01e4 FC000000 		.word	.LC16
 847              		.cfi_endproc
 848              	.LFE702:
 849              		.size	updateSignal, .-updateSignal
 850              		.section	.text.vINTERFACE_task,"ax",%progbits
 851              		.align	2
 852              		.global	vINTERFACE_task
 853              		.thumb
 854              		.thumb_func
 855              		.type	vINTERFACE_task, %function
 856              	vINTERFACE_task:
 857              	.LFB703:
 313:LED_task.c    **** 
 314:LED_task.c    **** 
 315:LED_task.c    **** /*******************************************************************************
 316:LED_task.c    **** * Function Name: void vINTERFACE_task(void* pvParameters)
 317:LED_task.c    **** ********************************************************************************
 318:LED_task.c    **** *
ARM GAS  C:\Users\nicpa\AppData\Local\Temp\ccPr5feD.s 			page 36


 319:LED_task.c    **** * Summary:  
 320:LED_task.c    **** * C’est une tâche qui vérifie la variable représentant la page actuelle et la variable représ
 321:LED_task.c    **** * bouton. Dépendamment de ces deux variables, elle appelle des fonctions d’affichage et peut aus
 322:LED_task.c    **** * modifier certaine variable, comment changer la page actuelle.
 323:LED_task.c    **** *
 324:LED_task.c    **** * Parameters:
 325:LED_task.c    **** * void* pvParameters
 326:LED_task.c    **** *
 327:LED_task.c    **** * Return:
 328:LED_task.c    **** *  None
 329:LED_task.c    **** *
 330:LED_task.c    **** *******************************************************************************/
 331:LED_task.c    **** 
 332:LED_task.c    **** void vINTERFACE_task(void* pvParameters){
 858              		.loc 1 332 0
 859              		.cfi_startproc
 860              		@ args = 0, pretend = 0, frame = 0
 861              		@ frame_needed = 0, uses_anonymous_args = 0
 862              	.LVL119:
 863 0000 70B5     		push	{r4, r5, r6, lr}
 864              		.cfi_def_cfa_offset 16
 865              		.cfi_offset 4, -16
 866              		.cfi_offset 5, -12
 867              		.cfi_offset 6, -8
 868              		.cfi_offset 14, -4
 869 0002 82B0     		sub	sp, sp, #8
 870              		.cfi_def_cfa_offset 24
 333:LED_task.c    ****     
 334:LED_task.c    ****     
 335:LED_task.c    ****     (void)pvParameters;
 336:LED_task.c    ****     GUI_Init();
 871              		.loc 1 336 0
 872 0004 FFF7FEFF 		bl	GUI_Init
 873              	.LVL120:
 337:LED_task.c    ****     Cy_EINK_Start(20);
 874              		.loc 1 337 0
 875 0008 1420     		movs	r0, #20
 876 000a FFF7FEFF 		bl	Cy_EINK_Start
 877              	.LVL121:
 338:LED_task.c    ****     Cy_EINK_Power(1);
 878              		.loc 1 338 0
 879 000e 0120     		movs	r0, #1
 880 0010 FFF7FEFF 		bl	Cy_EINK_Power
 881              	.LVL122:
 339:LED_task.c    ****     int8_t selection = 1;
 340:LED_task.c    ****     updateMenu(selection);
 882              		.loc 1 340 0
 883 0014 0120     		movs	r0, #1
 884 0016 FFF7FEFF 		bl	updateMenu
 885              	.LVL123:
 341:LED_task.c    **** 
 342:LED_task.c    ****     NVIC_DisableIRQ(PPG_RDY_isr_cfg.intrSrc);
 886              		.loc 1 342 0
 887 001a 794B     		ldr	r3, .L54
 888 001c B3F90030 		ldrsh	r3, [r3]
 889              	.LVL124:
 890              	.LBB24:
ARM GAS  C:\Users\nicpa\AppData\Local\Temp\ccPr5feD.s 			page 37


 891              	.LBB25:
 892              		.file 3 ".\\CMSIS\\Core\\Include/core_cm4.h"
   1:.\CMSIS\Core\Include/core_cm4.h **** /**************************************************************************//**
   2:.\CMSIS\Core\Include/core_cm4.h ****  * @file     core_cm4.h
   3:.\CMSIS\Core\Include/core_cm4.h ****  * @brief    CMSIS Cortex-M4 Core Peripheral Access Layer Header File
   4:.\CMSIS\Core\Include/core_cm4.h ****  * @version  V5.0.7
   5:.\CMSIS\Core\Include/core_cm4.h ****  * @date     28. May 2018
   6:.\CMSIS\Core\Include/core_cm4.h ****  ******************************************************************************/
   7:.\CMSIS\Core\Include/core_cm4.h **** /*
   8:.\CMSIS\Core\Include/core_cm4.h ****  * Copyright (c) 2009-2017 ARM Limited. All rights reserved.
   9:.\CMSIS\Core\Include/core_cm4.h ****  *
  10:.\CMSIS\Core\Include/core_cm4.h ****  * SPDX-License-Identifier: Apache-2.0
  11:.\CMSIS\Core\Include/core_cm4.h ****  *
  12:.\CMSIS\Core\Include/core_cm4.h ****  * Licensed under the Apache License, Version 2.0 (the License); you may
  13:.\CMSIS\Core\Include/core_cm4.h ****  * not use this file except in compliance with the License.
  14:.\CMSIS\Core\Include/core_cm4.h ****  * You may obtain a copy of the License at
  15:.\CMSIS\Core\Include/core_cm4.h ****  *
  16:.\CMSIS\Core\Include/core_cm4.h ****  * www.apache.org/licenses/LICENSE-2.0
  17:.\CMSIS\Core\Include/core_cm4.h ****  *
  18:.\CMSIS\Core\Include/core_cm4.h ****  * Unless required by applicable law or agreed to in writing, software
  19:.\CMSIS\Core\Include/core_cm4.h ****  * distributed under the License is distributed on an AS IS BASIS, WITHOUT
  20:.\CMSIS\Core\Include/core_cm4.h ****  * WARRANTIES OR CONDITIONS OF ANY KIND, either express or implied.
  21:.\CMSIS\Core\Include/core_cm4.h ****  * See the License for the specific language governing permissions and
  22:.\CMSIS\Core\Include/core_cm4.h ****  * limitations under the License.
  23:.\CMSIS\Core\Include/core_cm4.h ****  */
  24:.\CMSIS\Core\Include/core_cm4.h **** 
  25:.\CMSIS\Core\Include/core_cm4.h **** #if   defined ( __ICCARM__ )
  26:.\CMSIS\Core\Include/core_cm4.h ****   #pragma system_include         /* treat file as system include file for MISRA check */
  27:.\CMSIS\Core\Include/core_cm4.h **** #elif defined (__clang__)
  28:.\CMSIS\Core\Include/core_cm4.h ****   #pragma clang system_header   /* treat file as system include file */
  29:.\CMSIS\Core\Include/core_cm4.h **** #endif
  30:.\CMSIS\Core\Include/core_cm4.h **** 
  31:.\CMSIS\Core\Include/core_cm4.h **** #ifndef __CORE_CM4_H_GENERIC
  32:.\CMSIS\Core\Include/core_cm4.h **** #define __CORE_CM4_H_GENERIC
  33:.\CMSIS\Core\Include/core_cm4.h **** 
  34:.\CMSIS\Core\Include/core_cm4.h **** #include <stdint.h>
  35:.\CMSIS\Core\Include/core_cm4.h **** 
  36:.\CMSIS\Core\Include/core_cm4.h **** #ifdef __cplusplus
  37:.\CMSIS\Core\Include/core_cm4.h ****  extern "C" {
  38:.\CMSIS\Core\Include/core_cm4.h **** #endif
  39:.\CMSIS\Core\Include/core_cm4.h **** 
  40:.\CMSIS\Core\Include/core_cm4.h **** /**
  41:.\CMSIS\Core\Include/core_cm4.h ****   \page CMSIS_MISRA_Exceptions  MISRA-C:2004 Compliance Exceptions
  42:.\CMSIS\Core\Include/core_cm4.h ****   CMSIS violates the following MISRA-C:2004 rules:
  43:.\CMSIS\Core\Include/core_cm4.h **** 
  44:.\CMSIS\Core\Include/core_cm4.h ****    \li Required Rule 8.5, object/function definition in header file.<br>
  45:.\CMSIS\Core\Include/core_cm4.h ****      Function definitions in header files are used to allow 'inlining'.
  46:.\CMSIS\Core\Include/core_cm4.h **** 
  47:.\CMSIS\Core\Include/core_cm4.h ****    \li Required Rule 18.4, declaration of union type or object of union type: '{...}'.<br>
  48:.\CMSIS\Core\Include/core_cm4.h ****      Unions are used for effective representation of core registers.
  49:.\CMSIS\Core\Include/core_cm4.h **** 
  50:.\CMSIS\Core\Include/core_cm4.h ****    \li Advisory Rule 19.7, Function-like macro defined.<br>
  51:.\CMSIS\Core\Include/core_cm4.h ****      Function-like macros are used to allow more efficient code.
  52:.\CMSIS\Core\Include/core_cm4.h ****  */
  53:.\CMSIS\Core\Include/core_cm4.h **** 
  54:.\CMSIS\Core\Include/core_cm4.h **** 
  55:.\CMSIS\Core\Include/core_cm4.h **** /*******************************************************************************
ARM GAS  C:\Users\nicpa\AppData\Local\Temp\ccPr5feD.s 			page 38


  56:.\CMSIS\Core\Include/core_cm4.h ****  *                 CMSIS definitions
  57:.\CMSIS\Core\Include/core_cm4.h ****  ******************************************************************************/
  58:.\CMSIS\Core\Include/core_cm4.h **** /**
  59:.\CMSIS\Core\Include/core_cm4.h ****   \ingroup Cortex_M4
  60:.\CMSIS\Core\Include/core_cm4.h ****   @{
  61:.\CMSIS\Core\Include/core_cm4.h ****  */
  62:.\CMSIS\Core\Include/core_cm4.h **** 
  63:.\CMSIS\Core\Include/core_cm4.h **** #include "cmsis_version.h"
  64:.\CMSIS\Core\Include/core_cm4.h ****  
  65:.\CMSIS\Core\Include/core_cm4.h **** /* CMSIS CM4 definitions */
  66:.\CMSIS\Core\Include/core_cm4.h **** #define __CM4_CMSIS_VERSION_MAIN  (__CM_CMSIS_VERSION_MAIN)              /*!< \deprecated [31:16] C
  67:.\CMSIS\Core\Include/core_cm4.h **** #define __CM4_CMSIS_VERSION_SUB   (__CM_CMSIS_VERSION_SUB)               /*!< \deprecated [15:0]  C
  68:.\CMSIS\Core\Include/core_cm4.h **** #define __CM4_CMSIS_VERSION       ((__CM4_CMSIS_VERSION_MAIN << 16U) | \
  69:.\CMSIS\Core\Include/core_cm4.h ****                                     __CM4_CMSIS_VERSION_SUB           )  /*!< \deprecated CMSIS HAL
  70:.\CMSIS\Core\Include/core_cm4.h **** 
  71:.\CMSIS\Core\Include/core_cm4.h **** #define __CORTEX_M                (4U)                                   /*!< Cortex-M Core */
  72:.\CMSIS\Core\Include/core_cm4.h **** 
  73:.\CMSIS\Core\Include/core_cm4.h **** /** __FPU_USED indicates whether an FPU is used or not.
  74:.\CMSIS\Core\Include/core_cm4.h ****     For this, __FPU_PRESENT has to be checked prior to making use of FPU specific registers and fun
  75:.\CMSIS\Core\Include/core_cm4.h **** */
  76:.\CMSIS\Core\Include/core_cm4.h **** #if defined ( __CC_ARM )
  77:.\CMSIS\Core\Include/core_cm4.h ****   #if defined __TARGET_FPU_VFP
  78:.\CMSIS\Core\Include/core_cm4.h ****     #if defined (__FPU_PRESENT) && (__FPU_PRESENT == 1U)
  79:.\CMSIS\Core\Include/core_cm4.h ****       #define __FPU_USED       1U
  80:.\CMSIS\Core\Include/core_cm4.h ****     #else
  81:.\CMSIS\Core\Include/core_cm4.h ****       #error "Compiler generates FPU instructions for a device without an FPU (check __FPU_PRESENT)
  82:.\CMSIS\Core\Include/core_cm4.h ****       #define __FPU_USED       0U
  83:.\CMSIS\Core\Include/core_cm4.h ****     #endif
  84:.\CMSIS\Core\Include/core_cm4.h ****   #else
  85:.\CMSIS\Core\Include/core_cm4.h ****     #define __FPU_USED         0U
  86:.\CMSIS\Core\Include/core_cm4.h ****   #endif
  87:.\CMSIS\Core\Include/core_cm4.h **** 
  88:.\CMSIS\Core\Include/core_cm4.h **** #elif defined (__ARMCC_VERSION) && (__ARMCC_VERSION >= 6010050)
  89:.\CMSIS\Core\Include/core_cm4.h ****   #if defined __ARM_PCS_VFP
  90:.\CMSIS\Core\Include/core_cm4.h ****     #if defined (__FPU_PRESENT) && (__FPU_PRESENT == 1U)
  91:.\CMSIS\Core\Include/core_cm4.h ****       #define __FPU_USED       1U
  92:.\CMSIS\Core\Include/core_cm4.h ****     #else
  93:.\CMSIS\Core\Include/core_cm4.h ****       #warning "Compiler generates FPU instructions for a device without an FPU (check __FPU_PRESEN
  94:.\CMSIS\Core\Include/core_cm4.h ****       #define __FPU_USED       0U
  95:.\CMSIS\Core\Include/core_cm4.h ****     #endif
  96:.\CMSIS\Core\Include/core_cm4.h ****   #else
  97:.\CMSIS\Core\Include/core_cm4.h ****     #define __FPU_USED         0U
  98:.\CMSIS\Core\Include/core_cm4.h ****   #endif
  99:.\CMSIS\Core\Include/core_cm4.h **** 
 100:.\CMSIS\Core\Include/core_cm4.h **** #elif defined ( __GNUC__ )
 101:.\CMSIS\Core\Include/core_cm4.h ****   #if defined (__VFP_FP__) && !defined(__SOFTFP__)
 102:.\CMSIS\Core\Include/core_cm4.h ****     #if defined (__FPU_PRESENT) && (__FPU_PRESENT == 1U)
 103:.\CMSIS\Core\Include/core_cm4.h ****       #define __FPU_USED       1U
 104:.\CMSIS\Core\Include/core_cm4.h ****     #else
 105:.\CMSIS\Core\Include/core_cm4.h ****       #error "Compiler generates FPU instructions for a device without an FPU (check __FPU_PRESENT)
 106:.\CMSIS\Core\Include/core_cm4.h ****       #define __FPU_USED       0U
 107:.\CMSIS\Core\Include/core_cm4.h ****     #endif
 108:.\CMSIS\Core\Include/core_cm4.h ****   #else
 109:.\CMSIS\Core\Include/core_cm4.h ****     #define __FPU_USED         0U
 110:.\CMSIS\Core\Include/core_cm4.h ****   #endif
 111:.\CMSIS\Core\Include/core_cm4.h **** 
 112:.\CMSIS\Core\Include/core_cm4.h **** #elif defined ( __ICCARM__ )
ARM GAS  C:\Users\nicpa\AppData\Local\Temp\ccPr5feD.s 			page 39


 113:.\CMSIS\Core\Include/core_cm4.h ****   #if defined __ARMVFP__
 114:.\CMSIS\Core\Include/core_cm4.h ****     #if defined (__FPU_PRESENT) && (__FPU_PRESENT == 1U)
 115:.\CMSIS\Core\Include/core_cm4.h ****       #define __FPU_USED       1U
 116:.\CMSIS\Core\Include/core_cm4.h ****     #else
 117:.\CMSIS\Core\Include/core_cm4.h ****       #error "Compiler generates FPU instructions for a device without an FPU (check __FPU_PRESENT)
 118:.\CMSIS\Core\Include/core_cm4.h ****       #define __FPU_USED       0U
 119:.\CMSIS\Core\Include/core_cm4.h ****     #endif
 120:.\CMSIS\Core\Include/core_cm4.h ****   #else
 121:.\CMSIS\Core\Include/core_cm4.h ****     #define __FPU_USED         0U
 122:.\CMSIS\Core\Include/core_cm4.h ****   #endif
 123:.\CMSIS\Core\Include/core_cm4.h **** 
 124:.\CMSIS\Core\Include/core_cm4.h **** #elif defined ( __TI_ARM__ )
 125:.\CMSIS\Core\Include/core_cm4.h ****   #if defined __TI_VFP_SUPPORT__
 126:.\CMSIS\Core\Include/core_cm4.h ****     #if defined (__FPU_PRESENT) && (__FPU_PRESENT == 1U)
 127:.\CMSIS\Core\Include/core_cm4.h ****       #define __FPU_USED       1U
 128:.\CMSIS\Core\Include/core_cm4.h ****     #else
 129:.\CMSIS\Core\Include/core_cm4.h ****       #error "Compiler generates FPU instructions for a device without an FPU (check __FPU_PRESENT)
 130:.\CMSIS\Core\Include/core_cm4.h ****       #define __FPU_USED       0U
 131:.\CMSIS\Core\Include/core_cm4.h ****     #endif
 132:.\CMSIS\Core\Include/core_cm4.h ****   #else
 133:.\CMSIS\Core\Include/core_cm4.h ****     #define __FPU_USED         0U
 134:.\CMSIS\Core\Include/core_cm4.h ****   #endif
 135:.\CMSIS\Core\Include/core_cm4.h **** 
 136:.\CMSIS\Core\Include/core_cm4.h **** #elif defined ( __TASKING__ )
 137:.\CMSIS\Core\Include/core_cm4.h ****   #if defined __FPU_VFP__
 138:.\CMSIS\Core\Include/core_cm4.h ****     #if defined (__FPU_PRESENT) && (__FPU_PRESENT == 1U)
 139:.\CMSIS\Core\Include/core_cm4.h ****       #define __FPU_USED       1U
 140:.\CMSIS\Core\Include/core_cm4.h ****     #else
 141:.\CMSIS\Core\Include/core_cm4.h ****       #error "Compiler generates FPU instructions for a device without an FPU (check __FPU_PRESENT)
 142:.\CMSIS\Core\Include/core_cm4.h ****       #define __FPU_USED       0U
 143:.\CMSIS\Core\Include/core_cm4.h ****     #endif
 144:.\CMSIS\Core\Include/core_cm4.h ****   #else
 145:.\CMSIS\Core\Include/core_cm4.h ****     #define __FPU_USED         0U
 146:.\CMSIS\Core\Include/core_cm4.h ****   #endif
 147:.\CMSIS\Core\Include/core_cm4.h **** 
 148:.\CMSIS\Core\Include/core_cm4.h **** #elif defined ( __CSMC__ )
 149:.\CMSIS\Core\Include/core_cm4.h ****   #if ( __CSMC__ & 0x400U)
 150:.\CMSIS\Core\Include/core_cm4.h ****     #if defined (__FPU_PRESENT) && (__FPU_PRESENT == 1U)
 151:.\CMSIS\Core\Include/core_cm4.h ****       #define __FPU_USED       1U
 152:.\CMSIS\Core\Include/core_cm4.h ****     #else
 153:.\CMSIS\Core\Include/core_cm4.h ****       #error "Compiler generates FPU instructions for a device without an FPU (check __FPU_PRESENT)
 154:.\CMSIS\Core\Include/core_cm4.h ****       #define __FPU_USED       0U
 155:.\CMSIS\Core\Include/core_cm4.h ****     #endif
 156:.\CMSIS\Core\Include/core_cm4.h ****   #else
 157:.\CMSIS\Core\Include/core_cm4.h ****     #define __FPU_USED         0U
 158:.\CMSIS\Core\Include/core_cm4.h ****   #endif
 159:.\CMSIS\Core\Include/core_cm4.h **** 
 160:.\CMSIS\Core\Include/core_cm4.h **** #endif
 161:.\CMSIS\Core\Include/core_cm4.h **** 
 162:.\CMSIS\Core\Include/core_cm4.h **** #include "cmsis_compiler.h"               /* CMSIS compiler specific defines */
 163:.\CMSIS\Core\Include/core_cm4.h **** 
 164:.\CMSIS\Core\Include/core_cm4.h **** 
 165:.\CMSIS\Core\Include/core_cm4.h **** #ifdef __cplusplus
 166:.\CMSIS\Core\Include/core_cm4.h **** }
 167:.\CMSIS\Core\Include/core_cm4.h **** #endif
 168:.\CMSIS\Core\Include/core_cm4.h **** 
 169:.\CMSIS\Core\Include/core_cm4.h **** #endif /* __CORE_CM4_H_GENERIC */
ARM GAS  C:\Users\nicpa\AppData\Local\Temp\ccPr5feD.s 			page 40


 170:.\CMSIS\Core\Include/core_cm4.h **** 
 171:.\CMSIS\Core\Include/core_cm4.h **** #ifndef __CMSIS_GENERIC
 172:.\CMSIS\Core\Include/core_cm4.h **** 
 173:.\CMSIS\Core\Include/core_cm4.h **** #ifndef __CORE_CM4_H_DEPENDANT
 174:.\CMSIS\Core\Include/core_cm4.h **** #define __CORE_CM4_H_DEPENDANT
 175:.\CMSIS\Core\Include/core_cm4.h **** 
 176:.\CMSIS\Core\Include/core_cm4.h **** #ifdef __cplusplus
 177:.\CMSIS\Core\Include/core_cm4.h ****  extern "C" {
 178:.\CMSIS\Core\Include/core_cm4.h **** #endif
 179:.\CMSIS\Core\Include/core_cm4.h **** 
 180:.\CMSIS\Core\Include/core_cm4.h **** /* check device defines and use defaults */
 181:.\CMSIS\Core\Include/core_cm4.h **** #if defined __CHECK_DEVICE_DEFINES
 182:.\CMSIS\Core\Include/core_cm4.h ****   #ifndef __CM4_REV
 183:.\CMSIS\Core\Include/core_cm4.h ****     #define __CM4_REV               0x0000U
 184:.\CMSIS\Core\Include/core_cm4.h ****     #warning "__CM4_REV not defined in device header file; using default!"
 185:.\CMSIS\Core\Include/core_cm4.h ****   #endif
 186:.\CMSIS\Core\Include/core_cm4.h **** 
 187:.\CMSIS\Core\Include/core_cm4.h ****   #ifndef __FPU_PRESENT
 188:.\CMSIS\Core\Include/core_cm4.h ****     #define __FPU_PRESENT             0U
 189:.\CMSIS\Core\Include/core_cm4.h ****     #warning "__FPU_PRESENT not defined in device header file; using default!"
 190:.\CMSIS\Core\Include/core_cm4.h ****   #endif
 191:.\CMSIS\Core\Include/core_cm4.h **** 
 192:.\CMSIS\Core\Include/core_cm4.h ****   #ifndef __MPU_PRESENT
 193:.\CMSIS\Core\Include/core_cm4.h ****     #define __MPU_PRESENT             0U
 194:.\CMSIS\Core\Include/core_cm4.h ****     #warning "__MPU_PRESENT not defined in device header file; using default!"
 195:.\CMSIS\Core\Include/core_cm4.h ****   #endif
 196:.\CMSIS\Core\Include/core_cm4.h **** 
 197:.\CMSIS\Core\Include/core_cm4.h ****   #ifndef __NVIC_PRIO_BITS
 198:.\CMSIS\Core\Include/core_cm4.h ****     #define __NVIC_PRIO_BITS          3U
 199:.\CMSIS\Core\Include/core_cm4.h ****     #warning "__NVIC_PRIO_BITS not defined in device header file; using default!"
 200:.\CMSIS\Core\Include/core_cm4.h ****   #endif
 201:.\CMSIS\Core\Include/core_cm4.h **** 
 202:.\CMSIS\Core\Include/core_cm4.h ****   #ifndef __Vendor_SysTickConfig
 203:.\CMSIS\Core\Include/core_cm4.h ****     #define __Vendor_SysTickConfig    0U
 204:.\CMSIS\Core\Include/core_cm4.h ****     #warning "__Vendor_SysTickConfig not defined in device header file; using default!"
 205:.\CMSIS\Core\Include/core_cm4.h ****   #endif
 206:.\CMSIS\Core\Include/core_cm4.h **** #endif
 207:.\CMSIS\Core\Include/core_cm4.h **** 
 208:.\CMSIS\Core\Include/core_cm4.h **** /* IO definitions (access restrictions to peripheral registers) */
 209:.\CMSIS\Core\Include/core_cm4.h **** /**
 210:.\CMSIS\Core\Include/core_cm4.h ****     \defgroup CMSIS_glob_defs CMSIS Global Defines
 211:.\CMSIS\Core\Include/core_cm4.h **** 
 212:.\CMSIS\Core\Include/core_cm4.h ****     <strong>IO Type Qualifiers</strong> are used
 213:.\CMSIS\Core\Include/core_cm4.h ****     \li to specify the access to peripheral variables.
 214:.\CMSIS\Core\Include/core_cm4.h ****     \li for automatic generation of peripheral register debug information.
 215:.\CMSIS\Core\Include/core_cm4.h **** */
 216:.\CMSIS\Core\Include/core_cm4.h **** #ifdef __cplusplus
 217:.\CMSIS\Core\Include/core_cm4.h ****   #define   __I     volatile             /*!< Defines 'read only' permissions */
 218:.\CMSIS\Core\Include/core_cm4.h **** #else
 219:.\CMSIS\Core\Include/core_cm4.h ****   #define   __I     volatile const       /*!< Defines 'read only' permissions */
 220:.\CMSIS\Core\Include/core_cm4.h **** #endif
 221:.\CMSIS\Core\Include/core_cm4.h **** #define     __O     volatile             /*!< Defines 'write only' permissions */
 222:.\CMSIS\Core\Include/core_cm4.h **** #define     __IO    volatile             /*!< Defines 'read / write' permissions */
 223:.\CMSIS\Core\Include/core_cm4.h **** 
 224:.\CMSIS\Core\Include/core_cm4.h **** /* following defines should be used for structure members */
 225:.\CMSIS\Core\Include/core_cm4.h **** #define     __IM     volatile const      /*! Defines 'read only' structure member permissions */
 226:.\CMSIS\Core\Include/core_cm4.h **** #define     __OM     volatile            /*! Defines 'write only' structure member permissions */
ARM GAS  C:\Users\nicpa\AppData\Local\Temp\ccPr5feD.s 			page 41


 227:.\CMSIS\Core\Include/core_cm4.h **** #define     __IOM    volatile            /*! Defines 'read / write' structure member permissions */
 228:.\CMSIS\Core\Include/core_cm4.h **** 
 229:.\CMSIS\Core\Include/core_cm4.h **** /*@} end of group Cortex_M4 */
 230:.\CMSIS\Core\Include/core_cm4.h **** 
 231:.\CMSIS\Core\Include/core_cm4.h **** 
 232:.\CMSIS\Core\Include/core_cm4.h **** 
 233:.\CMSIS\Core\Include/core_cm4.h **** /*******************************************************************************
 234:.\CMSIS\Core\Include/core_cm4.h ****  *                 Register Abstraction
 235:.\CMSIS\Core\Include/core_cm4.h ****   Core Register contain:
 236:.\CMSIS\Core\Include/core_cm4.h ****   - Core Register
 237:.\CMSIS\Core\Include/core_cm4.h ****   - Core NVIC Register
 238:.\CMSIS\Core\Include/core_cm4.h ****   - Core SCB Register
 239:.\CMSIS\Core\Include/core_cm4.h ****   - Core SysTick Register
 240:.\CMSIS\Core\Include/core_cm4.h ****   - Core Debug Register
 241:.\CMSIS\Core\Include/core_cm4.h ****   - Core MPU Register
 242:.\CMSIS\Core\Include/core_cm4.h ****   - Core FPU Register
 243:.\CMSIS\Core\Include/core_cm4.h ****  ******************************************************************************/
 244:.\CMSIS\Core\Include/core_cm4.h **** /**
 245:.\CMSIS\Core\Include/core_cm4.h ****   \defgroup CMSIS_core_register Defines and Type Definitions
 246:.\CMSIS\Core\Include/core_cm4.h ****   \brief Type definitions and defines for Cortex-M processor based devices.
 247:.\CMSIS\Core\Include/core_cm4.h **** */
 248:.\CMSIS\Core\Include/core_cm4.h **** 
 249:.\CMSIS\Core\Include/core_cm4.h **** /**
 250:.\CMSIS\Core\Include/core_cm4.h ****   \ingroup    CMSIS_core_register
 251:.\CMSIS\Core\Include/core_cm4.h ****   \defgroup   CMSIS_CORE  Status and Control Registers
 252:.\CMSIS\Core\Include/core_cm4.h ****   \brief      Core Register type definitions.
 253:.\CMSIS\Core\Include/core_cm4.h ****   @{
 254:.\CMSIS\Core\Include/core_cm4.h ****  */
 255:.\CMSIS\Core\Include/core_cm4.h **** 
 256:.\CMSIS\Core\Include/core_cm4.h **** /**
 257:.\CMSIS\Core\Include/core_cm4.h ****   \brief  Union type to access the Application Program Status Register (APSR).
 258:.\CMSIS\Core\Include/core_cm4.h ****  */
 259:.\CMSIS\Core\Include/core_cm4.h **** typedef union
 260:.\CMSIS\Core\Include/core_cm4.h **** {
 261:.\CMSIS\Core\Include/core_cm4.h ****   struct
 262:.\CMSIS\Core\Include/core_cm4.h ****   {
 263:.\CMSIS\Core\Include/core_cm4.h ****     uint32_t _reserved0:16;              /*!< bit:  0..15  Reserved */
 264:.\CMSIS\Core\Include/core_cm4.h ****     uint32_t GE:4;                       /*!< bit: 16..19  Greater than or Equal flags */
 265:.\CMSIS\Core\Include/core_cm4.h ****     uint32_t _reserved1:7;               /*!< bit: 20..26  Reserved */
 266:.\CMSIS\Core\Include/core_cm4.h ****     uint32_t Q:1;                        /*!< bit:     27  Saturation condition flag */
 267:.\CMSIS\Core\Include/core_cm4.h ****     uint32_t V:1;                        /*!< bit:     28  Overflow condition code flag */
 268:.\CMSIS\Core\Include/core_cm4.h ****     uint32_t C:1;                        /*!< bit:     29  Carry condition code flag */
 269:.\CMSIS\Core\Include/core_cm4.h ****     uint32_t Z:1;                        /*!< bit:     30  Zero condition code flag */
 270:.\CMSIS\Core\Include/core_cm4.h ****     uint32_t N:1;                        /*!< bit:     31  Negative condition code flag */
 271:.\CMSIS\Core\Include/core_cm4.h ****   } b;                                   /*!< Structure used for bit  access */
 272:.\CMSIS\Core\Include/core_cm4.h ****   uint32_t w;                            /*!< Type      used for word access */
 273:.\CMSIS\Core\Include/core_cm4.h **** } APSR_Type;
 274:.\CMSIS\Core\Include/core_cm4.h **** 
 275:.\CMSIS\Core\Include/core_cm4.h **** /* APSR Register Definitions */
 276:.\CMSIS\Core\Include/core_cm4.h **** #define APSR_N_Pos                         31U                                            /*!< APSR
 277:.\CMSIS\Core\Include/core_cm4.h **** #define APSR_N_Msk                         (1UL << APSR_N_Pos)                            /*!< APSR
 278:.\CMSIS\Core\Include/core_cm4.h **** 
 279:.\CMSIS\Core\Include/core_cm4.h **** #define APSR_Z_Pos                         30U                                            /*!< APSR
 280:.\CMSIS\Core\Include/core_cm4.h **** #define APSR_Z_Msk                         (1UL << APSR_Z_Pos)                            /*!< APSR
 281:.\CMSIS\Core\Include/core_cm4.h **** 
 282:.\CMSIS\Core\Include/core_cm4.h **** #define APSR_C_Pos                         29U                                            /*!< APSR
 283:.\CMSIS\Core\Include/core_cm4.h **** #define APSR_C_Msk                         (1UL << APSR_C_Pos)                            /*!< APSR
ARM GAS  C:\Users\nicpa\AppData\Local\Temp\ccPr5feD.s 			page 42


 284:.\CMSIS\Core\Include/core_cm4.h **** 
 285:.\CMSIS\Core\Include/core_cm4.h **** #define APSR_V_Pos                         28U                                            /*!< APSR
 286:.\CMSIS\Core\Include/core_cm4.h **** #define APSR_V_Msk                         (1UL << APSR_V_Pos)                            /*!< APSR
 287:.\CMSIS\Core\Include/core_cm4.h **** 
 288:.\CMSIS\Core\Include/core_cm4.h **** #define APSR_Q_Pos                         27U                                            /*!< APSR
 289:.\CMSIS\Core\Include/core_cm4.h **** #define APSR_Q_Msk                         (1UL << APSR_Q_Pos)                            /*!< APSR
 290:.\CMSIS\Core\Include/core_cm4.h **** 
 291:.\CMSIS\Core\Include/core_cm4.h **** #define APSR_GE_Pos                        16U                                            /*!< APSR
 292:.\CMSIS\Core\Include/core_cm4.h **** #define APSR_GE_Msk                        (0xFUL << APSR_GE_Pos)                         /*!< APSR
 293:.\CMSIS\Core\Include/core_cm4.h **** 
 294:.\CMSIS\Core\Include/core_cm4.h **** 
 295:.\CMSIS\Core\Include/core_cm4.h **** /**
 296:.\CMSIS\Core\Include/core_cm4.h ****   \brief  Union type to access the Interrupt Program Status Register (IPSR).
 297:.\CMSIS\Core\Include/core_cm4.h ****  */
 298:.\CMSIS\Core\Include/core_cm4.h **** typedef union
 299:.\CMSIS\Core\Include/core_cm4.h **** {
 300:.\CMSIS\Core\Include/core_cm4.h ****   struct
 301:.\CMSIS\Core\Include/core_cm4.h ****   {
 302:.\CMSIS\Core\Include/core_cm4.h ****     uint32_t ISR:9;                      /*!< bit:  0.. 8  Exception number */
 303:.\CMSIS\Core\Include/core_cm4.h ****     uint32_t _reserved0:23;              /*!< bit:  9..31  Reserved */
 304:.\CMSIS\Core\Include/core_cm4.h ****   } b;                                   /*!< Structure used for bit  access */
 305:.\CMSIS\Core\Include/core_cm4.h ****   uint32_t w;                            /*!< Type      used for word access */
 306:.\CMSIS\Core\Include/core_cm4.h **** } IPSR_Type;
 307:.\CMSIS\Core\Include/core_cm4.h **** 
 308:.\CMSIS\Core\Include/core_cm4.h **** /* IPSR Register Definitions */
 309:.\CMSIS\Core\Include/core_cm4.h **** #define IPSR_ISR_Pos                        0U                                            /*!< IPSR
 310:.\CMSIS\Core\Include/core_cm4.h **** #define IPSR_ISR_Msk                       (0x1FFUL /*<< IPSR_ISR_Pos*/)                  /*!< IPSR
 311:.\CMSIS\Core\Include/core_cm4.h **** 
 312:.\CMSIS\Core\Include/core_cm4.h **** 
 313:.\CMSIS\Core\Include/core_cm4.h **** /**
 314:.\CMSIS\Core\Include/core_cm4.h ****   \brief  Union type to access the Special-Purpose Program Status Registers (xPSR).
 315:.\CMSIS\Core\Include/core_cm4.h ****  */
 316:.\CMSIS\Core\Include/core_cm4.h **** typedef union
 317:.\CMSIS\Core\Include/core_cm4.h **** {
 318:.\CMSIS\Core\Include/core_cm4.h ****   struct
 319:.\CMSIS\Core\Include/core_cm4.h ****   {
 320:.\CMSIS\Core\Include/core_cm4.h ****     uint32_t ISR:9;                      /*!< bit:  0.. 8  Exception number */
 321:.\CMSIS\Core\Include/core_cm4.h ****     uint32_t _reserved0:1;               /*!< bit:      9  Reserved */
 322:.\CMSIS\Core\Include/core_cm4.h ****     uint32_t ICI_IT_1:6;                 /*!< bit: 10..15  ICI/IT part 1 */
 323:.\CMSIS\Core\Include/core_cm4.h ****     uint32_t GE:4;                       /*!< bit: 16..19  Greater than or Equal flags */
 324:.\CMSIS\Core\Include/core_cm4.h ****     uint32_t _reserved1:4;               /*!< bit: 20..23  Reserved */
 325:.\CMSIS\Core\Include/core_cm4.h ****     uint32_t T:1;                        /*!< bit:     24  Thumb bit */
 326:.\CMSIS\Core\Include/core_cm4.h ****     uint32_t ICI_IT_2:2;                 /*!< bit: 25..26  ICI/IT part 2 */
 327:.\CMSIS\Core\Include/core_cm4.h ****     uint32_t Q:1;                        /*!< bit:     27  Saturation condition flag */
 328:.\CMSIS\Core\Include/core_cm4.h ****     uint32_t V:1;                        /*!< bit:     28  Overflow condition code flag */
 329:.\CMSIS\Core\Include/core_cm4.h ****     uint32_t C:1;                        /*!< bit:     29  Carry condition code flag */
 330:.\CMSIS\Core\Include/core_cm4.h ****     uint32_t Z:1;                        /*!< bit:     30  Zero condition code flag */
 331:.\CMSIS\Core\Include/core_cm4.h ****     uint32_t N:1;                        /*!< bit:     31  Negative condition code flag */
 332:.\CMSIS\Core\Include/core_cm4.h ****   } b;                                   /*!< Structure used for bit  access */
 333:.\CMSIS\Core\Include/core_cm4.h ****   uint32_t w;                            /*!< Type      used for word access */
 334:.\CMSIS\Core\Include/core_cm4.h **** } xPSR_Type;
 335:.\CMSIS\Core\Include/core_cm4.h **** 
 336:.\CMSIS\Core\Include/core_cm4.h **** /* xPSR Register Definitions */
 337:.\CMSIS\Core\Include/core_cm4.h **** #define xPSR_N_Pos                         31U                                            /*!< xPSR
 338:.\CMSIS\Core\Include/core_cm4.h **** #define xPSR_N_Msk                         (1UL << xPSR_N_Pos)                            /*!< xPSR
 339:.\CMSIS\Core\Include/core_cm4.h **** 
 340:.\CMSIS\Core\Include/core_cm4.h **** #define xPSR_Z_Pos                         30U                                            /*!< xPSR
ARM GAS  C:\Users\nicpa\AppData\Local\Temp\ccPr5feD.s 			page 43


 341:.\CMSIS\Core\Include/core_cm4.h **** #define xPSR_Z_Msk                         (1UL << xPSR_Z_Pos)                            /*!< xPSR
 342:.\CMSIS\Core\Include/core_cm4.h **** 
 343:.\CMSIS\Core\Include/core_cm4.h **** #define xPSR_C_Pos                         29U                                            /*!< xPSR
 344:.\CMSIS\Core\Include/core_cm4.h **** #define xPSR_C_Msk                         (1UL << xPSR_C_Pos)                            /*!< xPSR
 345:.\CMSIS\Core\Include/core_cm4.h **** 
 346:.\CMSIS\Core\Include/core_cm4.h **** #define xPSR_V_Pos                         28U                                            /*!< xPSR
 347:.\CMSIS\Core\Include/core_cm4.h **** #define xPSR_V_Msk                         (1UL << xPSR_V_Pos)                            /*!< xPSR
 348:.\CMSIS\Core\Include/core_cm4.h **** 
 349:.\CMSIS\Core\Include/core_cm4.h **** #define xPSR_Q_Pos                         27U                                            /*!< xPSR
 350:.\CMSIS\Core\Include/core_cm4.h **** #define xPSR_Q_Msk                         (1UL << xPSR_Q_Pos)                            /*!< xPSR
 351:.\CMSIS\Core\Include/core_cm4.h **** 
 352:.\CMSIS\Core\Include/core_cm4.h **** #define xPSR_ICI_IT_2_Pos                  25U                                            /*!< xPSR
 353:.\CMSIS\Core\Include/core_cm4.h **** #define xPSR_ICI_IT_2_Msk                  (3UL << xPSR_ICI_IT_2_Pos)                     /*!< xPSR
 354:.\CMSIS\Core\Include/core_cm4.h **** 
 355:.\CMSIS\Core\Include/core_cm4.h **** #define xPSR_T_Pos                         24U                                            /*!< xPSR
 356:.\CMSIS\Core\Include/core_cm4.h **** #define xPSR_T_Msk                         (1UL << xPSR_T_Pos)                            /*!< xPSR
 357:.\CMSIS\Core\Include/core_cm4.h **** 
 358:.\CMSIS\Core\Include/core_cm4.h **** #define xPSR_GE_Pos                        16U                                            /*!< xPSR
 359:.\CMSIS\Core\Include/core_cm4.h **** #define xPSR_GE_Msk                        (0xFUL << xPSR_GE_Pos)                         /*!< xPSR
 360:.\CMSIS\Core\Include/core_cm4.h **** 
 361:.\CMSIS\Core\Include/core_cm4.h **** #define xPSR_ICI_IT_1_Pos                  10U                                            /*!< xPSR
 362:.\CMSIS\Core\Include/core_cm4.h **** #define xPSR_ICI_IT_1_Msk                  (0x3FUL << xPSR_ICI_IT_1_Pos)                  /*!< xPSR
 363:.\CMSIS\Core\Include/core_cm4.h **** 
 364:.\CMSIS\Core\Include/core_cm4.h **** #define xPSR_ISR_Pos                        0U                                            /*!< xPSR
 365:.\CMSIS\Core\Include/core_cm4.h **** #define xPSR_ISR_Msk                       (0x1FFUL /*<< xPSR_ISR_Pos*/)                  /*!< xPSR
 366:.\CMSIS\Core\Include/core_cm4.h **** 
 367:.\CMSIS\Core\Include/core_cm4.h **** 
 368:.\CMSIS\Core\Include/core_cm4.h **** /**
 369:.\CMSIS\Core\Include/core_cm4.h ****   \brief  Union type to access the Control Registers (CONTROL).
 370:.\CMSIS\Core\Include/core_cm4.h ****  */
 371:.\CMSIS\Core\Include/core_cm4.h **** typedef union
 372:.\CMSIS\Core\Include/core_cm4.h **** {
 373:.\CMSIS\Core\Include/core_cm4.h ****   struct
 374:.\CMSIS\Core\Include/core_cm4.h ****   {
 375:.\CMSIS\Core\Include/core_cm4.h ****     uint32_t nPRIV:1;                    /*!< bit:      0  Execution privilege in Thread mode */
 376:.\CMSIS\Core\Include/core_cm4.h ****     uint32_t SPSEL:1;                    /*!< bit:      1  Stack to be used */
 377:.\CMSIS\Core\Include/core_cm4.h ****     uint32_t FPCA:1;                     /*!< bit:      2  FP extension active flag */
 378:.\CMSIS\Core\Include/core_cm4.h ****     uint32_t _reserved0:29;              /*!< bit:  3..31  Reserved */
 379:.\CMSIS\Core\Include/core_cm4.h ****   } b;                                   /*!< Structure used for bit  access */
 380:.\CMSIS\Core\Include/core_cm4.h ****   uint32_t w;                            /*!< Type      used for word access */
 381:.\CMSIS\Core\Include/core_cm4.h **** } CONTROL_Type;
 382:.\CMSIS\Core\Include/core_cm4.h **** 
 383:.\CMSIS\Core\Include/core_cm4.h **** /* CONTROL Register Definitions */
 384:.\CMSIS\Core\Include/core_cm4.h **** #define CONTROL_FPCA_Pos                    2U                                            /*!< CONT
 385:.\CMSIS\Core\Include/core_cm4.h **** #define CONTROL_FPCA_Msk                   (1UL << CONTROL_FPCA_Pos)                      /*!< CONT
 386:.\CMSIS\Core\Include/core_cm4.h **** 
 387:.\CMSIS\Core\Include/core_cm4.h **** #define CONTROL_SPSEL_Pos                   1U                                            /*!< CONT
 388:.\CMSIS\Core\Include/core_cm4.h **** #define CONTROL_SPSEL_Msk                  (1UL << CONTROL_SPSEL_Pos)                     /*!< CONT
 389:.\CMSIS\Core\Include/core_cm4.h **** 
 390:.\CMSIS\Core\Include/core_cm4.h **** #define CONTROL_nPRIV_Pos                   0U                                            /*!< CONT
 391:.\CMSIS\Core\Include/core_cm4.h **** #define CONTROL_nPRIV_Msk                  (1UL /*<< CONTROL_nPRIV_Pos*/)                 /*!< CONT
 392:.\CMSIS\Core\Include/core_cm4.h **** 
 393:.\CMSIS\Core\Include/core_cm4.h **** /*@} end of group CMSIS_CORE */
 394:.\CMSIS\Core\Include/core_cm4.h **** 
 395:.\CMSIS\Core\Include/core_cm4.h **** 
 396:.\CMSIS\Core\Include/core_cm4.h **** /**
 397:.\CMSIS\Core\Include/core_cm4.h ****   \ingroup    CMSIS_core_register
ARM GAS  C:\Users\nicpa\AppData\Local\Temp\ccPr5feD.s 			page 44


 398:.\CMSIS\Core\Include/core_cm4.h ****   \defgroup   CMSIS_NVIC  Nested Vectored Interrupt Controller (NVIC)
 399:.\CMSIS\Core\Include/core_cm4.h ****   \brief      Type definitions for the NVIC Registers
 400:.\CMSIS\Core\Include/core_cm4.h ****   @{
 401:.\CMSIS\Core\Include/core_cm4.h ****  */
 402:.\CMSIS\Core\Include/core_cm4.h **** 
 403:.\CMSIS\Core\Include/core_cm4.h **** /**
 404:.\CMSIS\Core\Include/core_cm4.h ****   \brief  Structure type to access the Nested Vectored Interrupt Controller (NVIC).
 405:.\CMSIS\Core\Include/core_cm4.h ****  */
 406:.\CMSIS\Core\Include/core_cm4.h **** typedef struct
 407:.\CMSIS\Core\Include/core_cm4.h **** {
 408:.\CMSIS\Core\Include/core_cm4.h ****   __IOM uint32_t ISER[8U];               /*!< Offset: 0x000 (R/W)  Interrupt Set Enable Register */
 409:.\CMSIS\Core\Include/core_cm4.h ****         uint32_t RESERVED0[24U];
 410:.\CMSIS\Core\Include/core_cm4.h ****   __IOM uint32_t ICER[8U];               /*!< Offset: 0x080 (R/W)  Interrupt Clear Enable Register 
 411:.\CMSIS\Core\Include/core_cm4.h ****         uint32_t RSERVED1[24U];
 412:.\CMSIS\Core\Include/core_cm4.h ****   __IOM uint32_t ISPR[8U];               /*!< Offset: 0x100 (R/W)  Interrupt Set Pending Register *
 413:.\CMSIS\Core\Include/core_cm4.h ****         uint32_t RESERVED2[24U];
 414:.\CMSIS\Core\Include/core_cm4.h ****   __IOM uint32_t ICPR[8U];               /*!< Offset: 0x180 (R/W)  Interrupt Clear Pending Register
 415:.\CMSIS\Core\Include/core_cm4.h ****         uint32_t RESERVED3[24U];
 416:.\CMSIS\Core\Include/core_cm4.h ****   __IOM uint32_t IABR[8U];               /*!< Offset: 0x200 (R/W)  Interrupt Active bit Register */
 417:.\CMSIS\Core\Include/core_cm4.h ****         uint32_t RESERVED4[56U];
 418:.\CMSIS\Core\Include/core_cm4.h ****   __IOM uint8_t  IP[240U];               /*!< Offset: 0x300 (R/W)  Interrupt Priority Register (8Bi
 419:.\CMSIS\Core\Include/core_cm4.h ****         uint32_t RESERVED5[644U];
 420:.\CMSIS\Core\Include/core_cm4.h ****   __OM  uint32_t STIR;                   /*!< Offset: 0xE00 ( /W)  Software Trigger Interrupt Regis
 421:.\CMSIS\Core\Include/core_cm4.h **** }  NVIC_Type;
 422:.\CMSIS\Core\Include/core_cm4.h **** 
 423:.\CMSIS\Core\Include/core_cm4.h **** /* Software Triggered Interrupt Register Definitions */
 424:.\CMSIS\Core\Include/core_cm4.h **** #define NVIC_STIR_INTID_Pos                 0U                                         /*!< STIR: I
 425:.\CMSIS\Core\Include/core_cm4.h **** #define NVIC_STIR_INTID_Msk                (0x1FFUL /*<< NVIC_STIR_INTID_Pos*/)        /*!< STIR: I
 426:.\CMSIS\Core\Include/core_cm4.h **** 
 427:.\CMSIS\Core\Include/core_cm4.h **** /*@} end of group CMSIS_NVIC */
 428:.\CMSIS\Core\Include/core_cm4.h **** 
 429:.\CMSIS\Core\Include/core_cm4.h **** 
 430:.\CMSIS\Core\Include/core_cm4.h **** /**
 431:.\CMSIS\Core\Include/core_cm4.h ****   \ingroup  CMSIS_core_register
 432:.\CMSIS\Core\Include/core_cm4.h ****   \defgroup CMSIS_SCB     System Control Block (SCB)
 433:.\CMSIS\Core\Include/core_cm4.h ****   \brief    Type definitions for the System Control Block Registers
 434:.\CMSIS\Core\Include/core_cm4.h ****   @{
 435:.\CMSIS\Core\Include/core_cm4.h ****  */
 436:.\CMSIS\Core\Include/core_cm4.h **** 
 437:.\CMSIS\Core\Include/core_cm4.h **** /**
 438:.\CMSIS\Core\Include/core_cm4.h ****   \brief  Structure type to access the System Control Block (SCB).
 439:.\CMSIS\Core\Include/core_cm4.h ****  */
 440:.\CMSIS\Core\Include/core_cm4.h **** typedef struct
 441:.\CMSIS\Core\Include/core_cm4.h **** {
 442:.\CMSIS\Core\Include/core_cm4.h ****   __IM  uint32_t CPUID;                  /*!< Offset: 0x000 (R/ )  CPUID Base Register */
 443:.\CMSIS\Core\Include/core_cm4.h ****   __IOM uint32_t ICSR;                   /*!< Offset: 0x004 (R/W)  Interrupt Control and State Regi
 444:.\CMSIS\Core\Include/core_cm4.h ****   __IOM uint32_t VTOR;                   /*!< Offset: 0x008 (R/W)  Vector Table Offset Register */
 445:.\CMSIS\Core\Include/core_cm4.h ****   __IOM uint32_t AIRCR;                  /*!< Offset: 0x00C (R/W)  Application Interrupt and Reset 
 446:.\CMSIS\Core\Include/core_cm4.h ****   __IOM uint32_t SCR;                    /*!< Offset: 0x010 (R/W)  System Control Register */
 447:.\CMSIS\Core\Include/core_cm4.h ****   __IOM uint32_t CCR;                    /*!< Offset: 0x014 (R/W)  Configuration Control Register *
 448:.\CMSIS\Core\Include/core_cm4.h ****   __IOM uint8_t  SHP[12U];               /*!< Offset: 0x018 (R/W)  System Handlers Priority Registe
 449:.\CMSIS\Core\Include/core_cm4.h ****   __IOM uint32_t SHCSR;                  /*!< Offset: 0x024 (R/W)  System Handler Control and State
 450:.\CMSIS\Core\Include/core_cm4.h ****   __IOM uint32_t CFSR;                   /*!< Offset: 0x028 (R/W)  Configurable Fault Status Regist
 451:.\CMSIS\Core\Include/core_cm4.h ****   __IOM uint32_t HFSR;                   /*!< Offset: 0x02C (R/W)  HardFault Status Register */
 452:.\CMSIS\Core\Include/core_cm4.h ****   __IOM uint32_t DFSR;                   /*!< Offset: 0x030 (R/W)  Debug Fault Status Register */
 453:.\CMSIS\Core\Include/core_cm4.h ****   __IOM uint32_t MMFAR;                  /*!< Offset: 0x034 (R/W)  MemManage Fault Address Register
 454:.\CMSIS\Core\Include/core_cm4.h ****   __IOM uint32_t BFAR;                   /*!< Offset: 0x038 (R/W)  BusFault Address Register */
ARM GAS  C:\Users\nicpa\AppData\Local\Temp\ccPr5feD.s 			page 45


 455:.\CMSIS\Core\Include/core_cm4.h ****   __IOM uint32_t AFSR;                   /*!< Offset: 0x03C (R/W)  Auxiliary Fault Status Register 
 456:.\CMSIS\Core\Include/core_cm4.h ****   __IM  uint32_t PFR[2U];                /*!< Offset: 0x040 (R/ )  Processor Feature Register */
 457:.\CMSIS\Core\Include/core_cm4.h ****   __IM  uint32_t DFR;                    /*!< Offset: 0x048 (R/ )  Debug Feature Register */
 458:.\CMSIS\Core\Include/core_cm4.h ****   __IM  uint32_t ADR;                    /*!< Offset: 0x04C (R/ )  Auxiliary Feature Register */
 459:.\CMSIS\Core\Include/core_cm4.h ****   __IM  uint32_t MMFR[4U];               /*!< Offset: 0x050 (R/ )  Memory Model Feature Register */
 460:.\CMSIS\Core\Include/core_cm4.h ****   __IM  uint32_t ISAR[5U];               /*!< Offset: 0x060 (R/ )  Instruction Set Attributes Regis
 461:.\CMSIS\Core\Include/core_cm4.h ****         uint32_t RESERVED0[5U];
 462:.\CMSIS\Core\Include/core_cm4.h ****   __IOM uint32_t CPACR;                  /*!< Offset: 0x088 (R/W)  Coprocessor Access Control Regis
 463:.\CMSIS\Core\Include/core_cm4.h **** } SCB_Type;
 464:.\CMSIS\Core\Include/core_cm4.h **** 
 465:.\CMSIS\Core\Include/core_cm4.h **** /* SCB CPUID Register Definitions */
 466:.\CMSIS\Core\Include/core_cm4.h **** #define SCB_CPUID_IMPLEMENTER_Pos          24U                                            /*!< SCB 
 467:.\CMSIS\Core\Include/core_cm4.h **** #define SCB_CPUID_IMPLEMENTER_Msk          (0xFFUL << SCB_CPUID_IMPLEMENTER_Pos)          /*!< SCB 
 468:.\CMSIS\Core\Include/core_cm4.h **** 
 469:.\CMSIS\Core\Include/core_cm4.h **** #define SCB_CPUID_VARIANT_Pos              20U                                            /*!< SCB 
 470:.\CMSIS\Core\Include/core_cm4.h **** #define SCB_CPUID_VARIANT_Msk              (0xFUL << SCB_CPUID_VARIANT_Pos)               /*!< SCB 
 471:.\CMSIS\Core\Include/core_cm4.h **** 
 472:.\CMSIS\Core\Include/core_cm4.h **** #define SCB_CPUID_ARCHITECTURE_Pos         16U                                            /*!< SCB 
 473:.\CMSIS\Core\Include/core_cm4.h **** #define SCB_CPUID_ARCHITECTURE_Msk         (0xFUL << SCB_CPUID_ARCHITECTURE_Pos)          /*!< SCB 
 474:.\CMSIS\Core\Include/core_cm4.h **** 
 475:.\CMSIS\Core\Include/core_cm4.h **** #define SCB_CPUID_PARTNO_Pos                4U                                            /*!< SCB 
 476:.\CMSIS\Core\Include/core_cm4.h **** #define SCB_CPUID_PARTNO_Msk               (0xFFFUL << SCB_CPUID_PARTNO_Pos)              /*!< SCB 
 477:.\CMSIS\Core\Include/core_cm4.h **** 
 478:.\CMSIS\Core\Include/core_cm4.h **** #define SCB_CPUID_REVISION_Pos              0U                                            /*!< SCB 
 479:.\CMSIS\Core\Include/core_cm4.h **** #define SCB_CPUID_REVISION_Msk             (0xFUL /*<< SCB_CPUID_REVISION_Pos*/)          /*!< SCB 
 480:.\CMSIS\Core\Include/core_cm4.h **** 
 481:.\CMSIS\Core\Include/core_cm4.h **** /* SCB Interrupt Control State Register Definitions */
 482:.\CMSIS\Core\Include/core_cm4.h **** #define SCB_ICSR_NMIPENDSET_Pos            31U                                            /*!< SCB 
 483:.\CMSIS\Core\Include/core_cm4.h **** #define SCB_ICSR_NMIPENDSET_Msk            (1UL << SCB_ICSR_NMIPENDSET_Pos)               /*!< SCB 
 484:.\CMSIS\Core\Include/core_cm4.h **** 
 485:.\CMSIS\Core\Include/core_cm4.h **** #define SCB_ICSR_PENDSVSET_Pos             28U                                            /*!< SCB 
 486:.\CMSIS\Core\Include/core_cm4.h **** #define SCB_ICSR_PENDSVSET_Msk             (1UL << SCB_ICSR_PENDSVSET_Pos)                /*!< SCB 
 487:.\CMSIS\Core\Include/core_cm4.h **** 
 488:.\CMSIS\Core\Include/core_cm4.h **** #define SCB_ICSR_PENDSVCLR_Pos             27U                                            /*!< SCB 
 489:.\CMSIS\Core\Include/core_cm4.h **** #define SCB_ICSR_PENDSVCLR_Msk             (1UL << SCB_ICSR_PENDSVCLR_Pos)                /*!< SCB 
 490:.\CMSIS\Core\Include/core_cm4.h **** 
 491:.\CMSIS\Core\Include/core_cm4.h **** #define SCB_ICSR_PENDSTSET_Pos             26U                                            /*!< SCB 
 492:.\CMSIS\Core\Include/core_cm4.h **** #define SCB_ICSR_PENDSTSET_Msk             (1UL << SCB_ICSR_PENDSTSET_Pos)                /*!< SCB 
 493:.\CMSIS\Core\Include/core_cm4.h **** 
 494:.\CMSIS\Core\Include/core_cm4.h **** #define SCB_ICSR_PENDSTCLR_Pos             25U                                            /*!< SCB 
 495:.\CMSIS\Core\Include/core_cm4.h **** #define SCB_ICSR_PENDSTCLR_Msk             (1UL << SCB_ICSR_PENDSTCLR_Pos)                /*!< SCB 
 496:.\CMSIS\Core\Include/core_cm4.h **** 
 497:.\CMSIS\Core\Include/core_cm4.h **** #define SCB_ICSR_ISRPREEMPT_Pos            23U                                            /*!< SCB 
 498:.\CMSIS\Core\Include/core_cm4.h **** #define SCB_ICSR_ISRPREEMPT_Msk            (1UL << SCB_ICSR_ISRPREEMPT_Pos)               /*!< SCB 
 499:.\CMSIS\Core\Include/core_cm4.h **** 
 500:.\CMSIS\Core\Include/core_cm4.h **** #define SCB_ICSR_ISRPENDING_Pos            22U                                            /*!< SCB 
 501:.\CMSIS\Core\Include/core_cm4.h **** #define SCB_ICSR_ISRPENDING_Msk            (1UL << SCB_ICSR_ISRPENDING_Pos)               /*!< SCB 
 502:.\CMSIS\Core\Include/core_cm4.h **** 
 503:.\CMSIS\Core\Include/core_cm4.h **** #define SCB_ICSR_VECTPENDING_Pos           12U                                            /*!< SCB 
 504:.\CMSIS\Core\Include/core_cm4.h **** #define SCB_ICSR_VECTPENDING_Msk           (0x1FFUL << SCB_ICSR_VECTPENDING_Pos)          /*!< SCB 
 505:.\CMSIS\Core\Include/core_cm4.h **** 
 506:.\CMSIS\Core\Include/core_cm4.h **** #define SCB_ICSR_RETTOBASE_Pos             11U                                            /*!< SCB 
 507:.\CMSIS\Core\Include/core_cm4.h **** #define SCB_ICSR_RETTOBASE_Msk             (1UL << SCB_ICSR_RETTOBASE_Pos)                /*!< SCB 
 508:.\CMSIS\Core\Include/core_cm4.h **** 
 509:.\CMSIS\Core\Include/core_cm4.h **** #define SCB_ICSR_VECTACTIVE_Pos             0U                                            /*!< SCB 
 510:.\CMSIS\Core\Include/core_cm4.h **** #define SCB_ICSR_VECTACTIVE_Msk            (0x1FFUL /*<< SCB_ICSR_VECTACTIVE_Pos*/)       /*!< SCB 
 511:.\CMSIS\Core\Include/core_cm4.h **** 
ARM GAS  C:\Users\nicpa\AppData\Local\Temp\ccPr5feD.s 			page 46


 512:.\CMSIS\Core\Include/core_cm4.h **** /* SCB Vector Table Offset Register Definitions */
 513:.\CMSIS\Core\Include/core_cm4.h **** #define SCB_VTOR_TBLOFF_Pos                 7U                                            /*!< SCB 
 514:.\CMSIS\Core\Include/core_cm4.h **** #define SCB_VTOR_TBLOFF_Msk                (0x1FFFFFFUL << SCB_VTOR_TBLOFF_Pos)           /*!< SCB 
 515:.\CMSIS\Core\Include/core_cm4.h **** 
 516:.\CMSIS\Core\Include/core_cm4.h **** /* SCB Application Interrupt and Reset Control Register Definitions */
 517:.\CMSIS\Core\Include/core_cm4.h **** #define SCB_AIRCR_VECTKEY_Pos              16U                                            /*!< SCB 
 518:.\CMSIS\Core\Include/core_cm4.h **** #define SCB_AIRCR_VECTKEY_Msk              (0xFFFFUL << SCB_AIRCR_VECTKEY_Pos)            /*!< SCB 
 519:.\CMSIS\Core\Include/core_cm4.h **** 
 520:.\CMSIS\Core\Include/core_cm4.h **** #define SCB_AIRCR_VECTKEYSTAT_Pos          16U                                            /*!< SCB 
 521:.\CMSIS\Core\Include/core_cm4.h **** #define SCB_AIRCR_VECTKEYSTAT_Msk          (0xFFFFUL << SCB_AIRCR_VECTKEYSTAT_Pos)        /*!< SCB 
 522:.\CMSIS\Core\Include/core_cm4.h **** 
 523:.\CMSIS\Core\Include/core_cm4.h **** #define SCB_AIRCR_ENDIANESS_Pos            15U                                            /*!< SCB 
 524:.\CMSIS\Core\Include/core_cm4.h **** #define SCB_AIRCR_ENDIANESS_Msk            (1UL << SCB_AIRCR_ENDIANESS_Pos)               /*!< SCB 
 525:.\CMSIS\Core\Include/core_cm4.h **** 
 526:.\CMSIS\Core\Include/core_cm4.h **** #define SCB_AIRCR_PRIGROUP_Pos              8U                                            /*!< SCB 
 527:.\CMSIS\Core\Include/core_cm4.h **** #define SCB_AIRCR_PRIGROUP_Msk             (7UL << SCB_AIRCR_PRIGROUP_Pos)                /*!< SCB 
 528:.\CMSIS\Core\Include/core_cm4.h **** 
 529:.\CMSIS\Core\Include/core_cm4.h **** #define SCB_AIRCR_SYSRESETREQ_Pos           2U                                            /*!< SCB 
 530:.\CMSIS\Core\Include/core_cm4.h **** #define SCB_AIRCR_SYSRESETREQ_Msk          (1UL << SCB_AIRCR_SYSRESETREQ_Pos)             /*!< SCB 
 531:.\CMSIS\Core\Include/core_cm4.h **** 
 532:.\CMSIS\Core\Include/core_cm4.h **** #define SCB_AIRCR_VECTCLRACTIVE_Pos         1U                                            /*!< SCB 
 533:.\CMSIS\Core\Include/core_cm4.h **** #define SCB_AIRCR_VECTCLRACTIVE_Msk        (1UL << SCB_AIRCR_VECTCLRACTIVE_Pos)           /*!< SCB 
 534:.\CMSIS\Core\Include/core_cm4.h **** 
 535:.\CMSIS\Core\Include/core_cm4.h **** #define SCB_AIRCR_VECTRESET_Pos             0U                                            /*!< SCB 
 536:.\CMSIS\Core\Include/core_cm4.h **** #define SCB_AIRCR_VECTRESET_Msk            (1UL /*<< SCB_AIRCR_VECTRESET_Pos*/)           /*!< SCB 
 537:.\CMSIS\Core\Include/core_cm4.h **** 
 538:.\CMSIS\Core\Include/core_cm4.h **** /* SCB System Control Register Definitions */
 539:.\CMSIS\Core\Include/core_cm4.h **** #define SCB_SCR_SEVONPEND_Pos               4U                                            /*!< SCB 
 540:.\CMSIS\Core\Include/core_cm4.h **** #define SCB_SCR_SEVONPEND_Msk              (1UL << SCB_SCR_SEVONPEND_Pos)                 /*!< SCB 
 541:.\CMSIS\Core\Include/core_cm4.h **** 
 542:.\CMSIS\Core\Include/core_cm4.h **** #define SCB_SCR_SLEEPDEEP_Pos               2U                                            /*!< SCB 
 543:.\CMSIS\Core\Include/core_cm4.h **** #define SCB_SCR_SLEEPDEEP_Msk              (1UL << SCB_SCR_SLEEPDEEP_Pos)                 /*!< SCB 
 544:.\CMSIS\Core\Include/core_cm4.h **** 
 545:.\CMSIS\Core\Include/core_cm4.h **** #define SCB_SCR_SLEEPONEXIT_Pos             1U                                            /*!< SCB 
 546:.\CMSIS\Core\Include/core_cm4.h **** #define SCB_SCR_SLEEPONEXIT_Msk            (1UL << SCB_SCR_SLEEPONEXIT_Pos)               /*!< SCB 
 547:.\CMSIS\Core\Include/core_cm4.h **** 
 548:.\CMSIS\Core\Include/core_cm4.h **** /* SCB Configuration Control Register Definitions */
 549:.\CMSIS\Core\Include/core_cm4.h **** #define SCB_CCR_STKALIGN_Pos                9U                                            /*!< SCB 
 550:.\CMSIS\Core\Include/core_cm4.h **** #define SCB_CCR_STKALIGN_Msk               (1UL << SCB_CCR_STKALIGN_Pos)                  /*!< SCB 
 551:.\CMSIS\Core\Include/core_cm4.h **** 
 552:.\CMSIS\Core\Include/core_cm4.h **** #define SCB_CCR_BFHFNMIGN_Pos               8U                                            /*!< SCB 
 553:.\CMSIS\Core\Include/core_cm4.h **** #define SCB_CCR_BFHFNMIGN_Msk              (1UL << SCB_CCR_BFHFNMIGN_Pos)                 /*!< SCB 
 554:.\CMSIS\Core\Include/core_cm4.h **** 
 555:.\CMSIS\Core\Include/core_cm4.h **** #define SCB_CCR_DIV_0_TRP_Pos               4U                                            /*!< SCB 
 556:.\CMSIS\Core\Include/core_cm4.h **** #define SCB_CCR_DIV_0_TRP_Msk              (1UL << SCB_CCR_DIV_0_TRP_Pos)                 /*!< SCB 
 557:.\CMSIS\Core\Include/core_cm4.h **** 
 558:.\CMSIS\Core\Include/core_cm4.h **** #define SCB_CCR_UNALIGN_TRP_Pos             3U                                            /*!< SCB 
 559:.\CMSIS\Core\Include/core_cm4.h **** #define SCB_CCR_UNALIGN_TRP_Msk            (1UL << SCB_CCR_UNALIGN_TRP_Pos)               /*!< SCB 
 560:.\CMSIS\Core\Include/core_cm4.h **** 
 561:.\CMSIS\Core\Include/core_cm4.h **** #define SCB_CCR_USERSETMPEND_Pos            1U                                            /*!< SCB 
 562:.\CMSIS\Core\Include/core_cm4.h **** #define SCB_CCR_USERSETMPEND_Msk           (1UL << SCB_CCR_USERSETMPEND_Pos)              /*!< SCB 
 563:.\CMSIS\Core\Include/core_cm4.h **** 
 564:.\CMSIS\Core\Include/core_cm4.h **** #define SCB_CCR_NONBASETHRDENA_Pos          0U                                            /*!< SCB 
 565:.\CMSIS\Core\Include/core_cm4.h **** #define SCB_CCR_NONBASETHRDENA_Msk         (1UL /*<< SCB_CCR_NONBASETHRDENA_Pos*/)        /*!< SCB 
 566:.\CMSIS\Core\Include/core_cm4.h **** 
 567:.\CMSIS\Core\Include/core_cm4.h **** /* SCB System Handler Control and State Register Definitions */
 568:.\CMSIS\Core\Include/core_cm4.h **** #define SCB_SHCSR_USGFAULTENA_Pos          18U                                            /*!< SCB 
ARM GAS  C:\Users\nicpa\AppData\Local\Temp\ccPr5feD.s 			page 47


 569:.\CMSIS\Core\Include/core_cm4.h **** #define SCB_SHCSR_USGFAULTENA_Msk          (1UL << SCB_SHCSR_USGFAULTENA_Pos)             /*!< SCB 
 570:.\CMSIS\Core\Include/core_cm4.h **** 
 571:.\CMSIS\Core\Include/core_cm4.h **** #define SCB_SHCSR_BUSFAULTENA_Pos          17U                                            /*!< SCB 
 572:.\CMSIS\Core\Include/core_cm4.h **** #define SCB_SHCSR_BUSFAULTENA_Msk          (1UL << SCB_SHCSR_BUSFAULTENA_Pos)             /*!< SCB 
 573:.\CMSIS\Core\Include/core_cm4.h **** 
 574:.\CMSIS\Core\Include/core_cm4.h **** #define SCB_SHCSR_MEMFAULTENA_Pos          16U                                            /*!< SCB 
 575:.\CMSIS\Core\Include/core_cm4.h **** #define SCB_SHCSR_MEMFAULTENA_Msk          (1UL << SCB_SHCSR_MEMFAULTENA_Pos)             /*!< SCB 
 576:.\CMSIS\Core\Include/core_cm4.h **** 
 577:.\CMSIS\Core\Include/core_cm4.h **** #define SCB_SHCSR_SVCALLPENDED_Pos         15U                                            /*!< SCB 
 578:.\CMSIS\Core\Include/core_cm4.h **** #define SCB_SHCSR_SVCALLPENDED_Msk         (1UL << SCB_SHCSR_SVCALLPENDED_Pos)            /*!< SCB 
 579:.\CMSIS\Core\Include/core_cm4.h **** 
 580:.\CMSIS\Core\Include/core_cm4.h **** #define SCB_SHCSR_BUSFAULTPENDED_Pos       14U                                            /*!< SCB 
 581:.\CMSIS\Core\Include/core_cm4.h **** #define SCB_SHCSR_BUSFAULTPENDED_Msk       (1UL << SCB_SHCSR_BUSFAULTPENDED_Pos)          /*!< SCB 
 582:.\CMSIS\Core\Include/core_cm4.h **** 
 583:.\CMSIS\Core\Include/core_cm4.h **** #define SCB_SHCSR_MEMFAULTPENDED_Pos       13U                                            /*!< SCB 
 584:.\CMSIS\Core\Include/core_cm4.h **** #define SCB_SHCSR_MEMFAULTPENDED_Msk       (1UL << SCB_SHCSR_MEMFAULTPENDED_Pos)          /*!< SCB 
 585:.\CMSIS\Core\Include/core_cm4.h **** 
 586:.\CMSIS\Core\Include/core_cm4.h **** #define SCB_SHCSR_USGFAULTPENDED_Pos       12U                                            /*!< SCB 
 587:.\CMSIS\Core\Include/core_cm4.h **** #define SCB_SHCSR_USGFAULTPENDED_Msk       (1UL << SCB_SHCSR_USGFAULTPENDED_Pos)          /*!< SCB 
 588:.\CMSIS\Core\Include/core_cm4.h **** 
 589:.\CMSIS\Core\Include/core_cm4.h **** #define SCB_SHCSR_SYSTICKACT_Pos           11U                                            /*!< SCB 
 590:.\CMSIS\Core\Include/core_cm4.h **** #define SCB_SHCSR_SYSTICKACT_Msk           (1UL << SCB_SHCSR_SYSTICKACT_Pos)              /*!< SCB 
 591:.\CMSIS\Core\Include/core_cm4.h **** 
 592:.\CMSIS\Core\Include/core_cm4.h **** #define SCB_SHCSR_PENDSVACT_Pos            10U                                            /*!< SCB 
 593:.\CMSIS\Core\Include/core_cm4.h **** #define SCB_SHCSR_PENDSVACT_Msk            (1UL << SCB_SHCSR_PENDSVACT_Pos)               /*!< SCB 
 594:.\CMSIS\Core\Include/core_cm4.h **** 
 595:.\CMSIS\Core\Include/core_cm4.h **** #define SCB_SHCSR_MONITORACT_Pos            8U                                            /*!< SCB 
 596:.\CMSIS\Core\Include/core_cm4.h **** #define SCB_SHCSR_MONITORACT_Msk           (1UL << SCB_SHCSR_MONITORACT_Pos)              /*!< SCB 
 597:.\CMSIS\Core\Include/core_cm4.h **** 
 598:.\CMSIS\Core\Include/core_cm4.h **** #define SCB_SHCSR_SVCALLACT_Pos             7U                                            /*!< SCB 
 599:.\CMSIS\Core\Include/core_cm4.h **** #define SCB_SHCSR_SVCALLACT_Msk            (1UL << SCB_SHCSR_SVCALLACT_Pos)               /*!< SCB 
 600:.\CMSIS\Core\Include/core_cm4.h **** 
 601:.\CMSIS\Core\Include/core_cm4.h **** #define SCB_SHCSR_USGFAULTACT_Pos           3U                                            /*!< SCB 
 602:.\CMSIS\Core\Include/core_cm4.h **** #define SCB_SHCSR_USGFAULTACT_Msk          (1UL << SCB_SHCSR_USGFAULTACT_Pos)             /*!< SCB 
 603:.\CMSIS\Core\Include/core_cm4.h **** 
 604:.\CMSIS\Core\Include/core_cm4.h **** #define SCB_SHCSR_BUSFAULTACT_Pos           1U                                            /*!< SCB 
 605:.\CMSIS\Core\Include/core_cm4.h **** #define SCB_SHCSR_BUSFAULTACT_Msk          (1UL << SCB_SHCSR_BUSFAULTACT_Pos)             /*!< SCB 
 606:.\CMSIS\Core\Include/core_cm4.h **** 
 607:.\CMSIS\Core\Include/core_cm4.h **** #define SCB_SHCSR_MEMFAULTACT_Pos           0U                                            /*!< SCB 
 608:.\CMSIS\Core\Include/core_cm4.h **** #define SCB_SHCSR_MEMFAULTACT_Msk          (1UL /*<< SCB_SHCSR_MEMFAULTACT_Pos*/)         /*!< SCB 
 609:.\CMSIS\Core\Include/core_cm4.h **** 
 610:.\CMSIS\Core\Include/core_cm4.h **** /* SCB Configurable Fault Status Register Definitions */
 611:.\CMSIS\Core\Include/core_cm4.h **** #define SCB_CFSR_USGFAULTSR_Pos            16U                                            /*!< SCB 
 612:.\CMSIS\Core\Include/core_cm4.h **** #define SCB_CFSR_USGFAULTSR_Msk            (0xFFFFUL << SCB_CFSR_USGFAULTSR_Pos)          /*!< SCB 
 613:.\CMSIS\Core\Include/core_cm4.h **** 
 614:.\CMSIS\Core\Include/core_cm4.h **** #define SCB_CFSR_BUSFAULTSR_Pos             8U                                            /*!< SCB 
 615:.\CMSIS\Core\Include/core_cm4.h **** #define SCB_CFSR_BUSFAULTSR_Msk            (0xFFUL << SCB_CFSR_BUSFAULTSR_Pos)            /*!< SCB 
 616:.\CMSIS\Core\Include/core_cm4.h **** 
 617:.\CMSIS\Core\Include/core_cm4.h **** #define SCB_CFSR_MEMFAULTSR_Pos             0U                                            /*!< SCB 
 618:.\CMSIS\Core\Include/core_cm4.h **** #define SCB_CFSR_MEMFAULTSR_Msk            (0xFFUL /*<< SCB_CFSR_MEMFAULTSR_Pos*/)        /*!< SCB 
 619:.\CMSIS\Core\Include/core_cm4.h **** 
 620:.\CMSIS\Core\Include/core_cm4.h **** /* MemManage Fault Status Register (part of SCB Configurable Fault Status Register) */
 621:.\CMSIS\Core\Include/core_cm4.h **** #define SCB_CFSR_MMARVALID_Pos             (SCB_SHCSR_MEMFAULTACT_Pos + 7U)               /*!< SCB 
 622:.\CMSIS\Core\Include/core_cm4.h **** #define SCB_CFSR_MMARVALID_Msk             (1UL << SCB_CFSR_MMARVALID_Pos)                /*!< SCB 
 623:.\CMSIS\Core\Include/core_cm4.h **** 
 624:.\CMSIS\Core\Include/core_cm4.h **** #define SCB_CFSR_MLSPERR_Pos               (SCB_SHCSR_MEMFAULTACT_Pos + 5U)               /*!< SCB 
 625:.\CMSIS\Core\Include/core_cm4.h **** #define SCB_CFSR_MLSPERR_Msk               (1UL << SCB_CFSR_MLSPERR_Pos)                  /*!< SCB 
ARM GAS  C:\Users\nicpa\AppData\Local\Temp\ccPr5feD.s 			page 48


 626:.\CMSIS\Core\Include/core_cm4.h **** 
 627:.\CMSIS\Core\Include/core_cm4.h **** #define SCB_CFSR_MSTKERR_Pos               (SCB_SHCSR_MEMFAULTACT_Pos + 4U)               /*!< SCB 
 628:.\CMSIS\Core\Include/core_cm4.h **** #define SCB_CFSR_MSTKERR_Msk               (1UL << SCB_CFSR_MSTKERR_Pos)                  /*!< SCB 
 629:.\CMSIS\Core\Include/core_cm4.h **** 
 630:.\CMSIS\Core\Include/core_cm4.h **** #define SCB_CFSR_MUNSTKERR_Pos             (SCB_SHCSR_MEMFAULTACT_Pos + 3U)               /*!< SCB 
 631:.\CMSIS\Core\Include/core_cm4.h **** #define SCB_CFSR_MUNSTKERR_Msk             (1UL << SCB_CFSR_MUNSTKERR_Pos)                /*!< SCB 
 632:.\CMSIS\Core\Include/core_cm4.h **** 
 633:.\CMSIS\Core\Include/core_cm4.h **** #define SCB_CFSR_DACCVIOL_Pos              (SCB_SHCSR_MEMFAULTACT_Pos + 1U)               /*!< SCB 
 634:.\CMSIS\Core\Include/core_cm4.h **** #define SCB_CFSR_DACCVIOL_Msk              (1UL << SCB_CFSR_DACCVIOL_Pos)                 /*!< SCB 
 635:.\CMSIS\Core\Include/core_cm4.h **** 
 636:.\CMSIS\Core\Include/core_cm4.h **** #define SCB_CFSR_IACCVIOL_Pos              (SCB_SHCSR_MEMFAULTACT_Pos + 0U)               /*!< SCB 
 637:.\CMSIS\Core\Include/core_cm4.h **** #define SCB_CFSR_IACCVIOL_Msk              (1UL /*<< SCB_CFSR_IACCVIOL_Pos*/)             /*!< SCB 
 638:.\CMSIS\Core\Include/core_cm4.h **** 
 639:.\CMSIS\Core\Include/core_cm4.h **** /* BusFault Status Register (part of SCB Configurable Fault Status Register) */
 640:.\CMSIS\Core\Include/core_cm4.h **** #define SCB_CFSR_BFARVALID_Pos            (SCB_CFSR_BUSFAULTSR_Pos + 7U)                  /*!< SCB 
 641:.\CMSIS\Core\Include/core_cm4.h **** #define SCB_CFSR_BFARVALID_Msk            (1UL << SCB_CFSR_BFARVALID_Pos)                 /*!< SCB 
 642:.\CMSIS\Core\Include/core_cm4.h **** 
 643:.\CMSIS\Core\Include/core_cm4.h **** #define SCB_CFSR_LSPERR_Pos               (SCB_CFSR_BUSFAULTSR_Pos + 5U)                  /*!< SCB 
 644:.\CMSIS\Core\Include/core_cm4.h **** #define SCB_CFSR_LSPERR_Msk               (1UL << SCB_CFSR_LSPERR_Pos)                    /*!< SCB 
 645:.\CMSIS\Core\Include/core_cm4.h **** 
 646:.\CMSIS\Core\Include/core_cm4.h **** #define SCB_CFSR_STKERR_Pos               (SCB_CFSR_BUSFAULTSR_Pos + 4U)                  /*!< SCB 
 647:.\CMSIS\Core\Include/core_cm4.h **** #define SCB_CFSR_STKERR_Msk               (1UL << SCB_CFSR_STKERR_Pos)                    /*!< SCB 
 648:.\CMSIS\Core\Include/core_cm4.h **** 
 649:.\CMSIS\Core\Include/core_cm4.h **** #define SCB_CFSR_UNSTKERR_Pos             (SCB_CFSR_BUSFAULTSR_Pos + 3U)                  /*!< SCB 
 650:.\CMSIS\Core\Include/core_cm4.h **** #define SCB_CFSR_UNSTKERR_Msk             (1UL << SCB_CFSR_UNSTKERR_Pos)                  /*!< SCB 
 651:.\CMSIS\Core\Include/core_cm4.h **** 
 652:.\CMSIS\Core\Include/core_cm4.h **** #define SCB_CFSR_IMPRECISERR_Pos          (SCB_CFSR_BUSFAULTSR_Pos + 2U)                  /*!< SCB 
 653:.\CMSIS\Core\Include/core_cm4.h **** #define SCB_CFSR_IMPRECISERR_Msk          (1UL << SCB_CFSR_IMPRECISERR_Pos)               /*!< SCB 
 654:.\CMSIS\Core\Include/core_cm4.h **** 
 655:.\CMSIS\Core\Include/core_cm4.h **** #define SCB_CFSR_PRECISERR_Pos            (SCB_CFSR_BUSFAULTSR_Pos + 1U)                  /*!< SCB 
 656:.\CMSIS\Core\Include/core_cm4.h **** #define SCB_CFSR_PRECISERR_Msk            (1UL << SCB_CFSR_PRECISERR_Pos)                 /*!< SCB 
 657:.\CMSIS\Core\Include/core_cm4.h **** 
 658:.\CMSIS\Core\Include/core_cm4.h **** #define SCB_CFSR_IBUSERR_Pos              (SCB_CFSR_BUSFAULTSR_Pos + 0U)                  /*!< SCB 
 659:.\CMSIS\Core\Include/core_cm4.h **** #define SCB_CFSR_IBUSERR_Msk              (1UL << SCB_CFSR_IBUSERR_Pos)                   /*!< SCB 
 660:.\CMSIS\Core\Include/core_cm4.h **** 
 661:.\CMSIS\Core\Include/core_cm4.h **** /* UsageFault Status Register (part of SCB Configurable Fault Status Register) */
 662:.\CMSIS\Core\Include/core_cm4.h **** #define SCB_CFSR_DIVBYZERO_Pos            (SCB_CFSR_USGFAULTSR_Pos + 9U)                  /*!< SCB 
 663:.\CMSIS\Core\Include/core_cm4.h **** #define SCB_CFSR_DIVBYZERO_Msk            (1UL << SCB_CFSR_DIVBYZERO_Pos)                 /*!< SCB 
 664:.\CMSIS\Core\Include/core_cm4.h **** 
 665:.\CMSIS\Core\Include/core_cm4.h **** #define SCB_CFSR_UNALIGNED_Pos            (SCB_CFSR_USGFAULTSR_Pos + 8U)                  /*!< SCB 
 666:.\CMSIS\Core\Include/core_cm4.h **** #define SCB_CFSR_UNALIGNED_Msk            (1UL << SCB_CFSR_UNALIGNED_Pos)                 /*!< SCB 
 667:.\CMSIS\Core\Include/core_cm4.h **** 
 668:.\CMSIS\Core\Include/core_cm4.h **** #define SCB_CFSR_NOCP_Pos                 (SCB_CFSR_USGFAULTSR_Pos + 3U)                  /*!< SCB 
 669:.\CMSIS\Core\Include/core_cm4.h **** #define SCB_CFSR_NOCP_Msk                 (1UL << SCB_CFSR_NOCP_Pos)                      /*!< SCB 
 670:.\CMSIS\Core\Include/core_cm4.h **** 
 671:.\CMSIS\Core\Include/core_cm4.h **** #define SCB_CFSR_INVPC_Pos                (SCB_CFSR_USGFAULTSR_Pos + 2U)                  /*!< SCB 
 672:.\CMSIS\Core\Include/core_cm4.h **** #define SCB_CFSR_INVPC_Msk                (1UL << SCB_CFSR_INVPC_Pos)                     /*!< SCB 
 673:.\CMSIS\Core\Include/core_cm4.h **** 
 674:.\CMSIS\Core\Include/core_cm4.h **** #define SCB_CFSR_INVSTATE_Pos             (SCB_CFSR_USGFAULTSR_Pos + 1U)                  /*!< SCB 
 675:.\CMSIS\Core\Include/core_cm4.h **** #define SCB_CFSR_INVSTATE_Msk             (1UL << SCB_CFSR_INVSTATE_Pos)                  /*!< SCB 
 676:.\CMSIS\Core\Include/core_cm4.h **** 
 677:.\CMSIS\Core\Include/core_cm4.h **** #define SCB_CFSR_UNDEFINSTR_Pos           (SCB_CFSR_USGFAULTSR_Pos + 0U)                  /*!< SCB 
 678:.\CMSIS\Core\Include/core_cm4.h **** #define SCB_CFSR_UNDEFINSTR_Msk           (1UL << SCB_CFSR_UNDEFINSTR_Pos)                /*!< SCB 
 679:.\CMSIS\Core\Include/core_cm4.h **** 
 680:.\CMSIS\Core\Include/core_cm4.h **** /* SCB Hard Fault Status Register Definitions */
 681:.\CMSIS\Core\Include/core_cm4.h **** #define SCB_HFSR_DEBUGEVT_Pos              31U                                            /*!< SCB 
 682:.\CMSIS\Core\Include/core_cm4.h **** #define SCB_HFSR_DEBUGEVT_Msk              (1UL << SCB_HFSR_DEBUGEVT_Pos)                 /*!< SCB 
ARM GAS  C:\Users\nicpa\AppData\Local\Temp\ccPr5feD.s 			page 49


 683:.\CMSIS\Core\Include/core_cm4.h **** 
 684:.\CMSIS\Core\Include/core_cm4.h **** #define SCB_HFSR_FORCED_Pos                30U                                            /*!< SCB 
 685:.\CMSIS\Core\Include/core_cm4.h **** #define SCB_HFSR_FORCED_Msk                (1UL << SCB_HFSR_FORCED_Pos)                   /*!< SCB 
 686:.\CMSIS\Core\Include/core_cm4.h **** 
 687:.\CMSIS\Core\Include/core_cm4.h **** #define SCB_HFSR_VECTTBL_Pos                1U                                            /*!< SCB 
 688:.\CMSIS\Core\Include/core_cm4.h **** #define SCB_HFSR_VECTTBL_Msk               (1UL << SCB_HFSR_VECTTBL_Pos)                  /*!< SCB 
 689:.\CMSIS\Core\Include/core_cm4.h **** 
 690:.\CMSIS\Core\Include/core_cm4.h **** /* SCB Debug Fault Status Register Definitions */
 691:.\CMSIS\Core\Include/core_cm4.h **** #define SCB_DFSR_EXTERNAL_Pos               4U                                            /*!< SCB 
 692:.\CMSIS\Core\Include/core_cm4.h **** #define SCB_DFSR_EXTERNAL_Msk              (1UL << SCB_DFSR_EXTERNAL_Pos)                 /*!< SCB 
 693:.\CMSIS\Core\Include/core_cm4.h **** 
 694:.\CMSIS\Core\Include/core_cm4.h **** #define SCB_DFSR_VCATCH_Pos                 3U                                            /*!< SCB 
 695:.\CMSIS\Core\Include/core_cm4.h **** #define SCB_DFSR_VCATCH_Msk                (1UL << SCB_DFSR_VCATCH_Pos)                   /*!< SCB 
 696:.\CMSIS\Core\Include/core_cm4.h **** 
 697:.\CMSIS\Core\Include/core_cm4.h **** #define SCB_DFSR_DWTTRAP_Pos                2U                                            /*!< SCB 
 698:.\CMSIS\Core\Include/core_cm4.h **** #define SCB_DFSR_DWTTRAP_Msk               (1UL << SCB_DFSR_DWTTRAP_Pos)                  /*!< SCB 
 699:.\CMSIS\Core\Include/core_cm4.h **** 
 700:.\CMSIS\Core\Include/core_cm4.h **** #define SCB_DFSR_BKPT_Pos                   1U                                            /*!< SCB 
 701:.\CMSIS\Core\Include/core_cm4.h **** #define SCB_DFSR_BKPT_Msk                  (1UL << SCB_DFSR_BKPT_Pos)                     /*!< SCB 
 702:.\CMSIS\Core\Include/core_cm4.h **** 
 703:.\CMSIS\Core\Include/core_cm4.h **** #define SCB_DFSR_HALTED_Pos                 0U                                            /*!< SCB 
 704:.\CMSIS\Core\Include/core_cm4.h **** #define SCB_DFSR_HALTED_Msk                (1UL /*<< SCB_DFSR_HALTED_Pos*/)               /*!< SCB 
 705:.\CMSIS\Core\Include/core_cm4.h **** 
 706:.\CMSIS\Core\Include/core_cm4.h **** /*@} end of group CMSIS_SCB */
 707:.\CMSIS\Core\Include/core_cm4.h **** 
 708:.\CMSIS\Core\Include/core_cm4.h **** 
 709:.\CMSIS\Core\Include/core_cm4.h **** /**
 710:.\CMSIS\Core\Include/core_cm4.h ****   \ingroup  CMSIS_core_register
 711:.\CMSIS\Core\Include/core_cm4.h ****   \defgroup CMSIS_SCnSCB System Controls not in SCB (SCnSCB)
 712:.\CMSIS\Core\Include/core_cm4.h ****   \brief    Type definitions for the System Control and ID Register not in the SCB
 713:.\CMSIS\Core\Include/core_cm4.h ****   @{
 714:.\CMSIS\Core\Include/core_cm4.h ****  */
 715:.\CMSIS\Core\Include/core_cm4.h **** 
 716:.\CMSIS\Core\Include/core_cm4.h **** /**
 717:.\CMSIS\Core\Include/core_cm4.h ****   \brief  Structure type to access the System Control and ID Register not in the SCB.
 718:.\CMSIS\Core\Include/core_cm4.h ****  */
 719:.\CMSIS\Core\Include/core_cm4.h **** typedef struct
 720:.\CMSIS\Core\Include/core_cm4.h **** {
 721:.\CMSIS\Core\Include/core_cm4.h ****         uint32_t RESERVED0[1U];
 722:.\CMSIS\Core\Include/core_cm4.h ****   __IM  uint32_t ICTR;                   /*!< Offset: 0x004 (R/ )  Interrupt Controller Type Regist
 723:.\CMSIS\Core\Include/core_cm4.h ****   __IOM uint32_t ACTLR;                  /*!< Offset: 0x008 (R/W)  Auxiliary Control Register */
 724:.\CMSIS\Core\Include/core_cm4.h **** } SCnSCB_Type;
 725:.\CMSIS\Core\Include/core_cm4.h **** 
 726:.\CMSIS\Core\Include/core_cm4.h **** /* Interrupt Controller Type Register Definitions */
 727:.\CMSIS\Core\Include/core_cm4.h **** #define SCnSCB_ICTR_INTLINESNUM_Pos         0U                                         /*!< ICTR: I
 728:.\CMSIS\Core\Include/core_cm4.h **** #define SCnSCB_ICTR_INTLINESNUM_Msk        (0xFUL /*<< SCnSCB_ICTR_INTLINESNUM_Pos*/)  /*!< ICTR: I
 729:.\CMSIS\Core\Include/core_cm4.h **** 
 730:.\CMSIS\Core\Include/core_cm4.h **** /* Auxiliary Control Register Definitions */
 731:.\CMSIS\Core\Include/core_cm4.h **** #define SCnSCB_ACTLR_DISOOFP_Pos            9U                                         /*!< ACTLR: 
 732:.\CMSIS\Core\Include/core_cm4.h **** #define SCnSCB_ACTLR_DISOOFP_Msk           (1UL << SCnSCB_ACTLR_DISOOFP_Pos)           /*!< ACTLR: 
 733:.\CMSIS\Core\Include/core_cm4.h **** 
 734:.\CMSIS\Core\Include/core_cm4.h **** #define SCnSCB_ACTLR_DISFPCA_Pos            8U                                         /*!< ACTLR: 
 735:.\CMSIS\Core\Include/core_cm4.h **** #define SCnSCB_ACTLR_DISFPCA_Msk           (1UL << SCnSCB_ACTLR_DISFPCA_Pos)           /*!< ACTLR: 
 736:.\CMSIS\Core\Include/core_cm4.h **** 
 737:.\CMSIS\Core\Include/core_cm4.h **** #define SCnSCB_ACTLR_DISFOLD_Pos            2U                                         /*!< ACTLR: 
 738:.\CMSIS\Core\Include/core_cm4.h **** #define SCnSCB_ACTLR_DISFOLD_Msk           (1UL << SCnSCB_ACTLR_DISFOLD_Pos)           /*!< ACTLR: 
 739:.\CMSIS\Core\Include/core_cm4.h **** 
ARM GAS  C:\Users\nicpa\AppData\Local\Temp\ccPr5feD.s 			page 50


 740:.\CMSIS\Core\Include/core_cm4.h **** #define SCnSCB_ACTLR_DISDEFWBUF_Pos         1U                                         /*!< ACTLR: 
 741:.\CMSIS\Core\Include/core_cm4.h **** #define SCnSCB_ACTLR_DISDEFWBUF_Msk        (1UL << SCnSCB_ACTLR_DISDEFWBUF_Pos)        /*!< ACTLR: 
 742:.\CMSIS\Core\Include/core_cm4.h **** 
 743:.\CMSIS\Core\Include/core_cm4.h **** #define SCnSCB_ACTLR_DISMCYCINT_Pos         0U                                         /*!< ACTLR: 
 744:.\CMSIS\Core\Include/core_cm4.h **** #define SCnSCB_ACTLR_DISMCYCINT_Msk        (1UL /*<< SCnSCB_ACTLR_DISMCYCINT_Pos*/)    /*!< ACTLR: 
 745:.\CMSIS\Core\Include/core_cm4.h **** 
 746:.\CMSIS\Core\Include/core_cm4.h **** /*@} end of group CMSIS_SCnotSCB */
 747:.\CMSIS\Core\Include/core_cm4.h **** 
 748:.\CMSIS\Core\Include/core_cm4.h **** 
 749:.\CMSIS\Core\Include/core_cm4.h **** /**
 750:.\CMSIS\Core\Include/core_cm4.h ****   \ingroup  CMSIS_core_register
 751:.\CMSIS\Core\Include/core_cm4.h ****   \defgroup CMSIS_SysTick     System Tick Timer (SysTick)
 752:.\CMSIS\Core\Include/core_cm4.h ****   \brief    Type definitions for the System Timer Registers.
 753:.\CMSIS\Core\Include/core_cm4.h ****   @{
 754:.\CMSIS\Core\Include/core_cm4.h ****  */
 755:.\CMSIS\Core\Include/core_cm4.h **** 
 756:.\CMSIS\Core\Include/core_cm4.h **** /**
 757:.\CMSIS\Core\Include/core_cm4.h ****   \brief  Structure type to access the System Timer (SysTick).
 758:.\CMSIS\Core\Include/core_cm4.h ****  */
 759:.\CMSIS\Core\Include/core_cm4.h **** typedef struct
 760:.\CMSIS\Core\Include/core_cm4.h **** {
 761:.\CMSIS\Core\Include/core_cm4.h ****   __IOM uint32_t CTRL;                   /*!< Offset: 0x000 (R/W)  SysTick Control and Status Regis
 762:.\CMSIS\Core\Include/core_cm4.h ****   __IOM uint32_t LOAD;                   /*!< Offset: 0x004 (R/W)  SysTick Reload Value Register */
 763:.\CMSIS\Core\Include/core_cm4.h ****   __IOM uint32_t VAL;                    /*!< Offset: 0x008 (R/W)  SysTick Current Value Register *
 764:.\CMSIS\Core\Include/core_cm4.h ****   __IM  uint32_t CALIB;                  /*!< Offset: 0x00C (R/ )  SysTick Calibration Register */
 765:.\CMSIS\Core\Include/core_cm4.h **** } SysTick_Type;
 766:.\CMSIS\Core\Include/core_cm4.h **** 
 767:.\CMSIS\Core\Include/core_cm4.h **** /* SysTick Control / Status Register Definitions */
 768:.\CMSIS\Core\Include/core_cm4.h **** #define SysTick_CTRL_COUNTFLAG_Pos         16U                                            /*!< SysT
 769:.\CMSIS\Core\Include/core_cm4.h **** #define SysTick_CTRL_COUNTFLAG_Msk         (1UL << SysTick_CTRL_COUNTFLAG_Pos)            /*!< SysT
 770:.\CMSIS\Core\Include/core_cm4.h **** 
 771:.\CMSIS\Core\Include/core_cm4.h **** #define SysTick_CTRL_CLKSOURCE_Pos          2U                                            /*!< SysT
 772:.\CMSIS\Core\Include/core_cm4.h **** #define SysTick_CTRL_CLKSOURCE_Msk         (1UL << SysTick_CTRL_CLKSOURCE_Pos)            /*!< SysT
 773:.\CMSIS\Core\Include/core_cm4.h **** 
 774:.\CMSIS\Core\Include/core_cm4.h **** #define SysTick_CTRL_TICKINT_Pos            1U                                            /*!< SysT
 775:.\CMSIS\Core\Include/core_cm4.h **** #define SysTick_CTRL_TICKINT_Msk           (1UL << SysTick_CTRL_TICKINT_Pos)              /*!< SysT
 776:.\CMSIS\Core\Include/core_cm4.h **** 
 777:.\CMSIS\Core\Include/core_cm4.h **** #define SysTick_CTRL_ENABLE_Pos             0U                                            /*!< SysT
 778:.\CMSIS\Core\Include/core_cm4.h **** #define SysTick_CTRL_ENABLE_Msk            (1UL /*<< SysTick_CTRL_ENABLE_Pos*/)           /*!< SysT
 779:.\CMSIS\Core\Include/core_cm4.h **** 
 780:.\CMSIS\Core\Include/core_cm4.h **** /* SysTick Reload Register Definitions */
 781:.\CMSIS\Core\Include/core_cm4.h **** #define SysTick_LOAD_RELOAD_Pos             0U                                            /*!< SysT
 782:.\CMSIS\Core\Include/core_cm4.h **** #define SysTick_LOAD_RELOAD_Msk            (0xFFFFFFUL /*<< SysTick_LOAD_RELOAD_Pos*/)    /*!< SysT
 783:.\CMSIS\Core\Include/core_cm4.h **** 
 784:.\CMSIS\Core\Include/core_cm4.h **** /* SysTick Current Register Definitions */
 785:.\CMSIS\Core\Include/core_cm4.h **** #define SysTick_VAL_CURRENT_Pos             0U                                            /*!< SysT
 786:.\CMSIS\Core\Include/core_cm4.h **** #define SysTick_VAL_CURRENT_Msk            (0xFFFFFFUL /*<< SysTick_VAL_CURRENT_Pos*/)    /*!< SysT
 787:.\CMSIS\Core\Include/core_cm4.h **** 
 788:.\CMSIS\Core\Include/core_cm4.h **** /* SysTick Calibration Register Definitions */
 789:.\CMSIS\Core\Include/core_cm4.h **** #define SysTick_CALIB_NOREF_Pos            31U                                            /*!< SysT
 790:.\CMSIS\Core\Include/core_cm4.h **** #define SysTick_CALIB_NOREF_Msk            (1UL << SysTick_CALIB_NOREF_Pos)               /*!< SysT
 791:.\CMSIS\Core\Include/core_cm4.h **** 
 792:.\CMSIS\Core\Include/core_cm4.h **** #define SysTick_CALIB_SKEW_Pos             30U                                            /*!< SysT
 793:.\CMSIS\Core\Include/core_cm4.h **** #define SysTick_CALIB_SKEW_Msk             (1UL << SysTick_CALIB_SKEW_Pos)                /*!< SysT
 794:.\CMSIS\Core\Include/core_cm4.h **** 
 795:.\CMSIS\Core\Include/core_cm4.h **** #define SysTick_CALIB_TENMS_Pos             0U                                            /*!< SysT
 796:.\CMSIS\Core\Include/core_cm4.h **** #define SysTick_CALIB_TENMS_Msk            (0xFFFFFFUL /*<< SysTick_CALIB_TENMS_Pos*/)    /*!< SysT
ARM GAS  C:\Users\nicpa\AppData\Local\Temp\ccPr5feD.s 			page 51


 797:.\CMSIS\Core\Include/core_cm4.h **** 
 798:.\CMSIS\Core\Include/core_cm4.h **** /*@} end of group CMSIS_SysTick */
 799:.\CMSIS\Core\Include/core_cm4.h **** 
 800:.\CMSIS\Core\Include/core_cm4.h **** 
 801:.\CMSIS\Core\Include/core_cm4.h **** /**
 802:.\CMSIS\Core\Include/core_cm4.h ****   \ingroup  CMSIS_core_register
 803:.\CMSIS\Core\Include/core_cm4.h ****   \defgroup CMSIS_ITM     Instrumentation Trace Macrocell (ITM)
 804:.\CMSIS\Core\Include/core_cm4.h ****   \brief    Type definitions for the Instrumentation Trace Macrocell (ITM)
 805:.\CMSIS\Core\Include/core_cm4.h ****   @{
 806:.\CMSIS\Core\Include/core_cm4.h ****  */
 807:.\CMSIS\Core\Include/core_cm4.h **** 
 808:.\CMSIS\Core\Include/core_cm4.h **** /**
 809:.\CMSIS\Core\Include/core_cm4.h ****   \brief  Structure type to access the Instrumentation Trace Macrocell Register (ITM).
 810:.\CMSIS\Core\Include/core_cm4.h ****  */
 811:.\CMSIS\Core\Include/core_cm4.h **** typedef struct
 812:.\CMSIS\Core\Include/core_cm4.h **** {
 813:.\CMSIS\Core\Include/core_cm4.h ****   __OM  union
 814:.\CMSIS\Core\Include/core_cm4.h ****   {
 815:.\CMSIS\Core\Include/core_cm4.h ****     __OM  uint8_t    u8;                 /*!< Offset: 0x000 ( /W)  ITM Stimulus Port 8-bit */
 816:.\CMSIS\Core\Include/core_cm4.h ****     __OM  uint16_t   u16;                /*!< Offset: 0x000 ( /W)  ITM Stimulus Port 16-bit */
 817:.\CMSIS\Core\Include/core_cm4.h ****     __OM  uint32_t   u32;                /*!< Offset: 0x000 ( /W)  ITM Stimulus Port 32-bit */
 818:.\CMSIS\Core\Include/core_cm4.h ****   }  PORT [32U];                         /*!< Offset: 0x000 ( /W)  ITM Stimulus Port Registers */
 819:.\CMSIS\Core\Include/core_cm4.h ****         uint32_t RESERVED0[864U];
 820:.\CMSIS\Core\Include/core_cm4.h ****   __IOM uint32_t TER;                    /*!< Offset: 0xE00 (R/W)  ITM Trace Enable Register */
 821:.\CMSIS\Core\Include/core_cm4.h ****         uint32_t RESERVED1[15U];
 822:.\CMSIS\Core\Include/core_cm4.h ****   __IOM uint32_t TPR;                    /*!< Offset: 0xE40 (R/W)  ITM Trace Privilege Register */
 823:.\CMSIS\Core\Include/core_cm4.h ****         uint32_t RESERVED2[15U];
 824:.\CMSIS\Core\Include/core_cm4.h ****   __IOM uint32_t TCR;                    /*!< Offset: 0xE80 (R/W)  ITM Trace Control Register */
 825:.\CMSIS\Core\Include/core_cm4.h ****         uint32_t RESERVED3[29U];
 826:.\CMSIS\Core\Include/core_cm4.h ****   __OM  uint32_t IWR;                    /*!< Offset: 0xEF8 ( /W)  ITM Integration Write Register *
 827:.\CMSIS\Core\Include/core_cm4.h ****   __IM  uint32_t IRR;                    /*!< Offset: 0xEFC (R/ )  ITM Integration Read Register */
 828:.\CMSIS\Core\Include/core_cm4.h ****   __IOM uint32_t IMCR;                   /*!< Offset: 0xF00 (R/W)  ITM Integration Mode Control Reg
 829:.\CMSIS\Core\Include/core_cm4.h ****         uint32_t RESERVED4[43U];
 830:.\CMSIS\Core\Include/core_cm4.h ****   __OM  uint32_t LAR;                    /*!< Offset: 0xFB0 ( /W)  ITM Lock Access Register */
 831:.\CMSIS\Core\Include/core_cm4.h ****   __IM  uint32_t LSR;                    /*!< Offset: 0xFB4 (R/ )  ITM Lock Status Register */
 832:.\CMSIS\Core\Include/core_cm4.h ****         uint32_t RESERVED5[6U];
 833:.\CMSIS\Core\Include/core_cm4.h ****   __IM  uint32_t PID4;                   /*!< Offset: 0xFD0 (R/ )  ITM Peripheral Identification Re
 834:.\CMSIS\Core\Include/core_cm4.h ****   __IM  uint32_t PID5;                   /*!< Offset: 0xFD4 (R/ )  ITM Peripheral Identification Re
 835:.\CMSIS\Core\Include/core_cm4.h ****   __IM  uint32_t PID6;                   /*!< Offset: 0xFD8 (R/ )  ITM Peripheral Identification Re
 836:.\CMSIS\Core\Include/core_cm4.h ****   __IM  uint32_t PID7;                   /*!< Offset: 0xFDC (R/ )  ITM Peripheral Identification Re
 837:.\CMSIS\Core\Include/core_cm4.h ****   __IM  uint32_t PID0;                   /*!< Offset: 0xFE0 (R/ )  ITM Peripheral Identification Re
 838:.\CMSIS\Core\Include/core_cm4.h ****   __IM  uint32_t PID1;                   /*!< Offset: 0xFE4 (R/ )  ITM Peripheral Identification Re
 839:.\CMSIS\Core\Include/core_cm4.h ****   __IM  uint32_t PID2;                   /*!< Offset: 0xFE8 (R/ )  ITM Peripheral Identification Re
 840:.\CMSIS\Core\Include/core_cm4.h ****   __IM  uint32_t PID3;                   /*!< Offset: 0xFEC (R/ )  ITM Peripheral Identification Re
 841:.\CMSIS\Core\Include/core_cm4.h ****   __IM  uint32_t CID0;                   /*!< Offset: 0xFF0 (R/ )  ITM Component  Identification Re
 842:.\CMSIS\Core\Include/core_cm4.h ****   __IM  uint32_t CID1;                   /*!< Offset: 0xFF4 (R/ )  ITM Component  Identification Re
 843:.\CMSIS\Core\Include/core_cm4.h ****   __IM  uint32_t CID2;                   /*!< Offset: 0xFF8 (R/ )  ITM Component  Identification Re
 844:.\CMSIS\Core\Include/core_cm4.h ****   __IM  uint32_t CID3;                   /*!< Offset: 0xFFC (R/ )  ITM Component  Identification Re
 845:.\CMSIS\Core\Include/core_cm4.h **** } ITM_Type;
 846:.\CMSIS\Core\Include/core_cm4.h **** 
 847:.\CMSIS\Core\Include/core_cm4.h **** /* ITM Trace Privilege Register Definitions */
 848:.\CMSIS\Core\Include/core_cm4.h **** #define ITM_TPR_PRIVMASK_Pos                0U                                            /*!< ITM 
 849:.\CMSIS\Core\Include/core_cm4.h **** #define ITM_TPR_PRIVMASK_Msk               (0xFFFFFFFFUL /*<< ITM_TPR_PRIVMASK_Pos*/)     /*!< ITM 
 850:.\CMSIS\Core\Include/core_cm4.h **** 
 851:.\CMSIS\Core\Include/core_cm4.h **** /* ITM Trace Control Register Definitions */
 852:.\CMSIS\Core\Include/core_cm4.h **** #define ITM_TCR_BUSY_Pos                   23U                                            /*!< ITM 
 853:.\CMSIS\Core\Include/core_cm4.h **** #define ITM_TCR_BUSY_Msk                   (1UL << ITM_TCR_BUSY_Pos)                      /*!< ITM 
ARM GAS  C:\Users\nicpa\AppData\Local\Temp\ccPr5feD.s 			page 52


 854:.\CMSIS\Core\Include/core_cm4.h **** 
 855:.\CMSIS\Core\Include/core_cm4.h **** #define ITM_TCR_TraceBusID_Pos             16U                                            /*!< ITM 
 856:.\CMSIS\Core\Include/core_cm4.h **** #define ITM_TCR_TraceBusID_Msk             (0x7FUL << ITM_TCR_TraceBusID_Pos)             /*!< ITM 
 857:.\CMSIS\Core\Include/core_cm4.h **** 
 858:.\CMSIS\Core\Include/core_cm4.h **** #define ITM_TCR_GTSFREQ_Pos                10U                                            /*!< ITM 
 859:.\CMSIS\Core\Include/core_cm4.h **** #define ITM_TCR_GTSFREQ_Msk                (3UL << ITM_TCR_GTSFREQ_Pos)                   /*!< ITM 
 860:.\CMSIS\Core\Include/core_cm4.h **** 
 861:.\CMSIS\Core\Include/core_cm4.h **** #define ITM_TCR_TSPrescale_Pos              8U                                            /*!< ITM 
 862:.\CMSIS\Core\Include/core_cm4.h **** #define ITM_TCR_TSPrescale_Msk             (3UL << ITM_TCR_TSPrescale_Pos)                /*!< ITM 
 863:.\CMSIS\Core\Include/core_cm4.h **** 
 864:.\CMSIS\Core\Include/core_cm4.h **** #define ITM_TCR_SWOENA_Pos                  4U                                            /*!< ITM 
 865:.\CMSIS\Core\Include/core_cm4.h **** #define ITM_TCR_SWOENA_Msk                 (1UL << ITM_TCR_SWOENA_Pos)                    /*!< ITM 
 866:.\CMSIS\Core\Include/core_cm4.h **** 
 867:.\CMSIS\Core\Include/core_cm4.h **** #define ITM_TCR_DWTENA_Pos                  3U                                            /*!< ITM 
 868:.\CMSIS\Core\Include/core_cm4.h **** #define ITM_TCR_DWTENA_Msk                 (1UL << ITM_TCR_DWTENA_Pos)                    /*!< ITM 
 869:.\CMSIS\Core\Include/core_cm4.h **** 
 870:.\CMSIS\Core\Include/core_cm4.h **** #define ITM_TCR_SYNCENA_Pos                 2U                                            /*!< ITM 
 871:.\CMSIS\Core\Include/core_cm4.h **** #define ITM_TCR_SYNCENA_Msk                (1UL << ITM_TCR_SYNCENA_Pos)                   /*!< ITM 
 872:.\CMSIS\Core\Include/core_cm4.h **** 
 873:.\CMSIS\Core\Include/core_cm4.h **** #define ITM_TCR_TSENA_Pos                   1U                                            /*!< ITM 
 874:.\CMSIS\Core\Include/core_cm4.h **** #define ITM_TCR_TSENA_Msk                  (1UL << ITM_TCR_TSENA_Pos)                     /*!< ITM 
 875:.\CMSIS\Core\Include/core_cm4.h **** 
 876:.\CMSIS\Core\Include/core_cm4.h **** #define ITM_TCR_ITMENA_Pos                  0U                                            /*!< ITM 
 877:.\CMSIS\Core\Include/core_cm4.h **** #define ITM_TCR_ITMENA_Msk                 (1UL /*<< ITM_TCR_ITMENA_Pos*/)                /*!< ITM 
 878:.\CMSIS\Core\Include/core_cm4.h **** 
 879:.\CMSIS\Core\Include/core_cm4.h **** /* ITM Integration Write Register Definitions */
 880:.\CMSIS\Core\Include/core_cm4.h **** #define ITM_IWR_ATVALIDM_Pos                0U                                            /*!< ITM 
 881:.\CMSIS\Core\Include/core_cm4.h **** #define ITM_IWR_ATVALIDM_Msk               (1UL /*<< ITM_IWR_ATVALIDM_Pos*/)              /*!< ITM 
 882:.\CMSIS\Core\Include/core_cm4.h **** 
 883:.\CMSIS\Core\Include/core_cm4.h **** /* ITM Integration Read Register Definitions */
 884:.\CMSIS\Core\Include/core_cm4.h **** #define ITM_IRR_ATREADYM_Pos                0U                                            /*!< ITM 
 885:.\CMSIS\Core\Include/core_cm4.h **** #define ITM_IRR_ATREADYM_Msk               (1UL /*<< ITM_IRR_ATREADYM_Pos*/)              /*!< ITM 
 886:.\CMSIS\Core\Include/core_cm4.h **** 
 887:.\CMSIS\Core\Include/core_cm4.h **** /* ITM Integration Mode Control Register Definitions */
 888:.\CMSIS\Core\Include/core_cm4.h **** #define ITM_IMCR_INTEGRATION_Pos            0U                                            /*!< ITM 
 889:.\CMSIS\Core\Include/core_cm4.h **** #define ITM_IMCR_INTEGRATION_Msk           (1UL /*<< ITM_IMCR_INTEGRATION_Pos*/)          /*!< ITM 
 890:.\CMSIS\Core\Include/core_cm4.h **** 
 891:.\CMSIS\Core\Include/core_cm4.h **** /* ITM Lock Status Register Definitions */
 892:.\CMSIS\Core\Include/core_cm4.h **** #define ITM_LSR_ByteAcc_Pos                 2U                                            /*!< ITM 
 893:.\CMSIS\Core\Include/core_cm4.h **** #define ITM_LSR_ByteAcc_Msk                (1UL << ITM_LSR_ByteAcc_Pos)                   /*!< ITM 
 894:.\CMSIS\Core\Include/core_cm4.h **** 
 895:.\CMSIS\Core\Include/core_cm4.h **** #define ITM_LSR_Access_Pos                  1U                                            /*!< ITM 
 896:.\CMSIS\Core\Include/core_cm4.h **** #define ITM_LSR_Access_Msk                 (1UL << ITM_LSR_Access_Pos)                    /*!< ITM 
 897:.\CMSIS\Core\Include/core_cm4.h **** 
 898:.\CMSIS\Core\Include/core_cm4.h **** #define ITM_LSR_Present_Pos                 0U                                            /*!< ITM 
 899:.\CMSIS\Core\Include/core_cm4.h **** #define ITM_LSR_Present_Msk                (1UL /*<< ITM_LSR_Present_Pos*/)               /*!< ITM 
 900:.\CMSIS\Core\Include/core_cm4.h **** 
 901:.\CMSIS\Core\Include/core_cm4.h **** /*@}*/ /* end of group CMSIS_ITM */
 902:.\CMSIS\Core\Include/core_cm4.h **** 
 903:.\CMSIS\Core\Include/core_cm4.h **** 
 904:.\CMSIS\Core\Include/core_cm4.h **** /**
 905:.\CMSIS\Core\Include/core_cm4.h ****   \ingroup  CMSIS_core_register
 906:.\CMSIS\Core\Include/core_cm4.h ****   \defgroup CMSIS_DWT     Data Watchpoint and Trace (DWT)
 907:.\CMSIS\Core\Include/core_cm4.h ****   \brief    Type definitions for the Data Watchpoint and Trace (DWT)
 908:.\CMSIS\Core\Include/core_cm4.h ****   @{
 909:.\CMSIS\Core\Include/core_cm4.h ****  */
 910:.\CMSIS\Core\Include/core_cm4.h **** 
ARM GAS  C:\Users\nicpa\AppData\Local\Temp\ccPr5feD.s 			page 53


 911:.\CMSIS\Core\Include/core_cm4.h **** /**
 912:.\CMSIS\Core\Include/core_cm4.h ****   \brief  Structure type to access the Data Watchpoint and Trace Register (DWT).
 913:.\CMSIS\Core\Include/core_cm4.h ****  */
 914:.\CMSIS\Core\Include/core_cm4.h **** typedef struct
 915:.\CMSIS\Core\Include/core_cm4.h **** {
 916:.\CMSIS\Core\Include/core_cm4.h ****   __IOM uint32_t CTRL;                   /*!< Offset: 0x000 (R/W)  Control Register */
 917:.\CMSIS\Core\Include/core_cm4.h ****   __IOM uint32_t CYCCNT;                 /*!< Offset: 0x004 (R/W)  Cycle Count Register */
 918:.\CMSIS\Core\Include/core_cm4.h ****   __IOM uint32_t CPICNT;                 /*!< Offset: 0x008 (R/W)  CPI Count Register */
 919:.\CMSIS\Core\Include/core_cm4.h ****   __IOM uint32_t EXCCNT;                 /*!< Offset: 0x00C (R/W)  Exception Overhead Count Registe
 920:.\CMSIS\Core\Include/core_cm4.h ****   __IOM uint32_t SLEEPCNT;               /*!< Offset: 0x010 (R/W)  Sleep Count Register */
 921:.\CMSIS\Core\Include/core_cm4.h ****   __IOM uint32_t LSUCNT;                 /*!< Offset: 0x014 (R/W)  LSU Count Register */
 922:.\CMSIS\Core\Include/core_cm4.h ****   __IOM uint32_t FOLDCNT;                /*!< Offset: 0x018 (R/W)  Folded-instruction Count Registe
 923:.\CMSIS\Core\Include/core_cm4.h ****   __IM  uint32_t PCSR;                   /*!< Offset: 0x01C (R/ )  Program Counter Sample Register 
 924:.\CMSIS\Core\Include/core_cm4.h ****   __IOM uint32_t COMP0;                  /*!< Offset: 0x020 (R/W)  Comparator Register 0 */
 925:.\CMSIS\Core\Include/core_cm4.h ****   __IOM uint32_t MASK0;                  /*!< Offset: 0x024 (R/W)  Mask Register 0 */
 926:.\CMSIS\Core\Include/core_cm4.h ****   __IOM uint32_t FUNCTION0;              /*!< Offset: 0x028 (R/W)  Function Register 0 */
 927:.\CMSIS\Core\Include/core_cm4.h ****         uint32_t RESERVED0[1U];
 928:.\CMSIS\Core\Include/core_cm4.h ****   __IOM uint32_t COMP1;                  /*!< Offset: 0x030 (R/W)  Comparator Register 1 */
 929:.\CMSIS\Core\Include/core_cm4.h ****   __IOM uint32_t MASK1;                  /*!< Offset: 0x034 (R/W)  Mask Register 1 */
 930:.\CMSIS\Core\Include/core_cm4.h ****   __IOM uint32_t FUNCTION1;              /*!< Offset: 0x038 (R/W)  Function Register 1 */
 931:.\CMSIS\Core\Include/core_cm4.h ****         uint32_t RESERVED1[1U];
 932:.\CMSIS\Core\Include/core_cm4.h ****   __IOM uint32_t COMP2;                  /*!< Offset: 0x040 (R/W)  Comparator Register 2 */
 933:.\CMSIS\Core\Include/core_cm4.h ****   __IOM uint32_t MASK2;                  /*!< Offset: 0x044 (R/W)  Mask Register 2 */
 934:.\CMSIS\Core\Include/core_cm4.h ****   __IOM uint32_t FUNCTION2;              /*!< Offset: 0x048 (R/W)  Function Register 2 */
 935:.\CMSIS\Core\Include/core_cm4.h ****         uint32_t RESERVED2[1U];
 936:.\CMSIS\Core\Include/core_cm4.h ****   __IOM uint32_t COMP3;                  /*!< Offset: 0x050 (R/W)  Comparator Register 3 */
 937:.\CMSIS\Core\Include/core_cm4.h ****   __IOM uint32_t MASK3;                  /*!< Offset: 0x054 (R/W)  Mask Register 3 */
 938:.\CMSIS\Core\Include/core_cm4.h ****   __IOM uint32_t FUNCTION3;              /*!< Offset: 0x058 (R/W)  Function Register 3 */
 939:.\CMSIS\Core\Include/core_cm4.h **** } DWT_Type;
 940:.\CMSIS\Core\Include/core_cm4.h **** 
 941:.\CMSIS\Core\Include/core_cm4.h **** /* DWT Control Register Definitions */
 942:.\CMSIS\Core\Include/core_cm4.h **** #define DWT_CTRL_NUMCOMP_Pos               28U                                         /*!< DWT CTR
 943:.\CMSIS\Core\Include/core_cm4.h **** #define DWT_CTRL_NUMCOMP_Msk               (0xFUL << DWT_CTRL_NUMCOMP_Pos)             /*!< DWT CTR
 944:.\CMSIS\Core\Include/core_cm4.h **** 
 945:.\CMSIS\Core\Include/core_cm4.h **** #define DWT_CTRL_NOTRCPKT_Pos              27U                                         /*!< DWT CTR
 946:.\CMSIS\Core\Include/core_cm4.h **** #define DWT_CTRL_NOTRCPKT_Msk              (0x1UL << DWT_CTRL_NOTRCPKT_Pos)            /*!< DWT CTR
 947:.\CMSIS\Core\Include/core_cm4.h **** 
 948:.\CMSIS\Core\Include/core_cm4.h **** #define DWT_CTRL_NOEXTTRIG_Pos             26U                                         /*!< DWT CTR
 949:.\CMSIS\Core\Include/core_cm4.h **** #define DWT_CTRL_NOEXTTRIG_Msk             (0x1UL << DWT_CTRL_NOEXTTRIG_Pos)           /*!< DWT CTR
 950:.\CMSIS\Core\Include/core_cm4.h **** 
 951:.\CMSIS\Core\Include/core_cm4.h **** #define DWT_CTRL_NOCYCCNT_Pos              25U                                         /*!< DWT CTR
 952:.\CMSIS\Core\Include/core_cm4.h **** #define DWT_CTRL_NOCYCCNT_Msk              (0x1UL << DWT_CTRL_NOCYCCNT_Pos)            /*!< DWT CTR
 953:.\CMSIS\Core\Include/core_cm4.h **** 
 954:.\CMSIS\Core\Include/core_cm4.h **** #define DWT_CTRL_NOPRFCNT_Pos              24U                                         /*!< DWT CTR
 955:.\CMSIS\Core\Include/core_cm4.h **** #define DWT_CTRL_NOPRFCNT_Msk              (0x1UL << DWT_CTRL_NOPRFCNT_Pos)            /*!< DWT CTR
 956:.\CMSIS\Core\Include/core_cm4.h **** 
 957:.\CMSIS\Core\Include/core_cm4.h **** #define DWT_CTRL_CYCEVTENA_Pos             22U                                         /*!< DWT CTR
 958:.\CMSIS\Core\Include/core_cm4.h **** #define DWT_CTRL_CYCEVTENA_Msk             (0x1UL << DWT_CTRL_CYCEVTENA_Pos)           /*!< DWT CTR
 959:.\CMSIS\Core\Include/core_cm4.h **** 
 960:.\CMSIS\Core\Include/core_cm4.h **** #define DWT_CTRL_FOLDEVTENA_Pos            21U                                         /*!< DWT CTR
 961:.\CMSIS\Core\Include/core_cm4.h **** #define DWT_CTRL_FOLDEVTENA_Msk            (0x1UL << DWT_CTRL_FOLDEVTENA_Pos)          /*!< DWT CTR
 962:.\CMSIS\Core\Include/core_cm4.h **** 
 963:.\CMSIS\Core\Include/core_cm4.h **** #define DWT_CTRL_LSUEVTENA_Pos             20U                                         /*!< DWT CTR
 964:.\CMSIS\Core\Include/core_cm4.h **** #define DWT_CTRL_LSUEVTENA_Msk             (0x1UL << DWT_CTRL_LSUEVTENA_Pos)           /*!< DWT CTR
 965:.\CMSIS\Core\Include/core_cm4.h **** 
 966:.\CMSIS\Core\Include/core_cm4.h **** #define DWT_CTRL_SLEEPEVTENA_Pos           19U                                         /*!< DWT CTR
 967:.\CMSIS\Core\Include/core_cm4.h **** #define DWT_CTRL_SLEEPEVTENA_Msk           (0x1UL << DWT_CTRL_SLEEPEVTENA_Pos)         /*!< DWT CTR
ARM GAS  C:\Users\nicpa\AppData\Local\Temp\ccPr5feD.s 			page 54


 968:.\CMSIS\Core\Include/core_cm4.h **** 
 969:.\CMSIS\Core\Include/core_cm4.h **** #define DWT_CTRL_EXCEVTENA_Pos             18U                                         /*!< DWT CTR
 970:.\CMSIS\Core\Include/core_cm4.h **** #define DWT_CTRL_EXCEVTENA_Msk             (0x1UL << DWT_CTRL_EXCEVTENA_Pos)           /*!< DWT CTR
 971:.\CMSIS\Core\Include/core_cm4.h **** 
 972:.\CMSIS\Core\Include/core_cm4.h **** #define DWT_CTRL_CPIEVTENA_Pos             17U                                         /*!< DWT CTR
 973:.\CMSIS\Core\Include/core_cm4.h **** #define DWT_CTRL_CPIEVTENA_Msk             (0x1UL << DWT_CTRL_CPIEVTENA_Pos)           /*!< DWT CTR
 974:.\CMSIS\Core\Include/core_cm4.h **** 
 975:.\CMSIS\Core\Include/core_cm4.h **** #define DWT_CTRL_EXCTRCENA_Pos             16U                                         /*!< DWT CTR
 976:.\CMSIS\Core\Include/core_cm4.h **** #define DWT_CTRL_EXCTRCENA_Msk             (0x1UL << DWT_CTRL_EXCTRCENA_Pos)           /*!< DWT CTR
 977:.\CMSIS\Core\Include/core_cm4.h **** 
 978:.\CMSIS\Core\Include/core_cm4.h **** #define DWT_CTRL_PCSAMPLENA_Pos            12U                                         /*!< DWT CTR
 979:.\CMSIS\Core\Include/core_cm4.h **** #define DWT_CTRL_PCSAMPLENA_Msk            (0x1UL << DWT_CTRL_PCSAMPLENA_Pos)          /*!< DWT CTR
 980:.\CMSIS\Core\Include/core_cm4.h **** 
 981:.\CMSIS\Core\Include/core_cm4.h **** #define DWT_CTRL_SYNCTAP_Pos               10U                                         /*!< DWT CTR
 982:.\CMSIS\Core\Include/core_cm4.h **** #define DWT_CTRL_SYNCTAP_Msk               (0x3UL << DWT_CTRL_SYNCTAP_Pos)             /*!< DWT CTR
 983:.\CMSIS\Core\Include/core_cm4.h **** 
 984:.\CMSIS\Core\Include/core_cm4.h **** #define DWT_CTRL_CYCTAP_Pos                 9U                                         /*!< DWT CTR
 985:.\CMSIS\Core\Include/core_cm4.h **** #define DWT_CTRL_CYCTAP_Msk                (0x1UL << DWT_CTRL_CYCTAP_Pos)              /*!< DWT CTR
 986:.\CMSIS\Core\Include/core_cm4.h **** 
 987:.\CMSIS\Core\Include/core_cm4.h **** #define DWT_CTRL_POSTINIT_Pos               5U                                         /*!< DWT CTR
 988:.\CMSIS\Core\Include/core_cm4.h **** #define DWT_CTRL_POSTINIT_Msk              (0xFUL << DWT_CTRL_POSTINIT_Pos)            /*!< DWT CTR
 989:.\CMSIS\Core\Include/core_cm4.h **** 
 990:.\CMSIS\Core\Include/core_cm4.h **** #define DWT_CTRL_POSTPRESET_Pos             1U                                         /*!< DWT CTR
 991:.\CMSIS\Core\Include/core_cm4.h **** #define DWT_CTRL_POSTPRESET_Msk            (0xFUL << DWT_CTRL_POSTPRESET_Pos)          /*!< DWT CTR
 992:.\CMSIS\Core\Include/core_cm4.h **** 
 993:.\CMSIS\Core\Include/core_cm4.h **** #define DWT_CTRL_CYCCNTENA_Pos              0U                                         /*!< DWT CTR
 994:.\CMSIS\Core\Include/core_cm4.h **** #define DWT_CTRL_CYCCNTENA_Msk             (0x1UL /*<< DWT_CTRL_CYCCNTENA_Pos*/)       /*!< DWT CTR
 995:.\CMSIS\Core\Include/core_cm4.h **** 
 996:.\CMSIS\Core\Include/core_cm4.h **** /* DWT CPI Count Register Definitions */
 997:.\CMSIS\Core\Include/core_cm4.h **** #define DWT_CPICNT_CPICNT_Pos               0U                                         /*!< DWT CPI
 998:.\CMSIS\Core\Include/core_cm4.h **** #define DWT_CPICNT_CPICNT_Msk              (0xFFUL /*<< DWT_CPICNT_CPICNT_Pos*/)       /*!< DWT CPI
 999:.\CMSIS\Core\Include/core_cm4.h **** 
1000:.\CMSIS\Core\Include/core_cm4.h **** /* DWT Exception Overhead Count Register Definitions */
1001:.\CMSIS\Core\Include/core_cm4.h **** #define DWT_EXCCNT_EXCCNT_Pos               0U                                         /*!< DWT EXC
1002:.\CMSIS\Core\Include/core_cm4.h **** #define DWT_EXCCNT_EXCCNT_Msk              (0xFFUL /*<< DWT_EXCCNT_EXCCNT_Pos*/)       /*!< DWT EXC
1003:.\CMSIS\Core\Include/core_cm4.h **** 
1004:.\CMSIS\Core\Include/core_cm4.h **** /* DWT Sleep Count Register Definitions */
1005:.\CMSIS\Core\Include/core_cm4.h **** #define DWT_SLEEPCNT_SLEEPCNT_Pos           0U                                         /*!< DWT SLE
1006:.\CMSIS\Core\Include/core_cm4.h **** #define DWT_SLEEPCNT_SLEEPCNT_Msk          (0xFFUL /*<< DWT_SLEEPCNT_SLEEPCNT_Pos*/)   /*!< DWT SLE
1007:.\CMSIS\Core\Include/core_cm4.h **** 
1008:.\CMSIS\Core\Include/core_cm4.h **** /* DWT LSU Count Register Definitions */
1009:.\CMSIS\Core\Include/core_cm4.h **** #define DWT_LSUCNT_LSUCNT_Pos               0U                                         /*!< DWT LSU
1010:.\CMSIS\Core\Include/core_cm4.h **** #define DWT_LSUCNT_LSUCNT_Msk              (0xFFUL /*<< DWT_LSUCNT_LSUCNT_Pos*/)       /*!< DWT LSU
1011:.\CMSIS\Core\Include/core_cm4.h **** 
1012:.\CMSIS\Core\Include/core_cm4.h **** /* DWT Folded-instruction Count Register Definitions */
1013:.\CMSIS\Core\Include/core_cm4.h **** #define DWT_FOLDCNT_FOLDCNT_Pos             0U                                         /*!< DWT FOL
1014:.\CMSIS\Core\Include/core_cm4.h **** #define DWT_FOLDCNT_FOLDCNT_Msk            (0xFFUL /*<< DWT_FOLDCNT_FOLDCNT_Pos*/)     /*!< DWT FOL
1015:.\CMSIS\Core\Include/core_cm4.h **** 
1016:.\CMSIS\Core\Include/core_cm4.h **** /* DWT Comparator Mask Register Definitions */
1017:.\CMSIS\Core\Include/core_cm4.h **** #define DWT_MASK_MASK_Pos                   0U                                         /*!< DWT MAS
1018:.\CMSIS\Core\Include/core_cm4.h **** #define DWT_MASK_MASK_Msk                  (0x1FUL /*<< DWT_MASK_MASK_Pos*/)           /*!< DWT MAS
1019:.\CMSIS\Core\Include/core_cm4.h **** 
1020:.\CMSIS\Core\Include/core_cm4.h **** /* DWT Comparator Function Register Definitions */
1021:.\CMSIS\Core\Include/core_cm4.h **** #define DWT_FUNCTION_MATCHED_Pos           24U                                         /*!< DWT FUN
1022:.\CMSIS\Core\Include/core_cm4.h **** #define DWT_FUNCTION_MATCHED_Msk           (0x1UL << DWT_FUNCTION_MATCHED_Pos)         /*!< DWT FUN
1023:.\CMSIS\Core\Include/core_cm4.h **** 
1024:.\CMSIS\Core\Include/core_cm4.h **** #define DWT_FUNCTION_DATAVADDR1_Pos        16U                                         /*!< DWT FUN
ARM GAS  C:\Users\nicpa\AppData\Local\Temp\ccPr5feD.s 			page 55


1025:.\CMSIS\Core\Include/core_cm4.h **** #define DWT_FUNCTION_DATAVADDR1_Msk        (0xFUL << DWT_FUNCTION_DATAVADDR1_Pos)      /*!< DWT FUN
1026:.\CMSIS\Core\Include/core_cm4.h **** 
1027:.\CMSIS\Core\Include/core_cm4.h **** #define DWT_FUNCTION_DATAVADDR0_Pos        12U                                         /*!< DWT FUN
1028:.\CMSIS\Core\Include/core_cm4.h **** #define DWT_FUNCTION_DATAVADDR0_Msk        (0xFUL << DWT_FUNCTION_DATAVADDR0_Pos)      /*!< DWT FUN
1029:.\CMSIS\Core\Include/core_cm4.h **** 
1030:.\CMSIS\Core\Include/core_cm4.h **** #define DWT_FUNCTION_DATAVSIZE_Pos         10U                                         /*!< DWT FUN
1031:.\CMSIS\Core\Include/core_cm4.h **** #define DWT_FUNCTION_DATAVSIZE_Msk         (0x3UL << DWT_FUNCTION_DATAVSIZE_Pos)       /*!< DWT FUN
1032:.\CMSIS\Core\Include/core_cm4.h **** 
1033:.\CMSIS\Core\Include/core_cm4.h **** #define DWT_FUNCTION_LNK1ENA_Pos            9U                                         /*!< DWT FUN
1034:.\CMSIS\Core\Include/core_cm4.h **** #define DWT_FUNCTION_LNK1ENA_Msk           (0x1UL << DWT_FUNCTION_LNK1ENA_Pos)         /*!< DWT FUN
1035:.\CMSIS\Core\Include/core_cm4.h **** 
1036:.\CMSIS\Core\Include/core_cm4.h **** #define DWT_FUNCTION_DATAVMATCH_Pos         8U                                         /*!< DWT FUN
1037:.\CMSIS\Core\Include/core_cm4.h **** #define DWT_FUNCTION_DATAVMATCH_Msk        (0x1UL << DWT_FUNCTION_DATAVMATCH_Pos)      /*!< DWT FUN
1038:.\CMSIS\Core\Include/core_cm4.h **** 
1039:.\CMSIS\Core\Include/core_cm4.h **** #define DWT_FUNCTION_CYCMATCH_Pos           7U                                         /*!< DWT FUN
1040:.\CMSIS\Core\Include/core_cm4.h **** #define DWT_FUNCTION_CYCMATCH_Msk          (0x1UL << DWT_FUNCTION_CYCMATCH_Pos)        /*!< DWT FUN
1041:.\CMSIS\Core\Include/core_cm4.h **** 
1042:.\CMSIS\Core\Include/core_cm4.h **** #define DWT_FUNCTION_EMITRANGE_Pos          5U                                         /*!< DWT FUN
1043:.\CMSIS\Core\Include/core_cm4.h **** #define DWT_FUNCTION_EMITRANGE_Msk         (0x1UL << DWT_FUNCTION_EMITRANGE_Pos)       /*!< DWT FUN
1044:.\CMSIS\Core\Include/core_cm4.h **** 
1045:.\CMSIS\Core\Include/core_cm4.h **** #define DWT_FUNCTION_FUNCTION_Pos           0U                                         /*!< DWT FUN
1046:.\CMSIS\Core\Include/core_cm4.h **** #define DWT_FUNCTION_FUNCTION_Msk          (0xFUL /*<< DWT_FUNCTION_FUNCTION_Pos*/)    /*!< DWT FUN
1047:.\CMSIS\Core\Include/core_cm4.h **** 
1048:.\CMSIS\Core\Include/core_cm4.h **** /*@}*/ /* end of group CMSIS_DWT */
1049:.\CMSIS\Core\Include/core_cm4.h **** 
1050:.\CMSIS\Core\Include/core_cm4.h **** 
1051:.\CMSIS\Core\Include/core_cm4.h **** /**
1052:.\CMSIS\Core\Include/core_cm4.h ****   \ingroup  CMSIS_core_register
1053:.\CMSIS\Core\Include/core_cm4.h ****   \defgroup CMSIS_TPI     Trace Port Interface (TPI)
1054:.\CMSIS\Core\Include/core_cm4.h ****   \brief    Type definitions for the Trace Port Interface (TPI)
1055:.\CMSIS\Core\Include/core_cm4.h ****   @{
1056:.\CMSIS\Core\Include/core_cm4.h ****  */
1057:.\CMSIS\Core\Include/core_cm4.h **** 
1058:.\CMSIS\Core\Include/core_cm4.h **** /**
1059:.\CMSIS\Core\Include/core_cm4.h ****   \brief  Structure type to access the Trace Port Interface Register (TPI).
1060:.\CMSIS\Core\Include/core_cm4.h ****  */
1061:.\CMSIS\Core\Include/core_cm4.h **** typedef struct
1062:.\CMSIS\Core\Include/core_cm4.h **** {
1063:.\CMSIS\Core\Include/core_cm4.h ****   __IOM uint32_t SSPSR;                  /*!< Offset: 0x000 (R/ )  Supported Parallel Port Size Reg
1064:.\CMSIS\Core\Include/core_cm4.h ****   __IOM uint32_t CSPSR;                  /*!< Offset: 0x004 (R/W)  Current Parallel Port Size Regis
1065:.\CMSIS\Core\Include/core_cm4.h ****         uint32_t RESERVED0[2U];
1066:.\CMSIS\Core\Include/core_cm4.h ****   __IOM uint32_t ACPR;                   /*!< Offset: 0x010 (R/W)  Asynchronous Clock Prescaler Reg
1067:.\CMSIS\Core\Include/core_cm4.h ****         uint32_t RESERVED1[55U];
1068:.\CMSIS\Core\Include/core_cm4.h ****   __IOM uint32_t SPPR;                   /*!< Offset: 0x0F0 (R/W)  Selected Pin Protocol Register *
1069:.\CMSIS\Core\Include/core_cm4.h ****         uint32_t RESERVED2[131U];
1070:.\CMSIS\Core\Include/core_cm4.h ****   __IM  uint32_t FFSR;                   /*!< Offset: 0x300 (R/ )  Formatter and Flush Status Regis
1071:.\CMSIS\Core\Include/core_cm4.h ****   __IOM uint32_t FFCR;                   /*!< Offset: 0x304 (R/W)  Formatter and Flush Control Regi
1072:.\CMSIS\Core\Include/core_cm4.h ****   __IM  uint32_t FSCR;                   /*!< Offset: 0x308 (R/ )  Formatter Synchronization Counte
1073:.\CMSIS\Core\Include/core_cm4.h ****         uint32_t RESERVED3[759U];
1074:.\CMSIS\Core\Include/core_cm4.h ****   __IM  uint32_t TRIGGER;                /*!< Offset: 0xEE8 (R/ )  TRIGGER */
1075:.\CMSIS\Core\Include/core_cm4.h ****   __IM  uint32_t FIFO0;                  /*!< Offset: 0xEEC (R/ )  Integration ETM Data */
1076:.\CMSIS\Core\Include/core_cm4.h ****   __IM  uint32_t ITATBCTR2;              /*!< Offset: 0xEF0 (R/ )  ITATBCTR2 */
1077:.\CMSIS\Core\Include/core_cm4.h ****         uint32_t RESERVED4[1U];
1078:.\CMSIS\Core\Include/core_cm4.h ****   __IM  uint32_t ITATBCTR0;              /*!< Offset: 0xEF8 (R/ )  ITATBCTR0 */
1079:.\CMSIS\Core\Include/core_cm4.h ****   __IM  uint32_t FIFO1;                  /*!< Offset: 0xEFC (R/ )  Integration ITM Data */
1080:.\CMSIS\Core\Include/core_cm4.h ****   __IOM uint32_t ITCTRL;                 /*!< Offset: 0xF00 (R/W)  Integration Mode Control */
1081:.\CMSIS\Core\Include/core_cm4.h ****         uint32_t RESERVED5[39U];
ARM GAS  C:\Users\nicpa\AppData\Local\Temp\ccPr5feD.s 			page 56


1082:.\CMSIS\Core\Include/core_cm4.h ****   __IOM uint32_t CLAIMSET;               /*!< Offset: 0xFA0 (R/W)  Claim tag set */
1083:.\CMSIS\Core\Include/core_cm4.h ****   __IOM uint32_t CLAIMCLR;               /*!< Offset: 0xFA4 (R/W)  Claim tag clear */
1084:.\CMSIS\Core\Include/core_cm4.h ****         uint32_t RESERVED7[8U];
1085:.\CMSIS\Core\Include/core_cm4.h ****   __IM  uint32_t DEVID;                  /*!< Offset: 0xFC8 (R/ )  TPIU_DEVID */
1086:.\CMSIS\Core\Include/core_cm4.h ****   __IM  uint32_t DEVTYPE;                /*!< Offset: 0xFCC (R/ )  TPIU_DEVTYPE */
1087:.\CMSIS\Core\Include/core_cm4.h **** } TPI_Type;
1088:.\CMSIS\Core\Include/core_cm4.h **** 
1089:.\CMSIS\Core\Include/core_cm4.h **** /* TPI Asynchronous Clock Prescaler Register Definitions */
1090:.\CMSIS\Core\Include/core_cm4.h **** #define TPI_ACPR_PRESCALER_Pos              0U                                         /*!< @Deprec
1091:.\CMSIS\Core\Include/core_cm4.h **** #define TPI_ACPR_PRESCALER_Msk             (0x1FFFUL /*<< TPI_ACPR_PRESCALER_Pos*/)    /*!< @Deprec
1092:.\CMSIS\Core\Include/core_cm4.h **** 
1093:.\CMSIS\Core\Include/core_cm4.h **** #define TPI_ACPR_SWOSCALER_Pos              0U                                         /*!< TPI ACP
1094:.\CMSIS\Core\Include/core_cm4.h **** #define TPI_ACPR_SWOSCALER_Msk             (0xFFFFUL /*<< TPI_ACPR_SWOSCALER_Pos*/)    /*!< TPI ACP
1095:.\CMSIS\Core\Include/core_cm4.h **** 
1096:.\CMSIS\Core\Include/core_cm4.h **** /* TPI Selected Pin Protocol Register Definitions */
1097:.\CMSIS\Core\Include/core_cm4.h **** #define TPI_SPPR_TXMODE_Pos                 0U                                         /*!< TPI SPP
1098:.\CMSIS\Core\Include/core_cm4.h **** #define TPI_SPPR_TXMODE_Msk                (0x3UL /*<< TPI_SPPR_TXMODE_Pos*/)          /*!< TPI SPP
1099:.\CMSIS\Core\Include/core_cm4.h **** 
1100:.\CMSIS\Core\Include/core_cm4.h **** /* TPI Formatter and Flush Status Register Definitions */
1101:.\CMSIS\Core\Include/core_cm4.h **** #define TPI_FFSR_FtNonStop_Pos              3U                                         /*!< TPI FFS
1102:.\CMSIS\Core\Include/core_cm4.h **** #define TPI_FFSR_FtNonStop_Msk             (0x1UL << TPI_FFSR_FtNonStop_Pos)           /*!< TPI FFS
1103:.\CMSIS\Core\Include/core_cm4.h **** 
1104:.\CMSIS\Core\Include/core_cm4.h **** #define TPI_FFSR_TCPresent_Pos              2U                                         /*!< TPI FFS
1105:.\CMSIS\Core\Include/core_cm4.h **** #define TPI_FFSR_TCPresent_Msk             (0x1UL << TPI_FFSR_TCPresent_Pos)           /*!< TPI FFS
1106:.\CMSIS\Core\Include/core_cm4.h **** 
1107:.\CMSIS\Core\Include/core_cm4.h **** #define TPI_FFSR_FtStopped_Pos              1U                                         /*!< TPI FFS
1108:.\CMSIS\Core\Include/core_cm4.h **** #define TPI_FFSR_FtStopped_Msk             (0x1UL << TPI_FFSR_FtStopped_Pos)           /*!< TPI FFS
1109:.\CMSIS\Core\Include/core_cm4.h **** 
1110:.\CMSIS\Core\Include/core_cm4.h **** #define TPI_FFSR_FlInProg_Pos               0U                                         /*!< TPI FFS
1111:.\CMSIS\Core\Include/core_cm4.h **** #define TPI_FFSR_FlInProg_Msk              (0x1UL /*<< TPI_FFSR_FlInProg_Pos*/)        /*!< TPI FFS
1112:.\CMSIS\Core\Include/core_cm4.h **** 
1113:.\CMSIS\Core\Include/core_cm4.h **** /* TPI Formatter and Flush Control Register Definitions */
1114:.\CMSIS\Core\Include/core_cm4.h **** #define TPI_FFCR_TrigIn_Pos                 8U                                         /*!< TPI FFC
1115:.\CMSIS\Core\Include/core_cm4.h **** #define TPI_FFCR_TrigIn_Msk                (0x1UL << TPI_FFCR_TrigIn_Pos)              /*!< TPI FFC
1116:.\CMSIS\Core\Include/core_cm4.h **** 
1117:.\CMSIS\Core\Include/core_cm4.h **** #define TPI_FFCR_EnFCont_Pos                1U                                         /*!< TPI FFC
1118:.\CMSIS\Core\Include/core_cm4.h **** #define TPI_FFCR_EnFCont_Msk               (0x1UL << TPI_FFCR_EnFCont_Pos)             /*!< TPI FFC
1119:.\CMSIS\Core\Include/core_cm4.h **** 
1120:.\CMSIS\Core\Include/core_cm4.h **** /* TPI TRIGGER Register Definitions */
1121:.\CMSIS\Core\Include/core_cm4.h **** #define TPI_TRIGGER_TRIGGER_Pos             0U                                         /*!< TPI TRI
1122:.\CMSIS\Core\Include/core_cm4.h **** #define TPI_TRIGGER_TRIGGER_Msk            (0x1UL /*<< TPI_TRIGGER_TRIGGER_Pos*/)      /*!< TPI TRI
1123:.\CMSIS\Core\Include/core_cm4.h **** 
1124:.\CMSIS\Core\Include/core_cm4.h **** /* TPI Integration ETM Data Register Definitions (FIFO0) */
1125:.\CMSIS\Core\Include/core_cm4.h **** #define TPI_FIFO0_ITM_ATVALID_Pos          29U                                         /*!< TPI FIF
1126:.\CMSIS\Core\Include/core_cm4.h **** #define TPI_FIFO0_ITM_ATVALID_Msk          (0x3UL << TPI_FIFO0_ITM_ATVALID_Pos)        /*!< TPI FIF
1127:.\CMSIS\Core\Include/core_cm4.h **** 
1128:.\CMSIS\Core\Include/core_cm4.h **** #define TPI_FIFO0_ITM_bytecount_Pos        27U                                         /*!< TPI FIF
1129:.\CMSIS\Core\Include/core_cm4.h **** #define TPI_FIFO0_ITM_bytecount_Msk        (0x3UL << TPI_FIFO0_ITM_bytecount_Pos)      /*!< TPI FIF
1130:.\CMSIS\Core\Include/core_cm4.h **** 
1131:.\CMSIS\Core\Include/core_cm4.h **** #define TPI_FIFO0_ETM_ATVALID_Pos          26U                                         /*!< TPI FIF
1132:.\CMSIS\Core\Include/core_cm4.h **** #define TPI_FIFO0_ETM_ATVALID_Msk          (0x3UL << TPI_FIFO0_ETM_ATVALID_Pos)        /*!< TPI FIF
1133:.\CMSIS\Core\Include/core_cm4.h **** 
1134:.\CMSIS\Core\Include/core_cm4.h **** #define TPI_FIFO0_ETM_bytecount_Pos        24U                                         /*!< TPI FIF
1135:.\CMSIS\Core\Include/core_cm4.h **** #define TPI_FIFO0_ETM_bytecount_Msk        (0x3UL << TPI_FIFO0_ETM_bytecount_Pos)      /*!< TPI FIF
1136:.\CMSIS\Core\Include/core_cm4.h **** 
1137:.\CMSIS\Core\Include/core_cm4.h **** #define TPI_FIFO0_ETM2_Pos                 16U                                         /*!< TPI FIF
1138:.\CMSIS\Core\Include/core_cm4.h **** #define TPI_FIFO0_ETM2_Msk                 (0xFFUL << TPI_FIFO0_ETM2_Pos)              /*!< TPI FIF
ARM GAS  C:\Users\nicpa\AppData\Local\Temp\ccPr5feD.s 			page 57


1139:.\CMSIS\Core\Include/core_cm4.h **** 
1140:.\CMSIS\Core\Include/core_cm4.h **** #define TPI_FIFO0_ETM1_Pos                  8U                                         /*!< TPI FIF
1141:.\CMSIS\Core\Include/core_cm4.h **** #define TPI_FIFO0_ETM1_Msk                 (0xFFUL << TPI_FIFO0_ETM1_Pos)              /*!< TPI FIF
1142:.\CMSIS\Core\Include/core_cm4.h **** 
1143:.\CMSIS\Core\Include/core_cm4.h **** #define TPI_FIFO0_ETM0_Pos                  0U                                         /*!< TPI FIF
1144:.\CMSIS\Core\Include/core_cm4.h **** #define TPI_FIFO0_ETM0_Msk                 (0xFFUL /*<< TPI_FIFO0_ETM0_Pos*/)          /*!< TPI FIF
1145:.\CMSIS\Core\Include/core_cm4.h **** 
1146:.\CMSIS\Core\Include/core_cm4.h **** /* TPI ITATBCTR2 Register Definitions */
1147:.\CMSIS\Core\Include/core_cm4.h **** #define TPI_ITATBCTR2_ATREADY_Pos           0U                                         /*!< TPI ITA
1148:.\CMSIS\Core\Include/core_cm4.h **** #define TPI_ITATBCTR2_ATREADY_Msk          (0x1UL /*<< TPI_ITATBCTR2_ATREADY_Pos*/)    /*!< TPI ITA
1149:.\CMSIS\Core\Include/core_cm4.h **** 
1150:.\CMSIS\Core\Include/core_cm4.h **** /* TPI Integration ITM Data Register Definitions (FIFO1) */
1151:.\CMSIS\Core\Include/core_cm4.h **** #define TPI_FIFO1_ITM_ATVALID_Pos          29U                                         /*!< TPI FIF
1152:.\CMSIS\Core\Include/core_cm4.h **** #define TPI_FIFO1_ITM_ATVALID_Msk          (0x3UL << TPI_FIFO1_ITM_ATVALID_Pos)        /*!< TPI FIF
1153:.\CMSIS\Core\Include/core_cm4.h **** 
1154:.\CMSIS\Core\Include/core_cm4.h **** #define TPI_FIFO1_ITM_bytecount_Pos        27U                                         /*!< TPI FIF
1155:.\CMSIS\Core\Include/core_cm4.h **** #define TPI_FIFO1_ITM_bytecount_Msk        (0x3UL << TPI_FIFO1_ITM_bytecount_Pos)      /*!< TPI FIF
1156:.\CMSIS\Core\Include/core_cm4.h **** 
1157:.\CMSIS\Core\Include/core_cm4.h **** #define TPI_FIFO1_ETM_ATVALID_Pos          26U                                         /*!< TPI FIF
1158:.\CMSIS\Core\Include/core_cm4.h **** #define TPI_FIFO1_ETM_ATVALID_Msk          (0x3UL << TPI_FIFO1_ETM_ATVALID_Pos)        /*!< TPI FIF
1159:.\CMSIS\Core\Include/core_cm4.h **** 
1160:.\CMSIS\Core\Include/core_cm4.h **** #define TPI_FIFO1_ETM_bytecount_Pos        24U                                         /*!< TPI FIF
1161:.\CMSIS\Core\Include/core_cm4.h **** #define TPI_FIFO1_ETM_bytecount_Msk        (0x3UL << TPI_FIFO1_ETM_bytecount_Pos)      /*!< TPI FIF
1162:.\CMSIS\Core\Include/core_cm4.h **** 
1163:.\CMSIS\Core\Include/core_cm4.h **** #define TPI_FIFO1_ITM2_Pos                 16U                                         /*!< TPI FIF
1164:.\CMSIS\Core\Include/core_cm4.h **** #define TPI_FIFO1_ITM2_Msk                 (0xFFUL << TPI_FIFO1_ITM2_Pos)              /*!< TPI FIF
1165:.\CMSIS\Core\Include/core_cm4.h **** 
1166:.\CMSIS\Core\Include/core_cm4.h **** #define TPI_FIFO1_ITM1_Pos                  8U                                         /*!< TPI FIF
1167:.\CMSIS\Core\Include/core_cm4.h **** #define TPI_FIFO1_ITM1_Msk                 (0xFFUL << TPI_FIFO1_ITM1_Pos)              /*!< TPI FIF
1168:.\CMSIS\Core\Include/core_cm4.h **** 
1169:.\CMSIS\Core\Include/core_cm4.h **** #define TPI_FIFO1_ITM0_Pos                  0U                                         /*!< TPI FIF
1170:.\CMSIS\Core\Include/core_cm4.h **** #define TPI_FIFO1_ITM0_Msk                 (0xFFUL /*<< TPI_FIFO1_ITM0_Pos*/)          /*!< TPI FIF
1171:.\CMSIS\Core\Include/core_cm4.h **** 
1172:.\CMSIS\Core\Include/core_cm4.h **** /* TPI ITATBCTR0 Register Definitions */
1173:.\CMSIS\Core\Include/core_cm4.h **** #define TPI_ITATBCTR0_ATREADY_Pos           0U                                         /*!< TPI ITA
1174:.\CMSIS\Core\Include/core_cm4.h **** #define TPI_ITATBCTR0_ATREADY_Msk          (0x1UL /*<< TPI_ITATBCTR0_ATREADY_Pos*/)    /*!< TPI ITA
1175:.\CMSIS\Core\Include/core_cm4.h **** 
1176:.\CMSIS\Core\Include/core_cm4.h **** /* TPI Integration Mode Control Register Definitions */
1177:.\CMSIS\Core\Include/core_cm4.h **** #define TPI_ITCTRL_Mode_Pos                 0U                                         /*!< TPI ITC
1178:.\CMSIS\Core\Include/core_cm4.h **** #define TPI_ITCTRL_Mode_Msk                (0x1UL /*<< TPI_ITCTRL_Mode_Pos*/)          /*!< TPI ITC
1179:.\CMSIS\Core\Include/core_cm4.h **** 
1180:.\CMSIS\Core\Include/core_cm4.h **** /* TPI DEVID Register Definitions */
1181:.\CMSIS\Core\Include/core_cm4.h **** #define TPI_DEVID_NRZVALID_Pos             11U                                         /*!< TPI DEV
1182:.\CMSIS\Core\Include/core_cm4.h **** #define TPI_DEVID_NRZVALID_Msk             (0x1UL << TPI_DEVID_NRZVALID_Pos)           /*!< TPI DEV
1183:.\CMSIS\Core\Include/core_cm4.h **** 
1184:.\CMSIS\Core\Include/core_cm4.h **** #define TPI_DEVID_MANCVALID_Pos            10U                                         /*!< TPI DEV
1185:.\CMSIS\Core\Include/core_cm4.h **** #define TPI_DEVID_MANCVALID_Msk            (0x1UL << TPI_DEVID_MANCVALID_Pos)          /*!< TPI DEV
1186:.\CMSIS\Core\Include/core_cm4.h **** 
1187:.\CMSIS\Core\Include/core_cm4.h **** #define TPI_DEVID_PTINVALID_Pos             9U                                         /*!< TPI DEV
1188:.\CMSIS\Core\Include/core_cm4.h **** #define TPI_DEVID_PTINVALID_Msk            (0x1UL << TPI_DEVID_PTINVALID_Pos)          /*!< TPI DEV
1189:.\CMSIS\Core\Include/core_cm4.h **** 
1190:.\CMSIS\Core\Include/core_cm4.h **** #define TPI_DEVID_MinBufSz_Pos              6U                                         /*!< TPI DEV
1191:.\CMSIS\Core\Include/core_cm4.h **** #define TPI_DEVID_MinBufSz_Msk             (0x7UL << TPI_DEVID_MinBufSz_Pos)           /*!< TPI DEV
1192:.\CMSIS\Core\Include/core_cm4.h **** 
1193:.\CMSIS\Core\Include/core_cm4.h **** #define TPI_DEVID_AsynClkIn_Pos             5U                                         /*!< TPI DEV
1194:.\CMSIS\Core\Include/core_cm4.h **** #define TPI_DEVID_AsynClkIn_Msk            (0x1UL << TPI_DEVID_AsynClkIn_Pos)          /*!< TPI DEV
1195:.\CMSIS\Core\Include/core_cm4.h **** 
ARM GAS  C:\Users\nicpa\AppData\Local\Temp\ccPr5feD.s 			page 58


1196:.\CMSIS\Core\Include/core_cm4.h **** #define TPI_DEVID_NrTraceInput_Pos          0U                                         /*!< TPI DEV
1197:.\CMSIS\Core\Include/core_cm4.h **** #define TPI_DEVID_NrTraceInput_Msk         (0x1FUL /*<< TPI_DEVID_NrTraceInput_Pos*/)  /*!< TPI DEV
1198:.\CMSIS\Core\Include/core_cm4.h **** 
1199:.\CMSIS\Core\Include/core_cm4.h **** /* TPI DEVTYPE Register Definitions */
1200:.\CMSIS\Core\Include/core_cm4.h **** #define TPI_DEVTYPE_MajorType_Pos           4U                                         /*!< TPI DEV
1201:.\CMSIS\Core\Include/core_cm4.h **** #define TPI_DEVTYPE_MajorType_Msk          (0xFUL << TPI_DEVTYPE_MajorType_Pos)        /*!< TPI DEV
1202:.\CMSIS\Core\Include/core_cm4.h **** 
1203:.\CMSIS\Core\Include/core_cm4.h **** #define TPI_DEVTYPE_SubType_Pos             0U                                         /*!< TPI DEV
1204:.\CMSIS\Core\Include/core_cm4.h **** #define TPI_DEVTYPE_SubType_Msk            (0xFUL /*<< TPI_DEVTYPE_SubType_Pos*/)      /*!< TPI DEV
1205:.\CMSIS\Core\Include/core_cm4.h **** 
1206:.\CMSIS\Core\Include/core_cm4.h **** /*@}*/ /* end of group CMSIS_TPI */
1207:.\CMSIS\Core\Include/core_cm4.h **** 
1208:.\CMSIS\Core\Include/core_cm4.h **** 
1209:.\CMSIS\Core\Include/core_cm4.h **** #if defined (__MPU_PRESENT) && (__MPU_PRESENT == 1U)
1210:.\CMSIS\Core\Include/core_cm4.h **** /**
1211:.\CMSIS\Core\Include/core_cm4.h ****   \ingroup  CMSIS_core_register
1212:.\CMSIS\Core\Include/core_cm4.h ****   \defgroup CMSIS_MPU     Memory Protection Unit (MPU)
1213:.\CMSIS\Core\Include/core_cm4.h ****   \brief    Type definitions for the Memory Protection Unit (MPU)
1214:.\CMSIS\Core\Include/core_cm4.h ****   @{
1215:.\CMSIS\Core\Include/core_cm4.h ****  */
1216:.\CMSIS\Core\Include/core_cm4.h **** 
1217:.\CMSIS\Core\Include/core_cm4.h **** /**
1218:.\CMSIS\Core\Include/core_cm4.h ****   \brief  Structure type to access the Memory Protection Unit (MPU).
1219:.\CMSIS\Core\Include/core_cm4.h ****  */
1220:.\CMSIS\Core\Include/core_cm4.h **** typedef struct
1221:.\CMSIS\Core\Include/core_cm4.h **** {
1222:.\CMSIS\Core\Include/core_cm4.h ****   __IM  uint32_t TYPE;                   /*!< Offset: 0x000 (R/ )  MPU Type Register */
1223:.\CMSIS\Core\Include/core_cm4.h ****   __IOM uint32_t CTRL;                   /*!< Offset: 0x004 (R/W)  MPU Control Register */
1224:.\CMSIS\Core\Include/core_cm4.h ****   __IOM uint32_t RNR;                    /*!< Offset: 0x008 (R/W)  MPU Region RNRber Register */
1225:.\CMSIS\Core\Include/core_cm4.h ****   __IOM uint32_t RBAR;                   /*!< Offset: 0x00C (R/W)  MPU Region Base Address Register
1226:.\CMSIS\Core\Include/core_cm4.h ****   __IOM uint32_t RASR;                   /*!< Offset: 0x010 (R/W)  MPU Region Attribute and Size Re
1227:.\CMSIS\Core\Include/core_cm4.h ****   __IOM uint32_t RBAR_A1;                /*!< Offset: 0x014 (R/W)  MPU Alias 1 Region Base Address 
1228:.\CMSIS\Core\Include/core_cm4.h ****   __IOM uint32_t RASR_A1;                /*!< Offset: 0x018 (R/W)  MPU Alias 1 Region Attribute and
1229:.\CMSIS\Core\Include/core_cm4.h ****   __IOM uint32_t RBAR_A2;                /*!< Offset: 0x01C (R/W)  MPU Alias 2 Region Base Address 
1230:.\CMSIS\Core\Include/core_cm4.h ****   __IOM uint32_t RASR_A2;                /*!< Offset: 0x020 (R/W)  MPU Alias 2 Region Attribute and
1231:.\CMSIS\Core\Include/core_cm4.h ****   __IOM uint32_t RBAR_A3;                /*!< Offset: 0x024 (R/W)  MPU Alias 3 Region Base Address 
1232:.\CMSIS\Core\Include/core_cm4.h ****   __IOM uint32_t RASR_A3;                /*!< Offset: 0x028 (R/W)  MPU Alias 3 Region Attribute and
1233:.\CMSIS\Core\Include/core_cm4.h **** } MPU_Type;
1234:.\CMSIS\Core\Include/core_cm4.h **** 
1235:.\CMSIS\Core\Include/core_cm4.h **** #define MPU_TYPE_RALIASES                  4U
1236:.\CMSIS\Core\Include/core_cm4.h **** 
1237:.\CMSIS\Core\Include/core_cm4.h **** /* MPU Type Register Definitions */
1238:.\CMSIS\Core\Include/core_cm4.h **** #define MPU_TYPE_IREGION_Pos               16U                                            /*!< MPU 
1239:.\CMSIS\Core\Include/core_cm4.h **** #define MPU_TYPE_IREGION_Msk               (0xFFUL << MPU_TYPE_IREGION_Pos)               /*!< MPU 
1240:.\CMSIS\Core\Include/core_cm4.h **** 
1241:.\CMSIS\Core\Include/core_cm4.h **** #define MPU_TYPE_DREGION_Pos                8U                                            /*!< MPU 
1242:.\CMSIS\Core\Include/core_cm4.h **** #define MPU_TYPE_DREGION_Msk               (0xFFUL << MPU_TYPE_DREGION_Pos)               /*!< MPU 
1243:.\CMSIS\Core\Include/core_cm4.h **** 
1244:.\CMSIS\Core\Include/core_cm4.h **** #define MPU_TYPE_SEPARATE_Pos               0U                                            /*!< MPU 
1245:.\CMSIS\Core\Include/core_cm4.h **** #define MPU_TYPE_SEPARATE_Msk              (1UL /*<< MPU_TYPE_SEPARATE_Pos*/)             /*!< MPU 
1246:.\CMSIS\Core\Include/core_cm4.h **** 
1247:.\CMSIS\Core\Include/core_cm4.h **** /* MPU Control Register Definitions */
1248:.\CMSIS\Core\Include/core_cm4.h **** #define MPU_CTRL_PRIVDEFENA_Pos             2U                                            /*!< MPU 
1249:.\CMSIS\Core\Include/core_cm4.h **** #define MPU_CTRL_PRIVDEFENA_Msk            (1UL << MPU_CTRL_PRIVDEFENA_Pos)               /*!< MPU 
1250:.\CMSIS\Core\Include/core_cm4.h **** 
1251:.\CMSIS\Core\Include/core_cm4.h **** #define MPU_CTRL_HFNMIENA_Pos               1U                                            /*!< MPU 
1252:.\CMSIS\Core\Include/core_cm4.h **** #define MPU_CTRL_HFNMIENA_Msk              (1UL << MPU_CTRL_HFNMIENA_Pos)                 /*!< MPU 
ARM GAS  C:\Users\nicpa\AppData\Local\Temp\ccPr5feD.s 			page 59


1253:.\CMSIS\Core\Include/core_cm4.h **** 
1254:.\CMSIS\Core\Include/core_cm4.h **** #define MPU_CTRL_ENABLE_Pos                 0U                                            /*!< MPU 
1255:.\CMSIS\Core\Include/core_cm4.h **** #define MPU_CTRL_ENABLE_Msk                (1UL /*<< MPU_CTRL_ENABLE_Pos*/)               /*!< MPU 
1256:.\CMSIS\Core\Include/core_cm4.h **** 
1257:.\CMSIS\Core\Include/core_cm4.h **** /* MPU Region Number Register Definitions */
1258:.\CMSIS\Core\Include/core_cm4.h **** #define MPU_RNR_REGION_Pos                  0U                                            /*!< MPU 
1259:.\CMSIS\Core\Include/core_cm4.h **** #define MPU_RNR_REGION_Msk                 (0xFFUL /*<< MPU_RNR_REGION_Pos*/)             /*!< MPU 
1260:.\CMSIS\Core\Include/core_cm4.h **** 
1261:.\CMSIS\Core\Include/core_cm4.h **** /* MPU Region Base Address Register Definitions */
1262:.\CMSIS\Core\Include/core_cm4.h **** #define MPU_RBAR_ADDR_Pos                   5U                                            /*!< MPU 
1263:.\CMSIS\Core\Include/core_cm4.h **** #define MPU_RBAR_ADDR_Msk                  (0x7FFFFFFUL << MPU_RBAR_ADDR_Pos)             /*!< MPU 
1264:.\CMSIS\Core\Include/core_cm4.h **** 
1265:.\CMSIS\Core\Include/core_cm4.h **** #define MPU_RBAR_VALID_Pos                  4U                                            /*!< MPU 
1266:.\CMSIS\Core\Include/core_cm4.h **** #define MPU_RBAR_VALID_Msk                 (1UL << MPU_RBAR_VALID_Pos)                    /*!< MPU 
1267:.\CMSIS\Core\Include/core_cm4.h **** 
1268:.\CMSIS\Core\Include/core_cm4.h **** #define MPU_RBAR_REGION_Pos                 0U                                            /*!< MPU 
1269:.\CMSIS\Core\Include/core_cm4.h **** #define MPU_RBAR_REGION_Msk                (0xFUL /*<< MPU_RBAR_REGION_Pos*/)             /*!< MPU 
1270:.\CMSIS\Core\Include/core_cm4.h **** 
1271:.\CMSIS\Core\Include/core_cm4.h **** /* MPU Region Attribute and Size Register Definitions */
1272:.\CMSIS\Core\Include/core_cm4.h **** #define MPU_RASR_ATTRS_Pos                 16U                                            /*!< MPU 
1273:.\CMSIS\Core\Include/core_cm4.h **** #define MPU_RASR_ATTRS_Msk                 (0xFFFFUL << MPU_RASR_ATTRS_Pos)               /*!< MPU 
1274:.\CMSIS\Core\Include/core_cm4.h **** 
1275:.\CMSIS\Core\Include/core_cm4.h **** #define MPU_RASR_XN_Pos                    28U                                            /*!< MPU 
1276:.\CMSIS\Core\Include/core_cm4.h **** #define MPU_RASR_XN_Msk                    (1UL << MPU_RASR_XN_Pos)                       /*!< MPU 
1277:.\CMSIS\Core\Include/core_cm4.h **** 
1278:.\CMSIS\Core\Include/core_cm4.h **** #define MPU_RASR_AP_Pos                    24U                                            /*!< MPU 
1279:.\CMSIS\Core\Include/core_cm4.h **** #define MPU_RASR_AP_Msk                    (0x7UL << MPU_RASR_AP_Pos)                     /*!< MPU 
1280:.\CMSIS\Core\Include/core_cm4.h **** 
1281:.\CMSIS\Core\Include/core_cm4.h **** #define MPU_RASR_TEX_Pos                   19U                                            /*!< MPU 
1282:.\CMSIS\Core\Include/core_cm4.h **** #define MPU_RASR_TEX_Msk                   (0x7UL << MPU_RASR_TEX_Pos)                    /*!< MPU 
1283:.\CMSIS\Core\Include/core_cm4.h **** 
1284:.\CMSIS\Core\Include/core_cm4.h **** #define MPU_RASR_S_Pos                     18U                                            /*!< MPU 
1285:.\CMSIS\Core\Include/core_cm4.h **** #define MPU_RASR_S_Msk                     (1UL << MPU_RASR_S_Pos)                        /*!< MPU 
1286:.\CMSIS\Core\Include/core_cm4.h **** 
1287:.\CMSIS\Core\Include/core_cm4.h **** #define MPU_RASR_C_Pos                     17U                                            /*!< MPU 
1288:.\CMSIS\Core\Include/core_cm4.h **** #define MPU_RASR_C_Msk                     (1UL << MPU_RASR_C_Pos)                        /*!< MPU 
1289:.\CMSIS\Core\Include/core_cm4.h **** 
1290:.\CMSIS\Core\Include/core_cm4.h **** #define MPU_RASR_B_Pos                     16U                                            /*!< MPU 
1291:.\CMSIS\Core\Include/core_cm4.h **** #define MPU_RASR_B_Msk                     (1UL << MPU_RASR_B_Pos)                        /*!< MPU 
1292:.\CMSIS\Core\Include/core_cm4.h **** 
1293:.\CMSIS\Core\Include/core_cm4.h **** #define MPU_RASR_SRD_Pos                    8U                                            /*!< MPU 
1294:.\CMSIS\Core\Include/core_cm4.h **** #define MPU_RASR_SRD_Msk                   (0xFFUL << MPU_RASR_SRD_Pos)                   /*!< MPU 
1295:.\CMSIS\Core\Include/core_cm4.h **** 
1296:.\CMSIS\Core\Include/core_cm4.h **** #define MPU_RASR_SIZE_Pos                   1U                                            /*!< MPU 
1297:.\CMSIS\Core\Include/core_cm4.h **** #define MPU_RASR_SIZE_Msk                  (0x1FUL << MPU_RASR_SIZE_Pos)                  /*!< MPU 
1298:.\CMSIS\Core\Include/core_cm4.h **** 
1299:.\CMSIS\Core\Include/core_cm4.h **** #define MPU_RASR_ENABLE_Pos                 0U                                            /*!< MPU 
1300:.\CMSIS\Core\Include/core_cm4.h **** #define MPU_RASR_ENABLE_Msk                (1UL /*<< MPU_RASR_ENABLE_Pos*/)               /*!< MPU 
1301:.\CMSIS\Core\Include/core_cm4.h **** 
1302:.\CMSIS\Core\Include/core_cm4.h **** /*@} end of group CMSIS_MPU */
1303:.\CMSIS\Core\Include/core_cm4.h **** #endif /* defined (__MPU_PRESENT) && (__MPU_PRESENT == 1U) */
1304:.\CMSIS\Core\Include/core_cm4.h **** 
1305:.\CMSIS\Core\Include/core_cm4.h **** 
1306:.\CMSIS\Core\Include/core_cm4.h **** /**
1307:.\CMSIS\Core\Include/core_cm4.h ****   \ingroup  CMSIS_core_register
1308:.\CMSIS\Core\Include/core_cm4.h ****   \defgroup CMSIS_FPU     Floating Point Unit (FPU)
1309:.\CMSIS\Core\Include/core_cm4.h ****   \brief    Type definitions for the Floating Point Unit (FPU)
ARM GAS  C:\Users\nicpa\AppData\Local\Temp\ccPr5feD.s 			page 60


1310:.\CMSIS\Core\Include/core_cm4.h ****   @{
1311:.\CMSIS\Core\Include/core_cm4.h ****  */
1312:.\CMSIS\Core\Include/core_cm4.h **** 
1313:.\CMSIS\Core\Include/core_cm4.h **** /**
1314:.\CMSIS\Core\Include/core_cm4.h ****   \brief  Structure type to access the Floating Point Unit (FPU).
1315:.\CMSIS\Core\Include/core_cm4.h ****  */
1316:.\CMSIS\Core\Include/core_cm4.h **** typedef struct
1317:.\CMSIS\Core\Include/core_cm4.h **** {
1318:.\CMSIS\Core\Include/core_cm4.h ****         uint32_t RESERVED0[1U];
1319:.\CMSIS\Core\Include/core_cm4.h ****   __IOM uint32_t FPCCR;                  /*!< Offset: 0x004 (R/W)  Floating-Point Context Control R
1320:.\CMSIS\Core\Include/core_cm4.h ****   __IOM uint32_t FPCAR;                  /*!< Offset: 0x008 (R/W)  Floating-Point Context Address R
1321:.\CMSIS\Core\Include/core_cm4.h ****   __IOM uint32_t FPDSCR;                 /*!< Offset: 0x00C (R/W)  Floating-Point Default Status Co
1322:.\CMSIS\Core\Include/core_cm4.h ****   __IM  uint32_t MVFR0;                  /*!< Offset: 0x010 (R/ )  Media and FP Feature Register 0 
1323:.\CMSIS\Core\Include/core_cm4.h ****   __IM  uint32_t MVFR1;                  /*!< Offset: 0x014 (R/ )  Media and FP Feature Register 1 
1324:.\CMSIS\Core\Include/core_cm4.h **** } FPU_Type;
1325:.\CMSIS\Core\Include/core_cm4.h **** 
1326:.\CMSIS\Core\Include/core_cm4.h **** /* Floating-Point Context Control Register Definitions */
1327:.\CMSIS\Core\Include/core_cm4.h **** #define FPU_FPCCR_ASPEN_Pos                31U                                            /*!< FPCC
1328:.\CMSIS\Core\Include/core_cm4.h **** #define FPU_FPCCR_ASPEN_Msk                (1UL << FPU_FPCCR_ASPEN_Pos)                   /*!< FPCC
1329:.\CMSIS\Core\Include/core_cm4.h **** 
1330:.\CMSIS\Core\Include/core_cm4.h **** #define FPU_FPCCR_LSPEN_Pos                30U                                            /*!< FPCC
1331:.\CMSIS\Core\Include/core_cm4.h **** #define FPU_FPCCR_LSPEN_Msk                (1UL << FPU_FPCCR_LSPEN_Pos)                   /*!< FPCC
1332:.\CMSIS\Core\Include/core_cm4.h **** 
1333:.\CMSIS\Core\Include/core_cm4.h **** #define FPU_FPCCR_MONRDY_Pos                8U                                            /*!< FPCC
1334:.\CMSIS\Core\Include/core_cm4.h **** #define FPU_FPCCR_MONRDY_Msk               (1UL << FPU_FPCCR_MONRDY_Pos)                  /*!< FPCC
1335:.\CMSIS\Core\Include/core_cm4.h **** 
1336:.\CMSIS\Core\Include/core_cm4.h **** #define FPU_FPCCR_BFRDY_Pos                 6U                                            /*!< FPCC
1337:.\CMSIS\Core\Include/core_cm4.h **** #define FPU_FPCCR_BFRDY_Msk                (1UL << FPU_FPCCR_BFRDY_Pos)                   /*!< FPCC
1338:.\CMSIS\Core\Include/core_cm4.h **** 
1339:.\CMSIS\Core\Include/core_cm4.h **** #define FPU_FPCCR_MMRDY_Pos                 5U                                            /*!< FPCC
1340:.\CMSIS\Core\Include/core_cm4.h **** #define FPU_FPCCR_MMRDY_Msk                (1UL << FPU_FPCCR_MMRDY_Pos)                   /*!< FPCC
1341:.\CMSIS\Core\Include/core_cm4.h **** 
1342:.\CMSIS\Core\Include/core_cm4.h **** #define FPU_FPCCR_HFRDY_Pos                 4U                                            /*!< FPCC
1343:.\CMSIS\Core\Include/core_cm4.h **** #define FPU_FPCCR_HFRDY_Msk                (1UL << FPU_FPCCR_HFRDY_Pos)                   /*!< FPCC
1344:.\CMSIS\Core\Include/core_cm4.h **** 
1345:.\CMSIS\Core\Include/core_cm4.h **** #define FPU_FPCCR_THREAD_Pos                3U                                            /*!< FPCC
1346:.\CMSIS\Core\Include/core_cm4.h **** #define FPU_FPCCR_THREAD_Msk               (1UL << FPU_FPCCR_THREAD_Pos)                  /*!< FPCC
1347:.\CMSIS\Core\Include/core_cm4.h **** 
1348:.\CMSIS\Core\Include/core_cm4.h **** #define FPU_FPCCR_USER_Pos                  1U                                            /*!< FPCC
1349:.\CMSIS\Core\Include/core_cm4.h **** #define FPU_FPCCR_USER_Msk                 (1UL << FPU_FPCCR_USER_Pos)                    /*!< FPCC
1350:.\CMSIS\Core\Include/core_cm4.h **** 
1351:.\CMSIS\Core\Include/core_cm4.h **** #define FPU_FPCCR_LSPACT_Pos                0U                                            /*!< FPCC
1352:.\CMSIS\Core\Include/core_cm4.h **** #define FPU_FPCCR_LSPACT_Msk               (1UL /*<< FPU_FPCCR_LSPACT_Pos*/)              /*!< FPCC
1353:.\CMSIS\Core\Include/core_cm4.h **** 
1354:.\CMSIS\Core\Include/core_cm4.h **** /* Floating-Point Context Address Register Definitions */
1355:.\CMSIS\Core\Include/core_cm4.h **** #define FPU_FPCAR_ADDRESS_Pos               3U                                            /*!< FPCA
1356:.\CMSIS\Core\Include/core_cm4.h **** #define FPU_FPCAR_ADDRESS_Msk              (0x1FFFFFFFUL << FPU_FPCAR_ADDRESS_Pos)        /*!< FPCA
1357:.\CMSIS\Core\Include/core_cm4.h **** 
1358:.\CMSIS\Core\Include/core_cm4.h **** /* Floating-Point Default Status Control Register Definitions */
1359:.\CMSIS\Core\Include/core_cm4.h **** #define FPU_FPDSCR_AHP_Pos                 26U                                            /*!< FPDS
1360:.\CMSIS\Core\Include/core_cm4.h **** #define FPU_FPDSCR_AHP_Msk                 (1UL << FPU_FPDSCR_AHP_Pos)                    /*!< FPDS
1361:.\CMSIS\Core\Include/core_cm4.h **** 
1362:.\CMSIS\Core\Include/core_cm4.h **** #define FPU_FPDSCR_DN_Pos                  25U                                            /*!< FPDS
1363:.\CMSIS\Core\Include/core_cm4.h **** #define FPU_FPDSCR_DN_Msk                  (1UL << FPU_FPDSCR_DN_Pos)                     /*!< FPDS
1364:.\CMSIS\Core\Include/core_cm4.h **** 
1365:.\CMSIS\Core\Include/core_cm4.h **** #define FPU_FPDSCR_FZ_Pos                  24U                                            /*!< FPDS
1366:.\CMSIS\Core\Include/core_cm4.h **** #define FPU_FPDSCR_FZ_Msk                  (1UL << FPU_FPDSCR_FZ_Pos)                     /*!< FPDS
ARM GAS  C:\Users\nicpa\AppData\Local\Temp\ccPr5feD.s 			page 61


1367:.\CMSIS\Core\Include/core_cm4.h **** 
1368:.\CMSIS\Core\Include/core_cm4.h **** #define FPU_FPDSCR_RMode_Pos               22U                                            /*!< FPDS
1369:.\CMSIS\Core\Include/core_cm4.h **** #define FPU_FPDSCR_RMode_Msk               (3UL << FPU_FPDSCR_RMode_Pos)                  /*!< FPDS
1370:.\CMSIS\Core\Include/core_cm4.h **** 
1371:.\CMSIS\Core\Include/core_cm4.h **** /* Media and FP Feature Register 0 Definitions */
1372:.\CMSIS\Core\Include/core_cm4.h **** #define FPU_MVFR0_FP_rounding_modes_Pos    28U                                            /*!< MVFR
1373:.\CMSIS\Core\Include/core_cm4.h **** #define FPU_MVFR0_FP_rounding_modes_Msk    (0xFUL << FPU_MVFR0_FP_rounding_modes_Pos)     /*!< MVFR
1374:.\CMSIS\Core\Include/core_cm4.h **** 
1375:.\CMSIS\Core\Include/core_cm4.h **** #define FPU_MVFR0_Short_vectors_Pos        24U                                            /*!< MVFR
1376:.\CMSIS\Core\Include/core_cm4.h **** #define FPU_MVFR0_Short_vectors_Msk        (0xFUL << FPU_MVFR0_Short_vectors_Pos)         /*!< MVFR
1377:.\CMSIS\Core\Include/core_cm4.h **** 
1378:.\CMSIS\Core\Include/core_cm4.h **** #define FPU_MVFR0_Square_root_Pos          20U                                            /*!< MVFR
1379:.\CMSIS\Core\Include/core_cm4.h **** #define FPU_MVFR0_Square_root_Msk          (0xFUL << FPU_MVFR0_Square_root_Pos)           /*!< MVFR
1380:.\CMSIS\Core\Include/core_cm4.h **** 
1381:.\CMSIS\Core\Include/core_cm4.h **** #define FPU_MVFR0_Divide_Pos               16U                                            /*!< MVFR
1382:.\CMSIS\Core\Include/core_cm4.h **** #define FPU_MVFR0_Divide_Msk               (0xFUL << FPU_MVFR0_Divide_Pos)                /*!< MVFR
1383:.\CMSIS\Core\Include/core_cm4.h **** 
1384:.\CMSIS\Core\Include/core_cm4.h **** #define FPU_MVFR0_FP_excep_trapping_Pos    12U                                            /*!< MVFR
1385:.\CMSIS\Core\Include/core_cm4.h **** #define FPU_MVFR0_FP_excep_trapping_Msk    (0xFUL << FPU_MVFR0_FP_excep_trapping_Pos)     /*!< MVFR
1386:.\CMSIS\Core\Include/core_cm4.h **** 
1387:.\CMSIS\Core\Include/core_cm4.h **** #define FPU_MVFR0_Double_precision_Pos      8U                                            /*!< MVFR
1388:.\CMSIS\Core\Include/core_cm4.h **** #define FPU_MVFR0_Double_precision_Msk     (0xFUL << FPU_MVFR0_Double_precision_Pos)      /*!< MVFR
1389:.\CMSIS\Core\Include/core_cm4.h **** 
1390:.\CMSIS\Core\Include/core_cm4.h **** #define FPU_MVFR0_Single_precision_Pos      4U                                            /*!< MVFR
1391:.\CMSIS\Core\Include/core_cm4.h **** #define FPU_MVFR0_Single_precision_Msk     (0xFUL << FPU_MVFR0_Single_precision_Pos)      /*!< MVFR
1392:.\CMSIS\Core\Include/core_cm4.h **** 
1393:.\CMSIS\Core\Include/core_cm4.h **** #define FPU_MVFR0_A_SIMD_registers_Pos      0U                                            /*!< MVFR
1394:.\CMSIS\Core\Include/core_cm4.h **** #define FPU_MVFR0_A_SIMD_registers_Msk     (0xFUL /*<< FPU_MVFR0_A_SIMD_registers_Pos*/)  /*!< MVFR
1395:.\CMSIS\Core\Include/core_cm4.h **** 
1396:.\CMSIS\Core\Include/core_cm4.h **** /* Media and FP Feature Register 1 Definitions */
1397:.\CMSIS\Core\Include/core_cm4.h **** #define FPU_MVFR1_FP_fused_MAC_Pos         28U                                            /*!< MVFR
1398:.\CMSIS\Core\Include/core_cm4.h **** #define FPU_MVFR1_FP_fused_MAC_Msk         (0xFUL << FPU_MVFR1_FP_fused_MAC_Pos)          /*!< MVFR
1399:.\CMSIS\Core\Include/core_cm4.h **** 
1400:.\CMSIS\Core\Include/core_cm4.h **** #define FPU_MVFR1_FP_HPFP_Pos              24U                                            /*!< MVFR
1401:.\CMSIS\Core\Include/core_cm4.h **** #define FPU_MVFR1_FP_HPFP_Msk              (0xFUL << FPU_MVFR1_FP_HPFP_Pos)               /*!< MVFR
1402:.\CMSIS\Core\Include/core_cm4.h **** 
1403:.\CMSIS\Core\Include/core_cm4.h **** #define FPU_MVFR1_D_NaN_mode_Pos            4U                                            /*!< MVFR
1404:.\CMSIS\Core\Include/core_cm4.h **** #define FPU_MVFR1_D_NaN_mode_Msk           (0xFUL << FPU_MVFR1_D_NaN_mode_Pos)            /*!< MVFR
1405:.\CMSIS\Core\Include/core_cm4.h **** 
1406:.\CMSIS\Core\Include/core_cm4.h **** #define FPU_MVFR1_FtZ_mode_Pos              0U                                            /*!< MVFR
1407:.\CMSIS\Core\Include/core_cm4.h **** #define FPU_MVFR1_FtZ_mode_Msk             (0xFUL /*<< FPU_MVFR1_FtZ_mode_Pos*/)          /*!< MVFR
1408:.\CMSIS\Core\Include/core_cm4.h **** 
1409:.\CMSIS\Core\Include/core_cm4.h **** /*@} end of group CMSIS_FPU */
1410:.\CMSIS\Core\Include/core_cm4.h **** 
1411:.\CMSIS\Core\Include/core_cm4.h **** 
1412:.\CMSIS\Core\Include/core_cm4.h **** /**
1413:.\CMSIS\Core\Include/core_cm4.h ****   \ingroup  CMSIS_core_register
1414:.\CMSIS\Core\Include/core_cm4.h ****   \defgroup CMSIS_CoreDebug       Core Debug Registers (CoreDebug)
1415:.\CMSIS\Core\Include/core_cm4.h ****   \brief    Type definitions for the Core Debug Registers
1416:.\CMSIS\Core\Include/core_cm4.h ****   @{
1417:.\CMSIS\Core\Include/core_cm4.h ****  */
1418:.\CMSIS\Core\Include/core_cm4.h **** 
1419:.\CMSIS\Core\Include/core_cm4.h **** /**
1420:.\CMSIS\Core\Include/core_cm4.h ****   \brief  Structure type to access the Core Debug Register (CoreDebug).
1421:.\CMSIS\Core\Include/core_cm4.h ****  */
1422:.\CMSIS\Core\Include/core_cm4.h **** typedef struct
1423:.\CMSIS\Core\Include/core_cm4.h **** {
ARM GAS  C:\Users\nicpa\AppData\Local\Temp\ccPr5feD.s 			page 62


1424:.\CMSIS\Core\Include/core_cm4.h ****   __IOM uint32_t DHCSR;                  /*!< Offset: 0x000 (R/W)  Debug Halting Control and Status
1425:.\CMSIS\Core\Include/core_cm4.h ****   __OM  uint32_t DCRSR;                  /*!< Offset: 0x004 ( /W)  Debug Core Register Selector Reg
1426:.\CMSIS\Core\Include/core_cm4.h ****   __IOM uint32_t DCRDR;                  /*!< Offset: 0x008 (R/W)  Debug Core Register Data Registe
1427:.\CMSIS\Core\Include/core_cm4.h ****   __IOM uint32_t DEMCR;                  /*!< Offset: 0x00C (R/W)  Debug Exception and Monitor Cont
1428:.\CMSIS\Core\Include/core_cm4.h **** } CoreDebug_Type;
1429:.\CMSIS\Core\Include/core_cm4.h **** 
1430:.\CMSIS\Core\Include/core_cm4.h **** /* Debug Halting Control and Status Register Definitions */
1431:.\CMSIS\Core\Include/core_cm4.h **** #define CoreDebug_DHCSR_DBGKEY_Pos         16U                                            /*!< Core
1432:.\CMSIS\Core\Include/core_cm4.h **** #define CoreDebug_DHCSR_DBGKEY_Msk         (0xFFFFUL << CoreDebug_DHCSR_DBGKEY_Pos)       /*!< Core
1433:.\CMSIS\Core\Include/core_cm4.h **** 
1434:.\CMSIS\Core\Include/core_cm4.h **** #define CoreDebug_DHCSR_S_RESET_ST_Pos     25U                                            /*!< Core
1435:.\CMSIS\Core\Include/core_cm4.h **** #define CoreDebug_DHCSR_S_RESET_ST_Msk     (1UL << CoreDebug_DHCSR_S_RESET_ST_Pos)        /*!< Core
1436:.\CMSIS\Core\Include/core_cm4.h **** 
1437:.\CMSIS\Core\Include/core_cm4.h **** #define CoreDebug_DHCSR_S_RETIRE_ST_Pos    24U                                            /*!< Core
1438:.\CMSIS\Core\Include/core_cm4.h **** #define CoreDebug_DHCSR_S_RETIRE_ST_Msk    (1UL << CoreDebug_DHCSR_S_RETIRE_ST_Pos)       /*!< Core
1439:.\CMSIS\Core\Include/core_cm4.h **** 
1440:.\CMSIS\Core\Include/core_cm4.h **** #define CoreDebug_DHCSR_S_LOCKUP_Pos       19U                                            /*!< Core
1441:.\CMSIS\Core\Include/core_cm4.h **** #define CoreDebug_DHCSR_S_LOCKUP_Msk       (1UL << CoreDebug_DHCSR_S_LOCKUP_Pos)          /*!< Core
1442:.\CMSIS\Core\Include/core_cm4.h **** 
1443:.\CMSIS\Core\Include/core_cm4.h **** #define CoreDebug_DHCSR_S_SLEEP_Pos        18U                                            /*!< Core
1444:.\CMSIS\Core\Include/core_cm4.h **** #define CoreDebug_DHCSR_S_SLEEP_Msk        (1UL << CoreDebug_DHCSR_S_SLEEP_Pos)           /*!< Core
1445:.\CMSIS\Core\Include/core_cm4.h **** 
1446:.\CMSIS\Core\Include/core_cm4.h **** #define CoreDebug_DHCSR_S_HALT_Pos         17U                                            /*!< Core
1447:.\CMSIS\Core\Include/core_cm4.h **** #define CoreDebug_DHCSR_S_HALT_Msk         (1UL << CoreDebug_DHCSR_S_HALT_Pos)            /*!< Core
1448:.\CMSIS\Core\Include/core_cm4.h **** 
1449:.\CMSIS\Core\Include/core_cm4.h **** #define CoreDebug_DHCSR_S_REGRDY_Pos       16U                                            /*!< Core
1450:.\CMSIS\Core\Include/core_cm4.h **** #define CoreDebug_DHCSR_S_REGRDY_Msk       (1UL << CoreDebug_DHCSR_S_REGRDY_Pos)          /*!< Core
1451:.\CMSIS\Core\Include/core_cm4.h **** 
1452:.\CMSIS\Core\Include/core_cm4.h **** #define CoreDebug_DHCSR_C_SNAPSTALL_Pos     5U                                            /*!< Core
1453:.\CMSIS\Core\Include/core_cm4.h **** #define CoreDebug_DHCSR_C_SNAPSTALL_Msk    (1UL << CoreDebug_DHCSR_C_SNAPSTALL_Pos)       /*!< Core
1454:.\CMSIS\Core\Include/core_cm4.h **** 
1455:.\CMSIS\Core\Include/core_cm4.h **** #define CoreDebug_DHCSR_C_MASKINTS_Pos      3U                                            /*!< Core
1456:.\CMSIS\Core\Include/core_cm4.h **** #define CoreDebug_DHCSR_C_MASKINTS_Msk     (1UL << CoreDebug_DHCSR_C_MASKINTS_Pos)        /*!< Core
1457:.\CMSIS\Core\Include/core_cm4.h **** 
1458:.\CMSIS\Core\Include/core_cm4.h **** #define CoreDebug_DHCSR_C_STEP_Pos          2U                                            /*!< Core
1459:.\CMSIS\Core\Include/core_cm4.h **** #define CoreDebug_DHCSR_C_STEP_Msk         (1UL << CoreDebug_DHCSR_C_STEP_Pos)            /*!< Core
1460:.\CMSIS\Core\Include/core_cm4.h **** 
1461:.\CMSIS\Core\Include/core_cm4.h **** #define CoreDebug_DHCSR_C_HALT_Pos          1U                                            /*!< Core
1462:.\CMSIS\Core\Include/core_cm4.h **** #define CoreDebug_DHCSR_C_HALT_Msk         (1UL << CoreDebug_DHCSR_C_HALT_Pos)            /*!< Core
1463:.\CMSIS\Core\Include/core_cm4.h **** 
1464:.\CMSIS\Core\Include/core_cm4.h **** #define CoreDebug_DHCSR_C_DEBUGEN_Pos       0U                                            /*!< Core
1465:.\CMSIS\Core\Include/core_cm4.h **** #define CoreDebug_DHCSR_C_DEBUGEN_Msk      (1UL /*<< CoreDebug_DHCSR_C_DEBUGEN_Pos*/)     /*!< Core
1466:.\CMSIS\Core\Include/core_cm4.h **** 
1467:.\CMSIS\Core\Include/core_cm4.h **** /* Debug Core Register Selector Register Definitions */
1468:.\CMSIS\Core\Include/core_cm4.h **** #define CoreDebug_DCRSR_REGWnR_Pos         16U                                            /*!< Core
1469:.\CMSIS\Core\Include/core_cm4.h **** #define CoreDebug_DCRSR_REGWnR_Msk         (1UL << CoreDebug_DCRSR_REGWnR_Pos)            /*!< Core
1470:.\CMSIS\Core\Include/core_cm4.h **** 
1471:.\CMSIS\Core\Include/core_cm4.h **** #define CoreDebug_DCRSR_REGSEL_Pos          0U                                            /*!< Core
1472:.\CMSIS\Core\Include/core_cm4.h **** #define CoreDebug_DCRSR_REGSEL_Msk         (0x1FUL /*<< CoreDebug_DCRSR_REGSEL_Pos*/)     /*!< Core
1473:.\CMSIS\Core\Include/core_cm4.h **** 
1474:.\CMSIS\Core\Include/core_cm4.h **** /* Debug Exception and Monitor Control Register Definitions */
1475:.\CMSIS\Core\Include/core_cm4.h **** #define CoreDebug_DEMCR_TRCENA_Pos         24U                                            /*!< Core
1476:.\CMSIS\Core\Include/core_cm4.h **** #define CoreDebug_DEMCR_TRCENA_Msk         (1UL << CoreDebug_DEMCR_TRCENA_Pos)            /*!< Core
1477:.\CMSIS\Core\Include/core_cm4.h **** 
1478:.\CMSIS\Core\Include/core_cm4.h **** #define CoreDebug_DEMCR_MON_REQ_Pos        19U                                            /*!< Core
1479:.\CMSIS\Core\Include/core_cm4.h **** #define CoreDebug_DEMCR_MON_REQ_Msk        (1UL << CoreDebug_DEMCR_MON_REQ_Pos)           /*!< Core
1480:.\CMSIS\Core\Include/core_cm4.h **** 
ARM GAS  C:\Users\nicpa\AppData\Local\Temp\ccPr5feD.s 			page 63


1481:.\CMSIS\Core\Include/core_cm4.h **** #define CoreDebug_DEMCR_MON_STEP_Pos       18U                                            /*!< Core
1482:.\CMSIS\Core\Include/core_cm4.h **** #define CoreDebug_DEMCR_MON_STEP_Msk       (1UL << CoreDebug_DEMCR_MON_STEP_Pos)          /*!< Core
1483:.\CMSIS\Core\Include/core_cm4.h **** 
1484:.\CMSIS\Core\Include/core_cm4.h **** #define CoreDebug_DEMCR_MON_PEND_Pos       17U                                            /*!< Core
1485:.\CMSIS\Core\Include/core_cm4.h **** #define CoreDebug_DEMCR_MON_PEND_Msk       (1UL << CoreDebug_DEMCR_MON_PEND_Pos)          /*!< Core
1486:.\CMSIS\Core\Include/core_cm4.h **** 
1487:.\CMSIS\Core\Include/core_cm4.h **** #define CoreDebug_DEMCR_MON_EN_Pos         16U                                            /*!< Core
1488:.\CMSIS\Core\Include/core_cm4.h **** #define CoreDebug_DEMCR_MON_EN_Msk         (1UL << CoreDebug_DEMCR_MON_EN_Pos)            /*!< Core
1489:.\CMSIS\Core\Include/core_cm4.h **** 
1490:.\CMSIS\Core\Include/core_cm4.h **** #define CoreDebug_DEMCR_VC_HARDERR_Pos     10U                                            /*!< Core
1491:.\CMSIS\Core\Include/core_cm4.h **** #define CoreDebug_DEMCR_VC_HARDERR_Msk     (1UL << CoreDebug_DEMCR_VC_HARDERR_Pos)        /*!< Core
1492:.\CMSIS\Core\Include/core_cm4.h **** 
1493:.\CMSIS\Core\Include/core_cm4.h **** #define CoreDebug_DEMCR_VC_INTERR_Pos       9U                                            /*!< Core
1494:.\CMSIS\Core\Include/core_cm4.h **** #define CoreDebug_DEMCR_VC_INTERR_Msk      (1UL << CoreDebug_DEMCR_VC_INTERR_Pos)         /*!< Core
1495:.\CMSIS\Core\Include/core_cm4.h **** 
1496:.\CMSIS\Core\Include/core_cm4.h **** #define CoreDebug_DEMCR_VC_BUSERR_Pos       8U                                            /*!< Core
1497:.\CMSIS\Core\Include/core_cm4.h **** #define CoreDebug_DEMCR_VC_BUSERR_Msk      (1UL << CoreDebug_DEMCR_VC_BUSERR_Pos)         /*!< Core
1498:.\CMSIS\Core\Include/core_cm4.h **** 
1499:.\CMSIS\Core\Include/core_cm4.h **** #define CoreDebug_DEMCR_VC_STATERR_Pos      7U                                            /*!< Core
1500:.\CMSIS\Core\Include/core_cm4.h **** #define CoreDebug_DEMCR_VC_STATERR_Msk     (1UL << CoreDebug_DEMCR_VC_STATERR_Pos)        /*!< Core
1501:.\CMSIS\Core\Include/core_cm4.h **** 
1502:.\CMSIS\Core\Include/core_cm4.h **** #define CoreDebug_DEMCR_VC_CHKERR_Pos       6U                                            /*!< Core
1503:.\CMSIS\Core\Include/core_cm4.h **** #define CoreDebug_DEMCR_VC_CHKERR_Msk      (1UL << CoreDebug_DEMCR_VC_CHKERR_Pos)         /*!< Core
1504:.\CMSIS\Core\Include/core_cm4.h **** 
1505:.\CMSIS\Core\Include/core_cm4.h **** #define CoreDebug_DEMCR_VC_NOCPERR_Pos      5U                                            /*!< Core
1506:.\CMSIS\Core\Include/core_cm4.h **** #define CoreDebug_DEMCR_VC_NOCPERR_Msk     (1UL << CoreDebug_DEMCR_VC_NOCPERR_Pos)        /*!< Core
1507:.\CMSIS\Core\Include/core_cm4.h **** 
1508:.\CMSIS\Core\Include/core_cm4.h **** #define CoreDebug_DEMCR_VC_MMERR_Pos        4U                                            /*!< Core
1509:.\CMSIS\Core\Include/core_cm4.h **** #define CoreDebug_DEMCR_VC_MMERR_Msk       (1UL << CoreDebug_DEMCR_VC_MMERR_Pos)          /*!< Core
1510:.\CMSIS\Core\Include/core_cm4.h **** 
1511:.\CMSIS\Core\Include/core_cm4.h **** #define CoreDebug_DEMCR_VC_CORERESET_Pos    0U                                            /*!< Core
1512:.\CMSIS\Core\Include/core_cm4.h **** #define CoreDebug_DEMCR_VC_CORERESET_Msk   (1UL /*<< CoreDebug_DEMCR_VC_CORERESET_Pos*/)  /*!< Core
1513:.\CMSIS\Core\Include/core_cm4.h **** 
1514:.\CMSIS\Core\Include/core_cm4.h **** /*@} end of group CMSIS_CoreDebug */
1515:.\CMSIS\Core\Include/core_cm4.h **** 
1516:.\CMSIS\Core\Include/core_cm4.h **** 
1517:.\CMSIS\Core\Include/core_cm4.h **** /**
1518:.\CMSIS\Core\Include/core_cm4.h ****   \ingroup    CMSIS_core_register
1519:.\CMSIS\Core\Include/core_cm4.h ****   \defgroup   CMSIS_core_bitfield     Core register bit field macros
1520:.\CMSIS\Core\Include/core_cm4.h ****   \brief      Macros for use with bit field definitions (xxx_Pos, xxx_Msk).
1521:.\CMSIS\Core\Include/core_cm4.h ****   @{
1522:.\CMSIS\Core\Include/core_cm4.h ****  */
1523:.\CMSIS\Core\Include/core_cm4.h **** 
1524:.\CMSIS\Core\Include/core_cm4.h **** /**
1525:.\CMSIS\Core\Include/core_cm4.h ****   \brief   Mask and shift a bit field value for use in a register bit range.
1526:.\CMSIS\Core\Include/core_cm4.h ****   \param[in] field  Name of the register bit field.
1527:.\CMSIS\Core\Include/core_cm4.h ****   \param[in] value  Value of the bit field. This parameter is interpreted as an uint32_t type.
1528:.\CMSIS\Core\Include/core_cm4.h ****   \return           Masked and shifted value.
1529:.\CMSIS\Core\Include/core_cm4.h **** */
1530:.\CMSIS\Core\Include/core_cm4.h **** #define _VAL2FLD(field, value)    (((uint32_t)(value) << field ## _Pos) & field ## _Msk)
1531:.\CMSIS\Core\Include/core_cm4.h **** 
1532:.\CMSIS\Core\Include/core_cm4.h **** /**
1533:.\CMSIS\Core\Include/core_cm4.h ****   \brief     Mask and shift a register value to extract a bit filed value.
1534:.\CMSIS\Core\Include/core_cm4.h ****   \param[in] field  Name of the register bit field.
1535:.\CMSIS\Core\Include/core_cm4.h ****   \param[in] value  Value of register. This parameter is interpreted as an uint32_t type.
1536:.\CMSIS\Core\Include/core_cm4.h ****   \return           Masked and shifted bit field value.
1537:.\CMSIS\Core\Include/core_cm4.h **** */
ARM GAS  C:\Users\nicpa\AppData\Local\Temp\ccPr5feD.s 			page 64


1538:.\CMSIS\Core\Include/core_cm4.h **** #define _FLD2VAL(field, value)    (((uint32_t)(value) & field ## _Msk) >> field ## _Pos)
1539:.\CMSIS\Core\Include/core_cm4.h **** 
1540:.\CMSIS\Core\Include/core_cm4.h **** /*@} end of group CMSIS_core_bitfield */
1541:.\CMSIS\Core\Include/core_cm4.h **** 
1542:.\CMSIS\Core\Include/core_cm4.h **** 
1543:.\CMSIS\Core\Include/core_cm4.h **** /**
1544:.\CMSIS\Core\Include/core_cm4.h ****   \ingroup    CMSIS_core_register
1545:.\CMSIS\Core\Include/core_cm4.h ****   \defgroup   CMSIS_core_base     Core Definitions
1546:.\CMSIS\Core\Include/core_cm4.h ****   \brief      Definitions for base addresses, unions, and structures.
1547:.\CMSIS\Core\Include/core_cm4.h ****   @{
1548:.\CMSIS\Core\Include/core_cm4.h ****  */
1549:.\CMSIS\Core\Include/core_cm4.h **** 
1550:.\CMSIS\Core\Include/core_cm4.h **** /* Memory mapping of Core Hardware */
1551:.\CMSIS\Core\Include/core_cm4.h **** #define SCS_BASE            (0xE000E000UL)                            /*!< System Control Space Bas
1552:.\CMSIS\Core\Include/core_cm4.h **** #define ITM_BASE            (0xE0000000UL)                            /*!< ITM Base Address */
1553:.\CMSIS\Core\Include/core_cm4.h **** #define DWT_BASE            (0xE0001000UL)                            /*!< DWT Base Address */
1554:.\CMSIS\Core\Include/core_cm4.h **** #define TPI_BASE            (0xE0040000UL)                            /*!< TPI Base Address */
1555:.\CMSIS\Core\Include/core_cm4.h **** #define CoreDebug_BASE      (0xE000EDF0UL)                            /*!< Core Debug Base Address 
1556:.\CMSIS\Core\Include/core_cm4.h **** #define SysTick_BASE        (SCS_BASE +  0x0010UL)                    /*!< SysTick Base Address */
1557:.\CMSIS\Core\Include/core_cm4.h **** #define NVIC_BASE           (SCS_BASE +  0x0100UL)                    /*!< NVIC Base Address */
1558:.\CMSIS\Core\Include/core_cm4.h **** #define SCB_BASE            (SCS_BASE +  0x0D00UL)                    /*!< System Control Block Bas
1559:.\CMSIS\Core\Include/core_cm4.h **** 
1560:.\CMSIS\Core\Include/core_cm4.h **** #define SCnSCB              ((SCnSCB_Type    *)     SCS_BASE      )   /*!< System control Register 
1561:.\CMSIS\Core\Include/core_cm4.h **** #define SCB                 ((SCB_Type       *)     SCB_BASE      )   /*!< SCB configuration struct
1562:.\CMSIS\Core\Include/core_cm4.h **** #define SysTick             ((SysTick_Type   *)     SysTick_BASE  )   /*!< SysTick configuration st
1563:.\CMSIS\Core\Include/core_cm4.h **** #define NVIC                ((NVIC_Type      *)     NVIC_BASE     )   /*!< NVIC configuration struc
1564:.\CMSIS\Core\Include/core_cm4.h **** #define ITM                 ((ITM_Type       *)     ITM_BASE      )   /*!< ITM configuration struct
1565:.\CMSIS\Core\Include/core_cm4.h **** #define DWT                 ((DWT_Type       *)     DWT_BASE      )   /*!< DWT configuration struct
1566:.\CMSIS\Core\Include/core_cm4.h **** #define TPI                 ((TPI_Type       *)     TPI_BASE      )   /*!< TPI configuration struct
1567:.\CMSIS\Core\Include/core_cm4.h **** #define CoreDebug           ((CoreDebug_Type *)     CoreDebug_BASE)   /*!< Core Debug configuration
1568:.\CMSIS\Core\Include/core_cm4.h **** 
1569:.\CMSIS\Core\Include/core_cm4.h **** #if defined (__MPU_PRESENT) && (__MPU_PRESENT == 1U)
1570:.\CMSIS\Core\Include/core_cm4.h ****   #define MPU_BASE          (SCS_BASE +  0x0D90UL)                    /*!< Memory Protection Unit *
1571:.\CMSIS\Core\Include/core_cm4.h ****   #define MPU               ((MPU_Type       *)     MPU_BASE      )   /*!< Memory Protection Unit *
1572:.\CMSIS\Core\Include/core_cm4.h **** #endif
1573:.\CMSIS\Core\Include/core_cm4.h **** 
1574:.\CMSIS\Core\Include/core_cm4.h **** #define FPU_BASE            (SCS_BASE +  0x0F30UL)                    /*!< Floating Point Unit */
1575:.\CMSIS\Core\Include/core_cm4.h **** #define FPU                 ((FPU_Type       *)     FPU_BASE      )   /*!< Floating Point Unit */
1576:.\CMSIS\Core\Include/core_cm4.h **** 
1577:.\CMSIS\Core\Include/core_cm4.h **** /*@} */
1578:.\CMSIS\Core\Include/core_cm4.h **** 
1579:.\CMSIS\Core\Include/core_cm4.h **** 
1580:.\CMSIS\Core\Include/core_cm4.h **** 
1581:.\CMSIS\Core\Include/core_cm4.h **** /*******************************************************************************
1582:.\CMSIS\Core\Include/core_cm4.h ****  *                Hardware Abstraction Layer
1583:.\CMSIS\Core\Include/core_cm4.h ****   Core Function Interface contains:
1584:.\CMSIS\Core\Include/core_cm4.h ****   - Core NVIC Functions
1585:.\CMSIS\Core\Include/core_cm4.h ****   - Core SysTick Functions
1586:.\CMSIS\Core\Include/core_cm4.h ****   - Core Debug Functions
1587:.\CMSIS\Core\Include/core_cm4.h ****   - Core Register Access Functions
1588:.\CMSIS\Core\Include/core_cm4.h ****  ******************************************************************************/
1589:.\CMSIS\Core\Include/core_cm4.h **** /**
1590:.\CMSIS\Core\Include/core_cm4.h ****   \defgroup CMSIS_Core_FunctionInterface Functions and Instructions Reference
1591:.\CMSIS\Core\Include/core_cm4.h **** */
1592:.\CMSIS\Core\Include/core_cm4.h **** 
1593:.\CMSIS\Core\Include/core_cm4.h **** 
1594:.\CMSIS\Core\Include/core_cm4.h **** 
ARM GAS  C:\Users\nicpa\AppData\Local\Temp\ccPr5feD.s 			page 65


1595:.\CMSIS\Core\Include/core_cm4.h **** /* ##########################   NVIC functions  #################################### */
1596:.\CMSIS\Core\Include/core_cm4.h **** /**
1597:.\CMSIS\Core\Include/core_cm4.h ****   \ingroup  CMSIS_Core_FunctionInterface
1598:.\CMSIS\Core\Include/core_cm4.h ****   \defgroup CMSIS_Core_NVICFunctions NVIC Functions
1599:.\CMSIS\Core\Include/core_cm4.h ****   \brief    Functions that manage interrupts and exceptions via the NVIC.
1600:.\CMSIS\Core\Include/core_cm4.h ****   @{
1601:.\CMSIS\Core\Include/core_cm4.h ****  */
1602:.\CMSIS\Core\Include/core_cm4.h **** 
1603:.\CMSIS\Core\Include/core_cm4.h **** #ifdef CMSIS_NVIC_VIRTUAL
1604:.\CMSIS\Core\Include/core_cm4.h ****   #ifndef CMSIS_NVIC_VIRTUAL_HEADER_FILE
1605:.\CMSIS\Core\Include/core_cm4.h ****     #define CMSIS_NVIC_VIRTUAL_HEADER_FILE "cmsis_nvic_virtual.h"
1606:.\CMSIS\Core\Include/core_cm4.h ****   #endif
1607:.\CMSIS\Core\Include/core_cm4.h ****   #include CMSIS_NVIC_VIRTUAL_HEADER_FILE
1608:.\CMSIS\Core\Include/core_cm4.h **** #else
1609:.\CMSIS\Core\Include/core_cm4.h ****   #define NVIC_SetPriorityGrouping    __NVIC_SetPriorityGrouping
1610:.\CMSIS\Core\Include/core_cm4.h ****   #define NVIC_GetPriorityGrouping    __NVIC_GetPriorityGrouping
1611:.\CMSIS\Core\Include/core_cm4.h ****   #define NVIC_EnableIRQ              __NVIC_EnableIRQ
1612:.\CMSIS\Core\Include/core_cm4.h ****   #define NVIC_GetEnableIRQ           __NVIC_GetEnableIRQ
1613:.\CMSIS\Core\Include/core_cm4.h ****   #define NVIC_DisableIRQ             __NVIC_DisableIRQ
1614:.\CMSIS\Core\Include/core_cm4.h ****   #define NVIC_GetPendingIRQ          __NVIC_GetPendingIRQ
1615:.\CMSIS\Core\Include/core_cm4.h ****   #define NVIC_SetPendingIRQ          __NVIC_SetPendingIRQ
1616:.\CMSIS\Core\Include/core_cm4.h ****   #define NVIC_ClearPendingIRQ        __NVIC_ClearPendingIRQ
1617:.\CMSIS\Core\Include/core_cm4.h ****   #define NVIC_GetActive              __NVIC_GetActive
1618:.\CMSIS\Core\Include/core_cm4.h ****   #define NVIC_SetPriority            __NVIC_SetPriority
1619:.\CMSIS\Core\Include/core_cm4.h ****   #define NVIC_GetPriority            __NVIC_GetPriority
1620:.\CMSIS\Core\Include/core_cm4.h ****   #define NVIC_SystemReset            __NVIC_SystemReset
1621:.\CMSIS\Core\Include/core_cm4.h **** #endif /* CMSIS_NVIC_VIRTUAL */
1622:.\CMSIS\Core\Include/core_cm4.h **** 
1623:.\CMSIS\Core\Include/core_cm4.h **** #ifdef CMSIS_VECTAB_VIRTUAL
1624:.\CMSIS\Core\Include/core_cm4.h ****   #ifndef CMSIS_VECTAB_VIRTUAL_HEADER_FILE
1625:.\CMSIS\Core\Include/core_cm4.h ****    #define CMSIS_VECTAB_VIRTUAL_HEADER_FILE "cmsis_vectab_virtual.h"
1626:.\CMSIS\Core\Include/core_cm4.h ****   #endif
1627:.\CMSIS\Core\Include/core_cm4.h ****   #include CMSIS_VECTAB_VIRTUAL_HEADER_FILE
1628:.\CMSIS\Core\Include/core_cm4.h **** #else
1629:.\CMSIS\Core\Include/core_cm4.h ****   #define NVIC_SetVector              __NVIC_SetVector
1630:.\CMSIS\Core\Include/core_cm4.h ****   #define NVIC_GetVector              __NVIC_GetVector
1631:.\CMSIS\Core\Include/core_cm4.h **** #endif  /* (CMSIS_VECTAB_VIRTUAL) */
1632:.\CMSIS\Core\Include/core_cm4.h **** 
1633:.\CMSIS\Core\Include/core_cm4.h **** #define NVIC_USER_IRQ_OFFSET          16
1634:.\CMSIS\Core\Include/core_cm4.h **** 
1635:.\CMSIS\Core\Include/core_cm4.h **** 
1636:.\CMSIS\Core\Include/core_cm4.h **** /* The following EXC_RETURN values are saved the LR on exception entry */
1637:.\CMSIS\Core\Include/core_cm4.h **** #define EXC_RETURN_HANDLER         (0xFFFFFFF1UL)     /* return to Handler mode, uses MSP after ret
1638:.\CMSIS\Core\Include/core_cm4.h **** #define EXC_RETURN_THREAD_MSP      (0xFFFFFFF9UL)     /* return to Thread mode, uses MSP after retu
1639:.\CMSIS\Core\Include/core_cm4.h **** #define EXC_RETURN_THREAD_PSP      (0xFFFFFFFDUL)     /* return to Thread mode, uses PSP after retu
1640:.\CMSIS\Core\Include/core_cm4.h **** #define EXC_RETURN_HANDLER_FPU     (0xFFFFFFE1UL)     /* return to Handler mode, uses MSP after ret
1641:.\CMSIS\Core\Include/core_cm4.h **** #define EXC_RETURN_THREAD_MSP_FPU  (0xFFFFFFE9UL)     /* return to Thread mode, uses MSP after retu
1642:.\CMSIS\Core\Include/core_cm4.h **** #define EXC_RETURN_THREAD_PSP_FPU  (0xFFFFFFEDUL)     /* return to Thread mode, uses PSP after retu
1643:.\CMSIS\Core\Include/core_cm4.h **** 
1644:.\CMSIS\Core\Include/core_cm4.h **** 
1645:.\CMSIS\Core\Include/core_cm4.h **** /**
1646:.\CMSIS\Core\Include/core_cm4.h ****   \brief   Set Priority Grouping
1647:.\CMSIS\Core\Include/core_cm4.h ****   \details Sets the priority grouping field using the required unlock sequence.
1648:.\CMSIS\Core\Include/core_cm4.h ****            The parameter PriorityGroup is assigned to the field SCB->AIRCR [10:8] PRIGROUP field.
1649:.\CMSIS\Core\Include/core_cm4.h ****            Only values from 0..7 are used.
1650:.\CMSIS\Core\Include/core_cm4.h ****            In case of a conflict between priority grouping and available
1651:.\CMSIS\Core\Include/core_cm4.h ****            priority bits (__NVIC_PRIO_BITS), the smallest possible priority group is set.
ARM GAS  C:\Users\nicpa\AppData\Local\Temp\ccPr5feD.s 			page 66


1652:.\CMSIS\Core\Include/core_cm4.h ****   \param [in]      PriorityGroup  Priority grouping field.
1653:.\CMSIS\Core\Include/core_cm4.h ****  */
1654:.\CMSIS\Core\Include/core_cm4.h **** __STATIC_INLINE void __NVIC_SetPriorityGrouping(uint32_t PriorityGroup)
1655:.\CMSIS\Core\Include/core_cm4.h **** {
1656:.\CMSIS\Core\Include/core_cm4.h ****   uint32_t reg_value;
1657:.\CMSIS\Core\Include/core_cm4.h ****   uint32_t PriorityGroupTmp = (PriorityGroup & (uint32_t)0x07UL);             /* only values 0..7 a
1658:.\CMSIS\Core\Include/core_cm4.h **** 
1659:.\CMSIS\Core\Include/core_cm4.h ****   reg_value  =  SCB->AIRCR;                                                   /* read old register 
1660:.\CMSIS\Core\Include/core_cm4.h ****   reg_value &= ~((uint32_t)(SCB_AIRCR_VECTKEY_Msk | SCB_AIRCR_PRIGROUP_Msk)); /* clear bits to chan
1661:.\CMSIS\Core\Include/core_cm4.h ****   reg_value  =  (reg_value                                   |
1662:.\CMSIS\Core\Include/core_cm4.h ****                 ((uint32_t)0x5FAUL << SCB_AIRCR_VECTKEY_Pos) |
1663:.\CMSIS\Core\Include/core_cm4.h ****                 (PriorityGroupTmp << SCB_AIRCR_PRIGROUP_Pos)  );              /* Insert write key a
1664:.\CMSIS\Core\Include/core_cm4.h ****   SCB->AIRCR =  reg_value;
1665:.\CMSIS\Core\Include/core_cm4.h **** }
1666:.\CMSIS\Core\Include/core_cm4.h **** 
1667:.\CMSIS\Core\Include/core_cm4.h **** 
1668:.\CMSIS\Core\Include/core_cm4.h **** /**
1669:.\CMSIS\Core\Include/core_cm4.h ****   \brief   Get Priority Grouping
1670:.\CMSIS\Core\Include/core_cm4.h ****   \details Reads the priority grouping field from the NVIC Interrupt Controller.
1671:.\CMSIS\Core\Include/core_cm4.h ****   \return                Priority grouping field (SCB->AIRCR [10:8] PRIGROUP field).
1672:.\CMSIS\Core\Include/core_cm4.h ****  */
1673:.\CMSIS\Core\Include/core_cm4.h **** __STATIC_INLINE uint32_t __NVIC_GetPriorityGrouping(void)
1674:.\CMSIS\Core\Include/core_cm4.h **** {
1675:.\CMSIS\Core\Include/core_cm4.h ****   return ((uint32_t)((SCB->AIRCR & SCB_AIRCR_PRIGROUP_Msk) >> SCB_AIRCR_PRIGROUP_Pos));
1676:.\CMSIS\Core\Include/core_cm4.h **** }
1677:.\CMSIS\Core\Include/core_cm4.h **** 
1678:.\CMSIS\Core\Include/core_cm4.h **** 
1679:.\CMSIS\Core\Include/core_cm4.h **** /**
1680:.\CMSIS\Core\Include/core_cm4.h ****   \brief   Enable Interrupt
1681:.\CMSIS\Core\Include/core_cm4.h ****   \details Enables a device specific interrupt in the NVIC interrupt controller.
1682:.\CMSIS\Core\Include/core_cm4.h ****   \param [in]      IRQn  Device specific interrupt number.
1683:.\CMSIS\Core\Include/core_cm4.h ****   \note    IRQn must not be negative.
1684:.\CMSIS\Core\Include/core_cm4.h ****  */
1685:.\CMSIS\Core\Include/core_cm4.h **** __STATIC_INLINE void __NVIC_EnableIRQ(IRQn_Type IRQn)
1686:.\CMSIS\Core\Include/core_cm4.h **** {
1687:.\CMSIS\Core\Include/core_cm4.h ****   if ((int32_t)(IRQn) >= 0)
1688:.\CMSIS\Core\Include/core_cm4.h ****   {
1689:.\CMSIS\Core\Include/core_cm4.h ****     NVIC->ISER[(((uint32_t)IRQn) >> 5UL)] = (uint32_t)(1UL << (((uint32_t)IRQn) & 0x1FUL));
1690:.\CMSIS\Core\Include/core_cm4.h ****   }
1691:.\CMSIS\Core\Include/core_cm4.h **** }
1692:.\CMSIS\Core\Include/core_cm4.h **** 
1693:.\CMSIS\Core\Include/core_cm4.h **** 
1694:.\CMSIS\Core\Include/core_cm4.h **** /**
1695:.\CMSIS\Core\Include/core_cm4.h ****   \brief   Get Interrupt Enable status
1696:.\CMSIS\Core\Include/core_cm4.h ****   \details Returns a device specific interrupt enable status from the NVIC interrupt controller.
1697:.\CMSIS\Core\Include/core_cm4.h ****   \param [in]      IRQn  Device specific interrupt number.
1698:.\CMSIS\Core\Include/core_cm4.h ****   \return             0  Interrupt is not enabled.
1699:.\CMSIS\Core\Include/core_cm4.h ****   \return             1  Interrupt is enabled.
1700:.\CMSIS\Core\Include/core_cm4.h ****   \note    IRQn must not be negative.
1701:.\CMSIS\Core\Include/core_cm4.h ****  */
1702:.\CMSIS\Core\Include/core_cm4.h **** __STATIC_INLINE uint32_t __NVIC_GetEnableIRQ(IRQn_Type IRQn)
1703:.\CMSIS\Core\Include/core_cm4.h **** {
1704:.\CMSIS\Core\Include/core_cm4.h ****   if ((int32_t)(IRQn) >= 0)
1705:.\CMSIS\Core\Include/core_cm4.h ****   {
1706:.\CMSIS\Core\Include/core_cm4.h ****     return((uint32_t)(((NVIC->ISER[(((uint32_t)IRQn) >> 5UL)] & (1UL << (((uint32_t)IRQn) & 0x1FUL)
1707:.\CMSIS\Core\Include/core_cm4.h ****   }
1708:.\CMSIS\Core\Include/core_cm4.h ****   else
ARM GAS  C:\Users\nicpa\AppData\Local\Temp\ccPr5feD.s 			page 67


1709:.\CMSIS\Core\Include/core_cm4.h ****   {
1710:.\CMSIS\Core\Include/core_cm4.h ****     return(0U);
1711:.\CMSIS\Core\Include/core_cm4.h ****   }
1712:.\CMSIS\Core\Include/core_cm4.h **** }
1713:.\CMSIS\Core\Include/core_cm4.h **** 
1714:.\CMSIS\Core\Include/core_cm4.h **** 
1715:.\CMSIS\Core\Include/core_cm4.h **** /**
1716:.\CMSIS\Core\Include/core_cm4.h ****   \brief   Disable Interrupt
1717:.\CMSIS\Core\Include/core_cm4.h ****   \details Disables a device specific interrupt in the NVIC interrupt controller.
1718:.\CMSIS\Core\Include/core_cm4.h ****   \param [in]      IRQn  Device specific interrupt number.
1719:.\CMSIS\Core\Include/core_cm4.h ****   \note    IRQn must not be negative.
1720:.\CMSIS\Core\Include/core_cm4.h ****  */
1721:.\CMSIS\Core\Include/core_cm4.h **** __STATIC_INLINE void __NVIC_DisableIRQ(IRQn_Type IRQn)
1722:.\CMSIS\Core\Include/core_cm4.h **** {
1723:.\CMSIS\Core\Include/core_cm4.h ****   if ((int32_t)(IRQn) >= 0)
 893              		.loc 3 1723 0
 894 0020 002B     		cmp	r3, #0
 895 0022 0DDB     		blt	.L32
1724:.\CMSIS\Core\Include/core_cm4.h ****   {
1725:.\CMSIS\Core\Include/core_cm4.h ****     NVIC->ICER[(((uint32_t)IRQn) >> 5UL)] = (uint32_t)(1UL << (((uint32_t)IRQn) & 0x1FUL));
 896              		.loc 3 1725 0
 897 0024 5A09     		lsrs	r2, r3, #5
 898 0026 03F01F03 		and	r3, r3, #31
 899              	.LVL125:
 900 002a 0121     		movs	r1, #1
 901 002c 01FA03F3 		lsl	r3, r1, r3
 902 0030 2032     		adds	r2, r2, #32
 903 0032 7449     		ldr	r1, .L54+4
 904 0034 41F82230 		str	r3, [r1, r2, lsl #2]
 905              	.LBB26:
 906              	.LBB27:
 907              		.file 4 ".\\CMSIS\\Core\\Include/cmsis_gcc.h"
   1:.\CMSIS\Core\Include/cmsis_gcc.h **** /**************************************************************************//**
   2:.\CMSIS\Core\Include/cmsis_gcc.h ****  * @file     cmsis_gcc.h
   3:.\CMSIS\Core\Include/cmsis_gcc.h ****  * @brief    CMSIS compiler GCC header file
   4:.\CMSIS\Core\Include/cmsis_gcc.h ****  * @version  V5.0.4
   5:.\CMSIS\Core\Include/cmsis_gcc.h ****  * @date     09. April 2018
   6:.\CMSIS\Core\Include/cmsis_gcc.h ****  ******************************************************************************/
   7:.\CMSIS\Core\Include/cmsis_gcc.h **** /*
   8:.\CMSIS\Core\Include/cmsis_gcc.h ****  * Copyright (c) 2009-2018 Arm Limited. All rights reserved.
   9:.\CMSIS\Core\Include/cmsis_gcc.h ****  *
  10:.\CMSIS\Core\Include/cmsis_gcc.h ****  * SPDX-License-Identifier: Apache-2.0
  11:.\CMSIS\Core\Include/cmsis_gcc.h ****  *
  12:.\CMSIS\Core\Include/cmsis_gcc.h ****  * Licensed under the Apache License, Version 2.0 (the License); you may
  13:.\CMSIS\Core\Include/cmsis_gcc.h ****  * not use this file except in compliance with the License.
  14:.\CMSIS\Core\Include/cmsis_gcc.h ****  * You may obtain a copy of the License at
  15:.\CMSIS\Core\Include/cmsis_gcc.h ****  *
  16:.\CMSIS\Core\Include/cmsis_gcc.h ****  * www.apache.org/licenses/LICENSE-2.0
  17:.\CMSIS\Core\Include/cmsis_gcc.h ****  *
  18:.\CMSIS\Core\Include/cmsis_gcc.h ****  * Unless required by applicable law or agreed to in writing, software
  19:.\CMSIS\Core\Include/cmsis_gcc.h ****  * distributed under the License is distributed on an AS IS BASIS, WITHOUT
  20:.\CMSIS\Core\Include/cmsis_gcc.h ****  * WARRANTIES OR CONDITIONS OF ANY KIND, either express or implied.
  21:.\CMSIS\Core\Include/cmsis_gcc.h ****  * See the License for the specific language governing permissions and
  22:.\CMSIS\Core\Include/cmsis_gcc.h ****  * limitations under the License.
  23:.\CMSIS\Core\Include/cmsis_gcc.h ****  */
  24:.\CMSIS\Core\Include/cmsis_gcc.h **** 
  25:.\CMSIS\Core\Include/cmsis_gcc.h **** #ifndef __CMSIS_GCC_H
ARM GAS  C:\Users\nicpa\AppData\Local\Temp\ccPr5feD.s 			page 68


  26:.\CMSIS\Core\Include/cmsis_gcc.h **** #define __CMSIS_GCC_H
  27:.\CMSIS\Core\Include/cmsis_gcc.h **** 
  28:.\CMSIS\Core\Include/cmsis_gcc.h **** /* ignore some GCC warnings */
  29:.\CMSIS\Core\Include/cmsis_gcc.h **** #pragma GCC diagnostic push
  30:.\CMSIS\Core\Include/cmsis_gcc.h **** #pragma GCC diagnostic ignored "-Wsign-conversion"
  31:.\CMSIS\Core\Include/cmsis_gcc.h **** #pragma GCC diagnostic ignored "-Wconversion"
  32:.\CMSIS\Core\Include/cmsis_gcc.h **** #pragma GCC diagnostic ignored "-Wunused-parameter"
  33:.\CMSIS\Core\Include/cmsis_gcc.h **** 
  34:.\CMSIS\Core\Include/cmsis_gcc.h **** /* Fallback for __has_builtin */
  35:.\CMSIS\Core\Include/cmsis_gcc.h **** #ifndef __has_builtin
  36:.\CMSIS\Core\Include/cmsis_gcc.h ****   #define __has_builtin(x) (0)
  37:.\CMSIS\Core\Include/cmsis_gcc.h **** #endif
  38:.\CMSIS\Core\Include/cmsis_gcc.h **** 
  39:.\CMSIS\Core\Include/cmsis_gcc.h **** /* CMSIS compiler specific defines */
  40:.\CMSIS\Core\Include/cmsis_gcc.h **** #ifndef   __ASM
  41:.\CMSIS\Core\Include/cmsis_gcc.h ****   #define __ASM                                  __asm
  42:.\CMSIS\Core\Include/cmsis_gcc.h **** #endif
  43:.\CMSIS\Core\Include/cmsis_gcc.h **** #ifndef   __INLINE
  44:.\CMSIS\Core\Include/cmsis_gcc.h ****   #define __INLINE                               inline
  45:.\CMSIS\Core\Include/cmsis_gcc.h **** #endif
  46:.\CMSIS\Core\Include/cmsis_gcc.h **** #ifndef   __STATIC_INLINE
  47:.\CMSIS\Core\Include/cmsis_gcc.h ****   #define __STATIC_INLINE                        static inline
  48:.\CMSIS\Core\Include/cmsis_gcc.h **** #endif
  49:.\CMSIS\Core\Include/cmsis_gcc.h **** #ifndef   __STATIC_FORCEINLINE                 
  50:.\CMSIS\Core\Include/cmsis_gcc.h ****   #define __STATIC_FORCEINLINE                   __attribute__((always_inline)) static inline
  51:.\CMSIS\Core\Include/cmsis_gcc.h **** #endif                                           
  52:.\CMSIS\Core\Include/cmsis_gcc.h **** #ifndef   __NO_RETURN
  53:.\CMSIS\Core\Include/cmsis_gcc.h ****   #define __NO_RETURN                            __attribute__((__noreturn__))
  54:.\CMSIS\Core\Include/cmsis_gcc.h **** #endif
  55:.\CMSIS\Core\Include/cmsis_gcc.h **** #ifndef   __USED
  56:.\CMSIS\Core\Include/cmsis_gcc.h ****   #define __USED                                 __attribute__((used))
  57:.\CMSIS\Core\Include/cmsis_gcc.h **** #endif
  58:.\CMSIS\Core\Include/cmsis_gcc.h **** #ifndef   __WEAK
  59:.\CMSIS\Core\Include/cmsis_gcc.h ****   #define __WEAK                                 __attribute__((weak))
  60:.\CMSIS\Core\Include/cmsis_gcc.h **** #endif
  61:.\CMSIS\Core\Include/cmsis_gcc.h **** #ifndef   __PACKED
  62:.\CMSIS\Core\Include/cmsis_gcc.h ****   #define __PACKED                               __attribute__((packed, aligned(1)))
  63:.\CMSIS\Core\Include/cmsis_gcc.h **** #endif
  64:.\CMSIS\Core\Include/cmsis_gcc.h **** #ifndef   __PACKED_STRUCT
  65:.\CMSIS\Core\Include/cmsis_gcc.h ****   #define __PACKED_STRUCT                        struct __attribute__((packed, aligned(1)))
  66:.\CMSIS\Core\Include/cmsis_gcc.h **** #endif
  67:.\CMSIS\Core\Include/cmsis_gcc.h **** #ifndef   __PACKED_UNION
  68:.\CMSIS\Core\Include/cmsis_gcc.h ****   #define __PACKED_UNION                         union __attribute__((packed, aligned(1)))
  69:.\CMSIS\Core\Include/cmsis_gcc.h **** #endif
  70:.\CMSIS\Core\Include/cmsis_gcc.h **** #ifndef   __UNALIGNED_UINT32        /* deprecated */
  71:.\CMSIS\Core\Include/cmsis_gcc.h ****   #pragma GCC diagnostic push
  72:.\CMSIS\Core\Include/cmsis_gcc.h ****   #pragma GCC diagnostic ignored "-Wpacked"
  73:.\CMSIS\Core\Include/cmsis_gcc.h ****   #pragma GCC diagnostic ignored "-Wattributes"
  74:.\CMSIS\Core\Include/cmsis_gcc.h ****   struct __attribute__((packed)) T_UINT32 { uint32_t v; };
  75:.\CMSIS\Core\Include/cmsis_gcc.h ****   #pragma GCC diagnostic pop
  76:.\CMSIS\Core\Include/cmsis_gcc.h ****   #define __UNALIGNED_UINT32(x)                  (((struct T_UINT32 *)(x))->v)
  77:.\CMSIS\Core\Include/cmsis_gcc.h **** #endif
  78:.\CMSIS\Core\Include/cmsis_gcc.h **** #ifndef   __UNALIGNED_UINT16_WRITE
  79:.\CMSIS\Core\Include/cmsis_gcc.h ****   #pragma GCC diagnostic push
  80:.\CMSIS\Core\Include/cmsis_gcc.h ****   #pragma GCC diagnostic ignored "-Wpacked"
  81:.\CMSIS\Core\Include/cmsis_gcc.h ****   #pragma GCC diagnostic ignored "-Wattributes"
  82:.\CMSIS\Core\Include/cmsis_gcc.h ****   __PACKED_STRUCT T_UINT16_WRITE { uint16_t v; };
ARM GAS  C:\Users\nicpa\AppData\Local\Temp\ccPr5feD.s 			page 69


  83:.\CMSIS\Core\Include/cmsis_gcc.h ****   #pragma GCC diagnostic pop
  84:.\CMSIS\Core\Include/cmsis_gcc.h ****   #define __UNALIGNED_UINT16_WRITE(addr, val)    (void)((((struct T_UINT16_WRITE *)(void *)(addr))-
  85:.\CMSIS\Core\Include/cmsis_gcc.h **** #endif
  86:.\CMSIS\Core\Include/cmsis_gcc.h **** #ifndef   __UNALIGNED_UINT16_READ
  87:.\CMSIS\Core\Include/cmsis_gcc.h ****   #pragma GCC diagnostic push
  88:.\CMSIS\Core\Include/cmsis_gcc.h ****   #pragma GCC diagnostic ignored "-Wpacked"
  89:.\CMSIS\Core\Include/cmsis_gcc.h ****   #pragma GCC diagnostic ignored "-Wattributes"
  90:.\CMSIS\Core\Include/cmsis_gcc.h ****   __PACKED_STRUCT T_UINT16_READ { uint16_t v; };
  91:.\CMSIS\Core\Include/cmsis_gcc.h ****   #pragma GCC diagnostic pop
  92:.\CMSIS\Core\Include/cmsis_gcc.h ****   #define __UNALIGNED_UINT16_READ(addr)          (((const struct T_UINT16_READ *)(const void *)(add
  93:.\CMSIS\Core\Include/cmsis_gcc.h **** #endif
  94:.\CMSIS\Core\Include/cmsis_gcc.h **** #ifndef   __UNALIGNED_UINT32_WRITE
  95:.\CMSIS\Core\Include/cmsis_gcc.h ****   #pragma GCC diagnostic push
  96:.\CMSIS\Core\Include/cmsis_gcc.h ****   #pragma GCC diagnostic ignored "-Wpacked"
  97:.\CMSIS\Core\Include/cmsis_gcc.h ****   #pragma GCC diagnostic ignored "-Wattributes"
  98:.\CMSIS\Core\Include/cmsis_gcc.h ****   __PACKED_STRUCT T_UINT32_WRITE { uint32_t v; };
  99:.\CMSIS\Core\Include/cmsis_gcc.h ****   #pragma GCC diagnostic pop
 100:.\CMSIS\Core\Include/cmsis_gcc.h ****   #define __UNALIGNED_UINT32_WRITE(addr, val)    (void)((((struct T_UINT32_WRITE *)(void *)(addr))-
 101:.\CMSIS\Core\Include/cmsis_gcc.h **** #endif
 102:.\CMSIS\Core\Include/cmsis_gcc.h **** #ifndef   __UNALIGNED_UINT32_READ
 103:.\CMSIS\Core\Include/cmsis_gcc.h ****   #pragma GCC diagnostic push
 104:.\CMSIS\Core\Include/cmsis_gcc.h ****   #pragma GCC diagnostic ignored "-Wpacked"
 105:.\CMSIS\Core\Include/cmsis_gcc.h ****   #pragma GCC diagnostic ignored "-Wattributes"
 106:.\CMSIS\Core\Include/cmsis_gcc.h ****   __PACKED_STRUCT T_UINT32_READ { uint32_t v; };
 107:.\CMSIS\Core\Include/cmsis_gcc.h ****   #pragma GCC diagnostic pop
 108:.\CMSIS\Core\Include/cmsis_gcc.h ****   #define __UNALIGNED_UINT32_READ(addr)          (((const struct T_UINT32_READ *)(const void *)(add
 109:.\CMSIS\Core\Include/cmsis_gcc.h **** #endif
 110:.\CMSIS\Core\Include/cmsis_gcc.h **** #ifndef   __ALIGNED
 111:.\CMSIS\Core\Include/cmsis_gcc.h ****   #define __ALIGNED(x)                           __attribute__((aligned(x)))
 112:.\CMSIS\Core\Include/cmsis_gcc.h **** #endif
 113:.\CMSIS\Core\Include/cmsis_gcc.h **** #ifndef   __RESTRICT
 114:.\CMSIS\Core\Include/cmsis_gcc.h ****   #define __RESTRICT                             __restrict
 115:.\CMSIS\Core\Include/cmsis_gcc.h **** #endif
 116:.\CMSIS\Core\Include/cmsis_gcc.h **** 
 117:.\CMSIS\Core\Include/cmsis_gcc.h **** 
 118:.\CMSIS\Core\Include/cmsis_gcc.h **** /* ###########################  Core Function Access  ########################### */
 119:.\CMSIS\Core\Include/cmsis_gcc.h **** /** \ingroup  CMSIS_Core_FunctionInterface
 120:.\CMSIS\Core\Include/cmsis_gcc.h ****     \defgroup CMSIS_Core_RegAccFunctions CMSIS Core Register Access Functions
 121:.\CMSIS\Core\Include/cmsis_gcc.h ****   @{
 122:.\CMSIS\Core\Include/cmsis_gcc.h ****  */
 123:.\CMSIS\Core\Include/cmsis_gcc.h **** 
 124:.\CMSIS\Core\Include/cmsis_gcc.h **** /**
 125:.\CMSIS\Core\Include/cmsis_gcc.h ****   \brief   Enable IRQ Interrupts
 126:.\CMSIS\Core\Include/cmsis_gcc.h ****   \details Enables IRQ interrupts by clearing the I-bit in the CPSR.
 127:.\CMSIS\Core\Include/cmsis_gcc.h ****            Can only be executed in Privileged modes.
 128:.\CMSIS\Core\Include/cmsis_gcc.h ****  */
 129:.\CMSIS\Core\Include/cmsis_gcc.h **** __STATIC_FORCEINLINE void __enable_irq(void)
 130:.\CMSIS\Core\Include/cmsis_gcc.h **** {
 131:.\CMSIS\Core\Include/cmsis_gcc.h ****   __ASM volatile ("cpsie i" : : : "memory");
 132:.\CMSIS\Core\Include/cmsis_gcc.h **** }
 133:.\CMSIS\Core\Include/cmsis_gcc.h **** 
 134:.\CMSIS\Core\Include/cmsis_gcc.h **** 
 135:.\CMSIS\Core\Include/cmsis_gcc.h **** /**
 136:.\CMSIS\Core\Include/cmsis_gcc.h ****   \brief   Disable IRQ Interrupts
 137:.\CMSIS\Core\Include/cmsis_gcc.h ****   \details Disables IRQ interrupts by setting the I-bit in the CPSR.
 138:.\CMSIS\Core\Include/cmsis_gcc.h ****            Can only be executed in Privileged modes.
 139:.\CMSIS\Core\Include/cmsis_gcc.h ****  */
ARM GAS  C:\Users\nicpa\AppData\Local\Temp\ccPr5feD.s 			page 70


 140:.\CMSIS\Core\Include/cmsis_gcc.h **** __STATIC_FORCEINLINE void __disable_irq(void)
 141:.\CMSIS\Core\Include/cmsis_gcc.h **** {
 142:.\CMSIS\Core\Include/cmsis_gcc.h ****   __ASM volatile ("cpsid i" : : : "memory");
 143:.\CMSIS\Core\Include/cmsis_gcc.h **** }
 144:.\CMSIS\Core\Include/cmsis_gcc.h **** 
 145:.\CMSIS\Core\Include/cmsis_gcc.h **** 
 146:.\CMSIS\Core\Include/cmsis_gcc.h **** /**
 147:.\CMSIS\Core\Include/cmsis_gcc.h ****   \brief   Get Control Register
 148:.\CMSIS\Core\Include/cmsis_gcc.h ****   \details Returns the content of the Control Register.
 149:.\CMSIS\Core\Include/cmsis_gcc.h ****   \return               Control Register value
 150:.\CMSIS\Core\Include/cmsis_gcc.h ****  */
 151:.\CMSIS\Core\Include/cmsis_gcc.h **** __STATIC_FORCEINLINE uint32_t __get_CONTROL(void)
 152:.\CMSIS\Core\Include/cmsis_gcc.h **** {
 153:.\CMSIS\Core\Include/cmsis_gcc.h ****   uint32_t result;
 154:.\CMSIS\Core\Include/cmsis_gcc.h **** 
 155:.\CMSIS\Core\Include/cmsis_gcc.h ****   __ASM volatile ("MRS %0, control" : "=r" (result) );
 156:.\CMSIS\Core\Include/cmsis_gcc.h ****   return(result);
 157:.\CMSIS\Core\Include/cmsis_gcc.h **** }
 158:.\CMSIS\Core\Include/cmsis_gcc.h **** 
 159:.\CMSIS\Core\Include/cmsis_gcc.h **** 
 160:.\CMSIS\Core\Include/cmsis_gcc.h **** #if (defined (__ARM_FEATURE_CMSE ) && (__ARM_FEATURE_CMSE == 3))
 161:.\CMSIS\Core\Include/cmsis_gcc.h **** /**
 162:.\CMSIS\Core\Include/cmsis_gcc.h ****   \brief   Get Control Register (non-secure)
 163:.\CMSIS\Core\Include/cmsis_gcc.h ****   \details Returns the content of the non-secure Control Register when in secure mode.
 164:.\CMSIS\Core\Include/cmsis_gcc.h ****   \return               non-secure Control Register value
 165:.\CMSIS\Core\Include/cmsis_gcc.h ****  */
 166:.\CMSIS\Core\Include/cmsis_gcc.h **** __STATIC_FORCEINLINE uint32_t __TZ_get_CONTROL_NS(void)
 167:.\CMSIS\Core\Include/cmsis_gcc.h **** {
 168:.\CMSIS\Core\Include/cmsis_gcc.h ****   uint32_t result;
 169:.\CMSIS\Core\Include/cmsis_gcc.h **** 
 170:.\CMSIS\Core\Include/cmsis_gcc.h ****   __ASM volatile ("MRS %0, control_ns" : "=r" (result) );
 171:.\CMSIS\Core\Include/cmsis_gcc.h ****   return(result);
 172:.\CMSIS\Core\Include/cmsis_gcc.h **** }
 173:.\CMSIS\Core\Include/cmsis_gcc.h **** #endif
 174:.\CMSIS\Core\Include/cmsis_gcc.h **** 
 175:.\CMSIS\Core\Include/cmsis_gcc.h **** 
 176:.\CMSIS\Core\Include/cmsis_gcc.h **** /**
 177:.\CMSIS\Core\Include/cmsis_gcc.h ****   \brief   Set Control Register
 178:.\CMSIS\Core\Include/cmsis_gcc.h ****   \details Writes the given value to the Control Register.
 179:.\CMSIS\Core\Include/cmsis_gcc.h ****   \param [in]    control  Control Register value to set
 180:.\CMSIS\Core\Include/cmsis_gcc.h ****  */
 181:.\CMSIS\Core\Include/cmsis_gcc.h **** __STATIC_FORCEINLINE void __set_CONTROL(uint32_t control)
 182:.\CMSIS\Core\Include/cmsis_gcc.h **** {
 183:.\CMSIS\Core\Include/cmsis_gcc.h ****   __ASM volatile ("MSR control, %0" : : "r" (control) : "memory");
 184:.\CMSIS\Core\Include/cmsis_gcc.h **** }
 185:.\CMSIS\Core\Include/cmsis_gcc.h **** 
 186:.\CMSIS\Core\Include/cmsis_gcc.h **** 
 187:.\CMSIS\Core\Include/cmsis_gcc.h **** #if (defined (__ARM_FEATURE_CMSE ) && (__ARM_FEATURE_CMSE == 3))
 188:.\CMSIS\Core\Include/cmsis_gcc.h **** /**
 189:.\CMSIS\Core\Include/cmsis_gcc.h ****   \brief   Set Control Register (non-secure)
 190:.\CMSIS\Core\Include/cmsis_gcc.h ****   \details Writes the given value to the non-secure Control Register when in secure state.
 191:.\CMSIS\Core\Include/cmsis_gcc.h ****   \param [in]    control  Control Register value to set
 192:.\CMSIS\Core\Include/cmsis_gcc.h ****  */
 193:.\CMSIS\Core\Include/cmsis_gcc.h **** __STATIC_FORCEINLINE void __TZ_set_CONTROL_NS(uint32_t control)
 194:.\CMSIS\Core\Include/cmsis_gcc.h **** {
 195:.\CMSIS\Core\Include/cmsis_gcc.h ****   __ASM volatile ("MSR control_ns, %0" : : "r" (control) : "memory");
 196:.\CMSIS\Core\Include/cmsis_gcc.h **** }
ARM GAS  C:\Users\nicpa\AppData\Local\Temp\ccPr5feD.s 			page 71


 197:.\CMSIS\Core\Include/cmsis_gcc.h **** #endif
 198:.\CMSIS\Core\Include/cmsis_gcc.h **** 
 199:.\CMSIS\Core\Include/cmsis_gcc.h **** 
 200:.\CMSIS\Core\Include/cmsis_gcc.h **** /**
 201:.\CMSIS\Core\Include/cmsis_gcc.h ****   \brief   Get IPSR Register
 202:.\CMSIS\Core\Include/cmsis_gcc.h ****   \details Returns the content of the IPSR Register.
 203:.\CMSIS\Core\Include/cmsis_gcc.h ****   \return               IPSR Register value
 204:.\CMSIS\Core\Include/cmsis_gcc.h ****  */
 205:.\CMSIS\Core\Include/cmsis_gcc.h **** __STATIC_FORCEINLINE uint32_t __get_IPSR(void)
 206:.\CMSIS\Core\Include/cmsis_gcc.h **** {
 207:.\CMSIS\Core\Include/cmsis_gcc.h ****   uint32_t result;
 208:.\CMSIS\Core\Include/cmsis_gcc.h **** 
 209:.\CMSIS\Core\Include/cmsis_gcc.h ****   __ASM volatile ("MRS %0, ipsr" : "=r" (result) );
 210:.\CMSIS\Core\Include/cmsis_gcc.h ****   return(result);
 211:.\CMSIS\Core\Include/cmsis_gcc.h **** }
 212:.\CMSIS\Core\Include/cmsis_gcc.h **** 
 213:.\CMSIS\Core\Include/cmsis_gcc.h **** 
 214:.\CMSIS\Core\Include/cmsis_gcc.h **** /**
 215:.\CMSIS\Core\Include/cmsis_gcc.h ****   \brief   Get APSR Register
 216:.\CMSIS\Core\Include/cmsis_gcc.h ****   \details Returns the content of the APSR Register.
 217:.\CMSIS\Core\Include/cmsis_gcc.h ****   \return               APSR Register value
 218:.\CMSIS\Core\Include/cmsis_gcc.h ****  */
 219:.\CMSIS\Core\Include/cmsis_gcc.h **** __STATIC_FORCEINLINE uint32_t __get_APSR(void)
 220:.\CMSIS\Core\Include/cmsis_gcc.h **** {
 221:.\CMSIS\Core\Include/cmsis_gcc.h ****   uint32_t result;
 222:.\CMSIS\Core\Include/cmsis_gcc.h **** 
 223:.\CMSIS\Core\Include/cmsis_gcc.h ****   __ASM volatile ("MRS %0, apsr" : "=r" (result) );
 224:.\CMSIS\Core\Include/cmsis_gcc.h ****   return(result);
 225:.\CMSIS\Core\Include/cmsis_gcc.h **** }
 226:.\CMSIS\Core\Include/cmsis_gcc.h **** 
 227:.\CMSIS\Core\Include/cmsis_gcc.h **** 
 228:.\CMSIS\Core\Include/cmsis_gcc.h **** /**
 229:.\CMSIS\Core\Include/cmsis_gcc.h ****   \brief   Get xPSR Register
 230:.\CMSIS\Core\Include/cmsis_gcc.h ****   \details Returns the content of the xPSR Register.
 231:.\CMSIS\Core\Include/cmsis_gcc.h ****   \return               xPSR Register value
 232:.\CMSIS\Core\Include/cmsis_gcc.h ****  */
 233:.\CMSIS\Core\Include/cmsis_gcc.h **** __STATIC_FORCEINLINE uint32_t __get_xPSR(void)
 234:.\CMSIS\Core\Include/cmsis_gcc.h **** {
 235:.\CMSIS\Core\Include/cmsis_gcc.h ****   uint32_t result;
 236:.\CMSIS\Core\Include/cmsis_gcc.h **** 
 237:.\CMSIS\Core\Include/cmsis_gcc.h ****   __ASM volatile ("MRS %0, xpsr" : "=r" (result) );
 238:.\CMSIS\Core\Include/cmsis_gcc.h ****   return(result);
 239:.\CMSIS\Core\Include/cmsis_gcc.h **** }
 240:.\CMSIS\Core\Include/cmsis_gcc.h **** 
 241:.\CMSIS\Core\Include/cmsis_gcc.h **** 
 242:.\CMSIS\Core\Include/cmsis_gcc.h **** /**
 243:.\CMSIS\Core\Include/cmsis_gcc.h ****   \brief   Get Process Stack Pointer
 244:.\CMSIS\Core\Include/cmsis_gcc.h ****   \details Returns the current value of the Process Stack Pointer (PSP).
 245:.\CMSIS\Core\Include/cmsis_gcc.h ****   \return               PSP Register value
 246:.\CMSIS\Core\Include/cmsis_gcc.h ****  */
 247:.\CMSIS\Core\Include/cmsis_gcc.h **** __STATIC_FORCEINLINE uint32_t __get_PSP(void)
 248:.\CMSIS\Core\Include/cmsis_gcc.h **** {
 249:.\CMSIS\Core\Include/cmsis_gcc.h ****   uint32_t result;
 250:.\CMSIS\Core\Include/cmsis_gcc.h **** 
 251:.\CMSIS\Core\Include/cmsis_gcc.h ****   __ASM volatile ("MRS %0, psp"  : "=r" (result) );
 252:.\CMSIS\Core\Include/cmsis_gcc.h ****   return(result);
 253:.\CMSIS\Core\Include/cmsis_gcc.h **** }
ARM GAS  C:\Users\nicpa\AppData\Local\Temp\ccPr5feD.s 			page 72


 254:.\CMSIS\Core\Include/cmsis_gcc.h **** 
 255:.\CMSIS\Core\Include/cmsis_gcc.h **** 
 256:.\CMSIS\Core\Include/cmsis_gcc.h **** #if (defined (__ARM_FEATURE_CMSE ) && (__ARM_FEATURE_CMSE == 3))
 257:.\CMSIS\Core\Include/cmsis_gcc.h **** /**
 258:.\CMSIS\Core\Include/cmsis_gcc.h ****   \brief   Get Process Stack Pointer (non-secure)
 259:.\CMSIS\Core\Include/cmsis_gcc.h ****   \details Returns the current value of the non-secure Process Stack Pointer (PSP) when in secure s
 260:.\CMSIS\Core\Include/cmsis_gcc.h ****   \return               PSP Register value
 261:.\CMSIS\Core\Include/cmsis_gcc.h ****  */
 262:.\CMSIS\Core\Include/cmsis_gcc.h **** __STATIC_FORCEINLINE uint32_t __TZ_get_PSP_NS(void)
 263:.\CMSIS\Core\Include/cmsis_gcc.h **** {
 264:.\CMSIS\Core\Include/cmsis_gcc.h ****   uint32_t result;
 265:.\CMSIS\Core\Include/cmsis_gcc.h **** 
 266:.\CMSIS\Core\Include/cmsis_gcc.h ****   __ASM volatile ("MRS %0, psp_ns"  : "=r" (result) );
 267:.\CMSIS\Core\Include/cmsis_gcc.h ****   return(result);
 268:.\CMSIS\Core\Include/cmsis_gcc.h **** }
 269:.\CMSIS\Core\Include/cmsis_gcc.h **** #endif
 270:.\CMSIS\Core\Include/cmsis_gcc.h **** 
 271:.\CMSIS\Core\Include/cmsis_gcc.h **** 
 272:.\CMSIS\Core\Include/cmsis_gcc.h **** /**
 273:.\CMSIS\Core\Include/cmsis_gcc.h ****   \brief   Set Process Stack Pointer
 274:.\CMSIS\Core\Include/cmsis_gcc.h ****   \details Assigns the given value to the Process Stack Pointer (PSP).
 275:.\CMSIS\Core\Include/cmsis_gcc.h ****   \param [in]    topOfProcStack  Process Stack Pointer value to set
 276:.\CMSIS\Core\Include/cmsis_gcc.h ****  */
 277:.\CMSIS\Core\Include/cmsis_gcc.h **** __STATIC_FORCEINLINE void __set_PSP(uint32_t topOfProcStack)
 278:.\CMSIS\Core\Include/cmsis_gcc.h **** {
 279:.\CMSIS\Core\Include/cmsis_gcc.h ****   __ASM volatile ("MSR psp, %0" : : "r" (topOfProcStack) : );
 280:.\CMSIS\Core\Include/cmsis_gcc.h **** }
 281:.\CMSIS\Core\Include/cmsis_gcc.h **** 
 282:.\CMSIS\Core\Include/cmsis_gcc.h **** 
 283:.\CMSIS\Core\Include/cmsis_gcc.h **** #if (defined (__ARM_FEATURE_CMSE ) && (__ARM_FEATURE_CMSE == 3))
 284:.\CMSIS\Core\Include/cmsis_gcc.h **** /**
 285:.\CMSIS\Core\Include/cmsis_gcc.h ****   \brief   Set Process Stack Pointer (non-secure)
 286:.\CMSIS\Core\Include/cmsis_gcc.h ****   \details Assigns the given value to the non-secure Process Stack Pointer (PSP) when in secure sta
 287:.\CMSIS\Core\Include/cmsis_gcc.h ****   \param [in]    topOfProcStack  Process Stack Pointer value to set
 288:.\CMSIS\Core\Include/cmsis_gcc.h ****  */
 289:.\CMSIS\Core\Include/cmsis_gcc.h **** __STATIC_FORCEINLINE void __TZ_set_PSP_NS(uint32_t topOfProcStack)
 290:.\CMSIS\Core\Include/cmsis_gcc.h **** {
 291:.\CMSIS\Core\Include/cmsis_gcc.h ****   __ASM volatile ("MSR psp_ns, %0" : : "r" (topOfProcStack) : );
 292:.\CMSIS\Core\Include/cmsis_gcc.h **** }
 293:.\CMSIS\Core\Include/cmsis_gcc.h **** #endif
 294:.\CMSIS\Core\Include/cmsis_gcc.h **** 
 295:.\CMSIS\Core\Include/cmsis_gcc.h **** 
 296:.\CMSIS\Core\Include/cmsis_gcc.h **** /**
 297:.\CMSIS\Core\Include/cmsis_gcc.h ****   \brief   Get Main Stack Pointer
 298:.\CMSIS\Core\Include/cmsis_gcc.h ****   \details Returns the current value of the Main Stack Pointer (MSP).
 299:.\CMSIS\Core\Include/cmsis_gcc.h ****   \return               MSP Register value
 300:.\CMSIS\Core\Include/cmsis_gcc.h ****  */
 301:.\CMSIS\Core\Include/cmsis_gcc.h **** __STATIC_FORCEINLINE uint32_t __get_MSP(void)
 302:.\CMSIS\Core\Include/cmsis_gcc.h **** {
 303:.\CMSIS\Core\Include/cmsis_gcc.h ****   uint32_t result;
 304:.\CMSIS\Core\Include/cmsis_gcc.h **** 
 305:.\CMSIS\Core\Include/cmsis_gcc.h ****   __ASM volatile ("MRS %0, msp" : "=r" (result) );
 306:.\CMSIS\Core\Include/cmsis_gcc.h ****   return(result);
 307:.\CMSIS\Core\Include/cmsis_gcc.h **** }
 308:.\CMSIS\Core\Include/cmsis_gcc.h **** 
 309:.\CMSIS\Core\Include/cmsis_gcc.h **** 
 310:.\CMSIS\Core\Include/cmsis_gcc.h **** #if (defined (__ARM_FEATURE_CMSE ) && (__ARM_FEATURE_CMSE == 3))
ARM GAS  C:\Users\nicpa\AppData\Local\Temp\ccPr5feD.s 			page 73


 311:.\CMSIS\Core\Include/cmsis_gcc.h **** /**
 312:.\CMSIS\Core\Include/cmsis_gcc.h ****   \brief   Get Main Stack Pointer (non-secure)
 313:.\CMSIS\Core\Include/cmsis_gcc.h ****   \details Returns the current value of the non-secure Main Stack Pointer (MSP) when in secure stat
 314:.\CMSIS\Core\Include/cmsis_gcc.h ****   \return               MSP Register value
 315:.\CMSIS\Core\Include/cmsis_gcc.h ****  */
 316:.\CMSIS\Core\Include/cmsis_gcc.h **** __STATIC_FORCEINLINE uint32_t __TZ_get_MSP_NS(void)
 317:.\CMSIS\Core\Include/cmsis_gcc.h **** {
 318:.\CMSIS\Core\Include/cmsis_gcc.h ****   uint32_t result;
 319:.\CMSIS\Core\Include/cmsis_gcc.h **** 
 320:.\CMSIS\Core\Include/cmsis_gcc.h ****   __ASM volatile ("MRS %0, msp_ns" : "=r" (result) );
 321:.\CMSIS\Core\Include/cmsis_gcc.h ****   return(result);
 322:.\CMSIS\Core\Include/cmsis_gcc.h **** }
 323:.\CMSIS\Core\Include/cmsis_gcc.h **** #endif
 324:.\CMSIS\Core\Include/cmsis_gcc.h **** 
 325:.\CMSIS\Core\Include/cmsis_gcc.h **** 
 326:.\CMSIS\Core\Include/cmsis_gcc.h **** /**
 327:.\CMSIS\Core\Include/cmsis_gcc.h ****   \brief   Set Main Stack Pointer
 328:.\CMSIS\Core\Include/cmsis_gcc.h ****   \details Assigns the given value to the Main Stack Pointer (MSP).
 329:.\CMSIS\Core\Include/cmsis_gcc.h ****   \param [in]    topOfMainStack  Main Stack Pointer value to set
 330:.\CMSIS\Core\Include/cmsis_gcc.h ****  */
 331:.\CMSIS\Core\Include/cmsis_gcc.h **** __STATIC_FORCEINLINE void __set_MSP(uint32_t topOfMainStack)
 332:.\CMSIS\Core\Include/cmsis_gcc.h **** {
 333:.\CMSIS\Core\Include/cmsis_gcc.h ****   __ASM volatile ("MSR msp, %0" : : "r" (topOfMainStack) : );
 334:.\CMSIS\Core\Include/cmsis_gcc.h **** }
 335:.\CMSIS\Core\Include/cmsis_gcc.h **** 
 336:.\CMSIS\Core\Include/cmsis_gcc.h **** 
 337:.\CMSIS\Core\Include/cmsis_gcc.h **** #if (defined (__ARM_FEATURE_CMSE ) && (__ARM_FEATURE_CMSE == 3))
 338:.\CMSIS\Core\Include/cmsis_gcc.h **** /**
 339:.\CMSIS\Core\Include/cmsis_gcc.h ****   \brief   Set Main Stack Pointer (non-secure)
 340:.\CMSIS\Core\Include/cmsis_gcc.h ****   \details Assigns the given value to the non-secure Main Stack Pointer (MSP) when in secure state.
 341:.\CMSIS\Core\Include/cmsis_gcc.h ****   \param [in]    topOfMainStack  Main Stack Pointer value to set
 342:.\CMSIS\Core\Include/cmsis_gcc.h ****  */
 343:.\CMSIS\Core\Include/cmsis_gcc.h **** __STATIC_FORCEINLINE void __TZ_set_MSP_NS(uint32_t topOfMainStack)
 344:.\CMSIS\Core\Include/cmsis_gcc.h **** {
 345:.\CMSIS\Core\Include/cmsis_gcc.h ****   __ASM volatile ("MSR msp_ns, %0" : : "r" (topOfMainStack) : );
 346:.\CMSIS\Core\Include/cmsis_gcc.h **** }
 347:.\CMSIS\Core\Include/cmsis_gcc.h **** #endif
 348:.\CMSIS\Core\Include/cmsis_gcc.h **** 
 349:.\CMSIS\Core\Include/cmsis_gcc.h **** 
 350:.\CMSIS\Core\Include/cmsis_gcc.h **** #if (defined (__ARM_FEATURE_CMSE ) && (__ARM_FEATURE_CMSE == 3))
 351:.\CMSIS\Core\Include/cmsis_gcc.h **** /**
 352:.\CMSIS\Core\Include/cmsis_gcc.h ****   \brief   Get Stack Pointer (non-secure)
 353:.\CMSIS\Core\Include/cmsis_gcc.h ****   \details Returns the current value of the non-secure Stack Pointer (SP) when in secure state.
 354:.\CMSIS\Core\Include/cmsis_gcc.h ****   \return               SP Register value
 355:.\CMSIS\Core\Include/cmsis_gcc.h ****  */
 356:.\CMSIS\Core\Include/cmsis_gcc.h **** __STATIC_FORCEINLINE uint32_t __TZ_get_SP_NS(void)
 357:.\CMSIS\Core\Include/cmsis_gcc.h **** {
 358:.\CMSIS\Core\Include/cmsis_gcc.h ****   uint32_t result;
 359:.\CMSIS\Core\Include/cmsis_gcc.h **** 
 360:.\CMSIS\Core\Include/cmsis_gcc.h ****   __ASM volatile ("MRS %0, sp_ns" : "=r" (result) );
 361:.\CMSIS\Core\Include/cmsis_gcc.h ****   return(result);
 362:.\CMSIS\Core\Include/cmsis_gcc.h **** }
 363:.\CMSIS\Core\Include/cmsis_gcc.h **** 
 364:.\CMSIS\Core\Include/cmsis_gcc.h **** 
 365:.\CMSIS\Core\Include/cmsis_gcc.h **** /**
 366:.\CMSIS\Core\Include/cmsis_gcc.h ****   \brief   Set Stack Pointer (non-secure)
 367:.\CMSIS\Core\Include/cmsis_gcc.h ****   \details Assigns the given value to the non-secure Stack Pointer (SP) when in secure state.
ARM GAS  C:\Users\nicpa\AppData\Local\Temp\ccPr5feD.s 			page 74


 368:.\CMSIS\Core\Include/cmsis_gcc.h ****   \param [in]    topOfStack  Stack Pointer value to set
 369:.\CMSIS\Core\Include/cmsis_gcc.h ****  */
 370:.\CMSIS\Core\Include/cmsis_gcc.h **** __STATIC_FORCEINLINE void __TZ_set_SP_NS(uint32_t topOfStack)
 371:.\CMSIS\Core\Include/cmsis_gcc.h **** {
 372:.\CMSIS\Core\Include/cmsis_gcc.h ****   __ASM volatile ("MSR sp_ns, %0" : : "r" (topOfStack) : );
 373:.\CMSIS\Core\Include/cmsis_gcc.h **** }
 374:.\CMSIS\Core\Include/cmsis_gcc.h **** #endif
 375:.\CMSIS\Core\Include/cmsis_gcc.h **** 
 376:.\CMSIS\Core\Include/cmsis_gcc.h **** 
 377:.\CMSIS\Core\Include/cmsis_gcc.h **** /**
 378:.\CMSIS\Core\Include/cmsis_gcc.h ****   \brief   Get Priority Mask
 379:.\CMSIS\Core\Include/cmsis_gcc.h ****   \details Returns the current state of the priority mask bit from the Priority Mask Register.
 380:.\CMSIS\Core\Include/cmsis_gcc.h ****   \return               Priority Mask value
 381:.\CMSIS\Core\Include/cmsis_gcc.h ****  */
 382:.\CMSIS\Core\Include/cmsis_gcc.h **** __STATIC_FORCEINLINE uint32_t __get_PRIMASK(void)
 383:.\CMSIS\Core\Include/cmsis_gcc.h **** {
 384:.\CMSIS\Core\Include/cmsis_gcc.h ****   uint32_t result;
 385:.\CMSIS\Core\Include/cmsis_gcc.h **** 
 386:.\CMSIS\Core\Include/cmsis_gcc.h ****   __ASM volatile ("MRS %0, primask" : "=r" (result) :: "memory");
 387:.\CMSIS\Core\Include/cmsis_gcc.h ****   return(result);
 388:.\CMSIS\Core\Include/cmsis_gcc.h **** }
 389:.\CMSIS\Core\Include/cmsis_gcc.h **** 
 390:.\CMSIS\Core\Include/cmsis_gcc.h **** 
 391:.\CMSIS\Core\Include/cmsis_gcc.h **** #if (defined (__ARM_FEATURE_CMSE ) && (__ARM_FEATURE_CMSE == 3))
 392:.\CMSIS\Core\Include/cmsis_gcc.h **** /**
 393:.\CMSIS\Core\Include/cmsis_gcc.h ****   \brief   Get Priority Mask (non-secure)
 394:.\CMSIS\Core\Include/cmsis_gcc.h ****   \details Returns the current state of the non-secure priority mask bit from the Priority Mask Reg
 395:.\CMSIS\Core\Include/cmsis_gcc.h ****   \return               Priority Mask value
 396:.\CMSIS\Core\Include/cmsis_gcc.h ****  */
 397:.\CMSIS\Core\Include/cmsis_gcc.h **** __STATIC_FORCEINLINE uint32_t __TZ_get_PRIMASK_NS(void)
 398:.\CMSIS\Core\Include/cmsis_gcc.h **** {
 399:.\CMSIS\Core\Include/cmsis_gcc.h ****   uint32_t result;
 400:.\CMSIS\Core\Include/cmsis_gcc.h **** 
 401:.\CMSIS\Core\Include/cmsis_gcc.h ****   __ASM volatile ("MRS %0, primask_ns" : "=r" (result) :: "memory");
 402:.\CMSIS\Core\Include/cmsis_gcc.h ****   return(result);
 403:.\CMSIS\Core\Include/cmsis_gcc.h **** }
 404:.\CMSIS\Core\Include/cmsis_gcc.h **** #endif
 405:.\CMSIS\Core\Include/cmsis_gcc.h **** 
 406:.\CMSIS\Core\Include/cmsis_gcc.h **** 
 407:.\CMSIS\Core\Include/cmsis_gcc.h **** /**
 408:.\CMSIS\Core\Include/cmsis_gcc.h ****   \brief   Set Priority Mask
 409:.\CMSIS\Core\Include/cmsis_gcc.h ****   \details Assigns the given value to the Priority Mask Register.
 410:.\CMSIS\Core\Include/cmsis_gcc.h ****   \param [in]    priMask  Priority Mask
 411:.\CMSIS\Core\Include/cmsis_gcc.h ****  */
 412:.\CMSIS\Core\Include/cmsis_gcc.h **** __STATIC_FORCEINLINE void __set_PRIMASK(uint32_t priMask)
 413:.\CMSIS\Core\Include/cmsis_gcc.h **** {
 414:.\CMSIS\Core\Include/cmsis_gcc.h ****   __ASM volatile ("MSR primask, %0" : : "r" (priMask) : "memory");
 415:.\CMSIS\Core\Include/cmsis_gcc.h **** }
 416:.\CMSIS\Core\Include/cmsis_gcc.h **** 
 417:.\CMSIS\Core\Include/cmsis_gcc.h **** 
 418:.\CMSIS\Core\Include/cmsis_gcc.h **** #if (defined (__ARM_FEATURE_CMSE ) && (__ARM_FEATURE_CMSE == 3))
 419:.\CMSIS\Core\Include/cmsis_gcc.h **** /**
 420:.\CMSIS\Core\Include/cmsis_gcc.h ****   \brief   Set Priority Mask (non-secure)
 421:.\CMSIS\Core\Include/cmsis_gcc.h ****   \details Assigns the given value to the non-secure Priority Mask Register when in secure state.
 422:.\CMSIS\Core\Include/cmsis_gcc.h ****   \param [in]    priMask  Priority Mask
 423:.\CMSIS\Core\Include/cmsis_gcc.h ****  */
 424:.\CMSIS\Core\Include/cmsis_gcc.h **** __STATIC_FORCEINLINE void __TZ_set_PRIMASK_NS(uint32_t priMask)
ARM GAS  C:\Users\nicpa\AppData\Local\Temp\ccPr5feD.s 			page 75


 425:.\CMSIS\Core\Include/cmsis_gcc.h **** {
 426:.\CMSIS\Core\Include/cmsis_gcc.h ****   __ASM volatile ("MSR primask_ns, %0" : : "r" (priMask) : "memory");
 427:.\CMSIS\Core\Include/cmsis_gcc.h **** }
 428:.\CMSIS\Core\Include/cmsis_gcc.h **** #endif
 429:.\CMSIS\Core\Include/cmsis_gcc.h **** 
 430:.\CMSIS\Core\Include/cmsis_gcc.h **** 
 431:.\CMSIS\Core\Include/cmsis_gcc.h **** #if ((defined (__ARM_ARCH_7M__      ) && (__ARM_ARCH_7M__      == 1)) || \
 432:.\CMSIS\Core\Include/cmsis_gcc.h ****      (defined (__ARM_ARCH_7EM__     ) && (__ARM_ARCH_7EM__     == 1)) || \
 433:.\CMSIS\Core\Include/cmsis_gcc.h ****      (defined (__ARM_ARCH_8M_MAIN__ ) && (__ARM_ARCH_8M_MAIN__ == 1))    )
 434:.\CMSIS\Core\Include/cmsis_gcc.h **** /**
 435:.\CMSIS\Core\Include/cmsis_gcc.h ****   \brief   Enable FIQ
 436:.\CMSIS\Core\Include/cmsis_gcc.h ****   \details Enables FIQ interrupts by clearing the F-bit in the CPSR.
 437:.\CMSIS\Core\Include/cmsis_gcc.h ****            Can only be executed in Privileged modes.
 438:.\CMSIS\Core\Include/cmsis_gcc.h ****  */
 439:.\CMSIS\Core\Include/cmsis_gcc.h **** __STATIC_FORCEINLINE void __enable_fault_irq(void)
 440:.\CMSIS\Core\Include/cmsis_gcc.h **** {
 441:.\CMSIS\Core\Include/cmsis_gcc.h ****   __ASM volatile ("cpsie f" : : : "memory");
 442:.\CMSIS\Core\Include/cmsis_gcc.h **** }
 443:.\CMSIS\Core\Include/cmsis_gcc.h **** 
 444:.\CMSIS\Core\Include/cmsis_gcc.h **** 
 445:.\CMSIS\Core\Include/cmsis_gcc.h **** /**
 446:.\CMSIS\Core\Include/cmsis_gcc.h ****   \brief   Disable FIQ
 447:.\CMSIS\Core\Include/cmsis_gcc.h ****   \details Disables FIQ interrupts by setting the F-bit in the CPSR.
 448:.\CMSIS\Core\Include/cmsis_gcc.h ****            Can only be executed in Privileged modes.
 449:.\CMSIS\Core\Include/cmsis_gcc.h ****  */
 450:.\CMSIS\Core\Include/cmsis_gcc.h **** __STATIC_FORCEINLINE void __disable_fault_irq(void)
 451:.\CMSIS\Core\Include/cmsis_gcc.h **** {
 452:.\CMSIS\Core\Include/cmsis_gcc.h ****   __ASM volatile ("cpsid f" : : : "memory");
 453:.\CMSIS\Core\Include/cmsis_gcc.h **** }
 454:.\CMSIS\Core\Include/cmsis_gcc.h **** 
 455:.\CMSIS\Core\Include/cmsis_gcc.h **** 
 456:.\CMSIS\Core\Include/cmsis_gcc.h **** /**
 457:.\CMSIS\Core\Include/cmsis_gcc.h ****   \brief   Get Base Priority
 458:.\CMSIS\Core\Include/cmsis_gcc.h ****   \details Returns the current value of the Base Priority register.
 459:.\CMSIS\Core\Include/cmsis_gcc.h ****   \return               Base Priority register value
 460:.\CMSIS\Core\Include/cmsis_gcc.h ****  */
 461:.\CMSIS\Core\Include/cmsis_gcc.h **** __STATIC_FORCEINLINE uint32_t __get_BASEPRI(void)
 462:.\CMSIS\Core\Include/cmsis_gcc.h **** {
 463:.\CMSIS\Core\Include/cmsis_gcc.h ****   uint32_t result;
 464:.\CMSIS\Core\Include/cmsis_gcc.h **** 
 465:.\CMSIS\Core\Include/cmsis_gcc.h ****   __ASM volatile ("MRS %0, basepri" : "=r" (result) );
 466:.\CMSIS\Core\Include/cmsis_gcc.h ****   return(result);
 467:.\CMSIS\Core\Include/cmsis_gcc.h **** }
 468:.\CMSIS\Core\Include/cmsis_gcc.h **** 
 469:.\CMSIS\Core\Include/cmsis_gcc.h **** 
 470:.\CMSIS\Core\Include/cmsis_gcc.h **** #if (defined (__ARM_FEATURE_CMSE ) && (__ARM_FEATURE_CMSE == 3))
 471:.\CMSIS\Core\Include/cmsis_gcc.h **** /**
 472:.\CMSIS\Core\Include/cmsis_gcc.h ****   \brief   Get Base Priority (non-secure)
 473:.\CMSIS\Core\Include/cmsis_gcc.h ****   \details Returns the current value of the non-secure Base Priority register when in secure state.
 474:.\CMSIS\Core\Include/cmsis_gcc.h ****   \return               Base Priority register value
 475:.\CMSIS\Core\Include/cmsis_gcc.h ****  */
 476:.\CMSIS\Core\Include/cmsis_gcc.h **** __STATIC_FORCEINLINE uint32_t __TZ_get_BASEPRI_NS(void)
 477:.\CMSIS\Core\Include/cmsis_gcc.h **** {
 478:.\CMSIS\Core\Include/cmsis_gcc.h ****   uint32_t result;
 479:.\CMSIS\Core\Include/cmsis_gcc.h **** 
 480:.\CMSIS\Core\Include/cmsis_gcc.h ****   __ASM volatile ("MRS %0, basepri_ns" : "=r" (result) );
 481:.\CMSIS\Core\Include/cmsis_gcc.h ****   return(result);
ARM GAS  C:\Users\nicpa\AppData\Local\Temp\ccPr5feD.s 			page 76


 482:.\CMSIS\Core\Include/cmsis_gcc.h **** }
 483:.\CMSIS\Core\Include/cmsis_gcc.h **** #endif
 484:.\CMSIS\Core\Include/cmsis_gcc.h **** 
 485:.\CMSIS\Core\Include/cmsis_gcc.h **** 
 486:.\CMSIS\Core\Include/cmsis_gcc.h **** /**
 487:.\CMSIS\Core\Include/cmsis_gcc.h ****   \brief   Set Base Priority
 488:.\CMSIS\Core\Include/cmsis_gcc.h ****   \details Assigns the given value to the Base Priority register.
 489:.\CMSIS\Core\Include/cmsis_gcc.h ****   \param [in]    basePri  Base Priority value to set
 490:.\CMSIS\Core\Include/cmsis_gcc.h ****  */
 491:.\CMSIS\Core\Include/cmsis_gcc.h **** __STATIC_FORCEINLINE void __set_BASEPRI(uint32_t basePri)
 492:.\CMSIS\Core\Include/cmsis_gcc.h **** {
 493:.\CMSIS\Core\Include/cmsis_gcc.h ****   __ASM volatile ("MSR basepri, %0" : : "r" (basePri) : "memory");
 494:.\CMSIS\Core\Include/cmsis_gcc.h **** }
 495:.\CMSIS\Core\Include/cmsis_gcc.h **** 
 496:.\CMSIS\Core\Include/cmsis_gcc.h **** 
 497:.\CMSIS\Core\Include/cmsis_gcc.h **** #if (defined (__ARM_FEATURE_CMSE ) && (__ARM_FEATURE_CMSE == 3))
 498:.\CMSIS\Core\Include/cmsis_gcc.h **** /**
 499:.\CMSIS\Core\Include/cmsis_gcc.h ****   \brief   Set Base Priority (non-secure)
 500:.\CMSIS\Core\Include/cmsis_gcc.h ****   \details Assigns the given value to the non-secure Base Priority register when in secure state.
 501:.\CMSIS\Core\Include/cmsis_gcc.h ****   \param [in]    basePri  Base Priority value to set
 502:.\CMSIS\Core\Include/cmsis_gcc.h ****  */
 503:.\CMSIS\Core\Include/cmsis_gcc.h **** __STATIC_FORCEINLINE void __TZ_set_BASEPRI_NS(uint32_t basePri)
 504:.\CMSIS\Core\Include/cmsis_gcc.h **** {
 505:.\CMSIS\Core\Include/cmsis_gcc.h ****   __ASM volatile ("MSR basepri_ns, %0" : : "r" (basePri) : "memory");
 506:.\CMSIS\Core\Include/cmsis_gcc.h **** }
 507:.\CMSIS\Core\Include/cmsis_gcc.h **** #endif
 508:.\CMSIS\Core\Include/cmsis_gcc.h **** 
 509:.\CMSIS\Core\Include/cmsis_gcc.h **** 
 510:.\CMSIS\Core\Include/cmsis_gcc.h **** /**
 511:.\CMSIS\Core\Include/cmsis_gcc.h ****   \brief   Set Base Priority with condition
 512:.\CMSIS\Core\Include/cmsis_gcc.h ****   \details Assigns the given value to the Base Priority register only if BASEPRI masking is disable
 513:.\CMSIS\Core\Include/cmsis_gcc.h ****            or the new value increases the BASEPRI priority level.
 514:.\CMSIS\Core\Include/cmsis_gcc.h ****   \param [in]    basePri  Base Priority value to set
 515:.\CMSIS\Core\Include/cmsis_gcc.h ****  */
 516:.\CMSIS\Core\Include/cmsis_gcc.h **** __STATIC_FORCEINLINE void __set_BASEPRI_MAX(uint32_t basePri)
 517:.\CMSIS\Core\Include/cmsis_gcc.h **** {
 518:.\CMSIS\Core\Include/cmsis_gcc.h ****   __ASM volatile ("MSR basepri_max, %0" : : "r" (basePri) : "memory");
 519:.\CMSIS\Core\Include/cmsis_gcc.h **** }
 520:.\CMSIS\Core\Include/cmsis_gcc.h **** 
 521:.\CMSIS\Core\Include/cmsis_gcc.h **** 
 522:.\CMSIS\Core\Include/cmsis_gcc.h **** /**
 523:.\CMSIS\Core\Include/cmsis_gcc.h ****   \brief   Get Fault Mask
 524:.\CMSIS\Core\Include/cmsis_gcc.h ****   \details Returns the current value of the Fault Mask register.
 525:.\CMSIS\Core\Include/cmsis_gcc.h ****   \return               Fault Mask register value
 526:.\CMSIS\Core\Include/cmsis_gcc.h ****  */
 527:.\CMSIS\Core\Include/cmsis_gcc.h **** __STATIC_FORCEINLINE uint32_t __get_FAULTMASK(void)
 528:.\CMSIS\Core\Include/cmsis_gcc.h **** {
 529:.\CMSIS\Core\Include/cmsis_gcc.h ****   uint32_t result;
 530:.\CMSIS\Core\Include/cmsis_gcc.h **** 
 531:.\CMSIS\Core\Include/cmsis_gcc.h ****   __ASM volatile ("MRS %0, faultmask" : "=r" (result) );
 532:.\CMSIS\Core\Include/cmsis_gcc.h ****   return(result);
 533:.\CMSIS\Core\Include/cmsis_gcc.h **** }
 534:.\CMSIS\Core\Include/cmsis_gcc.h **** 
 535:.\CMSIS\Core\Include/cmsis_gcc.h **** 
 536:.\CMSIS\Core\Include/cmsis_gcc.h **** #if (defined (__ARM_FEATURE_CMSE ) && (__ARM_FEATURE_CMSE == 3))
 537:.\CMSIS\Core\Include/cmsis_gcc.h **** /**
 538:.\CMSIS\Core\Include/cmsis_gcc.h ****   \brief   Get Fault Mask (non-secure)
ARM GAS  C:\Users\nicpa\AppData\Local\Temp\ccPr5feD.s 			page 77


 539:.\CMSIS\Core\Include/cmsis_gcc.h ****   \details Returns the current value of the non-secure Fault Mask register when in secure state.
 540:.\CMSIS\Core\Include/cmsis_gcc.h ****   \return               Fault Mask register value
 541:.\CMSIS\Core\Include/cmsis_gcc.h ****  */
 542:.\CMSIS\Core\Include/cmsis_gcc.h **** __STATIC_FORCEINLINE uint32_t __TZ_get_FAULTMASK_NS(void)
 543:.\CMSIS\Core\Include/cmsis_gcc.h **** {
 544:.\CMSIS\Core\Include/cmsis_gcc.h ****   uint32_t result;
 545:.\CMSIS\Core\Include/cmsis_gcc.h **** 
 546:.\CMSIS\Core\Include/cmsis_gcc.h ****   __ASM volatile ("MRS %0, faultmask_ns" : "=r" (result) );
 547:.\CMSIS\Core\Include/cmsis_gcc.h ****   return(result);
 548:.\CMSIS\Core\Include/cmsis_gcc.h **** }
 549:.\CMSIS\Core\Include/cmsis_gcc.h **** #endif
 550:.\CMSIS\Core\Include/cmsis_gcc.h **** 
 551:.\CMSIS\Core\Include/cmsis_gcc.h **** 
 552:.\CMSIS\Core\Include/cmsis_gcc.h **** /**
 553:.\CMSIS\Core\Include/cmsis_gcc.h ****   \brief   Set Fault Mask
 554:.\CMSIS\Core\Include/cmsis_gcc.h ****   \details Assigns the given value to the Fault Mask register.
 555:.\CMSIS\Core\Include/cmsis_gcc.h ****   \param [in]    faultMask  Fault Mask value to set
 556:.\CMSIS\Core\Include/cmsis_gcc.h ****  */
 557:.\CMSIS\Core\Include/cmsis_gcc.h **** __STATIC_FORCEINLINE void __set_FAULTMASK(uint32_t faultMask)
 558:.\CMSIS\Core\Include/cmsis_gcc.h **** {
 559:.\CMSIS\Core\Include/cmsis_gcc.h ****   __ASM volatile ("MSR faultmask, %0" : : "r" (faultMask) : "memory");
 560:.\CMSIS\Core\Include/cmsis_gcc.h **** }
 561:.\CMSIS\Core\Include/cmsis_gcc.h **** 
 562:.\CMSIS\Core\Include/cmsis_gcc.h **** 
 563:.\CMSIS\Core\Include/cmsis_gcc.h **** #if (defined (__ARM_FEATURE_CMSE ) && (__ARM_FEATURE_CMSE == 3))
 564:.\CMSIS\Core\Include/cmsis_gcc.h **** /**
 565:.\CMSIS\Core\Include/cmsis_gcc.h ****   \brief   Set Fault Mask (non-secure)
 566:.\CMSIS\Core\Include/cmsis_gcc.h ****   \details Assigns the given value to the non-secure Fault Mask register when in secure state.
 567:.\CMSIS\Core\Include/cmsis_gcc.h ****   \param [in]    faultMask  Fault Mask value to set
 568:.\CMSIS\Core\Include/cmsis_gcc.h ****  */
 569:.\CMSIS\Core\Include/cmsis_gcc.h **** __STATIC_FORCEINLINE void __TZ_set_FAULTMASK_NS(uint32_t faultMask)
 570:.\CMSIS\Core\Include/cmsis_gcc.h **** {
 571:.\CMSIS\Core\Include/cmsis_gcc.h ****   __ASM volatile ("MSR faultmask_ns, %0" : : "r" (faultMask) : "memory");
 572:.\CMSIS\Core\Include/cmsis_gcc.h **** }
 573:.\CMSIS\Core\Include/cmsis_gcc.h **** #endif
 574:.\CMSIS\Core\Include/cmsis_gcc.h **** 
 575:.\CMSIS\Core\Include/cmsis_gcc.h **** #endif /* ((defined (__ARM_ARCH_7M__      ) && (__ARM_ARCH_7M__      == 1)) || \
 576:.\CMSIS\Core\Include/cmsis_gcc.h ****            (defined (__ARM_ARCH_7EM__     ) && (__ARM_ARCH_7EM__     == 1)) || \
 577:.\CMSIS\Core\Include/cmsis_gcc.h ****            (defined (__ARM_ARCH_8M_MAIN__ ) && (__ARM_ARCH_8M_MAIN__ == 1))    ) */
 578:.\CMSIS\Core\Include/cmsis_gcc.h **** 
 579:.\CMSIS\Core\Include/cmsis_gcc.h **** 
 580:.\CMSIS\Core\Include/cmsis_gcc.h **** #if ((defined (__ARM_ARCH_8M_MAIN__ ) && (__ARM_ARCH_8M_MAIN__ == 1)) || \
 581:.\CMSIS\Core\Include/cmsis_gcc.h ****      (defined (__ARM_ARCH_8M_BASE__ ) && (__ARM_ARCH_8M_BASE__ == 1))    )
 582:.\CMSIS\Core\Include/cmsis_gcc.h **** 
 583:.\CMSIS\Core\Include/cmsis_gcc.h **** /**
 584:.\CMSIS\Core\Include/cmsis_gcc.h ****   \brief   Get Process Stack Pointer Limit
 585:.\CMSIS\Core\Include/cmsis_gcc.h ****   Devices without ARMv8-M Main Extensions (i.e. Cortex-M23) lack the non-secure
 586:.\CMSIS\Core\Include/cmsis_gcc.h ****   Stack Pointer Limit register hence zero is returned always in non-secure
 587:.\CMSIS\Core\Include/cmsis_gcc.h ****   mode.
 588:.\CMSIS\Core\Include/cmsis_gcc.h ****   
 589:.\CMSIS\Core\Include/cmsis_gcc.h ****   \details Returns the current value of the Process Stack Pointer Limit (PSPLIM).
 590:.\CMSIS\Core\Include/cmsis_gcc.h ****   \return               PSPLIM Register value
 591:.\CMSIS\Core\Include/cmsis_gcc.h ****  */
 592:.\CMSIS\Core\Include/cmsis_gcc.h **** __STATIC_FORCEINLINE uint32_t __get_PSPLIM(void)
 593:.\CMSIS\Core\Include/cmsis_gcc.h **** {
 594:.\CMSIS\Core\Include/cmsis_gcc.h **** #if (!(defined (__ARM_ARCH_8M_MAIN__ ) && (__ARM_ARCH_8M_MAIN__ == 1)) && \
 595:.\CMSIS\Core\Include/cmsis_gcc.h ****     (!defined (__ARM_FEATURE_CMSE) || (__ARM_FEATURE_CMSE < 3)))
ARM GAS  C:\Users\nicpa\AppData\Local\Temp\ccPr5feD.s 			page 78


 596:.\CMSIS\Core\Include/cmsis_gcc.h ****     // without main extensions, the non-secure PSPLIM is RAZ/WI
 597:.\CMSIS\Core\Include/cmsis_gcc.h ****   return 0U;
 598:.\CMSIS\Core\Include/cmsis_gcc.h **** #else
 599:.\CMSIS\Core\Include/cmsis_gcc.h ****   uint32_t result;
 600:.\CMSIS\Core\Include/cmsis_gcc.h ****   __ASM volatile ("MRS %0, psplim"  : "=r" (result) );
 601:.\CMSIS\Core\Include/cmsis_gcc.h ****   return result;
 602:.\CMSIS\Core\Include/cmsis_gcc.h **** #endif
 603:.\CMSIS\Core\Include/cmsis_gcc.h **** }
 604:.\CMSIS\Core\Include/cmsis_gcc.h **** 
 605:.\CMSIS\Core\Include/cmsis_gcc.h **** #if (defined (__ARM_FEATURE_CMSE) && (__ARM_FEATURE_CMSE == 3))
 606:.\CMSIS\Core\Include/cmsis_gcc.h **** /**
 607:.\CMSIS\Core\Include/cmsis_gcc.h ****   \brief   Get Process Stack Pointer Limit (non-secure)
 608:.\CMSIS\Core\Include/cmsis_gcc.h ****   Devices without ARMv8-M Main Extensions (i.e. Cortex-M23) lack the non-secure
 609:.\CMSIS\Core\Include/cmsis_gcc.h ****   Stack Pointer Limit register hence zero is returned always.
 610:.\CMSIS\Core\Include/cmsis_gcc.h **** 
 611:.\CMSIS\Core\Include/cmsis_gcc.h ****   \details Returns the current value of the non-secure Process Stack Pointer Limit (PSPLIM) when in
 612:.\CMSIS\Core\Include/cmsis_gcc.h ****   \return               PSPLIM Register value
 613:.\CMSIS\Core\Include/cmsis_gcc.h ****  */
 614:.\CMSIS\Core\Include/cmsis_gcc.h **** __STATIC_FORCEINLINE uint32_t __TZ_get_PSPLIM_NS(void)
 615:.\CMSIS\Core\Include/cmsis_gcc.h **** {
 616:.\CMSIS\Core\Include/cmsis_gcc.h **** #if (!(defined (__ARM_ARCH_8M_MAIN__ ) && (__ARM_ARCH_8M_MAIN__ == 1)))
 617:.\CMSIS\Core\Include/cmsis_gcc.h ****   // without main extensions, the non-secure PSPLIM is RAZ/WI
 618:.\CMSIS\Core\Include/cmsis_gcc.h ****   return 0U;
 619:.\CMSIS\Core\Include/cmsis_gcc.h **** #else
 620:.\CMSIS\Core\Include/cmsis_gcc.h ****   uint32_t result;
 621:.\CMSIS\Core\Include/cmsis_gcc.h ****   __ASM volatile ("MRS %0, psplim_ns"  : "=r" (result) );
 622:.\CMSIS\Core\Include/cmsis_gcc.h ****   return result;
 623:.\CMSIS\Core\Include/cmsis_gcc.h **** #endif
 624:.\CMSIS\Core\Include/cmsis_gcc.h **** }
 625:.\CMSIS\Core\Include/cmsis_gcc.h **** #endif
 626:.\CMSIS\Core\Include/cmsis_gcc.h **** 
 627:.\CMSIS\Core\Include/cmsis_gcc.h **** 
 628:.\CMSIS\Core\Include/cmsis_gcc.h **** /**
 629:.\CMSIS\Core\Include/cmsis_gcc.h ****   \brief   Set Process Stack Pointer Limit
 630:.\CMSIS\Core\Include/cmsis_gcc.h ****   Devices without ARMv8-M Main Extensions (i.e. Cortex-M23) lack the non-secure
 631:.\CMSIS\Core\Include/cmsis_gcc.h ****   Stack Pointer Limit register hence the write is silently ignored in non-secure
 632:.\CMSIS\Core\Include/cmsis_gcc.h ****   mode.
 633:.\CMSIS\Core\Include/cmsis_gcc.h ****   
 634:.\CMSIS\Core\Include/cmsis_gcc.h ****   \details Assigns the given value to the Process Stack Pointer Limit (PSPLIM).
 635:.\CMSIS\Core\Include/cmsis_gcc.h ****   \param [in]    ProcStackPtrLimit  Process Stack Pointer Limit value to set
 636:.\CMSIS\Core\Include/cmsis_gcc.h ****  */
 637:.\CMSIS\Core\Include/cmsis_gcc.h **** __STATIC_FORCEINLINE void __set_PSPLIM(uint32_t ProcStackPtrLimit)
 638:.\CMSIS\Core\Include/cmsis_gcc.h **** {
 639:.\CMSIS\Core\Include/cmsis_gcc.h **** #if (!(defined (__ARM_ARCH_8M_MAIN__ ) && (__ARM_ARCH_8M_MAIN__ == 1)) && \
 640:.\CMSIS\Core\Include/cmsis_gcc.h ****     (!defined (__ARM_FEATURE_CMSE) || (__ARM_FEATURE_CMSE < 3)))
 641:.\CMSIS\Core\Include/cmsis_gcc.h ****   // without main extensions, the non-secure PSPLIM is RAZ/WI
 642:.\CMSIS\Core\Include/cmsis_gcc.h ****   (void)ProcStackPtrLimit;
 643:.\CMSIS\Core\Include/cmsis_gcc.h **** #else
 644:.\CMSIS\Core\Include/cmsis_gcc.h ****   __ASM volatile ("MSR psplim, %0" : : "r" (ProcStackPtrLimit));
 645:.\CMSIS\Core\Include/cmsis_gcc.h **** #endif
 646:.\CMSIS\Core\Include/cmsis_gcc.h **** }
 647:.\CMSIS\Core\Include/cmsis_gcc.h **** 
 648:.\CMSIS\Core\Include/cmsis_gcc.h **** 
 649:.\CMSIS\Core\Include/cmsis_gcc.h **** #if (defined (__ARM_FEATURE_CMSE  ) && (__ARM_FEATURE_CMSE   == 3))
 650:.\CMSIS\Core\Include/cmsis_gcc.h **** /**
 651:.\CMSIS\Core\Include/cmsis_gcc.h ****   \brief   Set Process Stack Pointer (non-secure)
 652:.\CMSIS\Core\Include/cmsis_gcc.h ****   Devices without ARMv8-M Main Extensions (i.e. Cortex-M23) lack the non-secure
ARM GAS  C:\Users\nicpa\AppData\Local\Temp\ccPr5feD.s 			page 79


 653:.\CMSIS\Core\Include/cmsis_gcc.h ****   Stack Pointer Limit register hence the write is silently ignored.
 654:.\CMSIS\Core\Include/cmsis_gcc.h **** 
 655:.\CMSIS\Core\Include/cmsis_gcc.h ****   \details Assigns the given value to the non-secure Process Stack Pointer Limit (PSPLIM) when in s
 656:.\CMSIS\Core\Include/cmsis_gcc.h ****   \param [in]    ProcStackPtrLimit  Process Stack Pointer Limit value to set
 657:.\CMSIS\Core\Include/cmsis_gcc.h ****  */
 658:.\CMSIS\Core\Include/cmsis_gcc.h **** __STATIC_FORCEINLINE void __TZ_set_PSPLIM_NS(uint32_t ProcStackPtrLimit)
 659:.\CMSIS\Core\Include/cmsis_gcc.h **** {
 660:.\CMSIS\Core\Include/cmsis_gcc.h **** #if (!(defined (__ARM_ARCH_8M_MAIN__ ) && (__ARM_ARCH_8M_MAIN__ == 1)))
 661:.\CMSIS\Core\Include/cmsis_gcc.h ****   // without main extensions, the non-secure PSPLIM is RAZ/WI
 662:.\CMSIS\Core\Include/cmsis_gcc.h ****   (void)ProcStackPtrLimit;
 663:.\CMSIS\Core\Include/cmsis_gcc.h **** #else
 664:.\CMSIS\Core\Include/cmsis_gcc.h ****   __ASM volatile ("MSR psplim_ns, %0\n" : : "r" (ProcStackPtrLimit));
 665:.\CMSIS\Core\Include/cmsis_gcc.h **** #endif
 666:.\CMSIS\Core\Include/cmsis_gcc.h **** }
 667:.\CMSIS\Core\Include/cmsis_gcc.h **** #endif
 668:.\CMSIS\Core\Include/cmsis_gcc.h **** 
 669:.\CMSIS\Core\Include/cmsis_gcc.h **** 
 670:.\CMSIS\Core\Include/cmsis_gcc.h **** /**
 671:.\CMSIS\Core\Include/cmsis_gcc.h ****   \brief   Get Main Stack Pointer Limit
 672:.\CMSIS\Core\Include/cmsis_gcc.h ****   Devices without ARMv8-M Main Extensions (i.e. Cortex-M23) lack the non-secure
 673:.\CMSIS\Core\Include/cmsis_gcc.h ****   Stack Pointer Limit register hence zero is returned always in non-secure
 674:.\CMSIS\Core\Include/cmsis_gcc.h ****   mode.
 675:.\CMSIS\Core\Include/cmsis_gcc.h **** 
 676:.\CMSIS\Core\Include/cmsis_gcc.h ****   \details Returns the current value of the Main Stack Pointer Limit (MSPLIM).
 677:.\CMSIS\Core\Include/cmsis_gcc.h ****   \return               MSPLIM Register value
 678:.\CMSIS\Core\Include/cmsis_gcc.h ****  */
 679:.\CMSIS\Core\Include/cmsis_gcc.h **** __STATIC_FORCEINLINE uint32_t __get_MSPLIM(void)
 680:.\CMSIS\Core\Include/cmsis_gcc.h **** {
 681:.\CMSIS\Core\Include/cmsis_gcc.h **** #if (!(defined (__ARM_ARCH_8M_MAIN__ ) && (__ARM_ARCH_8M_MAIN__ == 1)) && \
 682:.\CMSIS\Core\Include/cmsis_gcc.h ****     (!defined (__ARM_FEATURE_CMSE) || (__ARM_FEATURE_CMSE < 3)))
 683:.\CMSIS\Core\Include/cmsis_gcc.h ****   // without main extensions, the non-secure MSPLIM is RAZ/WI
 684:.\CMSIS\Core\Include/cmsis_gcc.h ****   return 0U;
 685:.\CMSIS\Core\Include/cmsis_gcc.h **** #else
 686:.\CMSIS\Core\Include/cmsis_gcc.h ****   uint32_t result;
 687:.\CMSIS\Core\Include/cmsis_gcc.h ****   __ASM volatile ("MRS %0, msplim" : "=r" (result) );
 688:.\CMSIS\Core\Include/cmsis_gcc.h ****   return result;
 689:.\CMSIS\Core\Include/cmsis_gcc.h **** #endif
 690:.\CMSIS\Core\Include/cmsis_gcc.h **** }
 691:.\CMSIS\Core\Include/cmsis_gcc.h **** 
 692:.\CMSIS\Core\Include/cmsis_gcc.h **** 
 693:.\CMSIS\Core\Include/cmsis_gcc.h **** #if (defined (__ARM_FEATURE_CMSE  ) && (__ARM_FEATURE_CMSE   == 3))
 694:.\CMSIS\Core\Include/cmsis_gcc.h **** /**
 695:.\CMSIS\Core\Include/cmsis_gcc.h ****   \brief   Get Main Stack Pointer Limit (non-secure)
 696:.\CMSIS\Core\Include/cmsis_gcc.h ****   Devices without ARMv8-M Main Extensions (i.e. Cortex-M23) lack the non-secure
 697:.\CMSIS\Core\Include/cmsis_gcc.h ****   Stack Pointer Limit register hence zero is returned always.
 698:.\CMSIS\Core\Include/cmsis_gcc.h **** 
 699:.\CMSIS\Core\Include/cmsis_gcc.h ****   \details Returns the current value of the non-secure Main Stack Pointer Limit(MSPLIM) when in sec
 700:.\CMSIS\Core\Include/cmsis_gcc.h ****   \return               MSPLIM Register value
 701:.\CMSIS\Core\Include/cmsis_gcc.h ****  */
 702:.\CMSIS\Core\Include/cmsis_gcc.h **** __STATIC_FORCEINLINE uint32_t __TZ_get_MSPLIM_NS(void)
 703:.\CMSIS\Core\Include/cmsis_gcc.h **** {
 704:.\CMSIS\Core\Include/cmsis_gcc.h **** #if (!(defined (__ARM_ARCH_8M_MAIN__ ) && (__ARM_ARCH_8M_MAIN__ == 1)))
 705:.\CMSIS\Core\Include/cmsis_gcc.h ****   // without main extensions, the non-secure MSPLIM is RAZ/WI
 706:.\CMSIS\Core\Include/cmsis_gcc.h ****   return 0U;
 707:.\CMSIS\Core\Include/cmsis_gcc.h **** #else
 708:.\CMSIS\Core\Include/cmsis_gcc.h ****   uint32_t result;
 709:.\CMSIS\Core\Include/cmsis_gcc.h ****   __ASM volatile ("MRS %0, msplim_ns" : "=r" (result) );
ARM GAS  C:\Users\nicpa\AppData\Local\Temp\ccPr5feD.s 			page 80


 710:.\CMSIS\Core\Include/cmsis_gcc.h ****   return result;
 711:.\CMSIS\Core\Include/cmsis_gcc.h **** #endif
 712:.\CMSIS\Core\Include/cmsis_gcc.h **** }
 713:.\CMSIS\Core\Include/cmsis_gcc.h **** #endif
 714:.\CMSIS\Core\Include/cmsis_gcc.h **** 
 715:.\CMSIS\Core\Include/cmsis_gcc.h **** 
 716:.\CMSIS\Core\Include/cmsis_gcc.h **** /**
 717:.\CMSIS\Core\Include/cmsis_gcc.h ****   \brief   Set Main Stack Pointer Limit
 718:.\CMSIS\Core\Include/cmsis_gcc.h ****   Devices without ARMv8-M Main Extensions (i.e. Cortex-M23) lack the non-secure
 719:.\CMSIS\Core\Include/cmsis_gcc.h ****   Stack Pointer Limit register hence the write is silently ignored in non-secure
 720:.\CMSIS\Core\Include/cmsis_gcc.h ****   mode.
 721:.\CMSIS\Core\Include/cmsis_gcc.h **** 
 722:.\CMSIS\Core\Include/cmsis_gcc.h ****   \details Assigns the given value to the Main Stack Pointer Limit (MSPLIM).
 723:.\CMSIS\Core\Include/cmsis_gcc.h ****   \param [in]    MainStackPtrLimit  Main Stack Pointer Limit value to set
 724:.\CMSIS\Core\Include/cmsis_gcc.h ****  */
 725:.\CMSIS\Core\Include/cmsis_gcc.h **** __STATIC_FORCEINLINE void __set_MSPLIM(uint32_t MainStackPtrLimit)
 726:.\CMSIS\Core\Include/cmsis_gcc.h **** {
 727:.\CMSIS\Core\Include/cmsis_gcc.h **** #if (!(defined (__ARM_ARCH_8M_MAIN__ ) && (__ARM_ARCH_8M_MAIN__ == 1)) && \
 728:.\CMSIS\Core\Include/cmsis_gcc.h ****     (!defined (__ARM_FEATURE_CMSE) || (__ARM_FEATURE_CMSE < 3)))
 729:.\CMSIS\Core\Include/cmsis_gcc.h ****   // without main extensions, the non-secure MSPLIM is RAZ/WI
 730:.\CMSIS\Core\Include/cmsis_gcc.h ****   (void)MainStackPtrLimit;
 731:.\CMSIS\Core\Include/cmsis_gcc.h **** #else
 732:.\CMSIS\Core\Include/cmsis_gcc.h ****   __ASM volatile ("MSR msplim, %0" : : "r" (MainStackPtrLimit));
 733:.\CMSIS\Core\Include/cmsis_gcc.h **** #endif
 734:.\CMSIS\Core\Include/cmsis_gcc.h **** }
 735:.\CMSIS\Core\Include/cmsis_gcc.h **** 
 736:.\CMSIS\Core\Include/cmsis_gcc.h **** 
 737:.\CMSIS\Core\Include/cmsis_gcc.h **** #if (defined (__ARM_FEATURE_CMSE  ) && (__ARM_FEATURE_CMSE   == 3))
 738:.\CMSIS\Core\Include/cmsis_gcc.h **** /**
 739:.\CMSIS\Core\Include/cmsis_gcc.h ****   \brief   Set Main Stack Pointer Limit (non-secure)
 740:.\CMSIS\Core\Include/cmsis_gcc.h ****   Devices without ARMv8-M Main Extensions (i.e. Cortex-M23) lack the non-secure
 741:.\CMSIS\Core\Include/cmsis_gcc.h ****   Stack Pointer Limit register hence the write is silently ignored.
 742:.\CMSIS\Core\Include/cmsis_gcc.h **** 
 743:.\CMSIS\Core\Include/cmsis_gcc.h ****   \details Assigns the given value to the non-secure Main Stack Pointer Limit (MSPLIM) when in secu
 744:.\CMSIS\Core\Include/cmsis_gcc.h ****   \param [in]    MainStackPtrLimit  Main Stack Pointer value to set
 745:.\CMSIS\Core\Include/cmsis_gcc.h ****  */
 746:.\CMSIS\Core\Include/cmsis_gcc.h **** __STATIC_FORCEINLINE void __TZ_set_MSPLIM_NS(uint32_t MainStackPtrLimit)
 747:.\CMSIS\Core\Include/cmsis_gcc.h **** {
 748:.\CMSIS\Core\Include/cmsis_gcc.h **** #if (!(defined (__ARM_ARCH_8M_MAIN__ ) && (__ARM_ARCH_8M_MAIN__ == 1)))
 749:.\CMSIS\Core\Include/cmsis_gcc.h ****   // without main extensions, the non-secure MSPLIM is RAZ/WI
 750:.\CMSIS\Core\Include/cmsis_gcc.h ****   (void)MainStackPtrLimit;
 751:.\CMSIS\Core\Include/cmsis_gcc.h **** #else
 752:.\CMSIS\Core\Include/cmsis_gcc.h ****   __ASM volatile ("MSR msplim_ns, %0" : : "r" (MainStackPtrLimit));
 753:.\CMSIS\Core\Include/cmsis_gcc.h **** #endif
 754:.\CMSIS\Core\Include/cmsis_gcc.h **** }
 755:.\CMSIS\Core\Include/cmsis_gcc.h **** #endif
 756:.\CMSIS\Core\Include/cmsis_gcc.h **** 
 757:.\CMSIS\Core\Include/cmsis_gcc.h **** #endif /* ((defined (__ARM_ARCH_8M_MAIN__ ) && (__ARM_ARCH_8M_MAIN__ == 1)) || \
 758:.\CMSIS\Core\Include/cmsis_gcc.h ****            (defined (__ARM_ARCH_8M_BASE__ ) && (__ARM_ARCH_8M_BASE__ == 1))    ) */
 759:.\CMSIS\Core\Include/cmsis_gcc.h **** 
 760:.\CMSIS\Core\Include/cmsis_gcc.h **** 
 761:.\CMSIS\Core\Include/cmsis_gcc.h **** /**
 762:.\CMSIS\Core\Include/cmsis_gcc.h ****   \brief   Get FPSCR
 763:.\CMSIS\Core\Include/cmsis_gcc.h ****   \details Returns the current value of the Floating Point Status/Control register.
 764:.\CMSIS\Core\Include/cmsis_gcc.h ****   \return               Floating Point Status/Control register value
 765:.\CMSIS\Core\Include/cmsis_gcc.h ****  */
 766:.\CMSIS\Core\Include/cmsis_gcc.h **** __STATIC_FORCEINLINE uint32_t __get_FPSCR(void)
ARM GAS  C:\Users\nicpa\AppData\Local\Temp\ccPr5feD.s 			page 81


 767:.\CMSIS\Core\Include/cmsis_gcc.h **** {
 768:.\CMSIS\Core\Include/cmsis_gcc.h **** #if ((defined (__FPU_PRESENT) && (__FPU_PRESENT == 1U)) && \
 769:.\CMSIS\Core\Include/cmsis_gcc.h ****      (defined (__FPU_USED   ) && (__FPU_USED    == 1U))     )
 770:.\CMSIS\Core\Include/cmsis_gcc.h **** #if __has_builtin(__builtin_arm_get_fpscr) 
 771:.\CMSIS\Core\Include/cmsis_gcc.h **** // Re-enable using built-in when GCC has been fixed
 772:.\CMSIS\Core\Include/cmsis_gcc.h **** // || (__GNUC__ > 7) || (__GNUC__ == 7 && __GNUC_MINOR__ >= 2)
 773:.\CMSIS\Core\Include/cmsis_gcc.h ****   /* see https://gcc.gnu.org/ml/gcc-patches/2017-04/msg00443.html */
 774:.\CMSIS\Core\Include/cmsis_gcc.h ****   return __builtin_arm_get_fpscr();
 775:.\CMSIS\Core\Include/cmsis_gcc.h **** #else
 776:.\CMSIS\Core\Include/cmsis_gcc.h ****   uint32_t result;
 777:.\CMSIS\Core\Include/cmsis_gcc.h **** 
 778:.\CMSIS\Core\Include/cmsis_gcc.h ****   __ASM volatile ("VMRS %0, fpscr" : "=r" (result) );
 779:.\CMSIS\Core\Include/cmsis_gcc.h ****   return(result);
 780:.\CMSIS\Core\Include/cmsis_gcc.h **** #endif
 781:.\CMSIS\Core\Include/cmsis_gcc.h **** #else
 782:.\CMSIS\Core\Include/cmsis_gcc.h ****   return(0U);
 783:.\CMSIS\Core\Include/cmsis_gcc.h **** #endif
 784:.\CMSIS\Core\Include/cmsis_gcc.h **** }
 785:.\CMSIS\Core\Include/cmsis_gcc.h **** 
 786:.\CMSIS\Core\Include/cmsis_gcc.h **** 
 787:.\CMSIS\Core\Include/cmsis_gcc.h **** /**
 788:.\CMSIS\Core\Include/cmsis_gcc.h ****   \brief   Set FPSCR
 789:.\CMSIS\Core\Include/cmsis_gcc.h ****   \details Assigns the given value to the Floating Point Status/Control register.
 790:.\CMSIS\Core\Include/cmsis_gcc.h ****   \param [in]    fpscr  Floating Point Status/Control value to set
 791:.\CMSIS\Core\Include/cmsis_gcc.h ****  */
 792:.\CMSIS\Core\Include/cmsis_gcc.h **** __STATIC_FORCEINLINE void __set_FPSCR(uint32_t fpscr)
 793:.\CMSIS\Core\Include/cmsis_gcc.h **** {
 794:.\CMSIS\Core\Include/cmsis_gcc.h **** #if ((defined (__FPU_PRESENT) && (__FPU_PRESENT == 1U)) && \
 795:.\CMSIS\Core\Include/cmsis_gcc.h ****      (defined (__FPU_USED   ) && (__FPU_USED    == 1U))     )
 796:.\CMSIS\Core\Include/cmsis_gcc.h **** #if __has_builtin(__builtin_arm_set_fpscr)
 797:.\CMSIS\Core\Include/cmsis_gcc.h **** // Re-enable using built-in when GCC has been fixed
 798:.\CMSIS\Core\Include/cmsis_gcc.h **** // || (__GNUC__ > 7) || (__GNUC__ == 7 && __GNUC_MINOR__ >= 2)
 799:.\CMSIS\Core\Include/cmsis_gcc.h ****   /* see https://gcc.gnu.org/ml/gcc-patches/2017-04/msg00443.html */
 800:.\CMSIS\Core\Include/cmsis_gcc.h ****   __builtin_arm_set_fpscr(fpscr);
 801:.\CMSIS\Core\Include/cmsis_gcc.h **** #else
 802:.\CMSIS\Core\Include/cmsis_gcc.h ****   __ASM volatile ("VMSR fpscr, %0" : : "r" (fpscr) : "vfpcc", "memory");
 803:.\CMSIS\Core\Include/cmsis_gcc.h **** #endif
 804:.\CMSIS\Core\Include/cmsis_gcc.h **** #else
 805:.\CMSIS\Core\Include/cmsis_gcc.h ****   (void)fpscr;
 806:.\CMSIS\Core\Include/cmsis_gcc.h **** #endif
 807:.\CMSIS\Core\Include/cmsis_gcc.h **** }
 808:.\CMSIS\Core\Include/cmsis_gcc.h **** 
 809:.\CMSIS\Core\Include/cmsis_gcc.h **** 
 810:.\CMSIS\Core\Include/cmsis_gcc.h **** /*@} end of CMSIS_Core_RegAccFunctions */
 811:.\CMSIS\Core\Include/cmsis_gcc.h **** 
 812:.\CMSIS\Core\Include/cmsis_gcc.h **** 
 813:.\CMSIS\Core\Include/cmsis_gcc.h **** /* ##########################  Core Instruction Access  ######################### */
 814:.\CMSIS\Core\Include/cmsis_gcc.h **** /** \defgroup CMSIS_Core_InstructionInterface CMSIS Core Instruction Interface
 815:.\CMSIS\Core\Include/cmsis_gcc.h ****   Access to dedicated instructions
 816:.\CMSIS\Core\Include/cmsis_gcc.h ****   @{
 817:.\CMSIS\Core\Include/cmsis_gcc.h **** */
 818:.\CMSIS\Core\Include/cmsis_gcc.h **** 
 819:.\CMSIS\Core\Include/cmsis_gcc.h **** /* Define macros for porting to both thumb1 and thumb2.
 820:.\CMSIS\Core\Include/cmsis_gcc.h ****  * For thumb1, use low register (r0-r7), specified by constraint "l"
 821:.\CMSIS\Core\Include/cmsis_gcc.h ****  * Otherwise, use general registers, specified by constraint "r" */
 822:.\CMSIS\Core\Include/cmsis_gcc.h **** #if defined (__thumb__) && !defined (__thumb2__)
 823:.\CMSIS\Core\Include/cmsis_gcc.h **** #define __CMSIS_GCC_OUT_REG(r) "=l" (r)
ARM GAS  C:\Users\nicpa\AppData\Local\Temp\ccPr5feD.s 			page 82


 824:.\CMSIS\Core\Include/cmsis_gcc.h **** #define __CMSIS_GCC_RW_REG(r) "+l" (r)
 825:.\CMSIS\Core\Include/cmsis_gcc.h **** #define __CMSIS_GCC_USE_REG(r) "l" (r)
 826:.\CMSIS\Core\Include/cmsis_gcc.h **** #else
 827:.\CMSIS\Core\Include/cmsis_gcc.h **** #define __CMSIS_GCC_OUT_REG(r) "=r" (r)
 828:.\CMSIS\Core\Include/cmsis_gcc.h **** #define __CMSIS_GCC_RW_REG(r) "+r" (r)
 829:.\CMSIS\Core\Include/cmsis_gcc.h **** #define __CMSIS_GCC_USE_REG(r) "r" (r)
 830:.\CMSIS\Core\Include/cmsis_gcc.h **** #endif
 831:.\CMSIS\Core\Include/cmsis_gcc.h **** 
 832:.\CMSIS\Core\Include/cmsis_gcc.h **** /**
 833:.\CMSIS\Core\Include/cmsis_gcc.h ****   \brief   No Operation
 834:.\CMSIS\Core\Include/cmsis_gcc.h ****   \details No Operation does nothing. This instruction can be used for code alignment purposes.
 835:.\CMSIS\Core\Include/cmsis_gcc.h ****  */
 836:.\CMSIS\Core\Include/cmsis_gcc.h **** #define __NOP()                             __ASM volatile ("nop")
 837:.\CMSIS\Core\Include/cmsis_gcc.h **** 
 838:.\CMSIS\Core\Include/cmsis_gcc.h **** /**
 839:.\CMSIS\Core\Include/cmsis_gcc.h ****   \brief   Wait For Interrupt
 840:.\CMSIS\Core\Include/cmsis_gcc.h ****   \details Wait For Interrupt is a hint instruction that suspends execution until one of a number o
 841:.\CMSIS\Core\Include/cmsis_gcc.h ****  */
 842:.\CMSIS\Core\Include/cmsis_gcc.h **** #define __WFI()                             __ASM volatile ("wfi")
 843:.\CMSIS\Core\Include/cmsis_gcc.h **** 
 844:.\CMSIS\Core\Include/cmsis_gcc.h **** 
 845:.\CMSIS\Core\Include/cmsis_gcc.h **** /**
 846:.\CMSIS\Core\Include/cmsis_gcc.h ****   \brief   Wait For Event
 847:.\CMSIS\Core\Include/cmsis_gcc.h ****   \details Wait For Event is a hint instruction that permits the processor to enter
 848:.\CMSIS\Core\Include/cmsis_gcc.h ****            a low-power state until one of a number of events occurs.
 849:.\CMSIS\Core\Include/cmsis_gcc.h ****  */
 850:.\CMSIS\Core\Include/cmsis_gcc.h **** #define __WFE()                             __ASM volatile ("wfe")
 851:.\CMSIS\Core\Include/cmsis_gcc.h **** 
 852:.\CMSIS\Core\Include/cmsis_gcc.h **** 
 853:.\CMSIS\Core\Include/cmsis_gcc.h **** /**
 854:.\CMSIS\Core\Include/cmsis_gcc.h ****   \brief   Send Event
 855:.\CMSIS\Core\Include/cmsis_gcc.h ****   \details Send Event is a hint instruction. It causes an event to be signaled to the CPU.
 856:.\CMSIS\Core\Include/cmsis_gcc.h ****  */
 857:.\CMSIS\Core\Include/cmsis_gcc.h **** #define __SEV()                             __ASM volatile ("sev")
 858:.\CMSIS\Core\Include/cmsis_gcc.h **** 
 859:.\CMSIS\Core\Include/cmsis_gcc.h **** 
 860:.\CMSIS\Core\Include/cmsis_gcc.h **** /**
 861:.\CMSIS\Core\Include/cmsis_gcc.h ****   \brief   Instruction Synchronization Barrier
 862:.\CMSIS\Core\Include/cmsis_gcc.h ****   \details Instruction Synchronization Barrier flushes the pipeline in the processor,
 863:.\CMSIS\Core\Include/cmsis_gcc.h ****            so that all instructions following the ISB are fetched from cache or memory,
 864:.\CMSIS\Core\Include/cmsis_gcc.h ****            after the instruction has been completed.
 865:.\CMSIS\Core\Include/cmsis_gcc.h ****  */
 866:.\CMSIS\Core\Include/cmsis_gcc.h **** __STATIC_FORCEINLINE void __ISB(void)
 867:.\CMSIS\Core\Include/cmsis_gcc.h **** {
 868:.\CMSIS\Core\Include/cmsis_gcc.h ****   __ASM volatile ("isb 0xF":::"memory");
 869:.\CMSIS\Core\Include/cmsis_gcc.h **** }
 870:.\CMSIS\Core\Include/cmsis_gcc.h **** 
 871:.\CMSIS\Core\Include/cmsis_gcc.h **** 
 872:.\CMSIS\Core\Include/cmsis_gcc.h **** /**
 873:.\CMSIS\Core\Include/cmsis_gcc.h ****   \brief   Data Synchronization Barrier
 874:.\CMSIS\Core\Include/cmsis_gcc.h ****   \details Acts as a special kind of Data Memory Barrier.
 875:.\CMSIS\Core\Include/cmsis_gcc.h ****            It completes when all explicit memory accesses before this instruction complete.
 876:.\CMSIS\Core\Include/cmsis_gcc.h ****  */
 877:.\CMSIS\Core\Include/cmsis_gcc.h **** __STATIC_FORCEINLINE void __DSB(void)
 878:.\CMSIS\Core\Include/cmsis_gcc.h **** {
 879:.\CMSIS\Core\Include/cmsis_gcc.h ****   __ASM volatile ("dsb 0xF":::"memory");
 908              		.loc 4 879 0
ARM GAS  C:\Users\nicpa\AppData\Local\Temp\ccPr5feD.s 			page 83


 909              		.syntax unified
 910              	@ 879 ".\CMSIS\Core\Include/cmsis_gcc.h" 1
 911 0038 BFF34F8F 		dsb 0xF
 912              	@ 0 "" 2
 913              		.thumb
 914              		.syntax unified
 915              	.LBE27:
 916              	.LBE26:
 917              	.LBB28:
 918              	.LBB29:
 868:.\CMSIS\Core\Include/cmsis_gcc.h **** }
 919              		.loc 4 868 0
 920              		.syntax unified
 921              	@ 868 ".\CMSIS\Core\Include/cmsis_gcc.h" 1
 922 003c BFF36F8F 		isb 0xF
 923              	@ 0 "" 2
 924              		.thumb
 925              		.syntax unified
 926              	.L32:
 927              	.LBE29:
 928              	.LBE28:
 929              	.LBE25:
 930              	.LBE24:
 332:LED_task.c    ****     
 931              		.loc 1 332 0
 932 0040 0125     		movs	r5, #1
 933              	.LVL126:
 934              	.L50:
 343:LED_task.c    **** 
 344:LED_task.c    ****     
 345:LED_task.c    ****     for(;;)
 346:LED_task.c    ****     {
 347:LED_task.c    ****         
 348:LED_task.c    ****         
 349:LED_task.c    ****         // MENU
 350:LED_task.c    ****         if(currentpage == PAGE_MENU)
 935              		.loc 1 350 0
 936 0042 714B     		ldr	r3, .L54+8
 937 0044 1B78     		ldrb	r3, [r3]	@ zero_extendqisi2
 938 0046 714A     		ldr	r2, .L54+12
 939 0048 1478     		ldrb	r4, [r2]	@ zero_extendqisi2
 940 004a A342     		cmp	r3, r4
 941 004c 1AD1     		bne	.L33
 351:LED_task.c    ****         {
 352:LED_task.c    ****             
 353:LED_task.c    ****             if(currenttouch == BUTTON_R)
 942              		.loc 1 353 0
 943 004e 704B     		ldr	r3, .L54+16
 944 0050 1B78     		ldrb	r3, [r3]	@ zero_extendqisi2
 945 0052 022B     		cmp	r3, #2
 946 0054 04D1     		bne	.L34
 354:LED_task.c    ****             {
 355:LED_task.c    ****                 selection++;
 947              		.loc 1 355 0
 948 0056 0135     		adds	r5, r5, #1
 949              	.LVL127:
 950 0058 6DB2     		sxtb	r5, r5
ARM GAS  C:\Users\nicpa\AppData\Local\Temp\ccPr5feD.s 			page 84


 951              	.LVL128:
 356:LED_task.c    ****                 if(selection == 5)
 952              		.loc 1 356 0
 953 005a 052D     		cmp	r5, #5
 954 005c 00D1     		bne	.L34
 357:LED_task.c    ****                 {
 358:LED_task.c    ****                     selection = 1;
 955              		.loc 1 358 0
 956 005e 0125     		movs	r5, #1
 957              	.LVL129:
 958              	.L34:
 359:LED_task.c    ****                 }
 360:LED_task.c    ****             }
 361:LED_task.c    ****     
 362:LED_task.c    ****             if(currenttouch==BUTTON_L)
 959              		.loc 1 362 0
 960 0060 012B     		cmp	r3, #1
 961 0062 03D1     		bne	.L35
 363:LED_task.c    ****             {
 364:LED_task.c    ****                 selection--;
 962              		.loc 1 364 0
 963 0064 013D     		subs	r5, r5, #1
 964              	.LVL130:
 965 0066 6DB2     		sxtb	r5, r5
 966              	.LVL131:
 365:LED_task.c    ****                 if(selection == 0)
 967              		.loc 1 365 0
 968 0068 05B9     		cbnz	r5, .L35
 366:LED_task.c    ****                 {
 367:LED_task.c    ****                     selection = 4;
 969              		.loc 1 367 0
 970 006a 0425     		movs	r5, #4
 971              	.LVL132:
 972              	.L35:
 368:LED_task.c    ****                 }
 369:LED_task.c    ****             }
 370:LED_task.c    ****             
 371:LED_task.c    ****             // Affichage menu dont la selection est en gras
 372:LED_task.c    ****             updateMenu(selection);            
 973              		.loc 1 372 0
 974 006c 2846     		mov	r0, r5
 975 006e FFF7FEFF 		bl	updateMenu
 976              	.LVL133:
 373:LED_task.c    ****           
 374:LED_task.c    ****             if(currenttouch == BUTTON_MENU)
 977              		.loc 1 374 0
 978 0072 674B     		ldr	r3, .L54+16
 979 0074 1B78     		ldrb	r3, [r3]	@ zero_extendqisi2
 980 0076 042B     		cmp	r3, #4
 981 0078 01D1     		bne	.L36
 375:LED_task.c    ****             {
 376:LED_task.c    ****                 
 377:LED_task.c    ****                 currentpage = selection;          
 982              		.loc 1 377 0
 983 007a 634B     		ldr	r3, .L54+8
 984 007c 1D70     		strb	r5, [r3]
 985              	.L36:
ARM GAS  C:\Users\nicpa\AppData\Local\Temp\ccPr5feD.s 			page 85


 378:LED_task.c    ****             }            
 379:LED_task.c    **** 
 380:LED_task.c    ****             currenttouch = NO_TOUCH;
 986              		.loc 1 380 0
 987 007e 0022     		movs	r2, #0
 988 0080 634B     		ldr	r3, .L54+16
 989 0082 1A70     		strb	r2, [r3]
 990              	.L33:
 381:LED_task.c    ****         }
 382:LED_task.c    ****         
 383:LED_task.c    ****         
 384:LED_task.c    ****         // OPTION CHANGE INTENSITY OF LED     
 385:LED_task.c    ****         if(currentpage == PAGE_LED)
 991              		.loc 1 385 0
 992 0084 604B     		ldr	r3, .L54+8
 993 0086 1A78     		ldrb	r2, [r3]	@ zero_extendqisi2
 994 0088 624B     		ldr	r3, .L54+20
 995 008a 1B78     		ldrb	r3, [r3]	@ zero_extendqisi2
 996 008c 9A42     		cmp	r2, r3
 997 008e 2AD1     		bne	.L37
 386:LED_task.c    ****         {
 387:LED_task.c    ****             //vTaskDelay(pdMS_TO_TICKS(50));
 388:LED_task.c    ****      
 389:LED_task.c    ****             if(currenttouch == BUTTON_R)
 998              		.loc 1 389 0
 999 0090 5F4B     		ldr	r3, .L54+16
 1000 0092 1B78     		ldrb	r3, [r3]	@ zero_extendqisi2
 1001 0094 022B     		cmp	r3, #2
 1002 0096 0BD1     		bne	.L38
 390:LED_task.c    ****             {
 391:LED_task.c    ****                     
 392:LED_task.c    ****                 LED=LED+5;
 1003              		.loc 1 392 0
 1004 0098 5F4E     		ldr	r6, .L54+24
 1005 009a 3168     		ldr	r1, [r6]
 1006 009c 0531     		adds	r1, r1, #5
 1007 009e 3160     		str	r1, [r6]
 393:LED_task.c    ****                 write_register_MAX(0x0C, LED);
 1008              		.loc 1 393 0
 1009 00a0 C9B2     		uxtb	r1, r1
 1010 00a2 0C20     		movs	r0, #12
 1011 00a4 FFF7FEFF 		bl	write_register_MAX
 1012              	.LVL134:
 394:LED_task.c    ****                 write_register_MAX(0x0D, LED);
 1013              		.loc 1 394 0
 1014 00a8 3178     		ldrb	r1, [r6]	@ zero_extendqisi2
 1015 00aa 0D20     		movs	r0, #13
 1016 00ac FFF7FEFF 		bl	write_register_MAX
 1017              	.LVL135:
 1018              	.L38:
 395:LED_task.c    ****             }
 396:LED_task.c    ****     
 397:LED_task.c    ****             if(currenttouch==BUTTON_L)
 1019              		.loc 1 397 0
 1020 00b0 574B     		ldr	r3, .L54+16
 1021 00b2 1B78     		ldrb	r3, [r3]	@ zero_extendqisi2
 1022 00b4 012B     		cmp	r3, #1
ARM GAS  C:\Users\nicpa\AppData\Local\Temp\ccPr5feD.s 			page 86


 1023 00b6 0BD1     		bne	.L39
 398:LED_task.c    ****             {
 399:LED_task.c    ****                     
 400:LED_task.c    ****                 LED=LED-5;
 1024              		.loc 1 400 0
 1025 00b8 574E     		ldr	r6, .L54+24
 1026 00ba 3168     		ldr	r1, [r6]
 1027 00bc 0539     		subs	r1, r1, #5
 1028 00be 3160     		str	r1, [r6]
 401:LED_task.c    ****                 write_register_MAX(0x0C, LED);
 1029              		.loc 1 401 0
 1030 00c0 C9B2     		uxtb	r1, r1
 1031 00c2 0C20     		movs	r0, #12
 1032 00c4 FFF7FEFF 		bl	write_register_MAX
 1033              	.LVL136:
 402:LED_task.c    ****                 write_register_MAX(0x0D, LED);
 1034              		.loc 1 402 0
 1035 00c8 3178     		ldrb	r1, [r6]	@ zero_extendqisi2
 1036 00ca 0D20     		movs	r0, #13
 1037 00cc FFF7FEFF 		bl	write_register_MAX
 1038              	.LVL137:
 1039              	.L39:
 403:LED_task.c    ****             } 
 404:LED_task.c    ****             
 405:LED_task.c    ****             updateLED();
 1040              		.loc 1 405 0
 1041 00d0 FFF7FEFF 		bl	updateLED
 1042              	.LVL138:
 406:LED_task.c    ****             
 407:LED_task.c    ****         
 408:LED_task.c    ****             if(currenttouch == BUTTON_MENU)
 1043              		.loc 1 408 0
 1044 00d4 4E4B     		ldr	r3, .L54+16
 1045 00d6 1B78     		ldrb	r3, [r3]	@ zero_extendqisi2
 1046 00d8 042B     		cmp	r3, #4
 1047 00da 01D1     		bne	.L40
 409:LED_task.c    ****             {
 410:LED_task.c    ****                 currentpage = PAGE_MENU;                            
 1048              		.loc 1 410 0
 1049 00dc 4A4B     		ldr	r3, .L54+8
 1050 00de 1C70     		strb	r4, [r3]
 1051              	.L40:
 411:LED_task.c    ****             }
 412:LED_task.c    ****         
 413:LED_task.c    ****             currenttouch = NO_TOUCH;
 1052              		.loc 1 413 0
 1053 00e0 0022     		movs	r2, #0
 1054 00e2 4B4B     		ldr	r3, .L54+16
 1055 00e4 1A70     		strb	r2, [r3]
 1056              	.L37:
 414:LED_task.c    ****  
 415:LED_task.c    ****         }
 416:LED_task.c    ****         
 417:LED_task.c    ****         
 418:LED_task.c    ****         // OPTION CHANGE HEART RATE INTERVAL 
 419:LED_task.c    ****         if(currentpage == PAGE_HR)
 1057              		.loc 1 419 0
ARM GAS  C:\Users\nicpa\AppData\Local\Temp\ccPr5feD.s 			page 87


 1058 00e6 484B     		ldr	r3, .L54+8
 1059 00e8 1A78     		ldrb	r2, [r3]	@ zero_extendqisi2
 1060 00ea 4C4B     		ldr	r3, .L54+28
 1061 00ec 1B78     		ldrb	r3, [r3]	@ zero_extendqisi2
 1062 00ee 9A42     		cmp	r2, r3
 1063 00f0 28D1     		bne	.L41
 420:LED_task.c    ****         {
 421:LED_task.c    ****      
 422:LED_task.c    ****             if(currenttouch == BUTTON_R)
 1064              		.loc 1 422 0
 1065 00f2 474B     		ldr	r3, .L54+16
 1066 00f4 1B78     		ldrb	r3, [r3]	@ zero_extendqisi2
 1067 00f6 022B     		cmp	r3, #2
 1068 00f8 0BD1     		bne	.L42
 423:LED_task.c    ****             {
 424:LED_task.c    ****                 if(maxormin == true)
 1069              		.loc 1 424 0
 1070 00fa 494A     		ldr	r2, .L54+32
 1071 00fc 1278     		ldrb	r2, [r2]	@ zero_extendqisi2
 1072 00fe 1AB1     		cbz	r2, .L43
 425:LED_task.c    ****                 {
 426:LED_task.c    ****                     hrmin=hrmin+5;
 1073              		.loc 1 426 0
 1074 0100 4848     		ldr	r0, .L54+36
 1075 0102 0168     		ldr	r1, [r0]
 1076 0104 0531     		adds	r1, r1, #5
 1077 0106 0160     		str	r1, [r0]
 1078              	.L43:
 427:LED_task.c    ****                 }              
 428:LED_task.c    ****                 if(maxormin == false)
 1079              		.loc 1 428 0
 1080 0108 1AB9     		cbnz	r2, .L42
 429:LED_task.c    ****                 {
 430:LED_task.c    ****                     hrmax=hrmax+5;
 1081              		.loc 1 430 0
 1082 010a 4749     		ldr	r1, .L54+40
 1083 010c 0A68     		ldr	r2, [r1]
 1084 010e 0532     		adds	r2, r2, #5
 1085 0110 0A60     		str	r2, [r1]
 1086              	.L42:
 431:LED_task.c    ****                 }
 432:LED_task.c    ****             }
 433:LED_task.c    ****     
 434:LED_task.c    ****             if(currenttouch==BUTTON_L)
 1087              		.loc 1 434 0
 1088 0112 012B     		cmp	r3, #1
 1089 0114 0BD1     		bne	.L44
 435:LED_task.c    ****             {    
 436:LED_task.c    ****                 if(maxormin == true)
 1090              		.loc 1 436 0
 1091 0116 424B     		ldr	r3, .L54+32
 1092 0118 1B78     		ldrb	r3, [r3]	@ zero_extendqisi2
 1093 011a 1BB1     		cbz	r3, .L45
 437:LED_task.c    ****                 {
 438:LED_task.c    ****                     hrmin=hrmin-5;
 1094              		.loc 1 438 0
 1095 011c 4149     		ldr	r1, .L54+36
ARM GAS  C:\Users\nicpa\AppData\Local\Temp\ccPr5feD.s 			page 88


 1096 011e 0A68     		ldr	r2, [r1]
 1097 0120 053A     		subs	r2, r2, #5
 1098 0122 0A60     		str	r2, [r1]
 1099              	.L45:
 439:LED_task.c    ****                 }
 440:LED_task.c    ****                 if(maxormin == false)
 1100              		.loc 1 440 0
 1101 0124 1BB9     		cbnz	r3, .L44
 441:LED_task.c    ****                 {
 442:LED_task.c    ****                     hrmax=hrmax-5;
 1102              		.loc 1 442 0
 1103 0126 404A     		ldr	r2, .L54+40
 1104 0128 1368     		ldr	r3, [r2]
 1105 012a 053B     		subs	r3, r3, #5
 1106 012c 1360     		str	r3, [r2]
 1107              	.L44:
 443:LED_task.c    ****                 }
 444:LED_task.c    ****             } 
 445:LED_task.c    ****            
 446:LED_task.c    ****             updateHR();
 1108              		.loc 1 446 0
 1109 012e FFF7FEFF 		bl	updateHR
 1110              	.LVL139:
 447:LED_task.c    ****             
 448:LED_task.c    ****             if(currenttouch == BUTTON_MENU)
 1111              		.loc 1 448 0
 1112 0132 374B     		ldr	r3, .L54+16
 1113 0134 1B78     		ldrb	r3, [r3]	@ zero_extendqisi2
 1114 0136 042B     		cmp	r3, #4
 1115 0138 01D1     		bne	.L46
 449:LED_task.c    ****             { 
 450:LED_task.c    ****                
 451:LED_task.c    ****                 currentpage = PAGE_MENU;                            
 1116              		.loc 1 451 0
 1117 013a 334B     		ldr	r3, .L54+8
 1118 013c 1C70     		strb	r4, [r3]
 1119              	.L46:
 452:LED_task.c    ****             }
 453:LED_task.c    ****                         
 454:LED_task.c    ****             currenttouch = NO_TOUCH;
 1120              		.loc 1 454 0
 1121 013e 0022     		movs	r2, #0
 1122 0140 334B     		ldr	r3, .L54+16
 1123 0142 1A70     		strb	r2, [r3]
 1124              	.L41:
 455:LED_task.c    ****         }
 456:LED_task.c    ****         
 457:LED_task.c    ****         
 458:LED_task.c    ****         // OPTION RED SIGNAL
 459:LED_task.c    ****         if(currentpage == PAGE_SIGNAL_R)
 1125              		.loc 1 459 0
 1126 0144 304B     		ldr	r3, .L54+8
 1127 0146 1A78     		ldrb	r2, [r3]	@ zero_extendqisi2
 1128 0148 384B     		ldr	r3, .L54+44
 1129 014a 1B78     		ldrb	r3, [r3]	@ zero_extendqisi2
 1130 014c 9A42     		cmp	r2, r3
 1131 014e 1ED1     		bne	.L47
ARM GAS  C:\Users\nicpa\AppData\Local\Temp\ccPr5feD.s 			page 89


 460:LED_task.c    ****         {
 461:LED_task.c    ****             
 462:LED_task.c    ****             updateSignal(&signal_R[0], BPM, S, AC_R, DC_R);
 1132              		.loc 1 462 0
 1133 0150 374B     		ldr	r3, .L54+48
 1134 0152 1B68     		ldr	r3, [r3]	@ float
 1135 0154 374A     		ldr	r2, .L54+52
 1136 0156 92ED007A 		vldr.32	s14, [r2]
 1137 015a 374A     		ldr	r2, .L54+56
 1138 015c D2ED007A 		vldr.32	s15, [r2]
 1139 0160 364A     		ldr	r2, .L54+60
 1140 0162 1268     		ldr	r2, [r2]	@ float
 1141 0164 0092     		str	r2, [sp]	@ float
 1142 0166 BCEEC77A 		vcvt.u32.f32	s14, s14
 1143 016a 17EE102A 		vmov	r2, s14	@ int
 1144 016e FCEEE77A 		vcvt.u32.f32	s15, s15
 1145 0172 17EE901A 		vmov	r1, s15	@ int
 1146 0176 3248     		ldr	r0, .L54+64
 1147 0178 FFF7FEFF 		bl	updateSignal
 1148              	.LVL140:
 463:LED_task.c    ****             
 464:LED_task.c    ****             if(currenttouch == BUTTON_MENU)
 1149              		.loc 1 464 0
 1150 017c 244B     		ldr	r3, .L54+16
 1151 017e 1B78     		ldrb	r3, [r3]	@ zero_extendqisi2
 1152 0180 042B     		cmp	r3, #4
 1153 0182 04D1     		bne	.L47
 465:LED_task.c    ****             {
 466:LED_task.c    ****                 currenttouch = NO_TOUCH;
 1154              		.loc 1 466 0
 1155 0184 0022     		movs	r2, #0
 1156 0186 224B     		ldr	r3, .L54+16
 1157 0188 1A70     		strb	r2, [r3]
 467:LED_task.c    ****                 currentpage = PAGE_MENU;                            
 1158              		.loc 1 467 0
 1159 018a 1F4B     		ldr	r3, .L54+8
 1160 018c 1C70     		strb	r4, [r3]
 1161              	.L47:
 468:LED_task.c    ****             }
 469:LED_task.c    ****         }
 470:LED_task.c    ****         
 471:LED_task.c    ****         
 472:LED_task.c    ****         // OPTION IR SIGNAL
 473:LED_task.c    ****         if(currentpage == PAGE_SIGNAL_IR)
 1162              		.loc 1 473 0
 1163 018e 1E4B     		ldr	r3, .L54+8
 1164 0190 1A78     		ldrb	r2, [r3]	@ zero_extendqisi2
 1165 0192 2C4B     		ldr	r3, .L54+68
 1166 0194 1B78     		ldrb	r3, [r3]	@ zero_extendqisi2
 1167 0196 9A42     		cmp	r2, r3
 1168 0198 1ED1     		bne	.L48
 474:LED_task.c    ****         {
 475:LED_task.c    ****             updateSignal(&signal_IF[0], BPM, S, AC_IF, DC_IF);
 1169              		.loc 1 475 0
 1170 019a 2B4B     		ldr	r3, .L54+72
 1171 019c 1B68     		ldr	r3, [r3]	@ float
 1172 019e 254A     		ldr	r2, .L54+52
ARM GAS  C:\Users\nicpa\AppData\Local\Temp\ccPr5feD.s 			page 90


 1173 01a0 92ED007A 		vldr.32	s14, [r2]
 1174 01a4 244A     		ldr	r2, .L54+56
 1175 01a6 D2ED007A 		vldr.32	s15, [r2]
 1176 01aa 284A     		ldr	r2, .L54+76
 1177 01ac 1268     		ldr	r2, [r2]	@ float
 1178 01ae 0092     		str	r2, [sp]	@ float
 1179 01b0 BCEEC77A 		vcvt.u32.f32	s14, s14
 1180 01b4 17EE102A 		vmov	r2, s14	@ int
 1181 01b8 FCEEE77A 		vcvt.u32.f32	s15, s15
 1182 01bc 17EE901A 		vmov	r1, s15	@ int
 1183 01c0 2348     		ldr	r0, .L54+80
 1184 01c2 FFF7FEFF 		bl	updateSignal
 1185              	.LVL141:
 476:LED_task.c    ****             
 477:LED_task.c    ****             if(currenttouch == BUTTON_MENU)
 1186              		.loc 1 477 0
 1187 01c6 124B     		ldr	r3, .L54+16
 1188 01c8 1B78     		ldrb	r3, [r3]	@ zero_extendqisi2
 1189 01ca 042B     		cmp	r3, #4
 1190 01cc 04D1     		bne	.L48
 478:LED_task.c    ****             {
 479:LED_task.c    ****                 currenttouch = NO_TOUCH;
 1191              		.loc 1 479 0
 1192 01ce 0022     		movs	r2, #0
 1193 01d0 0F4B     		ldr	r3, .L54+16
 1194 01d2 1A70     		strb	r2, [r3]
 480:LED_task.c    ****                 currentpage = PAGE_MENU;                            
 1195              		.loc 1 480 0
 1196 01d4 0C4B     		ldr	r3, .L54+8
 1197 01d6 1C70     		strb	r4, [r3]
 1198              	.L48:
 481:LED_task.c    ****             }    
 482:LED_task.c    ****         }
 483:LED_task.c    **** 
 484:LED_task.c    ****         NVIC_EnableIRQ(PPG_RDY_isr_cfg.intrSrc);
 1199              		.loc 1 484 0
 1200 01d8 094B     		ldr	r3, .L54
 1201              	.LVL142:
 1202 01da B3F90030 		ldrsh	r3, [r3]
 1203              	.LVL143:
 1204              	.LBB30:
 1205              	.LBB31:
1687:.\CMSIS\Core\Include/core_cm4.h ****   {
 1206              		.loc 3 1687 0
 1207 01de 002B     		cmp	r3, #0
 1208 01e0 08DB     		blt	.L49
1689:.\CMSIS\Core\Include/core_cm4.h ****   }
 1209              		.loc 3 1689 0
 1210 01e2 5909     		lsrs	r1, r3, #5
 1211 01e4 03F01F03 		and	r3, r3, #31
 1212              	.LVL144:
 1213 01e8 0122     		movs	r2, #1
 1214 01ea 02FA03F3 		lsl	r3, r2, r3
 1215 01ee 054A     		ldr	r2, .L54+4
 1216 01f0 42F82130 		str	r3, [r2, r1, lsl #2]
 1217              	.L49:
 1218              	.LVL145:
ARM GAS  C:\Users\nicpa\AppData\Local\Temp\ccPr5feD.s 			page 91


 1219              	.LBE31:
 1220              	.LBE30:
 485:LED_task.c    **** 
 486:LED_task.c    ****         
 487:LED_task.c    ****         vTaskDelay(pdMS_TO_TICKS(2000));
 1221              		.loc 1 487 0
 1222 01f4 4FF4FA60 		mov	r0, #2000
 1223 01f8 FFF7FEFF 		bl	vTaskDelay
 1224              	.LVL146:
 488:LED_task.c    ****     }     
 1225              		.loc 1 488 0
 1226 01fc 21E7     		b	.L50
 1227              	.L55:
 1228 01fe 00BF     		.align	2
 1229              	.L54:
 1230 0200 00000000 		.word	PPG_RDY_isr_cfg
 1231 0204 00E100E0 		.word	-536813312
 1232 0208 00000000 		.word	currentpage
 1233 020c 00000000 		.word	PAGE_MENU
 1234 0210 00000000 		.word	currenttouch
 1235 0214 00000000 		.word	PAGE_LED
 1236 0218 00000000 		.word	LED
 1237 021c 00000000 		.word	PAGE_HR
 1238 0220 00000000 		.word	maxormin
 1239 0224 00000000 		.word	hrmin
 1240 0228 00000000 		.word	hrmax
 1241 022c 00000000 		.word	PAGE_SIGNAL_R
 1242 0230 00000000 		.word	AC_R
 1243 0234 00000000 		.word	S
 1244 0238 00000000 		.word	BPM
 1245 023c 00000000 		.word	DC_R
 1246 0240 00000000 		.word	signal_R
 1247 0244 00000000 		.word	PAGE_SIGNAL_IR
 1248 0248 00000000 		.word	AC_IF
 1249 024c 00000000 		.word	DC_IF
 1250 0250 00000000 		.word	signal_IF
 1251              		.cfi_endproc
 1252              	.LFE703:
 1253              		.size	vINTERFACE_task, .-vINTERFACE_task
 1254              		.comm	LED_flag,1,1
 1255              		.comm	BPM,4,4
 1256              		.comm	R,4,4
 1257              		.comm	S,4,4
 1258              		.comm	DC_IF,4,4
 1259              		.comm	DC_R,4,4
 1260              		.comm	AC_IF,4,4
 1261              		.comm	AC_R,4,4
 1262              		.comm	signal_AC_IF,4000,4
 1263              		.comm	signal_AC_R,4000,4
 1264              		.comm	signal_IF,4000,4
 1265              		.comm	signal_R,4000,4
 1266              		.comm	write_idx_MAX,4,4
 1267              		.comm	read_flag_MAX,1,1
 1268              		.comm	ir_data,4000,4
 1269              		.comm	red_data,4000,4
 1270              		.comm	hrmin,4,4
 1271              		.comm	hrmax,4,4
ARM GAS  C:\Users\nicpa\AppData\Local\Temp\ccPr5feD.s 			page 92


 1272              		.comm	maxormin,1,1
 1273              		.comm	LED,4,4
 1274              		.comm	alerte,1,1
 1275              		.comm	currenttouch,1,1
 1276              		.comm	currentpage,1,1
 1277              		.section	.rodata.str1.4,"aMS",%progbits,1
 1278              		.align	2
 1279              	.LC0:
 1280 0000 4D454E55 		.ascii	"MENU\000"
 1280      00
 1281 0005 000000   		.space	3
 1282              	.LC1:
 1283 0008 4100     		.ascii	"A\000"
 1284 000a 0000     		.space	2
 1285              	.LC2:
 1286 000c 4400     		.ascii	"D\000"
 1287 000e 0000     		.space	2
 1288              	.LC3:
 1289 0010 53686F77 		.ascii	"Show oxygenated signal\000"
 1289      206F7879 
 1289      67656E61 
 1289      74656420 
 1289      7369676E 
 1290 0027 00       		.space	1
 1291              	.LC4:
 1292 0028 53686F77 		.ascii	"Show non-oxygenated signal\000"
 1292      206E6F6E 
 1292      2D6F7879 
 1292      67656E61 
 1292      74656420 
 1293 0043 00       		.space	1
 1294              	.LC5:
 1295 0044 4368616E 		.ascii	"Change intensity of LED\000"
 1295      67652069 
 1295      6E74656E 
 1295      73697479 
 1295      206F6620 
 1296              	.LC6:
 1297 005c 4368616E 		.ascii	"Change the heart rate interval\000"
 1297      67652074 
 1297      68652068 
 1297      65617274 
 1297      20726174 
 1298 007b 00       		.space	1
 1299              	.LC7:
 1300 007c 256400   		.ascii	"%d\000"
 1301 007f 00       		.space	1
 1302              	.LC8:
 1303 0080 4348414E 		.ascii	"CHANGE LED VALUE\000"
 1303      4745204C 
 1303      45442056 
 1303      414C5545 
 1303      00
 1304 0091 000000   		.space	3
 1305              	.LC9:
 1306 0094 4D696E20 		.ascii	"Min Heart Rate\000"
 1306      48656172 
ARM GAS  C:\Users\nicpa\AppData\Local\Temp\ccPr5feD.s 			page 93


 1306      74205261 
 1306      746500
 1307 00a3 00       		.space	1
 1308              	.LC10:
 1309 00a4 4D617820 		.ascii	"Max Heart Rate\000"
 1309      48656172 
 1309      74205261 
 1309      746500
 1310 00b3 00       		.space	1
 1311              	.LC11:
 1312 00b4 4348414E 		.ascii	"CHANGE HEART RATE INTERVAL\000"
 1312      47452048 
 1312      45415254 
 1312      20524154 
 1312      4520494E 
 1313 00cf 00       		.space	1
 1314              	.LC12:
 1315 00d0 4D6F7665 		.ascii	"Movement detected\000"
 1315      6D656E74 
 1315      20646574 
 1315      65637465 
 1315      6400
 1316 00e2 0000     		.space	2
 1317              	.LC13:
 1318 00e4 53504F32 		.ascii	"SPO2\000"
 1318      00
 1319 00e9 000000   		.space	3
 1320              	.LC14:
 1321 00ec 48656172 		.ascii	"Heart Rate\000"
 1321      74205261 
 1321      746500
 1322 00f7 00       		.space	1
 1323              	.LC15:
 1324 00f8 21212100 		.ascii	"!!!\000"
 1325              	.LC16:
 1326 00fc 2500     		.ascii	"%\000"
 1327              		.text
 1328              	.Letext0:
 1329              		.file 5 "Generated_Source\\PSoC6\\pdl\\devices/psoc6/include/cy8c6347bzi_bld53.h"
 1330              		.file 6 "c:\\program files (x86)\\cypress\\psoc creator\\4.4\\psoc creator\\import\\gnu\\arm\\5.4.
 1331              		.file 7 "c:\\program files (x86)\\cypress\\psoc creator\\4.4\\psoc creator\\import\\gnu\\arm\\5.4.
 1332              		.file 8 "Generated_Source\\PSoC6\\pdl\\devices/psoc6/include/ip/cyip_gpio.h"
 1333              		.file 9 "Generated_Source\\PSoC6\\pdl\\devices/psoc6/include/psoc6_01_config.h"
 1334              		.file 10 "Generated_Source\\PSoC6\\pdl\\drivers/peripheral/device/cy_device.h"
 1335              		.file 11 "Generated_Source\\PSoC6\\pdl\\drivers/peripheral/syslib/cy_syslib.h"
 1336              		.file 12 "Generated_Source\\PSoC6\\pdl\\drivers/peripheral/sysint/cy_sysint.h"
 1337              		.file 13 "Generated_Source\\PSoC6\\pdl\\drivers/peripheral/scb/cy_scb_i2c.h"
 1338              		.file 14 "Generated_Source\\PSoC6\\pdl\\drivers/peripheral/scb/cy_scb_spi.h"
 1339              		.file 15 "Generated_Source\\PSoC6\\pdl\\drivers/peripheral/scb/cy_scb_uart.h"
 1340              		.file 16 "Generated_Source\\PSoC6\\pdl\\drivers/peripheral/tcpwm/cy_tcpwm_counter.h"
 1341              		.file 17 "Generated_Source\\PSoC6\\pdl\\rtos/FreeRTOS/10.0.1/Source/portable/GCC/CM4F/portmacro.h"
 1342              		.file 18 "Generated_Source\\PSoC6\\pdl\\middleware/emWin/code/include/GUI_Type.h"
 1343              		.file 19 ".\\eInk Library/cy_eink_library.h"
 1344              		.file 20 "Generated_Source\\PSoC6/cyfitter_sysint_cfg.h"
 1345              		.file 21 "Generated_Source\\PSoC6/CY_EINK_SPIM.h"
 1346              		.file 22 "Generated_Source\\PSoC6/CY_EINK_Timer.h"
 1347              		.file 23 "Generated_Source\\PSoC6/I2C_MAX.h"
ARM GAS  C:\Users\nicpa\AppData\Local\Temp\ccPr5feD.s 			page 94


 1348              		.file 24 "Generated_Source\\PSoC6/I2Cm.h"
 1349              		.file 25 "Generated_Source\\PSoC6/UART.h"
 1350              		.file 26 "Generated_Source\\PSoC6\\pdl\\middleware/emWin/code/include/GUI.h"
 1351              		.file 27 "global_variables.h"
 1352              		.file 28 "MAX30102_functions.h"
 1353              		.file 29 "master.h"
 1354              		.file 30 "motion_task.h"
 1355              		.file 31 "screen_functions.h"
 1356              		.file 32 "c:\\program files (x86)\\cypress\\psoc creator\\4.4\\psoc creator\\import\\gnu\\arm\\5.4
 1357              		.file 33 "Generated_Source\\PSoC6\\pdl\\rtos/FreeRTOS/10.0.1/Source/include/task.h"
 1358              		.section	.debug_info,"",%progbits
 1359              	.Ldebug_info0:
 1360 0000 59260000 		.4byte	0x2659
 1361 0004 0400     		.2byte	0x4
 1362 0006 00000000 		.4byte	.Ldebug_abbrev0
 1363 000a 04       		.byte	0x4
 1364 000b 01       		.uleb128 0x1
 1365 000c 1F140000 		.4byte	.LASF523
 1366 0010 0C       		.byte	0xc
 1367 0011 CA0C0000 		.4byte	.LASF524
 1368 0015 B4020000 		.4byte	.LASF525
 1369 0019 00000000 		.4byte	.Ldebug_ranges0+0
 1370 001d 00000000 		.4byte	0
 1371 0021 00000000 		.4byte	.Ldebug_line0
 1372 0025 02       		.uleb128 0x2
 1373 0026 04       		.byte	0x4
 1374 0027 04       		.byte	0x4
 1375 0028 AD130000 		.4byte	.LASF0
 1376 002c 03       		.uleb128 0x3
 1377 002d 04       		.byte	0x4
 1378 002e 05       		.byte	0x5
 1379 002f 696E7400 		.ascii	"int\000"
 1380 0033 04       		.uleb128 0x4
 1381 0034 02       		.byte	0x2
 1382 0035 F4030000 		.4byte	0x3f4
 1383 0039 05       		.byte	0x5
 1384 003a 24       		.byte	0x24
 1385 003b F4030000 		.4byte	0x3f4
 1386 003f 05       		.uleb128 0x5
 1387 0040 E4180000 		.4byte	.LASF1
 1388 0044 71       		.sleb128 -15
 1389 0045 05       		.uleb128 0x5
 1390 0046 400E0000 		.4byte	.LASF2
 1391 004a 72       		.sleb128 -14
 1392 004b 05       		.uleb128 0x5
 1393 004c 91220000 		.4byte	.LASF3
 1394 0050 73       		.sleb128 -13
 1395 0051 05       		.uleb128 0x5
 1396 0052 AE0E0000 		.4byte	.LASF4
 1397 0056 74       		.sleb128 -12
 1398 0057 05       		.uleb128 0x5
 1399 0058 EE100000 		.4byte	.LASF5
 1400 005c 75       		.sleb128 -11
 1401 005d 05       		.uleb128 0x5
 1402 005e 16090000 		.4byte	.LASF6
 1403 0062 76       		.sleb128 -10
 1404 0063 05       		.uleb128 0x5
ARM GAS  C:\Users\nicpa\AppData\Local\Temp\ccPr5feD.s 			page 95


 1405 0064 A5120000 		.4byte	.LASF7
 1406 0068 7B       		.sleb128 -5
 1407 0069 05       		.uleb128 0x5
 1408 006a E41B0000 		.4byte	.LASF8
 1409 006e 7C       		.sleb128 -4
 1410 006f 05       		.uleb128 0x5
 1411 0070 45120000 		.4byte	.LASF9
 1412 0074 7E       		.sleb128 -2
 1413 0075 05       		.uleb128 0x5
 1414 0076 9C060000 		.4byte	.LASF10
 1415 007a 7F       		.sleb128 -1
 1416 007b 06       		.uleb128 0x6
 1417 007c 6B090000 		.4byte	.LASF11
 1418 0080 00       		.byte	0
 1419 0081 06       		.uleb128 0x6
 1420 0082 8D210000 		.4byte	.LASF12
 1421 0086 01       		.byte	0x1
 1422 0087 06       		.uleb128 0x6
 1423 0088 F01E0000 		.4byte	.LASF13
 1424 008c 02       		.byte	0x2
 1425 008d 06       		.uleb128 0x6
 1426 008e C6110000 		.4byte	.LASF14
 1427 0092 03       		.byte	0x3
 1428 0093 06       		.uleb128 0x6
 1429 0094 50040000 		.4byte	.LASF15
 1430 0098 04       		.byte	0x4
 1431 0099 06       		.uleb128 0x6
 1432 009a 70010000 		.4byte	.LASF16
 1433 009e 05       		.byte	0x5
 1434 009f 06       		.uleb128 0x6
 1435 00a0 6B170000 		.4byte	.LASF17
 1436 00a4 06       		.byte	0x6
 1437 00a5 06       		.uleb128 0x6
 1438 00a6 2F0A0000 		.4byte	.LASF18
 1439 00aa 07       		.byte	0x7
 1440 00ab 06       		.uleb128 0x6
 1441 00ac 6E070000 		.4byte	.LASF19
 1442 00b0 08       		.byte	0x8
 1443 00b1 06       		.uleb128 0x6
 1444 00b2 6B1D0000 		.4byte	.LASF20
 1445 00b6 09       		.byte	0x9
 1446 00b7 06       		.uleb128 0x6
 1447 00b8 E91D0000 		.4byte	.LASF21
 1448 00bc 0A       		.byte	0xa
 1449 00bd 06       		.uleb128 0x6
 1450 00be 7A100000 		.4byte	.LASF22
 1451 00c2 0B       		.byte	0xb
 1452 00c3 06       		.uleb128 0x6
 1453 00c4 97020000 		.4byte	.LASF23
 1454 00c8 0C       		.byte	0xc
 1455 00c9 06       		.uleb128 0x6
 1456 00ca 98000000 		.4byte	.LASF24
 1457 00ce 0D       		.byte	0xd
 1458 00cf 06       		.uleb128 0x6
 1459 00d0 8F160000 		.4byte	.LASF25
 1460 00d4 0E       		.byte	0xe
 1461 00d5 06       		.uleb128 0x6
ARM GAS  C:\Users\nicpa\AppData\Local\Temp\ccPr5feD.s 			page 96


 1462 00d6 B1150000 		.4byte	.LASF26
 1463 00da 0F       		.byte	0xf
 1464 00db 06       		.uleb128 0x6
 1465 00dc A01F0000 		.4byte	.LASF27
 1466 00e0 10       		.byte	0x10
 1467 00e1 06       		.uleb128 0x6
 1468 00e2 EE1C0000 		.4byte	.LASF28
 1469 00e6 11       		.byte	0x11
 1470 00e7 06       		.uleb128 0x6
 1471 00e8 331D0000 		.4byte	.LASF29
 1472 00ec 12       		.byte	0x12
 1473 00ed 06       		.uleb128 0x6
 1474 00ee BF000000 		.4byte	.LASF30
 1475 00f2 13       		.byte	0x13
 1476 00f3 06       		.uleb128 0x6
 1477 00f4 D5160000 		.4byte	.LASF31
 1478 00f8 14       		.byte	0x14
 1479 00f9 06       		.uleb128 0x6
 1480 00fa 70220000 		.4byte	.LASF32
 1481 00fe 15       		.byte	0x15
 1482 00ff 06       		.uleb128 0x6
 1483 0100 AF010000 		.4byte	.LASF33
 1484 0104 16       		.byte	0x16
 1485 0105 06       		.uleb128 0x6
 1486 0106 041D0000 		.4byte	.LASF34
 1487 010a 17       		.byte	0x17
 1488 010b 06       		.uleb128 0x6
 1489 010c 7C080000 		.4byte	.LASF35
 1490 0110 18       		.byte	0x18
 1491 0111 06       		.uleb128 0x6
 1492 0112 44210000 		.4byte	.LASF36
 1493 0116 19       		.byte	0x19
 1494 0117 06       		.uleb128 0x6
 1495 0118 BA1E0000 		.4byte	.LASF37
 1496 011c 1A       		.byte	0x1a
 1497 011d 06       		.uleb128 0x6
 1498 011e E8030000 		.4byte	.LASF38
 1499 0122 1B       		.byte	0x1b
 1500 0123 06       		.uleb128 0x6
 1501 0124 04040000 		.4byte	.LASF39
 1502 0128 1C       		.byte	0x1c
 1503 0129 06       		.uleb128 0x6
 1504 012a 3A010000 		.4byte	.LASF40
 1505 012e 1D       		.byte	0x1d
 1506 012f 06       		.uleb128 0x6
 1507 0130 4F170000 		.4byte	.LASF41
 1508 0134 1E       		.byte	0x1e
 1509 0135 06       		.uleb128 0x6
 1510 0136 030A0000 		.4byte	.LASF42
 1511 013a 1F       		.byte	0x1f
 1512 013b 06       		.uleb128 0x6
 1513 013c 41070000 		.4byte	.LASF43
 1514 0140 20       		.byte	0x20
 1515 0141 06       		.uleb128 0x6
 1516 0142 23080000 		.4byte	.LASF44
 1517 0146 21       		.byte	0x21
 1518 0147 06       		.uleb128 0x6
ARM GAS  C:\Users\nicpa\AppData\Local\Temp\ccPr5feD.s 			page 97


 1519 0148 ED0F0000 		.4byte	.LASF45
 1520 014c 22       		.byte	0x22
 1521 014d 06       		.uleb128 0x6
 1522 014e 02140000 		.4byte	.LASF46
 1523 0152 23       		.byte	0x23
 1524 0153 06       		.uleb128 0x6
 1525 0154 1B060000 		.4byte	.LASF47
 1526 0158 24       		.byte	0x24
 1527 0159 06       		.uleb128 0x6
 1528 015a 2A1C0000 		.4byte	.LASF48
 1529 015e 25       		.byte	0x25
 1530 015f 06       		.uleb128 0x6
 1531 0160 C7190000 		.4byte	.LASF49
 1532 0164 26       		.byte	0x26
 1533 0165 06       		.uleb128 0x6
 1534 0166 5D0C0000 		.4byte	.LASF50
 1535 016a 27       		.byte	0x27
 1536 016b 06       		.uleb128 0x6
 1537 016c 3D220000 		.4byte	.LASF51
 1538 0170 28       		.byte	0x28
 1539 0171 06       		.uleb128 0x6
 1540 0172 091B0000 		.4byte	.LASF52
 1541 0176 29       		.byte	0x29
 1542 0177 06       		.uleb128 0x6
 1543 0178 4F190000 		.4byte	.LASF53
 1544 017c 2A       		.byte	0x2a
 1545 017d 06       		.uleb128 0x6
 1546 017e 57030000 		.4byte	.LASF54
 1547 0182 2B       		.byte	0x2b
 1548 0183 06       		.uleb128 0x6
 1549 0184 4B1F0000 		.4byte	.LASF55
 1550 0188 2C       		.byte	0x2c
 1551 0189 06       		.uleb128 0x6
 1552 018a 71160000 		.4byte	.LASF56
 1553 018e 2D       		.byte	0x2d
 1554 018f 06       		.uleb128 0x6
 1555 0190 8C010000 		.4byte	.LASF57
 1556 0194 2E       		.byte	0x2e
 1557 0195 06       		.uleb128 0x6
 1558 0196 471C0000 		.4byte	.LASF58
 1559 019a 2F       		.byte	0x2f
 1560 019b 06       		.uleb128 0x6
 1561 019c 8A070000 		.4byte	.LASF59
 1562 01a0 30       		.byte	0x30
 1563 01a1 06       		.uleb128 0x6
 1564 01a2 A9060000 		.4byte	.LASF60
 1565 01a6 31       		.byte	0x31
 1566 01a7 06       		.uleb128 0x6
 1567 01a8 580B0000 		.4byte	.LASF61
 1568 01ac 32       		.byte	0x32
 1569 01ad 06       		.uleb128 0x6
 1570 01ae E5200000 		.4byte	.LASF62
 1571 01b2 33       		.byte	0x33
 1572 01b3 06       		.uleb128 0x6
 1573 01b4 BE130000 		.4byte	.LASF63
 1574 01b8 34       		.byte	0x34
 1575 01b9 06       		.uleb128 0x6
ARM GAS  C:\Users\nicpa\AppData\Local\Temp\ccPr5feD.s 			page 98


 1576 01ba 5E110000 		.4byte	.LASF64
 1577 01be 35       		.byte	0x35
 1578 01bf 06       		.uleb128 0x6
 1579 01c0 CC030000 		.4byte	.LASF65
 1580 01c4 36       		.byte	0x36
 1581 01c5 06       		.uleb128 0x6
 1582 01c6 64190000 		.4byte	.LASF66
 1583 01ca 37       		.byte	0x37
 1584 01cb 06       		.uleb128 0x6
 1585 01cc 19170000 		.4byte	.LASF67
 1586 01d0 38       		.byte	0x38
 1587 01d1 06       		.uleb128 0x6
 1588 01d2 B8090000 		.4byte	.LASF68
 1589 01d6 39       		.byte	0x39
 1590 01d7 06       		.uleb128 0x6
 1591 01d8 6D1F0000 		.4byte	.LASF69
 1592 01dc 3A       		.byte	0x3a
 1593 01dd 06       		.uleb128 0x6
 1594 01de 51120000 		.4byte	.LASF70
 1595 01e2 3B       		.byte	0x3b
 1596 01e3 06       		.uleb128 0x6
 1597 01e4 AA100000 		.4byte	.LASF71
 1598 01e8 3C       		.byte	0x3c
 1599 01e9 06       		.uleb128 0x6
 1600 01ea 0B030000 		.4byte	.LASF72
 1601 01ee 3D       		.byte	0x3d
 1602 01ef 06       		.uleb128 0x6
 1603 01f0 C7180000 		.4byte	.LASF73
 1604 01f4 3E       		.byte	0x3e
 1605 01f5 06       		.uleb128 0x6
 1606 01f6 AC160000 		.4byte	.LASF74
 1607 01fa 3F       		.byte	0x3f
 1608 01fb 06       		.uleb128 0x6
 1609 01fc DD080000 		.4byte	.LASF75
 1610 0200 40       		.byte	0x40
 1611 0201 06       		.uleb128 0x6
 1612 0202 9D1E0000 		.4byte	.LASF76
 1613 0206 41       		.byte	0x41
 1614 0207 06       		.uleb128 0x6
 1615 0208 10220000 		.4byte	.LASF77
 1616 020c 42       		.byte	0x42
 1617 020d 06       		.uleb128 0x6
 1618 020e D8140000 		.4byte	.LASF78
 1619 0212 43       		.byte	0x43
 1620 0213 06       		.uleb128 0x6
 1621 0214 69060000 		.4byte	.LASF79
 1622 0218 44       		.byte	0x44
 1623 0219 06       		.uleb128 0x6
 1624 021a C8040000 		.4byte	.LASF80
 1625 021e 45       		.byte	0x45
 1626 021f 06       		.uleb128 0x6
 1627 0220 3D1A0000 		.4byte	.LASF81
 1628 0224 46       		.byte	0x46
 1629 0225 06       		.uleb128 0x6
 1630 0226 10190000 		.4byte	.LASF82
 1631 022a 47       		.byte	0x47
 1632 022b 06       		.uleb128 0x6
ARM GAS  C:\Users\nicpa\AppData\Local\Temp\ccPr5feD.s 			page 99


 1633 022c 930A0000 		.4byte	.LASF83
 1634 0230 48       		.byte	0x48
 1635 0231 06       		.uleb128 0x6
 1636 0232 29200000 		.4byte	.LASF84
 1637 0236 49       		.byte	0x49
 1638 0237 06       		.uleb128 0x6
 1639 0238 27130000 		.4byte	.LASF85
 1640 023c 4A       		.byte	0x4a
 1641 023d 06       		.uleb128 0x6
 1642 023e 5E100000 		.4byte	.LASF86
 1643 0242 4B       		.byte	0x4b
 1644 0243 06       		.uleb128 0x6
 1645 0244 6C180000 		.4byte	.LASF87
 1646 0248 4C       		.byte	0x4c
 1647 0249 06       		.uleb128 0x6
 1648 024a F20A0000 		.4byte	.LASF88
 1649 024e 4D       		.byte	0x4d
 1650 024f 06       		.uleb128 0x6
 1651 0250 91200000 		.4byte	.LASF89
 1652 0254 4E       		.byte	0x4e
 1653 0255 06       		.uleb128 0x6
 1654 0256 FE050000 		.4byte	.LASF90
 1655 025a 4F       		.byte	0x4f
 1656 025b 06       		.uleb128 0x6
 1657 025c 23110000 		.4byte	.LASF91
 1658 0260 50       		.byte	0x50
 1659 0261 06       		.uleb128 0x6
 1660 0262 80030000 		.4byte	.LASF92
 1661 0266 51       		.byte	0x51
 1662 0267 06       		.uleb128 0x6
 1663 0268 591A0000 		.4byte	.LASF93
 1664 026c 52       		.byte	0x52
 1665 026d 06       		.uleb128 0x6
 1666 026e 270D0000 		.4byte	.LASF94
 1667 0272 53       		.byte	0x53
 1668 0273 06       		.uleb128 0x6
 1669 0274 BF1A0000 		.4byte	.LASF95
 1670 0278 54       		.byte	0x54
 1671 0279 06       		.uleb128 0x6
 1672 027a 0F020000 		.4byte	.LASF96
 1673 027e 55       		.byte	0x55
 1674 027f 06       		.uleb128 0x6
 1675 0280 CE1C0000 		.4byte	.LASF97
 1676 0284 56       		.byte	0x56
 1677 0285 06       		.uleb128 0x6
 1678 0286 3F0F0000 		.4byte	.LASF98
 1679 028a 57       		.byte	0x57
 1680 028b 06       		.uleb128 0x6
 1681 028c F0210000 		.4byte	.LASF99
 1682 0290 58       		.byte	0x58
 1683 0291 06       		.uleb128 0x6
 1684 0292 8C1D0000 		.4byte	.LASF100
 1685 0296 59       		.byte	0x59
 1686 0297 06       		.uleb128 0x6
 1687 0298 591B0000 		.4byte	.LASF101
 1688 029c 5A       		.byte	0x5a
 1689 029d 06       		.uleb128 0x6
ARM GAS  C:\Users\nicpa\AppData\Local\Temp\ccPr5feD.s 			page 100


 1690 029e 20010000 		.4byte	.LASF102
 1691 02a2 5B       		.byte	0x5b
 1692 02a3 06       		.uleb128 0x6
 1693 02a4 820B0000 		.4byte	.LASF103
 1694 02a8 5C       		.byte	0x5c
 1695 02a9 06       		.uleb128 0x6
 1696 02aa 9A1A0000 		.4byte	.LASF104
 1697 02ae 5D       		.byte	0x5d
 1698 02af 06       		.uleb128 0x6
 1699 02b0 D61E0000 		.4byte	.LASF105
 1700 02b4 5E       		.byte	0x5e
 1701 02b5 06       		.uleb128 0x6
 1702 02b6 A3110000 		.4byte	.LASF106
 1703 02ba 5F       		.byte	0x5f
 1704 02bb 06       		.uleb128 0x6
 1705 02bc 20040000 		.4byte	.LASF107
 1706 02c0 60       		.byte	0x60
 1707 02c1 06       		.uleb128 0x6
 1708 02c2 56010000 		.4byte	.LASF108
 1709 02c6 61       		.byte	0x61
 1710 02c7 06       		.uleb128 0x6
 1711 02c8 94190000 		.4byte	.LASF109
 1712 02cc 62       		.byte	0x62
 1713 02cd 06       		.uleb128 0x6
 1714 02ce 35170000 		.4byte	.LASF110
 1715 02d2 63       		.byte	0x63
 1716 02d3 06       		.uleb128 0x6
 1717 02d4 DC090000 		.4byte	.LASF111
 1718 02d8 64       		.byte	0x64
 1719 02d9 06       		.uleb128 0x6
 1720 02da B81F0000 		.4byte	.LASF112
 1721 02de 65       		.byte	0x65
 1722 02df 06       		.uleb128 0x6
 1723 02e0 84120000 		.4byte	.LASF113
 1724 02e4 66       		.byte	0x66
 1725 02e5 06       		.uleb128 0x6
 1726 02e6 CD0F0000 		.4byte	.LASF114
 1727 02ea 67       		.byte	0x67
 1728 02eb 06       		.uleb128 0x6
 1729 02ec 7F0C0000 		.4byte	.LASF115
 1730 02f0 68       		.byte	0x68
 1731 02f1 06       		.uleb128 0x6
 1732 02f2 0A180000 		.4byte	.LASF116
 1733 02f6 69       		.byte	0x69
 1734 02f7 06       		.uleb128 0x6
 1735 02f8 28160000 		.4byte	.LASF117
 1736 02fc 6A       		.byte	0x6a
 1737 02fd 06       		.uleb128 0x6
 1738 02fe 44080000 		.4byte	.LASF118
 1739 0302 6B       		.byte	0x6b
 1740 0303 06       		.uleb128 0x6
 1741 0304 D70A0000 		.4byte	.LASF119
 1742 0308 6C       		.byte	0x6c
 1743 0309 06       		.uleb128 0x6
 1744 030a 540E0000 		.4byte	.LASF120
 1745 030e 6D       		.byte	0x6d
 1746 030f 06       		.uleb128 0x6
ARM GAS  C:\Users\nicpa\AppData\Local\Temp\ccPr5feD.s 			page 101


 1747 0310 89130000 		.4byte	.LASF121
 1748 0314 6E       		.byte	0x6e
 1749 0315 06       		.uleb128 0x6
 1750 0316 6F050000 		.4byte	.LASF122
 1751 031a 6F       		.byte	0x6f
 1752 031b 06       		.uleb128 0x6
 1753 031c 3C030000 		.4byte	.LASF123
 1754 0320 70       		.byte	0x70
 1755 0321 06       		.uleb128 0x6
 1756 0322 F5180000 		.4byte	.LASF124
 1757 0326 71       		.byte	0x71
 1758 0327 06       		.uleb128 0x6
 1759 0328 B10B0000 		.4byte	.LASF125
 1760 032c 72       		.byte	0x72
 1761 032d 06       		.uleb128 0x6
 1762 032e 2C090000 		.4byte	.LASF126
 1763 0332 73       		.byte	0x73
 1764 0333 06       		.uleb128 0x6
 1765 0334 241F0000 		.4byte	.LASF127
 1766 0338 74       		.byte	0x74
 1767 0339 06       		.uleb128 0x6
 1768 033a E2110000 		.4byte	.LASF128
 1769 033e 75       		.byte	0x75
 1770 033f 06       		.uleb128 0x6
 1771 0340 D50C0000 		.4byte	.LASF129
 1772 0344 76       		.byte	0x76
 1773 0345 06       		.uleb128 0x6
 1774 0346 AE220000 		.4byte	.LASF130
 1775 034a 77       		.byte	0x77
 1776 034b 06       		.uleb128 0x6
 1777 034c 46150000 		.4byte	.LASF131
 1778 0350 78       		.byte	0x78
 1779 0351 06       		.uleb128 0x6
 1780 0352 02130000 		.4byte	.LASF132
 1781 0356 79       		.byte	0x79
 1782 0357 06       		.uleb128 0x6
 1783 0358 59050000 		.4byte	.LASF133
 1784 035c 7A       		.byte	0x7a
 1785 035d 06       		.uleb128 0x6
 1786 035e 731B0000 		.4byte	.LASF134
 1787 0362 7B       		.byte	0x7b
 1788 0363 06       		.uleb128 0x6
 1789 0364 CA0D0000 		.4byte	.LASF135
 1790 0368 7C       		.byte	0x7c
 1791 0369 06       		.uleb128 0x6
 1792 036a 16000000 		.4byte	.LASF136
 1793 036e 7D       		.byte	0x7d
 1794 036f 06       		.uleb128 0x6
 1795 0370 77210000 		.4byte	.LASF137
 1796 0374 7E       		.byte	0x7e
 1797 0375 06       		.uleb128 0x6
 1798 0376 DF130000 		.4byte	.LASF138
 1799 037a 7F       		.byte	0x7f
 1800 037b 06       		.uleb128 0x6
 1801 037c E8050000 		.4byte	.LASF139
 1802 0380 80       		.byte	0x80
 1803 0381 06       		.uleb128 0x6
ARM GAS  C:\Users\nicpa\AppData\Local\Temp\ccPr5feD.s 			page 102


 1804 0382 3A040000 		.4byte	.LASF140
 1805 0386 81       		.byte	0x81
 1806 0387 06       		.uleb128 0x6
 1807 0388 BA1D0000 		.4byte	.LASF141
 1808 038c 82       		.byte	0x82
 1809 038d 06       		.uleb128 0x6
 1810 038e 3C0C0000 		.4byte	.LASF142
 1811 0392 83       		.byte	0x83
 1812 0393 06       		.uleb128 0x6
 1813 0394 891F0000 		.4byte	.LASF143
 1814 0398 84       		.byte	0x84
 1815 0399 06       		.uleb128 0x6
 1816 039a 6D120000 		.4byte	.LASF144
 1817 039e 85       		.byte	0x85
 1818 039f 06       		.uleb128 0x6
 1819 03a0 AD0F0000 		.4byte	.LASF145
 1820 03a4 86       		.byte	0x86
 1821 03a5 06       		.uleb128 0x6
 1822 03a6 DE010000 		.4byte	.LASF146
 1823 03aa 87       		.byte	0x87
 1824 03ab 06       		.uleb128 0x6
 1825 03ac E4190000 		.4byte	.LASF147
 1826 03b0 88       		.byte	0x88
 1827 03b1 06       		.uleb128 0x6
 1828 03b2 EB150000 		.4byte	.LASF148
 1829 03b6 89       		.byte	0x89
 1830 03b7 06       		.uleb128 0x6
 1831 03b8 8C150000 		.4byte	.LASF149
 1832 03bc 8A       		.byte	0x8a
 1833 03bd 06       		.uleb128 0x6
 1834 03be 351B0000 		.4byte	.LASF150
 1835 03c2 8B       		.byte	0x8b
 1836 03c3 06       		.uleb128 0x6
 1837 03c4 87170000 		.4byte	.LASF151
 1838 03c8 8C       		.byte	0x8c
 1839 03c9 06       		.uleb128 0x6
 1840 03ca 80020000 		.4byte	.LASF152
 1841 03ce 8D       		.byte	0x8d
 1842 03cf 06       		.uleb128 0x6
 1843 03d0 28030000 		.4byte	.LASF153
 1844 03d4 8E       		.byte	0x8e
 1845 03d5 06       		.uleb128 0x6
 1846 03d6 92180000 		.4byte	.LASF154
 1847 03da 8F       		.byte	0x8f
 1848 03db 06       		.uleb128 0x6
 1849 03dc 54090000 		.4byte	.LASF155
 1850 03e0 90       		.byte	0x90
 1851 03e1 06       		.uleb128 0x6
 1852 03e2 5E080000 		.4byte	.LASF156
 1853 03e6 91       		.byte	0x91
 1854 03e7 06       		.uleb128 0x6
 1855 03e8 F00C0000 		.4byte	.LASF157
 1856 03ec 92       		.byte	0x92
 1857 03ed 06       		.uleb128 0x6
 1858 03ee A7080000 		.4byte	.LASF158
 1859 03f2 F0       		.byte	0xf0
 1860 03f3 00       		.byte	0
ARM GAS  C:\Users\nicpa\AppData\Local\Temp\ccPr5feD.s 			page 103


 1861 03f4 02       		.uleb128 0x2
 1862 03f5 02       		.byte	0x2
 1863 03f6 05       		.byte	0x5
 1864 03f7 B31C0000 		.4byte	.LASF159
 1865 03fb 07       		.uleb128 0x7
 1866 03fc 1D0F0000 		.4byte	.LASF160
 1867 0400 05       		.byte	0x5
 1868 0401 F4       		.byte	0xf4
 1869 0402 33000000 		.4byte	0x33
 1870 0406 07       		.uleb128 0x7
 1871 0407 01180000 		.4byte	.LASF161
 1872 040b 06       		.byte	0x6
 1873 040c 1B       		.byte	0x1b
 1874 040d 11040000 		.4byte	0x411
 1875 0411 02       		.uleb128 0x2
 1876 0412 01       		.byte	0x1
 1877 0413 06       		.byte	0x6
 1878 0414 E2060000 		.4byte	.LASF162
 1879 0418 07       		.uleb128 0x7
 1880 0419 A4040000 		.4byte	.LASF163
 1881 041d 06       		.byte	0x6
 1882 041e 1D       		.byte	0x1d
 1883 041f 23040000 		.4byte	0x423
 1884 0423 02       		.uleb128 0x2
 1885 0424 01       		.byte	0x1
 1886 0425 08       		.byte	0x8
 1887 0426 CC070000 		.4byte	.LASF164
 1888 042a 07       		.uleb128 0x7
 1889 042b 901A0000 		.4byte	.LASF165
 1890 042f 06       		.byte	0x6
 1891 0430 29       		.byte	0x29
 1892 0431 F4030000 		.4byte	0x3f4
 1893 0435 07       		.uleb128 0x7
 1894 0436 5C0A0000 		.4byte	.LASF166
 1895 043a 06       		.byte	0x6
 1896 043b 2B       		.byte	0x2b
 1897 043c 40040000 		.4byte	0x440
 1898 0440 02       		.uleb128 0x2
 1899 0441 02       		.byte	0x2
 1900 0442 07       		.byte	0x7
 1901 0443 C7200000 		.4byte	.LASF167
 1902 0447 07       		.uleb128 0x7
 1903 0448 A71B0000 		.4byte	.LASF168
 1904 044c 06       		.byte	0x6
 1905 044d 3F       		.byte	0x3f
 1906 044e 52040000 		.4byte	0x452
 1907 0452 02       		.uleb128 0x2
 1908 0453 04       		.byte	0x4
 1909 0454 05       		.byte	0x5
 1910 0455 0F050000 		.4byte	.LASF169
 1911 0459 07       		.uleb128 0x7
 1912 045a 7A110000 		.4byte	.LASF170
 1913 045e 06       		.byte	0x6
 1914 045f 41       		.byte	0x41
 1915 0460 64040000 		.4byte	0x464
 1916 0464 02       		.uleb128 0x2
 1917 0465 04       		.byte	0x4
ARM GAS  C:\Users\nicpa\AppData\Local\Temp\ccPr5feD.s 			page 104


 1918 0466 07       		.byte	0x7
 1919 0467 920E0000 		.4byte	.LASF171
 1920 046b 02       		.uleb128 0x2
 1921 046c 08       		.byte	0x8
 1922 046d 05       		.byte	0x5
 1923 046e F11F0000 		.4byte	.LASF172
 1924 0472 02       		.uleb128 0x2
 1925 0473 08       		.byte	0x8
 1926 0474 07       		.byte	0x7
 1927 0475 40180000 		.4byte	.LASF173
 1928 0479 02       		.uleb128 0x2
 1929 047a 04       		.byte	0x4
 1930 047b 07       		.byte	0x7
 1931 047c F5130000 		.4byte	.LASF174
 1932 0480 07       		.uleb128 0x7
 1933 0481 2C000000 		.4byte	.LASF175
 1934 0485 07       		.byte	0x7
 1935 0486 14       		.byte	0x14
 1936 0487 06040000 		.4byte	0x406
 1937 048b 07       		.uleb128 0x7
 1938 048c EE060000 		.4byte	.LASF176
 1939 0490 07       		.byte	0x7
 1940 0491 18       		.byte	0x18
 1941 0492 18040000 		.4byte	0x418
 1942 0496 07       		.uleb128 0x7
 1943 0497 2B1D0000 		.4byte	.LASF177
 1944 049b 07       		.byte	0x7
 1945 049c 20       		.byte	0x20
 1946 049d 2A040000 		.4byte	0x42a
 1947 04a1 07       		.uleb128 0x7
 1948 04a2 89180000 		.4byte	.LASF178
 1949 04a6 07       		.byte	0x7
 1950 04a7 24       		.byte	0x24
 1951 04a8 35040000 		.4byte	0x435
 1952 04ac 07       		.uleb128 0x7
 1953 04ad FB190000 		.4byte	.LASF179
 1954 04b1 07       		.byte	0x7
 1955 04b2 2C       		.byte	0x2c
 1956 04b3 47040000 		.4byte	0x447
 1957 04b7 07       		.uleb128 0x7
 1958 04b8 FF1F0000 		.4byte	.LASF180
 1959 04bc 07       		.byte	0x7
 1960 04bd 30       		.byte	0x30
 1961 04be 59040000 		.4byte	0x459
 1962 04c2 08       		.uleb128 0x8
 1963 04c3 040E     		.2byte	0xe04
 1964 04c5 03       		.byte	0x3
 1965 04c6 9601     		.2byte	0x196
 1966 04c8 7E050000 		.4byte	0x57e
 1967 04cc 09       		.uleb128 0x9
 1968 04cd 38220000 		.4byte	.LASF181
 1969 04d1 03       		.byte	0x3
 1970 04d2 9801     		.2byte	0x198
 1971 04d4 9A050000 		.4byte	0x59a
 1972 04d8 00       		.byte	0
 1973 04d9 09       		.uleb128 0x9
 1974 04da B8070000 		.4byte	.LASF182
ARM GAS  C:\Users\nicpa\AppData\Local\Temp\ccPr5feD.s 			page 105


 1975 04de 03       		.byte	0x3
 1976 04df 9901     		.2byte	0x199
 1977 04e1 9F050000 		.4byte	0x59f
 1978 04e5 20       		.byte	0x20
 1979 04e6 09       		.uleb128 0x9
 1980 04e7 231A0000 		.4byte	.LASF183
 1981 04eb 03       		.byte	0x3
 1982 04ec 9A01     		.2byte	0x19a
 1983 04ee AF050000 		.4byte	0x5af
 1984 04f2 80       		.byte	0x80
 1985 04f3 09       		.uleb128 0x9
 1986 04f4 00000000 		.4byte	.LASF184
 1987 04f8 03       		.byte	0x3
 1988 04f9 9B01     		.2byte	0x19b
 1989 04fb 9F050000 		.4byte	0x59f
 1990 04ff A0       		.byte	0xa0
 1991 0500 0A       		.uleb128 0xa
 1992 0501 9C0B0000 		.4byte	.LASF185
 1993 0505 03       		.byte	0x3
 1994 0506 9C01     		.2byte	0x19c
 1995 0508 B4050000 		.4byte	0x5b4
 1996 050c 0001     		.2byte	0x100
 1997 050e 0A       		.uleb128 0xa
 1998 050f 830A0000 		.4byte	.LASF186
 1999 0513 03       		.byte	0x3
 2000 0514 9D01     		.2byte	0x19d
 2001 0516 9F050000 		.4byte	0x59f
 2002 051a 2001     		.2byte	0x120
 2003 051c 0A       		.uleb128 0xa
 2004 051d AC030000 		.4byte	.LASF187
 2005 0521 03       		.byte	0x3
 2006 0522 9E01     		.2byte	0x19e
 2007 0524 B9050000 		.4byte	0x5b9
 2008 0528 8001     		.2byte	0x180
 2009 052a 0A       		.uleb128 0xa
 2010 052b DA070000 		.4byte	.LASF188
 2011 052f 03       		.byte	0x3
 2012 0530 9F01     		.2byte	0x19f
 2013 0532 9F050000 		.4byte	0x59f
 2014 0536 A001     		.2byte	0x1a0
 2015 0538 0A       		.uleb128 0xa
 2016 0539 3F080000 		.4byte	.LASF189
 2017 053d 03       		.byte	0x3
 2018 053e A001     		.2byte	0x1a0
 2019 0540 BE050000 		.4byte	0x5be
 2020 0544 0002     		.2byte	0x200
 2021 0546 0A       		.uleb128 0xa
 2022 0547 E4070000 		.4byte	.LASF190
 2023 054b 03       		.byte	0x3
 2024 054c A101     		.2byte	0x1a1
 2025 054e C3050000 		.4byte	0x5c3
 2026 0552 2002     		.2byte	0x220
 2027 0554 0B       		.uleb128 0xb
 2028 0555 495000   		.ascii	"IP\000"
 2029 0558 03       		.byte	0x3
 2030 0559 A201     		.2byte	0x1a2
 2031 055b E8050000 		.4byte	0x5e8
ARM GAS  C:\Users\nicpa\AppData\Local\Temp\ccPr5feD.s 			page 106


 2032 055f 0003     		.2byte	0x300
 2033 0561 0A       		.uleb128 0xa
 2034 0562 0C090000 		.4byte	.LASF191
 2035 0566 03       		.byte	0x3
 2036 0567 A301     		.2byte	0x1a3
 2037 0569 ED050000 		.4byte	0x5ed
 2038 056d F003     		.2byte	0x3f0
 2039 056f 0A       		.uleb128 0xa
 2040 0570 7A0C0000 		.4byte	.LASF192
 2041 0574 03       		.byte	0x3
 2042 0575 A401     		.2byte	0x1a4
 2043 0577 95050000 		.4byte	0x595
 2044 057b 000E     		.2byte	0xe00
 2045 057d 00       		.byte	0
 2046 057e 0C       		.uleb128 0xc
 2047 057f 95050000 		.4byte	0x595
 2048 0583 8E050000 		.4byte	0x58e
 2049 0587 0D       		.uleb128 0xd
 2050 0588 8E050000 		.4byte	0x58e
 2051 058c 07       		.byte	0x7
 2052 058d 00       		.byte	0
 2053 058e 02       		.uleb128 0x2
 2054 058f 04       		.byte	0x4
 2055 0590 07       		.byte	0x7
 2056 0591 53000000 		.4byte	.LASF193
 2057 0595 0E       		.uleb128 0xe
 2058 0596 B7040000 		.4byte	0x4b7
 2059 059a 0E       		.uleb128 0xe
 2060 059b 7E050000 		.4byte	0x57e
 2061 059f 0C       		.uleb128 0xc
 2062 05a0 B7040000 		.4byte	0x4b7
 2063 05a4 AF050000 		.4byte	0x5af
 2064 05a8 0D       		.uleb128 0xd
 2065 05a9 8E050000 		.4byte	0x58e
 2066 05ad 17       		.byte	0x17
 2067 05ae 00       		.byte	0
 2068 05af 0E       		.uleb128 0xe
 2069 05b0 7E050000 		.4byte	0x57e
 2070 05b4 0E       		.uleb128 0xe
 2071 05b5 7E050000 		.4byte	0x57e
 2072 05b9 0E       		.uleb128 0xe
 2073 05ba 7E050000 		.4byte	0x57e
 2074 05be 0E       		.uleb128 0xe
 2075 05bf 7E050000 		.4byte	0x57e
 2076 05c3 0C       		.uleb128 0xc
 2077 05c4 B7040000 		.4byte	0x4b7
 2078 05c8 D3050000 		.4byte	0x5d3
 2079 05cc 0D       		.uleb128 0xd
 2080 05cd 8E050000 		.4byte	0x58e
 2081 05d1 37       		.byte	0x37
 2082 05d2 00       		.byte	0
 2083 05d3 0C       		.uleb128 0xc
 2084 05d4 E3050000 		.4byte	0x5e3
 2085 05d8 E3050000 		.4byte	0x5e3
 2086 05dc 0D       		.uleb128 0xd
 2087 05dd 8E050000 		.4byte	0x58e
 2088 05e1 EF       		.byte	0xef
ARM GAS  C:\Users\nicpa\AppData\Local\Temp\ccPr5feD.s 			page 107


 2089 05e2 00       		.byte	0
 2090 05e3 0E       		.uleb128 0xe
 2091 05e4 8B040000 		.4byte	0x48b
 2092 05e8 0E       		.uleb128 0xe
 2093 05e9 D3050000 		.4byte	0x5d3
 2094 05ed 0C       		.uleb128 0xc
 2095 05ee B7040000 		.4byte	0x4b7
 2096 05f2 FE050000 		.4byte	0x5fe
 2097 05f6 0F       		.uleb128 0xf
 2098 05f7 8E050000 		.4byte	0x58e
 2099 05fb 8302     		.2byte	0x283
 2100 05fd 00       		.byte	0
 2101 05fe 10       		.uleb128 0x10
 2102 05ff E3170000 		.4byte	.LASF194
 2103 0603 03       		.byte	0x3
 2104 0604 A501     		.2byte	0x1a5
 2105 0606 C2040000 		.4byte	0x4c2
 2106 060a 11       		.uleb128 0x11
 2107 060b 95050000 		.4byte	0x595
 2108 060f 0C       		.uleb128 0xc
 2109 0610 0A060000 		.4byte	0x60a
 2110 0614 1F060000 		.4byte	0x61f
 2111 0618 0D       		.uleb128 0xd
 2112 0619 8E050000 		.4byte	0x58e
 2113 061d 0F       		.byte	0xf
 2114 061e 00       		.byte	0
 2115 061f 12       		.uleb128 0x12
 2116 0620 80       		.byte	0x80
 2117 0621 08       		.byte	0x8
 2118 0622 22       		.byte	0x22
 2119 0623 F3060000 		.4byte	0x6f3
 2120 0627 13       		.uleb128 0x13
 2121 0628 4F555400 		.ascii	"OUT\000"
 2122 062c 08       		.byte	0x8
 2123 062d 23       		.byte	0x23
 2124 062e 95050000 		.4byte	0x595
 2125 0632 00       		.byte	0
 2126 0633 14       		.uleb128 0x14
 2127 0634 58020000 		.4byte	.LASF195
 2128 0638 08       		.byte	0x8
 2129 0639 24       		.byte	0x24
 2130 063a 95050000 		.4byte	0x595
 2131 063e 04       		.byte	0x4
 2132 063f 14       		.uleb128 0x14
 2133 0640 3F020000 		.4byte	.LASF196
 2134 0644 08       		.byte	0x8
 2135 0645 25       		.byte	0x25
 2136 0646 95050000 		.4byte	0x595
 2137 064a 08       		.byte	0x8
 2138 064b 14       		.uleb128 0x14
 2139 064c 20160000 		.4byte	.LASF197
 2140 0650 08       		.byte	0x8
 2141 0651 26       		.byte	0x26
 2142 0652 95050000 		.4byte	0x595
 2143 0656 0C       		.byte	0xc
 2144 0657 13       		.uleb128 0x13
 2145 0658 494E00   		.ascii	"IN\000"
ARM GAS  C:\Users\nicpa\AppData\Local\Temp\ccPr5feD.s 			page 108


 2146 065b 08       		.byte	0x8
 2147 065c 27       		.byte	0x27
 2148 065d 0A060000 		.4byte	0x60a
 2149 0661 10       		.byte	0x10
 2150 0662 14       		.uleb128 0x14
 2151 0663 08200000 		.4byte	.LASF198
 2152 0667 08       		.byte	0x8
 2153 0668 28       		.byte	0x28
 2154 0669 95050000 		.4byte	0x595
 2155 066d 14       		.byte	0x14
 2156 066e 14       		.uleb128 0x14
 2157 066f EB1A0000 		.4byte	.LASF199
 2158 0673 08       		.byte	0x8
 2159 0674 29       		.byte	0x29
 2160 0675 95050000 		.4byte	0x595
 2161 0679 18       		.byte	0x18
 2162 067a 14       		.uleb128 0x14
 2163 067b 27020000 		.4byte	.LASF200
 2164 067f 08       		.byte	0x8
 2165 0680 2A       		.byte	0x2a
 2166 0681 0A060000 		.4byte	0x60a
 2167 0685 1C       		.byte	0x1c
 2168 0686 14       		.uleb128 0x14
 2169 0687 F1160000 		.4byte	.LASF201
 2170 068b 08       		.byte	0x8
 2171 068c 2B       		.byte	0x2b
 2172 068d 95050000 		.4byte	0x595
 2173 0691 20       		.byte	0x20
 2174 0692 14       		.uleb128 0x14
 2175 0693 63180000 		.4byte	.LASF202
 2176 0697 08       		.byte	0x8
 2177 0698 2C       		.byte	0x2c
 2178 0699 95050000 		.4byte	0x595
 2179 069d 24       		.byte	0x24
 2180 069e 13       		.uleb128 0x13
 2181 069f 43464700 		.ascii	"CFG\000"
 2182 06a3 08       		.byte	0x8
 2183 06a4 2D       		.byte	0x2d
 2184 06a5 95050000 		.4byte	0x595
 2185 06a9 28       		.byte	0x28
 2186 06aa 14       		.uleb128 0x14
 2187 06ab 0F0B0000 		.4byte	.LASF203
 2188 06af 08       		.byte	0x8
 2189 06b0 2E       		.byte	0x2e
 2190 06b1 95050000 		.4byte	0x595
 2191 06b5 2C       		.byte	0x2c
 2192 06b6 14       		.uleb128 0x14
 2193 06b7 FD110000 		.4byte	.LASF204
 2194 06bb 08       		.byte	0x8
 2195 06bc 2F       		.byte	0x2f
 2196 06bd 95050000 		.4byte	0x595
 2197 06c1 30       		.byte	0x30
 2198 06c2 14       		.uleb128 0x14
 2199 06c3 281B0000 		.4byte	.LASF205
 2200 06c7 08       		.byte	0x8
 2201 06c8 30       		.byte	0x30
 2202 06c9 95050000 		.4byte	0x595
ARM GAS  C:\Users\nicpa\AppData\Local\Temp\ccPr5feD.s 			page 109


 2203 06cd 34       		.byte	0x34
 2204 06ce 14       		.uleb128 0x14
 2205 06cf 090D0000 		.4byte	.LASF206
 2206 06d3 08       		.byte	0x8
 2207 06d4 31       		.byte	0x31
 2208 06d5 0A060000 		.4byte	0x60a
 2209 06d9 38       		.byte	0x38
 2210 06da 14       		.uleb128 0x14
 2211 06db 85060000 		.4byte	.LASF207
 2212 06df 08       		.byte	0x8
 2213 06e0 32       		.byte	0x32
 2214 06e1 95050000 		.4byte	0x595
 2215 06e5 3C       		.byte	0x3c
 2216 06e6 14       		.uleb128 0x14
 2217 06e7 C2070000 		.4byte	.LASF208
 2218 06eb 08       		.byte	0x8
 2219 06ec 33       		.byte	0x33
 2220 06ed F8060000 		.4byte	0x6f8
 2221 06f1 40       		.byte	0x40
 2222 06f2 00       		.byte	0
 2223 06f3 0E       		.uleb128 0xe
 2224 06f4 0F060000 		.4byte	0x60f
 2225 06f8 11       		.uleb128 0x11
 2226 06f9 F3060000 		.4byte	0x6f3
 2227 06fd 07       		.uleb128 0x7
 2228 06fe B6180000 		.4byte	.LASF209
 2229 0702 08       		.byte	0x8
 2230 0703 34       		.byte	0x34
 2231 0704 1F060000 		.4byte	0x61f
 2232 0708 15       		.uleb128 0x15
 2233 0709 2440     		.2byte	0x4024
 2234 070b 08       		.byte	0x8
 2235 070c 39       		.byte	0x39
 2236 070d 93070000 		.4byte	0x793
 2237 0711 13       		.uleb128 0x13
 2238 0712 50525400 		.ascii	"PRT\000"
 2239 0716 08       		.byte	0x8
 2240 0717 3A       		.byte	0x3a
 2241 0718 93070000 		.4byte	0x793
 2242 071c 00       		.byte	0
 2243 071d 16       		.uleb128 0x16
 2244 071e 18050000 		.4byte	.LASF210
 2245 0722 08       		.byte	0x8
 2246 0723 3B       		.byte	0x3b
 2247 0724 0A060000 		.4byte	0x60a
 2248 0728 0040     		.2byte	0x4000
 2249 072a 16       		.uleb128 0x16
 2250 072b 24050000 		.4byte	.LASF211
 2251 072f 08       		.byte	0x8
 2252 0730 3C       		.byte	0x3c
 2253 0731 0A060000 		.4byte	0x60a
 2254 0735 0440     		.2byte	0x4004
 2255 0737 16       		.uleb128 0x16
 2256 0738 30050000 		.4byte	.LASF212
 2257 073c 08       		.byte	0x8
 2258 073d 3D       		.byte	0x3d
 2259 073e 0A060000 		.4byte	0x60a
ARM GAS  C:\Users\nicpa\AppData\Local\Temp\ccPr5feD.s 			page 110


 2260 0742 0840     		.2byte	0x4008
 2261 0744 16       		.uleb128 0x16
 2262 0745 3C050000 		.4byte	.LASF213
 2263 0749 08       		.byte	0x8
 2264 074a 3E       		.byte	0x3e
 2265 074b 0A060000 		.4byte	0x60a
 2266 074f 0C40     		.2byte	0x400c
 2267 0751 16       		.uleb128 0x16
 2268 0752 2C1E0000 		.4byte	.LASF214
 2269 0756 08       		.byte	0x8
 2270 0757 3F       		.byte	0x3f
 2271 0758 0A060000 		.4byte	0x60a
 2272 075c 1040     		.2byte	0x4010
 2273 075e 16       		.uleb128 0x16
 2274 075f 86160000 		.4byte	.LASF215
 2275 0763 08       		.byte	0x8
 2276 0764 40       		.byte	0x40
 2277 0765 95050000 		.4byte	0x595
 2278 0769 1440     		.2byte	0x4014
 2279 076b 16       		.uleb128 0x16
 2280 076c 740B0000 		.4byte	.LASF216
 2281 0770 08       		.byte	0x8
 2282 0771 41       		.byte	0x41
 2283 0772 95050000 		.4byte	0x595
 2284 0776 1840     		.2byte	0x4018
 2285 0778 16       		.uleb128 0x16
 2286 0779 800D0000 		.4byte	.LASF217
 2287 077d 08       		.byte	0x8
 2288 077e 42       		.byte	0x42
 2289 077f 0A060000 		.4byte	0x60a
 2290 0783 1C40     		.2byte	0x401c
 2291 0785 16       		.uleb128 0x16
 2292 0786 031A0000 		.4byte	.LASF218
 2293 078a 08       		.byte	0x8
 2294 078b 43       		.byte	0x43
 2295 078c 95050000 		.4byte	0x595
 2296 0790 2040     		.2byte	0x4020
 2297 0792 00       		.byte	0
 2298 0793 0C       		.uleb128 0xc
 2299 0794 FD060000 		.4byte	0x6fd
 2300 0798 A3070000 		.4byte	0x7a3
 2301 079c 0D       		.uleb128 0xd
 2302 079d 8E050000 		.4byte	0x58e
 2303 07a1 7F       		.byte	0x7f
 2304 07a2 00       		.byte	0
 2305 07a3 07       		.uleb128 0x7
 2306 07a4 F6090000 		.4byte	.LASF219
 2307 07a8 08       		.byte	0x8
 2308 07a9 44       		.byte	0x44
 2309 07aa 08070000 		.4byte	0x708
 2310 07ae 10       		.uleb128 0x10
 2311 07af D61B0000 		.4byte	.LASF220
 2312 07b3 09       		.byte	0x9
 2313 07b4 3106     		.2byte	0x631
 2314 07b6 FD060000 		.4byte	0x6fd
 2315 07ba 10       		.uleb128 0x10
 2316 07bb A2170000 		.4byte	.LASF221
ARM GAS  C:\Users\nicpa\AppData\Local\Temp\ccPr5feD.s 			page 111


 2317 07bf 09       		.byte	0x9
 2318 07c0 3206     		.2byte	0x632
 2319 07c2 A3070000 		.4byte	0x7a3
 2320 07c6 02       		.uleb128 0x2
 2321 07c7 08       		.byte	0x8
 2322 07c8 04       		.byte	0x4
 2323 07c9 C9160000 		.4byte	.LASF222
 2324 07cd 12       		.uleb128 0x12
 2325 07ce B8       		.byte	0xb8
 2326 07cf 0A       		.byte	0xa
 2327 07d0 34       		.byte	0x34
 2328 07d1 DE0B0000 		.4byte	0xbde
 2329 07d5 14       		.uleb128 0x14
 2330 07d6 40110000 		.4byte	.LASF223
 2331 07da 0A       		.byte	0xa
 2332 07db 37       		.byte	0x37
 2333 07dc B7040000 		.4byte	0x4b7
 2334 07e0 00       		.byte	0
 2335 07e1 14       		.uleb128 0x14
 2336 07e2 9F070000 		.4byte	.LASF224
 2337 07e6 0A       		.byte	0xa
 2338 07e7 38       		.byte	0x38
 2339 07e8 B7040000 		.4byte	0x4b7
 2340 07ec 04       		.byte	0x4
 2341 07ed 14       		.uleb128 0x14
 2342 07ee F00D0000 		.4byte	.LASF225
 2343 07f2 0A       		.byte	0xa
 2344 07f3 39       		.byte	0x39
 2345 07f4 B7040000 		.4byte	0x4b7
 2346 07f8 08       		.byte	0x8
 2347 07f9 14       		.uleb128 0x14
 2348 07fa 500B0000 		.4byte	.LASF226
 2349 07fe 0A       		.byte	0xa
 2350 07ff 3A       		.byte	0x3a
 2351 0800 B7040000 		.4byte	0x4b7
 2352 0804 0C       		.byte	0xc
 2353 0805 14       		.uleb128 0x14
 2354 0806 4A110000 		.4byte	.LASF227
 2355 080a 0A       		.byte	0xa
 2356 080b 3B       		.byte	0x3b
 2357 080c B7040000 		.4byte	0x4b7
 2358 0810 10       		.byte	0x10
 2359 0811 14       		.uleb128 0x14
 2360 0812 16010000 		.4byte	.LASF228
 2361 0816 0A       		.byte	0xa
 2362 0817 3C       		.byte	0x3c
 2363 0818 B7040000 		.4byte	0x4b7
 2364 081c 14       		.byte	0x14
 2365 081d 14       		.uleb128 0x14
 2366 081e 501B0000 		.4byte	.LASF229
 2367 0822 0A       		.byte	0xa
 2368 0823 3D       		.byte	0x3d
 2369 0824 B7040000 		.4byte	0x4b7
 2370 0828 18       		.byte	0x18
 2371 0829 14       		.uleb128 0x14
 2372 082a BE080000 		.4byte	.LASF230
 2373 082e 0A       		.byte	0xa
ARM GAS  C:\Users\nicpa\AppData\Local\Temp\ccPr5feD.s 			page 112


 2374 082f 3E       		.byte	0x3e
 2375 0830 B7040000 		.4byte	0x4b7
 2376 0834 1C       		.byte	0x1c
 2377 0835 14       		.uleb128 0x14
 2378 0836 89200000 		.4byte	.LASF231
 2379 083a 0A       		.byte	0xa
 2380 083b 3F       		.byte	0x3f
 2381 083c B7040000 		.4byte	0x4b7
 2382 0840 20       		.byte	0x20
 2383 0841 14       		.uleb128 0x14
 2384 0842 33000000 		.4byte	.LASF232
 2385 0846 0A       		.byte	0xa
 2386 0847 40       		.byte	0x40
 2387 0848 B7040000 		.4byte	0x4b7
 2388 084c 24       		.byte	0x24
 2389 084d 14       		.uleb128 0x14
 2390 084e 320F0000 		.4byte	.LASF233
 2391 0852 0A       		.byte	0xa
 2392 0853 43       		.byte	0x43
 2393 0854 8B040000 		.4byte	0x48b
 2394 0858 28       		.byte	0x28
 2395 0859 14       		.uleb128 0x14
 2396 085a B1120000 		.4byte	.LASF234
 2397 085e 0A       		.byte	0xa
 2398 085f 44       		.byte	0x44
 2399 0860 8B040000 		.4byte	0x48b
 2400 0864 29       		.byte	0x29
 2401 0865 14       		.uleb128 0x14
 2402 0866 1E1B0000 		.4byte	.LASF235
 2403 086a 0A       		.byte	0xa
 2404 086b 45       		.byte	0x45
 2405 086c 8B040000 		.4byte	0x48b
 2406 0870 2A       		.byte	0x2a
 2407 0871 14       		.uleb128 0x14
 2408 0872 96040000 		.4byte	.LASF236
 2409 0876 0A       		.byte	0xa
 2410 0877 46       		.byte	0x46
 2411 0878 8B040000 		.4byte	0x48b
 2412 087c 2B       		.byte	0x2b
 2413 087d 14       		.uleb128 0x14
 2414 087e 731E0000 		.4byte	.LASF237
 2415 0882 0A       		.byte	0xa
 2416 0883 47       		.byte	0x47
 2417 0884 8B040000 		.4byte	0x48b
 2418 0888 2C       		.byte	0x2c
 2419 0889 14       		.uleb128 0x14
 2420 088a 1F230000 		.4byte	.LASF238
 2421 088e 0A       		.byte	0xa
 2422 088f 48       		.byte	0x48
 2423 0890 8B040000 		.4byte	0x48b
 2424 0894 2D       		.byte	0x2d
 2425 0895 14       		.uleb128 0x14
 2426 0896 53110000 		.4byte	.LASF239
 2427 089a 0A       		.byte	0xa
 2428 089b 49       		.byte	0x49
 2429 089c 8B040000 		.4byte	0x48b
 2430 08a0 2E       		.byte	0x2e
ARM GAS  C:\Users\nicpa\AppData\Local\Temp\ccPr5feD.s 			page 113


 2431 08a1 14       		.uleb128 0x14
 2432 08a2 8E1C0000 		.4byte	.LASF240
 2433 08a6 0A       		.byte	0xa
 2434 08a7 4A       		.byte	0x4a
 2435 08a8 8B040000 		.4byte	0x48b
 2436 08ac 2F       		.byte	0x2f
 2437 08ad 14       		.uleb128 0x14
 2438 08ae 621C0000 		.4byte	.LASF241
 2439 08b2 0A       		.byte	0xa
 2440 08b3 4B       		.byte	0x4b
 2441 08b4 8B040000 		.4byte	0x48b
 2442 08b8 30       		.byte	0x30
 2443 08b9 14       		.uleb128 0x14
 2444 08ba B3130000 		.4byte	.LASF242
 2445 08be 0A       		.byte	0xa
 2446 08bf 4E       		.byte	0x4e
 2447 08c0 8B040000 		.4byte	0x48b
 2448 08c4 31       		.byte	0x31
 2449 08c5 14       		.uleb128 0x14
 2450 08c6 BE1B0000 		.4byte	.LASF243
 2451 08ca 0A       		.byte	0xa
 2452 08cb 4F       		.byte	0x4f
 2453 08cc 8B040000 		.4byte	0x48b
 2454 08d0 32       		.byte	0x32
 2455 08d1 14       		.uleb128 0x14
 2456 08d2 101A0000 		.4byte	.LASF244
 2457 08d6 0A       		.byte	0xa
 2458 08d7 50       		.byte	0x50
 2459 08d8 8B040000 		.4byte	0x48b
 2460 08dc 33       		.byte	0x33
 2461 08dd 14       		.uleb128 0x14
 2462 08de 6F0E0000 		.4byte	.LASF245
 2463 08e2 0A       		.byte	0xa
 2464 08e3 51       		.byte	0x51
 2465 08e4 8B040000 		.4byte	0x48b
 2466 08e8 34       		.byte	0x34
 2467 08e9 14       		.uleb128 0x14
 2468 08ea BB0A0000 		.4byte	.LASF246
 2469 08ee 0A       		.byte	0xa
 2470 08ef 52       		.byte	0x52
 2471 08f0 96040000 		.4byte	0x496
 2472 08f4 36       		.byte	0x36
 2473 08f5 14       		.uleb128 0x14
 2474 08f6 6D0F0000 		.4byte	.LASF247
 2475 08fa 0A       		.byte	0xa
 2476 08fb 53       		.byte	0x53
 2477 08fc 96040000 		.4byte	0x496
 2478 0900 38       		.byte	0x38
 2479 0901 14       		.uleb128 0x14
 2480 0902 900D0000 		.4byte	.LASF248
 2481 0906 0A       		.byte	0xa
 2482 0907 54       		.byte	0x54
 2483 0908 96040000 		.4byte	0x496
 2484 090c 3A       		.byte	0x3a
 2485 090d 14       		.uleb128 0x14
 2486 090e 710D0000 		.4byte	.LASF249
 2487 0912 0A       		.byte	0xa
ARM GAS  C:\Users\nicpa\AppData\Local\Temp\ccPr5feD.s 			page 114


 2488 0913 55       		.byte	0x55
 2489 0914 8B040000 		.4byte	0x48b
 2490 0918 3C       		.byte	0x3c
 2491 0919 14       		.uleb128 0x14
 2492 091a 270F0000 		.4byte	.LASF250
 2493 091e 0A       		.byte	0xa
 2494 091f 56       		.byte	0x56
 2495 0920 8B040000 		.4byte	0x48b
 2496 0924 3D       		.byte	0x3d
 2497 0925 14       		.uleb128 0x14
 2498 0926 72020000 		.4byte	.LASF251
 2499 092a 0A       		.byte	0xa
 2500 092b 57       		.byte	0x57
 2501 092c 8B040000 		.4byte	0x48b
 2502 0930 3E       		.byte	0x3e
 2503 0931 14       		.uleb128 0x14
 2504 0932 D6060000 		.4byte	.LASF252
 2505 0936 0A       		.byte	0xa
 2506 0937 58       		.byte	0x58
 2507 0938 8B040000 		.4byte	0x48b
 2508 093c 3F       		.byte	0x3f
 2509 093d 14       		.uleb128 0x14
 2510 093e 43100000 		.4byte	.LASF253
 2511 0942 0A       		.byte	0xa
 2512 0943 59       		.byte	0x59
 2513 0944 8B040000 		.4byte	0x48b
 2514 0948 40       		.byte	0x40
 2515 0949 14       		.uleb128 0x14
 2516 094a 93110000 		.4byte	.LASF254
 2517 094e 0A       		.byte	0xa
 2518 094f 5A       		.byte	0x5a
 2519 0950 8B040000 		.4byte	0x48b
 2520 0954 41       		.byte	0x41
 2521 0955 14       		.uleb128 0x14
 2522 0956 EB0E0000 		.4byte	.LASF255
 2523 095a 0A       		.byte	0xa
 2524 095b 5B       		.byte	0x5b
 2525 095c 8B040000 		.4byte	0x48b
 2526 0960 42       		.byte	0x42
 2527 0961 14       		.uleb128 0x14
 2528 0962 8A050000 		.4byte	.LASF256
 2529 0966 0A       		.byte	0xa
 2530 0967 5C       		.byte	0x5c
 2531 0968 8B040000 		.4byte	0x48b
 2532 096c 43       		.byte	0x43
 2533 096d 14       		.uleb128 0x14
 2534 096e 961B0000 		.4byte	.LASF257
 2535 0972 0A       		.byte	0xa
 2536 0973 5D       		.byte	0x5d
 2537 0974 8B040000 		.4byte	0x48b
 2538 0978 44       		.byte	0x44
 2539 0979 14       		.uleb128 0x14
 2540 097a 840F0000 		.4byte	.LASF258
 2541 097e 0A       		.byte	0xa
 2542 097f 5E       		.byte	0x5e
 2543 0980 B7040000 		.4byte	0x4b7
 2544 0984 48       		.byte	0x48
ARM GAS  C:\Users\nicpa\AppData\Local\Temp\ccPr5feD.s 			page 115


 2545 0985 14       		.uleb128 0x14
 2546 0986 F2000000 		.4byte	.LASF259
 2547 098a 0A       		.byte	0xa
 2548 098b 5F       		.byte	0x5f
 2549 098c B7040000 		.4byte	0x4b7
 2550 0990 4C       		.byte	0x4c
 2551 0991 14       		.uleb128 0x14
 2552 0992 DD120000 		.4byte	.LASF260
 2553 0996 0A       		.byte	0xa
 2554 0997 60       		.byte	0x60
 2555 0998 8B040000 		.4byte	0x48b
 2556 099c 50       		.byte	0x50
 2557 099d 14       		.uleb128 0x14
 2558 099e 0A0E0000 		.4byte	.LASF261
 2559 09a2 0A       		.byte	0xa
 2560 09a3 61       		.byte	0x61
 2561 09a4 8B040000 		.4byte	0x48b
 2562 09a8 51       		.byte	0x51
 2563 09a9 14       		.uleb128 0x14
 2564 09aa 34210000 		.4byte	.LASF262
 2565 09ae 0A       		.byte	0xa
 2566 09af 62       		.byte	0x62
 2567 09b0 8B040000 		.4byte	0x48b
 2568 09b4 52       		.byte	0x52
 2569 09b5 14       		.uleb128 0x14
 2570 09b6 131E0000 		.4byte	.LASF263
 2571 09ba 0A       		.byte	0xa
 2572 09bb 63       		.byte	0x63
 2573 09bc 8B040000 		.4byte	0x48b
 2574 09c0 53       		.byte	0x53
 2575 09c1 14       		.uleb128 0x14
 2576 09c2 61160000 		.4byte	.LASF264
 2577 09c6 0A       		.byte	0xa
 2578 09c7 64       		.byte	0x64
 2579 09c8 8B040000 		.4byte	0x48b
 2580 09cc 54       		.byte	0x54
 2581 09cd 14       		.uleb128 0x14
 2582 09ce 0B230000 		.4byte	.LASF265
 2583 09d2 0A       		.byte	0xa
 2584 09d3 65       		.byte	0x65
 2585 09d4 8B040000 		.4byte	0x48b
 2586 09d8 55       		.byte	0x55
 2587 09d9 14       		.uleb128 0x14
 2588 09da 571D0000 		.4byte	.LASF266
 2589 09de 0A       		.byte	0xa
 2590 09df 66       		.byte	0x66
 2591 09e0 8B040000 		.4byte	0x48b
 2592 09e4 56       		.byte	0x56
 2593 09e5 14       		.uleb128 0x14
 2594 09e6 ED170000 		.4byte	.LASF267
 2595 09ea 0A       		.byte	0xa
 2596 09eb 67       		.byte	0x67
 2597 09ec 8B040000 		.4byte	0x48b
 2598 09f0 57       		.byte	0x57
 2599 09f1 14       		.uleb128 0x14
 2600 09f2 EE120000 		.4byte	.LASF268
 2601 09f6 0A       		.byte	0xa
ARM GAS  C:\Users\nicpa\AppData\Local\Temp\ccPr5feD.s 			page 116


 2602 09f7 68       		.byte	0x68
 2603 09f8 8B040000 		.4byte	0x48b
 2604 09fc 58       		.byte	0x58
 2605 09fd 14       		.uleb128 0x14
 2606 09fe 5D0D0000 		.4byte	.LASF269
 2607 0a02 0A       		.byte	0xa
 2608 0a03 69       		.byte	0x69
 2609 0a04 8B040000 		.4byte	0x48b
 2610 0a08 59       		.byte	0x59
 2611 0a09 14       		.uleb128 0x14
 2612 0a0a 3C230000 		.4byte	.LASF270
 2613 0a0e 0A       		.byte	0xa
 2614 0a0f 6E       		.byte	0x6e
 2615 0a10 A1040000 		.4byte	0x4a1
 2616 0a14 5A       		.byte	0x5a
 2617 0a15 14       		.uleb128 0x14
 2618 0a16 A40F0000 		.4byte	.LASF271
 2619 0a1a 0A       		.byte	0xa
 2620 0a1b 6F       		.byte	0x6f
 2621 0a1c A1040000 		.4byte	0x4a1
 2622 0a20 5C       		.byte	0x5c
 2623 0a21 14       		.uleb128 0x14
 2624 0a22 7A200000 		.4byte	.LASF272
 2625 0a26 0A       		.byte	0xa
 2626 0a27 70       		.byte	0x70
 2627 0a28 8B040000 		.4byte	0x48b
 2628 0a2c 5E       		.byte	0x5e
 2629 0a2d 14       		.uleb128 0x14
 2630 0a2e 00010000 		.4byte	.LASF273
 2631 0a32 0A       		.byte	0xa
 2632 0a33 71       		.byte	0x71
 2633 0a34 8B040000 		.4byte	0x48b
 2634 0a38 5F       		.byte	0x5f
 2635 0a39 14       		.uleb128 0x14
 2636 0a3a BB030000 		.4byte	.LASF274
 2637 0a3e 0A       		.byte	0xa
 2638 0a3f 72       		.byte	0x72
 2639 0a40 8B040000 		.4byte	0x48b
 2640 0a44 60       		.byte	0x60
 2641 0a45 14       		.uleb128 0x14
 2642 0a46 42160000 		.4byte	.LASF275
 2643 0a4a 0A       		.byte	0xa
 2644 0a4b 73       		.byte	0x73
 2645 0a4c B7040000 		.4byte	0x4b7
 2646 0a50 64       		.byte	0x64
 2647 0a51 14       		.uleb128 0x14
 2648 0a52 D3210000 		.4byte	.LASF276
 2649 0a56 0A       		.byte	0xa
 2650 0a57 76       		.byte	0x76
 2651 0a58 A1040000 		.4byte	0x4a1
 2652 0a5c 68       		.byte	0x68
 2653 0a5d 14       		.uleb128 0x14
 2654 0a5e A2050000 		.4byte	.LASF277
 2655 0a62 0A       		.byte	0xa
 2656 0a63 77       		.byte	0x77
 2657 0a64 A1040000 		.4byte	0x4a1
 2658 0a68 6A       		.byte	0x6a
ARM GAS  C:\Users\nicpa\AppData\Local\Temp\ccPr5feD.s 			page 117


 2659 0a69 14       		.uleb128 0x14
 2660 0a6a E30B0000 		.4byte	.LASF278
 2661 0a6e 0A       		.byte	0xa
 2662 0a6f 78       		.byte	0x78
 2663 0a70 A1040000 		.4byte	0x4a1
 2664 0a74 6C       		.byte	0x6c
 2665 0a75 14       		.uleb128 0x14
 2666 0a76 DB050000 		.4byte	.LASF279
 2667 0a7a 0A       		.byte	0xa
 2668 0a7b 79       		.byte	0x79
 2669 0a7c A1040000 		.4byte	0x4a1
 2670 0a80 6E       		.byte	0x6e
 2671 0a81 14       		.uleb128 0x14
 2672 0a82 F51A0000 		.4byte	.LASF280
 2673 0a86 0A       		.byte	0xa
 2674 0a87 7B       		.byte	0x7b
 2675 0a88 8B040000 		.4byte	0x48b
 2676 0a8c 70       		.byte	0x70
 2677 0a8d 14       		.uleb128 0x14
 2678 0a8e 0E110000 		.4byte	.LASF281
 2679 0a92 0A       		.byte	0xa
 2680 0a93 7C       		.byte	0x7c
 2681 0a94 8B040000 		.4byte	0x48b
 2682 0a98 71       		.byte	0x71
 2683 0a99 14       		.uleb128 0x14
 2684 0a9a 18070000 		.4byte	.LASF282
 2685 0a9e 0A       		.byte	0xa
 2686 0a9f 7D       		.byte	0x7d
 2687 0aa0 8B040000 		.4byte	0x48b
 2688 0aa4 72       		.byte	0x72
 2689 0aa5 14       		.uleb128 0x14
 2690 0aa6 60210000 		.4byte	.LASF283
 2691 0aaa 0A       		.byte	0xa
 2692 0aab 7E       		.byte	0x7e
 2693 0aac 8B040000 		.4byte	0x48b
 2694 0ab0 73       		.byte	0x73
 2695 0ab1 14       		.uleb128 0x14
 2696 0ab2 C4050000 		.4byte	.LASF284
 2697 0ab6 0A       		.byte	0xa
 2698 0ab7 80       		.byte	0x80
 2699 0ab8 A1040000 		.4byte	0x4a1
 2700 0abc 74       		.byte	0x74
 2701 0abd 14       		.uleb128 0x14
 2702 0abe 97100000 		.4byte	.LASF285
 2703 0ac2 0A       		.byte	0xa
 2704 0ac3 81       		.byte	0x81
 2705 0ac4 A1040000 		.4byte	0x4a1
 2706 0ac8 76       		.byte	0x76
 2707 0ac9 14       		.uleb128 0x14
 2708 0aca 4C130000 		.4byte	.LASF286
 2709 0ace 0A       		.byte	0xa
 2710 0acf 82       		.byte	0x82
 2711 0ad0 A1040000 		.4byte	0x4a1
 2712 0ad4 78       		.byte	0x78
 2713 0ad5 14       		.uleb128 0x14
 2714 0ad6 FA010000 		.4byte	.LASF287
 2715 0ada 0A       		.byte	0xa
ARM GAS  C:\Users\nicpa\AppData\Local\Temp\ccPr5feD.s 			page 118


 2716 0adb 83       		.byte	0x83
 2717 0adc A1040000 		.4byte	0x4a1
 2718 0ae0 7A       		.byte	0x7a
 2719 0ae1 14       		.uleb128 0x14
 2720 0ae2 18150000 		.4byte	.LASF288
 2721 0ae6 0A       		.byte	0xa
 2722 0ae7 86       		.byte	0x86
 2723 0ae8 8B040000 		.4byte	0x48b
 2724 0aec 7C       		.byte	0x7c
 2725 0aed 14       		.uleb128 0x14
 2726 0aee 47020000 		.4byte	.LASF289
 2727 0af2 0A       		.byte	0xa
 2728 0af3 87       		.byte	0x87
 2729 0af4 8B040000 		.4byte	0x48b
 2730 0af8 7D       		.byte	0x7d
 2731 0af9 14       		.uleb128 0x14
 2732 0afa 6C040000 		.4byte	.LASF290
 2733 0afe 0A       		.byte	0xa
 2734 0aff 88       		.byte	0x88
 2735 0b00 8B040000 		.4byte	0x48b
 2736 0b04 7E       		.byte	0x7e
 2737 0b05 14       		.uleb128 0x14
 2738 0b06 87090000 		.4byte	.LASF291
 2739 0b0a 0A       		.byte	0xa
 2740 0b0b 89       		.byte	0x89
 2741 0b0c 8B040000 		.4byte	0x48b
 2742 0b10 7F       		.byte	0x7f
 2743 0b11 14       		.uleb128 0x14
 2744 0b12 7F1E0000 		.4byte	.LASF292
 2745 0b16 0A       		.byte	0xa
 2746 0b17 8A       		.byte	0x8a
 2747 0b18 8B040000 		.4byte	0x48b
 2748 0b1c 80       		.byte	0x80
 2749 0b1d 14       		.uleb128 0x14
 2750 0b1e CC0B0000 		.4byte	.LASF293
 2751 0b22 0A       		.byte	0xa
 2752 0b23 8D       		.byte	0x8d
 2753 0b24 B7040000 		.4byte	0x4b7
 2754 0b28 84       		.byte	0x84
 2755 0b29 14       		.uleb128 0x14
 2756 0b2a A90C0000 		.4byte	.LASF294
 2757 0b2e 0A       		.byte	0xa
 2758 0b2f 8E       		.byte	0x8e
 2759 0b30 B7040000 		.4byte	0x4b7
 2760 0b34 88       		.byte	0x88
 2761 0b35 14       		.uleb128 0x14
 2762 0b36 160B0000 		.4byte	.LASF295
 2763 0b3a 0A       		.byte	0xa
 2764 0b3b 8F       		.byte	0x8f
 2765 0b3c B7040000 		.4byte	0x4b7
 2766 0b40 8C       		.byte	0x8c
 2767 0b41 14       		.uleb128 0x14
 2768 0b42 3E000000 		.4byte	.LASF296
 2769 0b46 0A       		.byte	0xa
 2770 0b47 90       		.byte	0x90
 2771 0b48 B7040000 		.4byte	0x4b7
 2772 0b4c 90       		.byte	0x90
ARM GAS  C:\Users\nicpa\AppData\Local\Temp\ccPr5feD.s 			page 119


 2773 0b4d 14       		.uleb128 0x14
 2774 0b4e 120D0000 		.4byte	.LASF297
 2775 0b52 0A       		.byte	0xa
 2776 0b53 91       		.byte	0x91
 2777 0b54 B7040000 		.4byte	0x4b7
 2778 0b58 94       		.byte	0x94
 2779 0b59 14       		.uleb128 0x14
 2780 0b5a 91080000 		.4byte	.LASF298
 2781 0b5e 0A       		.byte	0xa
 2782 0b5f 92       		.byte	0x92
 2783 0b60 B7040000 		.4byte	0x4b7
 2784 0b64 98       		.byte	0x98
 2785 0b65 14       		.uleb128 0x14
 2786 0b66 C7080000 		.4byte	.LASF299
 2787 0b6a 0A       		.byte	0xa
 2788 0b6b 93       		.byte	0x93
 2789 0b6c B7040000 		.4byte	0x4b7
 2790 0b70 9C       		.byte	0x9c
 2791 0b71 14       		.uleb128 0x14
 2792 0b72 C7100000 		.4byte	.LASF300
 2793 0b76 0A       		.byte	0xa
 2794 0b77 94       		.byte	0x94
 2795 0b78 B7040000 		.4byte	0x4b7
 2796 0b7c A0       		.byte	0xa0
 2797 0b7d 14       		.uleb128 0x14
 2798 0b7e CE170000 		.4byte	.LASF301
 2799 0b82 0A       		.byte	0xa
 2800 0b83 95       		.byte	0x95
 2801 0b84 A1040000 		.4byte	0x4a1
 2802 0b88 A4       		.byte	0xa4
 2803 0b89 14       		.uleb128 0x14
 2804 0b8a B9170000 		.4byte	.LASF302
 2805 0b8e 0A       		.byte	0xa
 2806 0b8f 96       		.byte	0x96
 2807 0b90 A1040000 		.4byte	0x4a1
 2808 0b94 A6       		.byte	0xa6
 2809 0b95 14       		.uleb128 0x14
 2810 0b96 35070000 		.4byte	.LASF303
 2811 0b9a 0A       		.byte	0xa
 2812 0b9b 97       		.byte	0x97
 2813 0b9c A1040000 		.4byte	0x4a1
 2814 0ba0 A8       		.byte	0xa8
 2815 0ba1 14       		.uleb128 0x14
 2816 0ba2 281A0000 		.4byte	.LASF304
 2817 0ba6 0A       		.byte	0xa
 2818 0ba7 98       		.byte	0x98
 2819 0ba8 A1040000 		.4byte	0x4a1
 2820 0bac AA       		.byte	0xaa
 2821 0bad 14       		.uleb128 0x14
 2822 0bae 2D150000 		.4byte	.LASF305
 2823 0bb2 0A       		.byte	0xa
 2824 0bb3 99       		.byte	0x99
 2825 0bb4 A1040000 		.4byte	0x4a1
 2826 0bb8 AC       		.byte	0xac
 2827 0bb9 14       		.uleb128 0x14
 2828 0bba 0F0F0000 		.4byte	.LASF306
 2829 0bbe 0A       		.byte	0xa
ARM GAS  C:\Users\nicpa\AppData\Local\Temp\ccPr5feD.s 			page 120


 2830 0bbf 9A       		.byte	0x9a
 2831 0bc0 A1040000 		.4byte	0x4a1
 2832 0bc4 AE       		.byte	0xae
 2833 0bc5 14       		.uleb128 0x14
 2834 0bc6 A9210000 		.4byte	.LASF307
 2835 0bca 0A       		.byte	0xa
 2836 0bcb 9D       		.byte	0x9d
 2837 0bcc A1040000 		.4byte	0x4a1
 2838 0bd0 B0       		.byte	0xb0
 2839 0bd1 14       		.uleb128 0x14
 2840 0bd2 280C0000 		.4byte	.LASF308
 2841 0bd6 0A       		.byte	0xa
 2842 0bd7 9E       		.byte	0x9e
 2843 0bd8 B7040000 		.4byte	0x4b7
 2844 0bdc B4       		.byte	0xb4
 2845 0bdd 00       		.byte	0
 2846 0bde 07       		.uleb128 0x7
 2847 0bdf 1D120000 		.4byte	.LASF309
 2848 0be3 0A       		.byte	0xa
 2849 0be4 9F       		.byte	0x9f
 2850 0be5 CD070000 		.4byte	0x7cd
 2851 0be9 10       		.uleb128 0x10
 2852 0bea 2E180000 		.4byte	.LASF310
 2853 0bee 0B       		.byte	0xb
 2854 0bef F601     		.2byte	0x1f6
 2855 0bf1 F50B0000 		.4byte	0xbf5
 2856 0bf5 02       		.uleb128 0x2
 2857 0bf6 01       		.byte	0x1
 2858 0bf7 08       		.byte	0x8
 2859 0bf8 47090000 		.4byte	.LASF311
 2860 0bfc 10       		.uleb128 0x10
 2861 0bfd A40E0000 		.4byte	.LASF312
 2862 0c01 0B       		.byte	0xb
 2863 0c02 F701     		.2byte	0x1f7
 2864 0c04 25000000 		.4byte	0x25
 2865 0c08 02       		.uleb128 0x2
 2866 0c09 08       		.byte	0x8
 2867 0c0a 04       		.byte	0x4
 2868 0c0b 9E120000 		.4byte	.LASF313
 2869 0c0f 10       		.uleb128 0x10
 2870 0c10 5C1C0000 		.4byte	.LASF314
 2871 0c14 0B       		.byte	0xb
 2872 0c15 EA03     		.2byte	0x3ea
 2873 0c17 8B040000 		.4byte	0x48b
 2874 0c1b 10       		.uleb128 0x10
 2875 0c1c 3A190000 		.4byte	.LASF315
 2876 0c20 0B       		.byte	0xb
 2877 0c21 F003     		.2byte	0x3f0
 2878 0c23 25000000 		.4byte	0x25
 2879 0c27 17       		.uleb128 0x17
 2880 0c28 08       		.byte	0x8
 2881 0c29 0C       		.byte	0xc
 2882 0c2a 2D01     		.2byte	0x12d
 2883 0c2c 4B0C0000 		.4byte	0xc4b
 2884 0c30 09       		.uleb128 0x9
 2885 0c31 E4040000 		.4byte	.LASF316
 2886 0c35 0C       		.byte	0xc
ARM GAS  C:\Users\nicpa\AppData\Local\Temp\ccPr5feD.s 			page 121


 2887 0c36 2E01     		.2byte	0x12e
 2888 0c38 FB030000 		.4byte	0x3fb
 2889 0c3c 00       		.byte	0
 2890 0c3d 09       		.uleb128 0x9
 2891 0c3e 891B0000 		.4byte	.LASF317
 2892 0c42 0C       		.byte	0xc
 2893 0c43 3201     		.2byte	0x132
 2894 0c45 B7040000 		.4byte	0x4b7
 2895 0c49 04       		.byte	0x4
 2896 0c4a 00       		.byte	0
 2897 0c4b 10       		.uleb128 0x10
 2898 0c4c 990C0000 		.4byte	.LASF318
 2899 0c50 0C       		.byte	0xc
 2900 0c51 3301     		.2byte	0x133
 2901 0c53 270C0000 		.4byte	0xc27
 2902 0c57 18       		.uleb128 0x18
 2903 0c58 04       		.byte	0x4
 2904 0c59 02       		.uleb128 0x2
 2905 0c5a 01       		.byte	0x1
 2906 0c5b 02       		.byte	0x2
 2907 0c5c B8080000 		.4byte	.LASF319
 2908 0c60 19       		.uleb128 0x19
 2909 0c61 01       		.byte	0x1
 2910 0c62 23040000 		.4byte	0x423
 2911 0c66 0D       		.byte	0xd
 2912 0c67 2402     		.2byte	0x224
 2913 0c69 7A0C0000 		.4byte	0xc7a
 2914 0c6d 06       		.uleb128 0x6
 2915 0c6e 4E0D0000 		.4byte	.LASF320
 2916 0c72 00       		.byte	0
 2917 0c73 06       		.uleb128 0x6
 2918 0c74 6B200000 		.4byte	.LASF321
 2919 0c78 01       		.byte	0x1
 2920 0c79 00       		.byte	0
 2921 0c7a 10       		.uleb128 0x10
 2922 0c7b F70E0000 		.4byte	.LASF322
 2923 0c7f 0D       		.byte	0xd
 2924 0c80 2702     		.2byte	0x227
 2925 0c82 600C0000 		.4byte	0xc60
 2926 0c86 10       		.uleb128 0x10
 2927 0c87 02160000 		.4byte	.LASF323
 2928 0c8b 0D       		.byte	0xd
 2929 0c8c 3902     		.2byte	0x239
 2930 0c8e 920C0000 		.4byte	0xc92
 2931 0c92 1A       		.uleb128 0x1a
 2932 0c93 04       		.byte	0x4
 2933 0c94 980C0000 		.4byte	0xc98
 2934 0c98 1B       		.uleb128 0x1b
 2935 0c99 A30C0000 		.4byte	0xca3
 2936 0c9d 1C       		.uleb128 0x1c
 2937 0c9e B7040000 		.4byte	0x4b7
 2938 0ca2 00       		.byte	0
 2939 0ca3 10       		.uleb128 0x10
 2940 0ca4 B7210000 		.4byte	.LASF324
 2941 0ca8 0D       		.byte	0xd
 2942 0ca9 4402     		.2byte	0x244
 2943 0cab AF0C0000 		.4byte	0xcaf
ARM GAS  C:\Users\nicpa\AppData\Local\Temp\ccPr5feD.s 			page 122


 2944 0caf 1A       		.uleb128 0x1a
 2945 0cb0 04       		.byte	0x4
 2946 0cb1 B50C0000 		.4byte	0xcb5
 2947 0cb5 1D       		.uleb128 0x1d
 2948 0cb6 7A0C0000 		.4byte	0xc7a
 2949 0cba C40C0000 		.4byte	0xcc4
 2950 0cbe 1C       		.uleb128 0x1c
 2951 0cbf B7040000 		.4byte	0x4b7
 2952 0cc3 00       		.byte	0
 2953 0cc4 1E       		.uleb128 0x1e
 2954 0cc5 D3220000 		.4byte	.LASF348
 2955 0cc9 4C       		.byte	0x4c
 2956 0cca 0D       		.byte	0xd
 2957 0ccb C302     		.2byte	0x2c3
 2958 0ccd E30D0000 		.4byte	0xde3
 2959 0cd1 09       		.uleb128 0x9
 2960 0cd2 F5040000 		.4byte	.LASF325
 2961 0cd6 0D       		.byte	0xd
 2962 0cd7 C602     		.2byte	0x2c6
 2963 0cd9 590C0000 		.4byte	0xc59
 2964 0cdd 00       		.byte	0
 2965 0cde 09       		.uleb128 0x9
 2966 0cdf 24180000 		.4byte	.LASF326
 2967 0ce3 0D       		.byte	0xd
 2968 0ce4 C702     		.2byte	0x2c7
 2969 0ce6 590C0000 		.4byte	0xc59
 2970 0cea 01       		.byte	0x1
 2971 0ceb 09       		.uleb128 0x9
 2972 0cec 33020000 		.4byte	.LASF327
 2973 0cf0 0D       		.byte	0xd
 2974 0cf1 C902     		.2byte	0x2c9
 2975 0cf3 95050000 		.4byte	0x595
 2976 0cf7 04       		.byte	0x4
 2977 0cf8 09       		.uleb128 0x9
 2978 0cf9 061E0000 		.4byte	.LASF328
 2979 0cfd 0D       		.byte	0xd
 2980 0cfe CB02     		.2byte	0x2cb
 2981 0d00 95050000 		.4byte	0x595
 2982 0d04 08       		.byte	0x8
 2983 0d05 09       		.uleb128 0x9
 2984 0d06 1D200000 		.4byte	.LASF329
 2985 0d0a 0D       		.byte	0xd
 2986 0d0b CC02     		.2byte	0x2cc
 2987 0d0d 590C0000 		.4byte	0xc59
 2988 0d11 0C       		.byte	0xc
 2989 0d12 09       		.uleb128 0x9
 2990 0d13 4B200000 		.4byte	.LASF330
 2991 0d17 0D       		.byte	0xd
 2992 0d18 CD02     		.2byte	0x2cd
 2993 0d1a 590C0000 		.4byte	0xc59
 2994 0d1e 0D       		.byte	0xd
 2995 0d1f 09       		.uleb128 0x9
 2996 0d20 161C0000 		.4byte	.LASF331
 2997 0d24 0D       		.byte	0xd
 2998 0d25 CF02     		.2byte	0x2cf
 2999 0d27 E30D0000 		.4byte	0xde3
 3000 0d2b 10       		.byte	0x10
ARM GAS  C:\Users\nicpa\AppData\Local\Temp\ccPr5feD.s 			page 123


 3001 0d2c 09       		.uleb128 0x9
 3002 0d2d 2F0E0000 		.4byte	.LASF332
 3003 0d31 0D       		.byte	0xd
 3004 0d32 D002     		.2byte	0x2d0
 3005 0d34 B7040000 		.4byte	0x4b7
 3006 0d38 14       		.byte	0x14
 3007 0d39 09       		.uleb128 0x9
 3008 0d3a D01D0000 		.4byte	.LASF333
 3009 0d3e 0D       		.byte	0xd
 3010 0d3f D102     		.2byte	0x2d1
 3011 0d41 95050000 		.4byte	0x595
 3012 0d45 18       		.byte	0x18
 3013 0d46 09       		.uleb128 0x9
 3014 0d47 05120000 		.4byte	.LASF334
 3015 0d4b 0D       		.byte	0xd
 3016 0d4c D202     		.2byte	0x2d2
 3017 0d4e 95050000 		.4byte	0x595
 3018 0d52 1C       		.byte	0x1c
 3019 0d53 09       		.uleb128 0x9
 3020 0d54 780F0000 		.4byte	.LASF335
 3021 0d58 0D       		.byte	0xd
 3022 0d59 D402     		.2byte	0x2d4
 3023 0d5b 95050000 		.4byte	0x595
 3024 0d5f 20       		.byte	0x20
 3025 0d60 09       		.uleb128 0x9
 3026 0d61 360B0000 		.4byte	.LASF336
 3027 0d65 0D       		.byte	0xd
 3028 0d66 D502     		.2byte	0x2d5
 3029 0d68 E90D0000 		.4byte	0xde9
 3030 0d6c 24       		.byte	0x24
 3031 0d6d 09       		.uleb128 0x9
 3032 0d6e E31F0000 		.4byte	.LASF337
 3033 0d72 0D       		.byte	0xd
 3034 0d73 D702     		.2byte	0x2d7
 3035 0d75 E30D0000 		.4byte	0xde3
 3036 0d79 28       		.byte	0x28
 3037 0d7a 09       		.uleb128 0x9
 3038 0d7b FC100000 		.4byte	.LASF338
 3039 0d7f 0D       		.byte	0xd
 3040 0d80 D802     		.2byte	0x2d8
 3041 0d82 B7040000 		.4byte	0x4b7
 3042 0d86 2C       		.byte	0x2c
 3043 0d87 09       		.uleb128 0x9
 3044 0d88 5D070000 		.4byte	.LASF339
 3045 0d8c 0D       		.byte	0xd
 3046 0d8d D902     		.2byte	0x2d9
 3047 0d8f 95050000 		.4byte	0x595
 3048 0d93 30       		.byte	0x30
 3049 0d94 09       		.uleb128 0x9
 3050 0d95 170C0000 		.4byte	.LASF340
 3051 0d99 0D       		.byte	0xd
 3052 0d9a DA02     		.2byte	0x2da
 3053 0d9c 95050000 		.4byte	0x595
 3054 0da0 34       		.byte	0x34
 3055 0da1 09       		.uleb128 0x9
 3056 0da2 AA070000 		.4byte	.LASF341
 3057 0da6 0D       		.byte	0xd
ARM GAS  C:\Users\nicpa\AppData\Local\Temp\ccPr5feD.s 			page 124


 3058 0da7 DC02     		.2byte	0x2dc
 3059 0da9 E30D0000 		.4byte	0xde3
 3060 0dad 38       		.byte	0x38
 3061 0dae 09       		.uleb128 0x9
 3062 0daf D9150000 		.4byte	.LASF342
 3063 0db3 0D       		.byte	0xd
 3064 0db4 DD02     		.2byte	0x2dd
 3065 0db6 B7040000 		.4byte	0x4b7
 3066 0dba 3C       		.byte	0x3c
 3067 0dbb 09       		.uleb128 0x9
 3068 0dbc 0E210000 		.4byte	.LASF343
 3069 0dc0 0D       		.byte	0xd
 3070 0dc1 DE02     		.2byte	0x2de
 3071 0dc3 95050000 		.4byte	0x595
 3072 0dc7 40       		.byte	0x40
 3073 0dc8 09       		.uleb128 0x9
 3074 0dc9 800E0000 		.4byte	.LASF344
 3075 0dcd 0D       		.byte	0xd
 3076 0dce E402     		.2byte	0x2e4
 3077 0dd0 860C0000 		.4byte	0xc86
 3078 0dd4 44       		.byte	0x44
 3079 0dd5 09       		.uleb128 0x9
 3080 0dd6 231C0000 		.4byte	.LASF345
 3081 0dda 0D       		.byte	0xd
 3082 0ddb EB02     		.2byte	0x2eb
 3083 0ddd A30C0000 		.4byte	0xca3
 3084 0de1 48       		.byte	0x48
 3085 0de2 00       		.byte	0
 3086 0de3 1A       		.uleb128 0x1a
 3087 0de4 04       		.byte	0x4
 3088 0de5 8B040000 		.4byte	0x48b
 3089 0de9 0E       		.uleb128 0xe
 3090 0dea 590C0000 		.4byte	0xc59
 3091 0dee 10       		.uleb128 0x10
 3092 0def 0A080000 		.4byte	.LASF346
 3093 0df3 0D       		.byte	0xd
 3094 0df4 EE02     		.2byte	0x2ee
 3095 0df6 C40C0000 		.4byte	0xcc4
 3096 0dfa 10       		.uleb128 0x10
 3097 0dfb 551E0000 		.4byte	.LASF347
 3098 0dff 0E       		.byte	0xe
 3099 0e00 F201     		.2byte	0x1f2
 3100 0e02 920C0000 		.4byte	0xc92
 3101 0e06 1E       		.uleb128 0x1e
 3102 0e07 9B090000 		.4byte	.LASF349
 3103 0e0b 24       		.byte	0x24
 3104 0e0c 0E       		.byte	0xe
 3105 0e0d 7402     		.2byte	0x274
 3106 0e0f 890E0000 		.4byte	0xe89
 3107 0e13 09       		.uleb128 0x9
 3108 0e14 D70E0000 		.4byte	.LASF350
 3109 0e18 0E       		.byte	0xe
 3110 0e19 7702     		.2byte	0x277
 3111 0e1b 95050000 		.4byte	0x595
 3112 0e1f 00       		.byte	0
 3113 0e20 09       		.uleb128 0x9
 3114 0e21 EC000000 		.4byte	.LASF351
ARM GAS  C:\Users\nicpa\AppData\Local\Temp\ccPr5feD.s 			page 125


 3115 0e25 0E       		.byte	0xe
 3116 0e26 7902     		.2byte	0x279
 3117 0e28 570C0000 		.4byte	0xc57
 3118 0e2c 04       		.byte	0x4
 3119 0e2d 09       		.uleb128 0x9
 3120 0e2e 250A0000 		.4byte	.LASF352
 3121 0e32 0E       		.byte	0xe
 3122 0e33 7A02     		.2byte	0x27a
 3123 0e35 B7040000 		.4byte	0x4b7
 3124 0e39 08       		.byte	0x8
 3125 0e3a 09       		.uleb128 0x9
 3126 0e3b 43130000 		.4byte	.LASF353
 3127 0e3f 0E       		.byte	0xe
 3128 0e40 7B02     		.2byte	0x27b
 3129 0e42 95050000 		.4byte	0x595
 3130 0e46 0C       		.byte	0xc
 3131 0e47 09       		.uleb128 0x9
 3132 0e48 80190000 		.4byte	.LASF354
 3133 0e4c 0E       		.byte	0xe
 3134 0e4d 7D02     		.2byte	0x27d
 3135 0e4f 570C0000 		.4byte	0xc57
 3136 0e53 10       		.byte	0x10
 3137 0e54 09       		.uleb128 0x9
 3138 0e55 FF040000 		.4byte	.LASF355
 3139 0e59 0E       		.byte	0xe
 3140 0e5a 7E02     		.2byte	0x27e
 3141 0e5c B7040000 		.4byte	0x4b7
 3142 0e60 14       		.byte	0x14
 3143 0e61 09       		.uleb128 0x9
 3144 0e62 BF040000 		.4byte	.LASF356
 3145 0e66 0E       		.byte	0xe
 3146 0e67 7F02     		.2byte	0x27f
 3147 0e69 95050000 		.4byte	0x595
 3148 0e6d 18       		.byte	0x18
 3149 0e6e 09       		.uleb128 0x9
 3150 0e6f 800E0000 		.4byte	.LASF344
 3151 0e73 0E       		.byte	0xe
 3152 0e74 8502     		.2byte	0x285
 3153 0e76 FA0D0000 		.4byte	0xdfa
 3154 0e7a 1C       		.byte	0x1c
 3155 0e7b 09       		.uleb128 0x9
 3156 0e7c 90000000 		.4byte	.LASF357
 3157 0e80 0E       		.byte	0xe
 3158 0e81 8802     		.2byte	0x288
 3159 0e83 B7040000 		.4byte	0x4b7
 3160 0e87 20       		.byte	0x20
 3161 0e88 00       		.byte	0
 3162 0e89 10       		.uleb128 0x10
 3163 0e8a 9A1C0000 		.4byte	.LASF358
 3164 0e8e 0E       		.byte	0xe
 3165 0e8f 8B02     		.2byte	0x28b
 3166 0e91 060E0000 		.4byte	0xe06
 3167 0e95 10       		.uleb128 0x10
 3168 0e96 FA160000 		.4byte	.LASF359
 3169 0e9a 0F       		.byte	0xf
 3170 0e9b D901     		.2byte	0x1d9
 3171 0e9d 920C0000 		.4byte	0xc92
ARM GAS  C:\Users\nicpa\AppData\Local\Temp\ccPr5feD.s 			page 126


 3172 0ea1 1E       		.uleb128 0x1e
 3173 0ea2 78000000 		.4byte	.LASF360
 3174 0ea6 38       		.byte	0x38
 3175 0ea7 0F       		.byte	0xf
 3176 0ea8 7502     		.2byte	0x275
 3177 0eaa 650F0000 		.4byte	0xf65
 3178 0eae 09       		.uleb128 0x9
 3179 0eaf 450D0000 		.4byte	.LASF361
 3180 0eb3 0F       		.byte	0xf
 3181 0eb4 7802     		.2byte	0x278
 3182 0eb6 95050000 		.4byte	0x595
 3183 0eba 00       		.byte	0
 3184 0ebb 09       		.uleb128 0x9
 3185 0ebc 051C0000 		.4byte	.LASF362
 3186 0ec0 0F       		.byte	0xf
 3187 0ec1 7902     		.2byte	0x279
 3188 0ec3 95050000 		.4byte	0x595
 3189 0ec7 04       		.byte	0x4
 3190 0ec8 09       		.uleb128 0x9
 3191 0ec9 C9220000 		.4byte	.LASF363
 3192 0ecd 0F       		.byte	0xf
 3193 0ece 7B02     		.2byte	0x27b
 3194 0ed0 570C0000 		.4byte	0xc57
 3195 0ed4 08       		.byte	0x8
 3196 0ed5 09       		.uleb128 0x9
 3197 0ed6 53160000 		.4byte	.LASF364
 3198 0eda 0F       		.byte	0xf
 3199 0edb 7C02     		.2byte	0x27c
 3200 0edd B7040000 		.4byte	0x4b7
 3201 0ee1 0C       		.byte	0xc
 3202 0ee2 09       		.uleb128 0x9
 3203 0ee3 960F0000 		.4byte	.LASF365
 3204 0ee7 0F       		.byte	0xf
 3205 0ee8 7D02     		.2byte	0x27d
 3206 0eea 95050000 		.4byte	0x595
 3207 0eee 10       		.byte	0x10
 3208 0eef 09       		.uleb128 0x9
 3209 0ef0 62220000 		.4byte	.LASF366
 3210 0ef4 0F       		.byte	0xf
 3211 0ef5 7E02     		.2byte	0x27e
 3212 0ef7 95050000 		.4byte	0x595
 3213 0efb 14       		.byte	0x14
 3214 0efc 09       		.uleb128 0x9
 3215 0efd EC000000 		.4byte	.LASF351
 3216 0f01 0F       		.byte	0xf
 3217 0f02 8002     		.2byte	0x280
 3218 0f04 570C0000 		.4byte	0xc57
 3219 0f08 18       		.byte	0x18
 3220 0f09 09       		.uleb128 0x9
 3221 0f0a 250A0000 		.4byte	.LASF352
 3222 0f0e 0F       		.byte	0xf
 3223 0f0f 8102     		.2byte	0x281
 3224 0f11 B7040000 		.4byte	0x4b7
 3225 0f15 1C       		.byte	0x1c
 3226 0f16 09       		.uleb128 0x9
 3227 0f17 43130000 		.4byte	.LASF353
 3228 0f1b 0F       		.byte	0xf
ARM GAS  C:\Users\nicpa\AppData\Local\Temp\ccPr5feD.s 			page 127


 3229 0f1c 8202     		.2byte	0x282
 3230 0f1e 95050000 		.4byte	0x595
 3231 0f22 20       		.byte	0x20
 3232 0f23 09       		.uleb128 0x9
 3233 0f24 80190000 		.4byte	.LASF354
 3234 0f28 0F       		.byte	0xf
 3235 0f29 8402     		.2byte	0x284
 3236 0f2b 570C0000 		.4byte	0xc57
 3237 0f2f 24       		.byte	0x24
 3238 0f30 09       		.uleb128 0x9
 3239 0f31 FF040000 		.4byte	.LASF355
 3240 0f35 0F       		.byte	0xf
 3241 0f36 8502     		.2byte	0x285
 3242 0f38 B7040000 		.4byte	0x4b7
 3243 0f3c 28       		.byte	0x28
 3244 0f3d 09       		.uleb128 0x9
 3245 0f3e AE040000 		.4byte	.LASF367
 3246 0f42 0F       		.byte	0xf
 3247 0f43 8602     		.2byte	0x286
 3248 0f45 95050000 		.4byte	0x595
 3249 0f49 2C       		.byte	0x2c
 3250 0f4a 09       		.uleb128 0x9
 3251 0f4b 800E0000 		.4byte	.LASF344
 3252 0f4f 0F       		.byte	0xf
 3253 0f50 8B02     		.2byte	0x28b
 3254 0f52 950E0000 		.4byte	0xe95
 3255 0f56 30       		.byte	0x30
 3256 0f57 09       		.uleb128 0x9
 3257 0f58 90000000 		.4byte	.LASF357
 3258 0f5c 0F       		.byte	0xf
 3259 0f5d 8E02     		.2byte	0x28e
 3260 0f5f B7040000 		.4byte	0x4b7
 3261 0f63 34       		.byte	0x34
 3262 0f64 00       		.byte	0
 3263 0f65 10       		.uleb128 0x10
 3264 0f66 BC060000 		.4byte	.LASF368
 3265 0f6a 0F       		.byte	0xf
 3266 0f6b 9102     		.2byte	0x291
 3267 0f6d A10E0000 		.4byte	0xea1
 3268 0f71 1F       		.uleb128 0x1f
 3269 0f72 27100000 		.4byte	.LASF369
 3270 0f76 4C       		.byte	0x4c
 3271 0f77 10       		.byte	0x10
 3272 0f78 2F       		.byte	0x2f
 3273 0f79 62100000 		.4byte	0x1062
 3274 0f7d 14       		.uleb128 0x14
 3275 0f7e 361A0000 		.4byte	.LASF370
 3276 0f82 10       		.byte	0x10
 3277 0f83 31       		.byte	0x31
 3278 0f84 B7040000 		.4byte	0x4b7
 3279 0f88 00       		.byte	0
 3280 0f89 14       		.uleb128 0x14
 3281 0f8a 670A0000 		.4byte	.LASF371
 3282 0f8e 10       		.byte	0x10
 3283 0f8f 33       		.byte	0x33
 3284 0f90 B7040000 		.4byte	0x4b7
 3285 0f94 04       		.byte	0x4
ARM GAS  C:\Users\nicpa\AppData\Local\Temp\ccPr5feD.s 			page 128


 3286 0f95 14       		.uleb128 0x14
 3287 0f96 D4090000 		.4byte	.LASF372
 3288 0f9a 10       		.byte	0x10
 3289 0f9b 34       		.byte	0x34
 3290 0f9c B7040000 		.4byte	0x4b7
 3291 0fa0 08       		.byte	0x8
 3292 0fa1 14       		.uleb128 0x14
 3293 0fa2 CA150000 		.4byte	.LASF373
 3294 0fa6 10       		.byte	0x10
 3295 0fa7 35       		.byte	0x35
 3296 0fa8 B7040000 		.4byte	0x4b7
 3297 0fac 0C       		.byte	0xc
 3298 0fad 14       		.uleb128 0x14
 3299 0fae D21F0000 		.4byte	.LASF374
 3300 0fb2 10       		.byte	0x10
 3301 0fb3 37       		.byte	0x37
 3302 0fb4 B7040000 		.4byte	0x4b7
 3303 0fb8 10       		.byte	0x10
 3304 0fb9 14       		.uleb128 0x14
 3305 0fba 60020000 		.4byte	.LASF375
 3306 0fbe 10       		.byte	0x10
 3307 0fbf 38       		.byte	0x38
 3308 0fc0 B7040000 		.4byte	0x4b7
 3309 0fc4 14       		.byte	0x14
 3310 0fc5 14       		.uleb128 0x14
 3311 0fc6 69020000 		.4byte	.LASF376
 3312 0fca 10       		.byte	0x10
 3313 0fcb 39       		.byte	0x39
 3314 0fcc B7040000 		.4byte	0x4b7
 3315 0fd0 18       		.byte	0x18
 3316 0fd1 14       		.uleb128 0x14
 3317 0fd2 F4140000 		.4byte	.LASF377
 3318 0fd6 10       		.byte	0x10
 3319 0fd7 3A       		.byte	0x3a
 3320 0fd8 590C0000 		.4byte	0xc59
 3321 0fdc 1C       		.byte	0x1c
 3322 0fdd 14       		.uleb128 0x14
 3323 0fde DD100000 		.4byte	.LASF378
 3324 0fe2 10       		.byte	0x10
 3325 0fe3 3C       		.byte	0x3c
 3326 0fe4 B7040000 		.4byte	0x4b7
 3327 0fe8 20       		.byte	0x20
 3328 0fe9 14       		.uleb128 0x14
 3329 0fea DB000000 		.4byte	.LASF379
 3330 0fee 10       		.byte	0x10
 3331 0fef 3D       		.byte	0x3d
 3332 0ff0 B7040000 		.4byte	0x4b7
 3333 0ff4 24       		.byte	0x24
 3334 0ff5 14       		.uleb128 0x14
 3335 0ff6 09000000 		.4byte	.LASF380
 3336 0ffa 10       		.byte	0x10
 3337 0ffb 3F       		.byte	0x3f
 3338 0ffc B7040000 		.4byte	0x4b7
 3339 1000 28       		.byte	0x28
 3340 1001 14       		.uleb128 0x14
 3341 1002 B4050000 		.4byte	.LASF381
 3342 1006 10       		.byte	0x10
ARM GAS  C:\Users\nicpa\AppData\Local\Temp\ccPr5feD.s 			page 129


 3343 1007 40       		.byte	0x40
 3344 1008 B7040000 		.4byte	0x4b7
 3345 100c 2C       		.byte	0x2c
 3346 100d 14       		.uleb128 0x14
 3347 100e 2C220000 		.4byte	.LASF382
 3348 1012 10       		.byte	0x10
 3349 1013 42       		.byte	0x42
 3350 1014 B7040000 		.4byte	0x4b7
 3351 1018 30       		.byte	0x30
 3352 1019 14       		.uleb128 0x14
 3353 101a F61B0000 		.4byte	.LASF383
 3354 101e 10       		.byte	0x10
 3355 101f 43       		.byte	0x43
 3356 1020 B7040000 		.4byte	0x4b7
 3357 1024 34       		.byte	0x34
 3358 1025 14       		.uleb128 0x14
 3359 1026 00230000 		.4byte	.LASF384
 3360 102a 10       		.byte	0x10
 3361 102b 45       		.byte	0x45
 3362 102c B7040000 		.4byte	0x4b7
 3363 1030 38       		.byte	0x38
 3364 1031 14       		.uleb128 0x14
 3365 1032 BF120000 		.4byte	.LASF385
 3366 1036 10       		.byte	0x10
 3367 1037 46       		.byte	0x46
 3368 1038 B7040000 		.4byte	0x4b7
 3369 103c 3C       		.byte	0x3c
 3370 103d 14       		.uleb128 0x14
 3371 103e BD200000 		.4byte	.LASF386
 3372 1042 10       		.byte	0x10
 3373 1043 48       		.byte	0x48
 3374 1044 B7040000 		.4byte	0x4b7
 3375 1048 40       		.byte	0x40
 3376 1049 14       		.uleb128 0x14
 3377 104a 9D030000 		.4byte	.LASF387
 3378 104e 10       		.byte	0x10
 3379 104f 49       		.byte	0x49
 3380 1050 B7040000 		.4byte	0x4b7
 3381 1054 44       		.byte	0x44
 3382 1055 14       		.uleb128 0x14
 3383 1056 3B150000 		.4byte	.LASF388
 3384 105a 10       		.byte	0x10
 3385 105b 4B       		.byte	0x4b
 3386 105c B7040000 		.4byte	0x4b7
 3387 1060 48       		.byte	0x48
 3388 1061 00       		.byte	0
 3389 1062 07       		.uleb128 0x7
 3390 1063 371E0000 		.4byte	.LASF389
 3391 1067 10       		.byte	0x10
 3392 1068 4C       		.byte	0x4c
 3393 1069 710F0000 		.4byte	0xf71
 3394 106d 1A       		.uleb128 0x1a
 3395 106e 04       		.byte	0x4
 3396 106f AE070000 		.4byte	0x7ae
 3397 1073 1A       		.uleb128 0x1a
 3398 1074 04       		.byte	0x4
 3399 1075 79100000 		.4byte	0x1079
ARM GAS  C:\Users\nicpa\AppData\Local\Temp\ccPr5feD.s 			page 130


 3400 1079 20       		.uleb128 0x20
 3401 107a 07       		.uleb128 0x7
 3402 107b BC190000 		.4byte	.LASF390
 3403 107f 11       		.byte	0x11
 3404 1080 3F       		.byte	0x3f
 3405 1081 B7040000 		.4byte	0x4b7
 3406 1085 1A       		.uleb128 0x1a
 3407 1086 04       		.byte	0x4
 3408 1087 8B100000 		.4byte	0x108b
 3409 108b 11       		.uleb128 0x11
 3410 108c F50B0000 		.4byte	0xbf5
 3411 1090 1A       		.uleb128 0x1a
 3412 1091 04       		.byte	0x4
 3413 1092 96100000 		.4byte	0x1096
 3414 1096 11       		.uleb128 0x11
 3415 1097 23040000 		.4byte	0x423
 3416 109b 12       		.uleb128 0x12
 3417 109c 04       		.byte	0x4
 3418 109d 12       		.byte	0x12
 3419 109e B6       		.byte	0xb6
 3420 109f BA100000 		.4byte	0x10ba
 3421 10a3 13       		.uleb128 0x13
 3422 10a4 633000   		.ascii	"c0\000"
 3423 10a7 12       		.byte	0x12
 3424 10a8 B7       		.byte	0xb7
 3425 10a9 F4030000 		.4byte	0x3f4
 3426 10ad 00       		.byte	0
 3427 10ae 13       		.uleb128 0x13
 3428 10af 633100   		.ascii	"c1\000"
 3429 10b2 12       		.byte	0x12
 3430 10b3 B8       		.byte	0xb8
 3431 10b4 F4030000 		.4byte	0x3f4
 3432 10b8 02       		.byte	0x2
 3433 10b9 00       		.byte	0
 3434 10ba 07       		.uleb128 0x7
 3435 10bb 040C0000 		.4byte	.LASF391
 3436 10bf 12       		.byte	0x12
 3437 10c0 B9       		.byte	0xb9
 3438 10c1 9B100000 		.4byte	0x109b
 3439 10c5 12       		.uleb128 0x12
 3440 10c6 08       		.byte	0x8
 3441 10c7 12       		.byte	0x12
 3442 10c8 BB       		.byte	0xbb
 3443 10c9 F2100000 		.4byte	0x10f2
 3444 10cd 14       		.uleb128 0x14
 3445 10ce 460B0000 		.4byte	.LASF392
 3446 10d2 12       		.byte	0x12
 3447 10d3 BC       		.byte	0xbc
 3448 10d4 40040000 		.4byte	0x440
 3449 10d8 00       		.byte	0
 3450 10d9 14       		.uleb128 0x14
 3451 10da F7070000 		.4byte	.LASF393
 3452 10de 12       		.byte	0x12
 3453 10df BD       		.byte	0xbd
 3454 10e0 40040000 		.4byte	0x440
 3455 10e4 02       		.byte	0x2
 3456 10e5 14       		.uleb128 0x14
ARM GAS  C:\Users\nicpa\AppData\Local\Temp\ccPr5feD.s 			page 131


 3457 10e6 79150000 		.4byte	.LASF394
 3458 10ea 12       		.byte	0x12
 3459 10eb BE       		.byte	0xbe
 3460 10ec F2100000 		.4byte	0x10f2
 3461 10f0 04       		.byte	0x4
 3462 10f1 00       		.byte	0
 3463 10f2 1A       		.uleb128 0x1a
 3464 10f3 04       		.byte	0x4
 3465 10f4 F8100000 		.4byte	0x10f8
 3466 10f8 11       		.uleb128 0x11
 3467 10f9 BA100000 		.4byte	0x10ba
 3468 10fd 07       		.uleb128 0x7
 3469 10fe 1C0E0000 		.4byte	.LASF395
 3470 1102 12       		.byte	0x12
 3471 1103 BF       		.byte	0xbf
 3472 1104 C5100000 		.4byte	0x10c5
 3473 1108 12       		.uleb128 0x12
 3474 1109 08       		.byte	0x8
 3475 110a 12       		.byte	0x12
 3476 110b C1       		.byte	0xc1
 3477 110c 41110000 		.4byte	0x1141
 3478 1110 14       		.uleb128 0x14
 3479 1111 39020000 		.4byte	.LASF396
 3480 1115 12       		.byte	0x12
 3481 1116 C2       		.byte	0xc2
 3482 1117 23040000 		.4byte	0x423
 3483 111b 00       		.byte	0
 3484 111c 14       		.uleb128 0x14
 3485 111d B2090000 		.4byte	.LASF397
 3486 1121 12       		.byte	0x12
 3487 1122 C3       		.byte	0xc3
 3488 1123 23040000 		.4byte	0x423
 3489 1127 01       		.byte	0x1
 3490 1128 14       		.uleb128 0x14
 3491 1129 E3210000 		.4byte	.LASF398
 3492 112d 12       		.byte	0x12
 3493 112e C4       		.byte	0xc4
 3494 112f 23040000 		.4byte	0x423
 3495 1133 02       		.byte	0x2
 3496 1134 14       		.uleb128 0x14
 3497 1135 8B220000 		.4byte	.LASF399
 3498 1139 12       		.byte	0x12
 3499 113a C5       		.byte	0xc5
 3500 113b 90100000 		.4byte	0x1090
 3501 113f 04       		.byte	0x4
 3502 1140 00       		.byte	0
 3503 1141 07       		.uleb128 0x7
 3504 1142 DE0E0000 		.4byte	.LASF400
 3505 1146 12       		.byte	0x12
 3506 1147 C6       		.byte	0xc6
 3507 1148 08110000 		.4byte	0x1108
 3508 114c 12       		.uleb128 0x12
 3509 114d 0C       		.byte	0xc
 3510 114e 12       		.byte	0x12
 3511 114f C8       		.byte	0xc8
 3512 1150 9D110000 		.4byte	0x119d
 3513 1154 14       		.uleb128 0x14
ARM GAS  C:\Users\nicpa\AppData\Local\Temp\ccPr5feD.s 			page 132


 3514 1155 39020000 		.4byte	.LASF396
 3515 1159 12       		.byte	0x12
 3516 115a C9       		.byte	0xc9
 3517 115b 23040000 		.4byte	0x423
 3518 115f 00       		.byte	0
 3519 1160 14       		.uleb128 0x14
 3520 1161 65200000 		.4byte	.LASF401
 3521 1165 12       		.byte	0x12
 3522 1166 CA       		.byte	0xca
 3523 1167 23040000 		.4byte	0x423
 3524 116b 01       		.byte	0x1
 3525 116c 14       		.uleb128 0x14
 3526 116d F20B0000 		.4byte	.LASF402
 3527 1171 12       		.byte	0x12
 3528 1172 CB       		.byte	0xcb
 3529 1173 11040000 		.4byte	0x411
 3530 1177 02       		.byte	0x2
 3531 1178 14       		.uleb128 0x14
 3532 1179 871D0000 		.4byte	.LASF403
 3533 117d 12       		.byte	0x12
 3534 117e CC       		.byte	0xcc
 3535 117f 11040000 		.4byte	0x411
 3536 1183 03       		.byte	0x3
 3537 1184 14       		.uleb128 0x14
 3538 1185 B2090000 		.4byte	.LASF397
 3539 1189 12       		.byte	0x12
 3540 118a CD       		.byte	0xcd
 3541 118b 23040000 		.4byte	0x423
 3542 118f 04       		.byte	0x4
 3543 1190 14       		.uleb128 0x14
 3544 1191 8B220000 		.4byte	.LASF399
 3545 1195 12       		.byte	0x12
 3546 1196 CE       		.byte	0xce
 3547 1197 90100000 		.4byte	0x1090
 3548 119b 08       		.byte	0x8
 3549 119c 00       		.byte	0
 3550 119d 07       		.uleb128 0x7
 3551 119e 4B0A0000 		.4byte	.LASF404
 3552 11a2 12       		.byte	0x12
 3553 11a3 CF       		.byte	0xcf
 3554 11a4 4C110000 		.4byte	0x114c
 3555 11a8 1F       		.uleb128 0x1f
 3556 11a9 821A0000 		.4byte	.LASF405
 3557 11ad 0C       		.byte	0xc
 3558 11ae 12       		.byte	0x12
 3559 11af D1       		.byte	0xd1
 3560 11b0 E5110000 		.4byte	0x11e5
 3561 11b4 14       		.uleb128 0x14
 3562 11b5 D2140000 		.4byte	.LASF406
 3563 11b9 12       		.byte	0x12
 3564 11ba D2       		.byte	0xd2
 3565 11bb 40040000 		.4byte	0x440
 3566 11bf 00       		.byte	0
 3567 11c0 14       		.uleb128 0x14
 3568 11c1 261D0000 		.4byte	.LASF407
 3569 11c5 12       		.byte	0x12
 3570 11c6 D3       		.byte	0xd3
ARM GAS  C:\Users\nicpa\AppData\Local\Temp\ccPr5feD.s 			page 133


 3571 11c7 40040000 		.4byte	0x440
 3572 11cb 02       		.byte	0x2
 3573 11cc 14       		.uleb128 0x14
 3574 11cd 53060000 		.4byte	.LASF408
 3575 11d1 12       		.byte	0x12
 3576 11d2 D4       		.byte	0xd4
 3577 11d3 E5110000 		.4byte	0x11e5
 3578 11d7 04       		.byte	0x4
 3579 11d8 14       		.uleb128 0x14
 3580 11d9 1F0A0000 		.4byte	.LASF409
 3581 11dd 12       		.byte	0x12
 3582 11de D5       		.byte	0xd5
 3583 11df F0110000 		.4byte	0x11f0
 3584 11e3 08       		.byte	0x8
 3585 11e4 00       		.byte	0
 3586 11e5 1A       		.uleb128 0x1a
 3587 11e6 04       		.byte	0x4
 3588 11e7 EB110000 		.4byte	0x11eb
 3589 11eb 11       		.uleb128 0x11
 3590 11ec 41110000 		.4byte	0x1141
 3591 11f0 1A       		.uleb128 0x1a
 3592 11f1 04       		.byte	0x4
 3593 11f2 F6110000 		.4byte	0x11f6
 3594 11f6 11       		.uleb128 0x11
 3595 11f7 A8110000 		.4byte	0x11a8
 3596 11fb 07       		.uleb128 0x7
 3597 11fc 821A0000 		.4byte	.LASF405
 3598 1200 12       		.byte	0x12
 3599 1201 D6       		.byte	0xd6
 3600 1202 A8110000 		.4byte	0x11a8
 3601 1206 1F       		.uleb128 0x1f
 3602 1207 66000000 		.4byte	.LASF410
 3603 120b 0C       		.byte	0xc
 3604 120c 12       		.byte	0x12
 3605 120d D8       		.byte	0xd8
 3606 120e 43120000 		.4byte	0x1243
 3607 1212 14       		.uleb128 0x14
 3608 1213 D2140000 		.4byte	.LASF406
 3609 1217 12       		.byte	0x12
 3610 1218 D9       		.byte	0xd9
 3611 1219 40040000 		.4byte	0x440
 3612 121d 00       		.byte	0
 3613 121e 14       		.uleb128 0x14
 3614 121f 261D0000 		.4byte	.LASF407
 3615 1223 12       		.byte	0x12
 3616 1224 DA       		.byte	0xda
 3617 1225 40040000 		.4byte	0x440
 3618 1229 02       		.byte	0x2
 3619 122a 14       		.uleb128 0x14
 3620 122b 53060000 		.4byte	.LASF408
 3621 122f 12       		.byte	0x12
 3622 1230 DB       		.byte	0xdb
 3623 1231 43120000 		.4byte	0x1243
 3624 1235 04       		.byte	0x4
 3625 1236 14       		.uleb128 0x14
 3626 1237 1F0A0000 		.4byte	.LASF409
 3627 123b 12       		.byte	0x12
ARM GAS  C:\Users\nicpa\AppData\Local\Temp\ccPr5feD.s 			page 134


 3628 123c DC       		.byte	0xdc
 3629 123d 4E120000 		.4byte	0x124e
 3630 1241 08       		.byte	0x8
 3631 1242 00       		.byte	0
 3632 1243 1A       		.uleb128 0x1a
 3633 1244 04       		.byte	0x4
 3634 1245 49120000 		.4byte	0x1249
 3635 1249 11       		.uleb128 0x11
 3636 124a 9D110000 		.4byte	0x119d
 3637 124e 1A       		.uleb128 0x1a
 3638 124f 04       		.byte	0x4
 3639 1250 54120000 		.4byte	0x1254
 3640 1254 11       		.uleb128 0x11
 3641 1255 06120000 		.4byte	0x1206
 3642 1259 07       		.uleb128 0x7
 3643 125a 66000000 		.4byte	.LASF410
 3644 125e 12       		.byte	0x12
 3645 125f DD       		.byte	0xdd
 3646 1260 06120000 		.4byte	0x1206
 3647 1264 12       		.uleb128 0x12
 3648 1265 14       		.byte	0x14
 3649 1266 12       		.byte	0x12
 3650 1267 DF       		.byte	0xdf
 3651 1268 CD120000 		.4byte	0x12cd
 3652 126c 14       		.uleb128 0x14
 3653 126d 8B220000 		.4byte	.LASF399
 3654 1271 12       		.byte	0x12
 3655 1272 E0       		.byte	0xe0
 3656 1273 90100000 		.4byte	0x1090
 3657 1277 00       		.byte	0
 3658 1278 14       		.uleb128 0x14
 3659 1279 DA200000 		.4byte	.LASF411
 3660 127d 12       		.byte	0x12
 3661 127e E1       		.byte	0xe1
 3662 127f 90100000 		.4byte	0x1090
 3663 1283 04       		.byte	0x4
 3664 1284 14       		.uleb128 0x14
 3665 1285 1C1A0000 		.4byte	.LASF412
 3666 1289 12       		.byte	0x12
 3667 128a E2       		.byte	0xe2
 3668 128b CD120000 		.4byte	0x12cd
 3669 128f 08       		.byte	0x8
 3670 1290 14       		.uleb128 0x14
 3671 1291 460B0000 		.4byte	.LASF392
 3672 1295 12       		.byte	0x12
 3673 1296 E3       		.byte	0xe3
 3674 1297 40040000 		.4byte	0x440
 3675 129b 0C       		.byte	0xc
 3676 129c 14       		.uleb128 0x14
 3677 129d F7070000 		.4byte	.LASF393
 3678 12a1 12       		.byte	0x12
 3679 12a2 E4       		.byte	0xe4
 3680 12a3 40040000 		.4byte	0x440
 3681 12a7 0E       		.byte	0xe
 3682 12a8 14       		.uleb128 0x14
 3683 12a9 39020000 		.4byte	.LASF396
 3684 12ad 12       		.byte	0x12
ARM GAS  C:\Users\nicpa\AppData\Local\Temp\ccPr5feD.s 			page 135


 3685 12ae E5       		.byte	0xe5
 3686 12af 23040000 		.4byte	0x423
 3687 12b3 10       		.byte	0x10
 3688 12b4 14       		.uleb128 0x14
 3689 12b5 B2090000 		.4byte	.LASF397
 3690 12b9 12       		.byte	0x12
 3691 12ba E6       		.byte	0xe6
 3692 12bb 23040000 		.4byte	0x423
 3693 12bf 11       		.byte	0x11
 3694 12c0 14       		.uleb128 0x14
 3695 12c1 E3210000 		.4byte	.LASF398
 3696 12c5 12       		.byte	0x12
 3697 12c6 E7       		.byte	0xe7
 3698 12c7 23040000 		.4byte	0x423
 3699 12cb 12       		.byte	0x12
 3700 12cc 00       		.byte	0
 3701 12cd 1A       		.uleb128 0x1a
 3702 12ce 04       		.byte	0x4
 3703 12cf D3120000 		.4byte	0x12d3
 3704 12d3 11       		.uleb128 0x11
 3705 12d4 FD100000 		.4byte	0x10fd
 3706 12d8 07       		.uleb128 0x7
 3707 12d9 6B150000 		.4byte	.LASF413
 3708 12dd 12       		.byte	0x12
 3709 12de E8       		.byte	0xe8
 3710 12df 64120000 		.4byte	0x1264
 3711 12e3 12       		.uleb128 0x12
 3712 12e4 06       		.byte	0x6
 3713 12e5 12       		.byte	0x12
 3714 12e6 F1       		.byte	0xf1
 3715 12e7 1C130000 		.4byte	0x131c
 3716 12eb 14       		.uleb128 0x14
 3717 12ec 26090000 		.4byte	.LASF414
 3718 12f0 12       		.byte	0x12
 3719 12f1 F2       		.byte	0xf2
 3720 12f2 40040000 		.4byte	0x440
 3721 12f6 00       		.byte	0
 3722 12f7 14       		.uleb128 0x14
 3723 12f8 1B1F0000 		.4byte	.LASF415
 3724 12fc 12       		.byte	0x12
 3725 12fd F3       		.byte	0xf3
 3726 12fe 23040000 		.4byte	0x423
 3727 1302 02       		.byte	0x2
 3728 1303 14       		.uleb128 0x14
 3729 1304 74080000 		.4byte	.LASF416
 3730 1308 12       		.byte	0x12
 3731 1309 F4       		.byte	0xf4
 3732 130a 23040000 		.4byte	0x423
 3733 130e 03       		.byte	0x3
 3734 130f 14       		.uleb128 0x14
 3735 1310 0E1C0000 		.4byte	.LASF417
 3736 1314 12       		.byte	0x12
 3737 1315 F5       		.byte	0xf5
 3738 1316 23040000 		.4byte	0x423
 3739 131a 04       		.byte	0x4
 3740 131b 00       		.byte	0
 3741 131c 07       		.uleb128 0x7
ARM GAS  C:\Users\nicpa\AppData\Local\Temp\ccPr5feD.s 			page 136


 3742 131d AC170000 		.4byte	.LASF418
 3743 1321 12       		.byte	0x12
 3744 1322 F6       		.byte	0xf6
 3745 1323 E3120000 		.4byte	0x12e3
 3746 1327 10       		.uleb128 0x10
 3747 1328 06150000 		.4byte	.LASF419
 3748 132c 12       		.byte	0x12
 3749 132d 1301     		.2byte	0x113
 3750 132f 33130000 		.4byte	0x1333
 3751 1333 1D       		.uleb128 0x1d
 3752 1334 2C000000 		.4byte	0x2c
 3753 1338 47130000 		.4byte	0x1347
 3754 133c 1C       		.uleb128 0x1c
 3755 133d 85100000 		.4byte	0x1085
 3756 1341 1C       		.uleb128 0x1c
 3757 1342 2C000000 		.4byte	0x2c
 3758 1346 00       		.byte	0
 3759 1347 10       		.uleb128 0x10
 3760 1348 17100000 		.4byte	.LASF420
 3761 134c 12       		.byte	0x12
 3762 134d 1401     		.2byte	0x114
 3763 134f 33130000 		.4byte	0x1333
 3764 1353 10       		.uleb128 0x10
 3765 1354 A4150000 		.4byte	.LASF421
 3766 1358 12       		.byte	0x12
 3767 1359 1501     		.2byte	0x115
 3768 135b 5F130000 		.4byte	0x135f
 3769 135f 1B       		.uleb128 0x1b
 3770 1360 6F130000 		.4byte	0x136f
 3771 1364 1C       		.uleb128 0x1c
 3772 1365 85100000 		.4byte	0x1085
 3773 1369 1C       		.uleb128 0x1c
 3774 136a 2C000000 		.4byte	0x2c
 3775 136e 00       		.byte	0
 3776 136f 17       		.uleb128 0x17
 3777 1370 0C       		.byte	0xc
 3778 1371 12       		.byte	0x12
 3779 1372 1701     		.2byte	0x117
 3780 1374 A0130000 		.4byte	0x13a0
 3781 1378 09       		.uleb128 0x9
 3782 1379 38060000 		.4byte	.LASF422
 3783 137d 12       		.byte	0x12
 3784 137e 1801     		.2byte	0x118
 3785 1380 A0130000 		.4byte	0x13a0
 3786 1384 00       		.byte	0
 3787 1385 09       		.uleb128 0x9
 3788 1386 B11B0000 		.4byte	.LASF423
 3789 138a 12       		.byte	0x12
 3790 138b 1901     		.2byte	0x119
 3791 138d A6130000 		.4byte	0x13a6
 3792 1391 04       		.byte	0x4
 3793 1392 09       		.uleb128 0x9
 3794 1393 B41A0000 		.4byte	.LASF424
 3795 1397 12       		.byte	0x12
 3796 1398 1A01     		.2byte	0x11a
 3797 139a AC130000 		.4byte	0x13ac
 3798 139e 08       		.byte	0x8
ARM GAS  C:\Users\nicpa\AppData\Local\Temp\ccPr5feD.s 			page 137


 3799 139f 00       		.byte	0
 3800 13a0 1A       		.uleb128 0x1a
 3801 13a1 04       		.byte	0x4
 3802 13a2 27130000 		.4byte	0x1327
 3803 13a6 1A       		.uleb128 0x1a
 3804 13a7 04       		.byte	0x4
 3805 13a8 47130000 		.4byte	0x1347
 3806 13ac 1A       		.uleb128 0x1a
 3807 13ad 04       		.byte	0x4
 3808 13ae 53130000 		.4byte	0x1353
 3809 13b2 10       		.uleb128 0x10
 3810 13b3 BD1C0000 		.4byte	.LASF425
 3811 13b7 12       		.byte	0x12
 3812 13b8 1B01     		.2byte	0x11b
 3813 13ba 6F130000 		.4byte	0x136f
 3814 13be 10       		.uleb128 0x10
 3815 13bf 1D1D0000 		.4byte	.LASF426
 3816 13c3 12       		.byte	0x12
 3817 13c4 2401     		.2byte	0x124
 3818 13c6 CA130000 		.4byte	0x13ca
 3819 13ca 1E       		.uleb128 0x1e
 3820 13cb 1D1D0000 		.4byte	.LASF426
 3821 13cf 24       		.byte	0x24
 3822 13d0 12       		.byte	0x12
 3823 13d1 B101     		.2byte	0x1b1
 3824 13d3 8C140000 		.4byte	0x148c
 3825 13d7 09       		.uleb128 0x9
 3826 13d8 2B0B0000 		.4byte	.LASF427
 3827 13dc 12       		.byte	0x12
 3828 13dd B201     		.2byte	0x1b2
 3829 13df 97150000 		.4byte	0x1597
 3830 13e3 00       		.byte	0
 3831 13e4 09       		.uleb128 0x9
 3832 13e5 0C1F0000 		.4byte	.LASF428
 3833 13e9 12       		.byte	0x12
 3834 13ea B301     		.2byte	0x1b3
 3835 13ec 9D150000 		.4byte	0x159d
 3836 13f0 04       		.byte	0x4
 3837 13f1 09       		.uleb128 0x9
 3838 13f2 D0010000 		.4byte	.LASF429
 3839 13f6 12       		.byte	0x12
 3840 13f7 B401     		.2byte	0x1b4
 3841 13f9 A3150000 		.4byte	0x15a3
 3842 13fd 08       		.byte	0x8
 3843 13fe 09       		.uleb128 0x9
 3844 13ff 5E060000 		.4byte	.LASF430
 3845 1403 12       		.byte	0x12
 3846 1404 B501     		.2byte	0x1b5
 3847 1406 A9150000 		.4byte	0x15a9
 3848 140a 0C       		.byte	0xc
 3849 140b 09       		.uleb128 0x9
 3850 140c 85110000 		.4byte	.LASF431
 3851 1410 12       		.byte	0x12
 3852 1411 B601     		.2byte	0x1b6
 3853 1413 AF150000 		.4byte	0x15af
 3854 1417 10       		.byte	0x10
 3855 1418 09       		.uleb128 0x9
ARM GAS  C:\Users\nicpa\AppData\Local\Temp\ccPr5feD.s 			page 138


 3856 1419 5C000000 		.4byte	.LASF432
 3857 141d 12       		.byte	0x12
 3858 141e B701     		.2byte	0x1b7
 3859 1420 B5150000 		.4byte	0x15b5
 3860 1424 14       		.byte	0x14
 3861 1425 09       		.uleb128 0x9
 3862 1426 65200000 		.4byte	.LASF401
 3863 142a 12       		.byte	0x12
 3864 142b B801     		.2byte	0x1b8
 3865 142d 23040000 		.4byte	0x423
 3866 1431 18       		.byte	0x18
 3867 1432 09       		.uleb128 0x9
 3868 1433 7F040000 		.4byte	.LASF433
 3869 1437 12       		.byte	0x12
 3870 1438 B901     		.2byte	0x1b9
 3871 143a 23040000 		.4byte	0x423
 3872 143e 19       		.byte	0x19
 3873 143f 09       		.uleb128 0x9
 3874 1440 07090000 		.4byte	.LASF434
 3875 1444 12       		.byte	0x12
 3876 1445 BA01     		.2byte	0x1ba
 3877 1447 23040000 		.4byte	0x423
 3878 144b 1A       		.byte	0x1a
 3879 144c 09       		.uleb128 0x9
 3880 144d 301B0000 		.4byte	.LASF435
 3881 1451 12       		.byte	0x12
 3882 1452 BB01     		.2byte	0x1bb
 3883 1454 23040000 		.4byte	0x423
 3884 1458 1B       		.byte	0x1b
 3885 1459 21       		.uleb128 0x21
 3886 145a 7000     		.ascii	"p\000"
 3887 145c 12       		.byte	0x12
 3888 145d C101     		.2byte	0x1c1
 3889 145f 3C150000 		.4byte	0x153c
 3890 1463 1C       		.byte	0x1c
 3891 1464 09       		.uleb128 0x9
 3892 1465 1B1F0000 		.4byte	.LASF415
 3893 1469 12       		.byte	0x12
 3894 146a C201     		.2byte	0x1c2
 3895 146c 23040000 		.4byte	0x423
 3896 1470 20       		.byte	0x20
 3897 1471 09       		.uleb128 0x9
 3898 1472 74080000 		.4byte	.LASF416
 3899 1476 12       		.byte	0x12
 3900 1477 C301     		.2byte	0x1c3
 3901 1479 23040000 		.4byte	0x423
 3902 147d 21       		.byte	0x21
 3903 147e 09       		.uleb128 0x9
 3904 147f 0E1C0000 		.4byte	.LASF417
 3905 1483 12       		.byte	0x12
 3906 1484 C401     		.2byte	0x1c4
 3907 1486 23040000 		.4byte	0x423
 3908 148a 22       		.byte	0x22
 3909 148b 00       		.byte	0
 3910 148c 10       		.uleb128 0x10
 3911 148d 42190000 		.4byte	.LASF436
 3912 1491 12       		.byte	0x12
ARM GAS  C:\Users\nicpa\AppData\Local\Temp\ccPr5feD.s 			page 139


 3913 1492 2601     		.2byte	0x126
 3914 1494 98140000 		.4byte	0x1498
 3915 1498 1B       		.uleb128 0x1b
 3916 1499 A3140000 		.4byte	0x14a3
 3917 149d 1C       		.uleb128 0x1c
 3918 149e 40040000 		.4byte	0x440
 3919 14a2 00       		.byte	0
 3920 14a3 10       		.uleb128 0x10
 3921 14a4 F90D0000 		.4byte	.LASF437
 3922 14a8 12       		.byte	0x12
 3923 14a9 2701     		.2byte	0x127
 3924 14ab AF140000 		.4byte	0x14af
 3925 14af 1D       		.uleb128 0x1d
 3926 14b0 2C000000 		.4byte	0x2c
 3927 14b4 C3140000 		.4byte	0x14c3
 3928 14b8 1C       		.uleb128 0x1c
 3929 14b9 40040000 		.4byte	0x440
 3930 14bd 1C       		.uleb128 0x1c
 3931 14be C3140000 		.4byte	0x14c3
 3932 14c2 00       		.byte	0
 3933 14c3 1A       		.uleb128 0x1a
 3934 14c4 04       		.byte	0x4
 3935 14c5 2C000000 		.4byte	0x2c
 3936 14c9 10       		.uleb128 0x10
 3937 14ca A10B0000 		.4byte	.LASF438
 3938 14ce 12       		.byte	0x12
 3939 14cf 2801     		.2byte	0x128
 3940 14d1 D5140000 		.4byte	0x14d5
 3941 14d5 1B       		.uleb128 0x1b
 3942 14d6 E5140000 		.4byte	0x14e5
 3943 14da 1C       		.uleb128 0x1c
 3944 14db E5140000 		.4byte	0x14e5
 3945 14df 1C       		.uleb128 0x1c
 3946 14e0 F0140000 		.4byte	0x14f0
 3947 14e4 00       		.byte	0
 3948 14e5 1A       		.uleb128 0x1a
 3949 14e6 04       		.byte	0x4
 3950 14e7 EB140000 		.4byte	0x14eb
 3951 14eb 11       		.uleb128 0x11
 3952 14ec BE130000 		.4byte	0x13be
 3953 14f0 1A       		.uleb128 0x1a
 3954 14f1 04       		.byte	0x4
 3955 14f2 1C130000 		.4byte	0x131c
 3956 14f6 10       		.uleb128 0x10
 3957 14f7 FA080000 		.4byte	.LASF439
 3958 14fb 12       		.byte	0x12
 3959 14fc 2901     		.2byte	0x129
 3960 14fe 02150000 		.4byte	0x1502
 3961 1502 1D       		.uleb128 0x1d
 3962 1503 F50B0000 		.4byte	0xbf5
 3963 1507 16150000 		.4byte	0x1516
 3964 150b 1C       		.uleb128 0x1c
 3965 150c E5140000 		.4byte	0x14e5
 3966 1510 1C       		.uleb128 0x1c
 3967 1511 40040000 		.4byte	0x440
 3968 1515 00       		.byte	0
 3969 1516 10       		.uleb128 0x10
ARM GAS  C:\Users\nicpa\AppData\Local\Temp\ccPr5feD.s 			page 140


 3970 1517 DB1A0000 		.4byte	.LASF440
 3971 151b 12       		.byte	0x12
 3972 151c 2A01     		.2byte	0x12a
 3973 151e 22150000 		.4byte	0x1522
 3974 1522 1D       		.uleb128 0x1d
 3975 1523 2C000000 		.4byte	0x2c
 3976 1527 36150000 		.4byte	0x1536
 3977 152b 1C       		.uleb128 0x1c
 3978 152c 40040000 		.4byte	0x440
 3979 1530 1C       		.uleb128 0x1c
 3980 1531 36150000 		.4byte	0x1536
 3981 1535 00       		.byte	0
 3982 1536 1A       		.uleb128 0x1a
 3983 1537 04       		.byte	0x4
 3984 1538 9D110000 		.4byte	0x119d
 3985 153c 22       		.uleb128 0x22
 3986 153d 04       		.byte	0x4
 3987 153e 12       		.byte	0x12
 3988 153f BC01     		.2byte	0x1bc
 3989 1541 76150000 		.4byte	0x1576
 3990 1545 23       		.uleb128 0x23
 3991 1546 931E0000 		.4byte	.LASF441
 3992 154a 12       		.byte	0x12
 3993 154b BD01     		.2byte	0x1bd
 3994 154d 73100000 		.4byte	0x1073
 3995 1551 23       		.uleb128 0x23
 3996 1552 09050000 		.4byte	.LASF442
 3997 1556 12       		.byte	0x12
 3998 1557 BE01     		.2byte	0x1be
 3999 1559 76150000 		.4byte	0x1576
 4000 155d 23       		.uleb128 0x23
 4001 155e AF0A0000 		.4byte	.LASF443
 4002 1562 12       		.byte	0x12
 4003 1563 BF01     		.2byte	0x1bf
 4004 1565 81150000 		.4byte	0x1581
 4005 1569 23       		.uleb128 0x23
 4006 156a E01D0000 		.4byte	.LASF444
 4007 156e 12       		.byte	0x12
 4008 156f C001     		.2byte	0x1c0
 4009 1571 8C150000 		.4byte	0x158c
 4010 1575 00       		.byte	0
 4011 1576 1A       		.uleb128 0x1a
 4012 1577 04       		.byte	0x4
 4013 1578 7C150000 		.4byte	0x157c
 4014 157c 11       		.uleb128 0x11
 4015 157d D8120000 		.4byte	0x12d8
 4016 1581 1A       		.uleb128 0x1a
 4017 1582 04       		.byte	0x4
 4018 1583 87150000 		.4byte	0x1587
 4019 1587 11       		.uleb128 0x11
 4020 1588 FB110000 		.4byte	0x11fb
 4021 158c 1A       		.uleb128 0x1a
 4022 158d 04       		.byte	0x4
 4023 158e 92150000 		.4byte	0x1592
 4024 1592 11       		.uleb128 0x11
 4025 1593 59120000 		.4byte	0x1259
 4026 1597 1A       		.uleb128 0x1a
ARM GAS  C:\Users\nicpa\AppData\Local\Temp\ccPr5feD.s 			page 141


 4027 1598 04       		.byte	0x4
 4028 1599 8C140000 		.4byte	0x148c
 4029 159d 1A       		.uleb128 0x1a
 4030 159e 04       		.byte	0x4
 4031 159f A3140000 		.4byte	0x14a3
 4032 15a3 1A       		.uleb128 0x1a
 4033 15a4 04       		.byte	0x4
 4034 15a5 C9140000 		.4byte	0x14c9
 4035 15a9 1A       		.uleb128 0x1a
 4036 15aa 04       		.byte	0x4
 4037 15ab F6140000 		.4byte	0x14f6
 4038 15af 1A       		.uleb128 0x1a
 4039 15b0 04       		.byte	0x4
 4040 15b1 16150000 		.4byte	0x1516
 4041 15b5 1A       		.uleb128 0x1a
 4042 15b6 04       		.byte	0x4
 4043 15b7 BB150000 		.4byte	0x15bb
 4044 15bb 11       		.uleb128 0x11
 4045 15bc B2130000 		.4byte	0x13b2
 4046 15c0 04       		.uleb128 0x4
 4047 15c1 01       		.byte	0x1
 4048 15c2 23040000 		.4byte	0x423
 4049 15c6 13       		.byte	0x13
 4050 15c7 6E       		.byte	0x6e
 4051 15c8 DF150000 		.4byte	0x15df
 4052 15cc 06       		.uleb128 0x6
 4053 15cd CD120000 		.4byte	.LASF445
 4054 15d1 00       		.byte	0
 4055 15d2 06       		.uleb128 0x6
 4056 15d3 6C030000 		.4byte	.LASF446
 4057 15d7 01       		.byte	0x1
 4058 15d8 06       		.uleb128 0x6
 4059 15d9 A50D0000 		.4byte	.LASF447
 4060 15dd 02       		.byte	0x2
 4061 15de 00       		.byte	0
 4062 15df 24       		.uleb128 0x24
 4063 15e0 B50A0000 		.4byte	.LASF448
 4064 15e4 04       		.byte	0x4
 4065 15e5 6203     		.2byte	0x362
 4066 15e7 03       		.byte	0x3
 4067 15e8 24       		.uleb128 0x24
 4068 15e9 8D0A0000 		.4byte	.LASF449
 4069 15ed 04       		.byte	0x4
 4070 15ee 6D03     		.2byte	0x36d
 4071 15f0 03       		.byte	0x3
 4072 15f1 25       		.uleb128 0x25
 4073 15f2 A0220000 		.4byte	.LASF453
 4074 15f6 02       		.byte	0x2
 4075 15f7 2503     		.2byte	0x325
 4076 15f9 03       		.byte	0x3
 4077 15fa 23160000 		.4byte	0x1623
 4078 15fe 26       		.uleb128 0x26
 4079 15ff 891C0000 		.4byte	.LASF450
 4080 1603 02       		.byte	0x2
 4081 1604 2503     		.2byte	0x325
 4082 1606 6D100000 		.4byte	0x106d
 4083 160a 26       		.uleb128 0x26
ARM GAS  C:\Users\nicpa\AppData\Local\Temp\ccPr5feD.s 			page 142


 4084 160b 251E0000 		.4byte	.LASF451
 4085 160f 02       		.byte	0x2
 4086 1610 2503     		.2byte	0x325
 4087 1612 B7040000 		.4byte	0x4b7
 4088 1616 26       		.uleb128 0x26
 4089 1617 EF180000 		.4byte	.LASF452
 4090 161b 02       		.byte	0x2
 4091 161c 2503     		.2byte	0x325
 4092 161e B7040000 		.4byte	0x4b7
 4093 1622 00       		.byte	0
 4094 1623 25       		.uleb128 0x25
 4095 1624 33120000 		.4byte	.LASF454
 4096 1628 03       		.byte	0x3
 4097 1629 B906     		.2byte	0x6b9
 4098 162b 03       		.byte	0x3
 4099 162c 3D160000 		.4byte	0x163d
 4100 1630 26       		.uleb128 0x26
 4101 1631 D6050000 		.4byte	.LASF455
 4102 1635 03       		.byte	0x3
 4103 1636 B906     		.2byte	0x6b9
 4104 1638 FB030000 		.4byte	0x3fb
 4105 163c 00       		.byte	0
 4106 163d 25       		.uleb128 0x25
 4107 163e 48050000 		.4byte	.LASF456
 4108 1642 03       		.byte	0x3
 4109 1643 9506     		.2byte	0x695
 4110 1645 03       		.byte	0x3
 4111 1646 57160000 		.4byte	0x1657
 4112 164a 26       		.uleb128 0x26
 4113 164b D6050000 		.4byte	.LASF455
 4114 164f 03       		.byte	0x3
 4115 1650 9506     		.2byte	0x695
 4116 1652 FB030000 		.4byte	0x3fb
 4117 1656 00       		.byte	0
 4118 1657 27       		.uleb128 0x27
 4119 1658 520C0000 		.4byte	.LASF462
 4120 165c 01       		.byte	0x1
 4121 165d 21       		.byte	0x21
 4122 165e 00000000 		.4byte	.LFB699
 4123 1662 98010000 		.4byte	.LFE699-.LFB699
 4124 1666 01       		.uleb128 0x1
 4125 1667 9C       		.byte	0x9c
 4126 1668 5F1A0000 		.4byte	0x1a5f
 4127 166c 28       		.uleb128 0x28
 4128 166d 6E00     		.ascii	"n\000"
 4129 166f 01       		.byte	0x1
 4130 1670 21       		.byte	0x21
 4131 1671 2C000000 		.4byte	0x2c
 4132 1675 00000000 		.4byte	.LLST0
 4133 1679 29       		.uleb128 0x29
 4134 167a 08000000 		.4byte	.LVL1
 4135 167e A1250000 		.4byte	0x25a1
 4136 1682 2A       		.uleb128 0x2a
 4137 1683 0E000000 		.4byte	.LVL2
 4138 1687 AD250000 		.4byte	0x25ad
 4139 168b 95160000 		.4byte	0x1695
 4140 168f 2B       		.uleb128 0x2b
ARM GAS  C:\Users\nicpa\AppData\Local\Temp\ccPr5feD.s 			page 143


 4141 1690 01       		.uleb128 0x1
 4142 1691 50       		.byte	0x50
 4143 1692 01       		.uleb128 0x1
 4144 1693 32       		.byte	0x32
 4145 1694 00       		.byte	0
 4146 1695 2A       		.uleb128 0x2a
 4147 1696 14000000 		.4byte	.LVL3
 4148 169a B9250000 		.4byte	0x25b9
 4149 169e A8160000 		.4byte	0x16a8
 4150 16a2 2B       		.uleb128 0x2b
 4151 16a3 01       		.uleb128 0x1
 4152 16a4 50       		.byte	0x50
 4153 16a5 01       		.uleb128 0x1
 4154 16a6 30       		.byte	0x30
 4155 16a7 00       		.byte	0
 4156 16a8 2A       		.uleb128 0x2a
 4157 16a9 1C000000 		.4byte	.LVL4
 4158 16ad C5250000 		.4byte	0x25c5
 4159 16b1 BF160000 		.4byte	0x16bf
 4160 16b5 2B       		.uleb128 0x2b
 4161 16b6 01       		.uleb128 0x1
 4162 16b7 50       		.byte	0x50
 4163 16b8 05       		.uleb128 0x5
 4164 16b9 0C       		.byte	0xc
 4165 16ba FFFFFF00 		.4byte	0xffffff
 4166 16be 00       		.byte	0
 4167 16bf 2A       		.uleb128 0x2a
 4168 16c0 2A000000 		.4byte	.LVL5
 4169 16c4 D1250000 		.4byte	0x25d1
 4170 16c8 E4160000 		.4byte	0x16e4
 4171 16cc 2B       		.uleb128 0x2b
 4172 16cd 01       		.uleb128 0x1
 4173 16ce 50       		.byte	0x50
 4174 16cf 01       		.uleb128 0x1
 4175 16d0 31       		.byte	0x31
 4176 16d1 2B       		.uleb128 0x2b
 4177 16d2 01       		.uleb128 0x1
 4178 16d3 51       		.byte	0x51
 4179 16d4 01       		.uleb128 0x1
 4180 16d5 31       		.byte	0x31
 4181 16d6 2B       		.uleb128 0x2b
 4182 16d7 01       		.uleb128 0x1
 4183 16d8 52       		.byte	0x52
 4184 16d9 03       		.uleb128 0x3
 4185 16da 0A       		.byte	0xa
 4186 16db 0701     		.2byte	0x107
 4187 16dd 2B       		.uleb128 0x2b
 4188 16de 01       		.uleb128 0x1
 4189 16df 53       		.byte	0x53
 4190 16e0 02       		.uleb128 0x2
 4191 16e1 08       		.byte	0x8
 4192 16e2 AF       		.byte	0xaf
 4193 16e3 00       		.byte	0
 4194 16e4 2A       		.uleb128 0x2a
 4195 16e5 30000000 		.4byte	.LVL6
 4196 16e9 AD250000 		.4byte	0x25ad
 4197 16ed F7160000 		.4byte	0x16f7
ARM GAS  C:\Users\nicpa\AppData\Local\Temp\ccPr5feD.s 			page 144


 4198 16f1 2B       		.uleb128 0x2b
 4199 16f2 01       		.uleb128 0x1
 4200 16f3 50       		.byte	0x50
 4201 16f4 01       		.uleb128 0x1
 4202 16f5 32       		.byte	0x32
 4203 16f6 00       		.byte	0
 4204 16f7 2A       		.uleb128 0x2a
 4205 16f8 3C000000 		.4byte	.LVL7
 4206 16fc DD250000 		.4byte	0x25dd
 4207 1700 1B170000 		.4byte	0x171b
 4208 1704 2B       		.uleb128 0x2b
 4209 1705 01       		.uleb128 0x1
 4210 1706 50       		.byte	0x50
 4211 1707 02       		.uleb128 0x2
 4212 1708 08       		.byte	0x8
 4213 1709 5F       		.byte	0x5f
 4214 170a 2B       		.uleb128 0x2b
 4215 170b 01       		.uleb128 0x1
 4216 170c 51       		.byte	0x51
 4217 170d 01       		.uleb128 0x1
 4218 170e 4E       		.byte	0x4e
 4219 170f 2B       		.uleb128 0x2b
 4220 1710 01       		.uleb128 0x1
 4221 1711 52       		.byte	0x52
 4222 1712 02       		.uleb128 0x2
 4223 1713 08       		.byte	0x8
 4224 1714 AA       		.byte	0xaa
 4225 1715 2B       		.uleb128 0x2b
 4226 1716 01       		.uleb128 0x1
 4227 1717 53       		.byte	0x53
 4228 1718 01       		.uleb128 0x1
 4229 1719 4E       		.byte	0x4e
 4230 171a 00       		.byte	0
 4231 171b 2A       		.uleb128 0x2a
 4232 171c 42000000 		.4byte	.LVL8
 4233 1720 B9250000 		.4byte	0x25b9
 4234 1724 2E170000 		.4byte	0x172e
 4235 1728 2B       		.uleb128 0x2b
 4236 1729 01       		.uleb128 0x1
 4237 172a 50       		.byte	0x50
 4238 172b 01       		.uleb128 0x1
 4239 172c 30       		.byte	0x30
 4240 172d 00       		.byte	0
 4241 172e 2A       		.uleb128 0x2a
 4242 172f 4A000000 		.4byte	.LVL9
 4243 1733 C5250000 		.4byte	0x25c5
 4244 1737 45170000 		.4byte	0x1745
 4245 173b 2B       		.uleb128 0x2b
 4246 173c 01       		.uleb128 0x1
 4247 173d 50       		.byte	0x50
 4248 173e 05       		.uleb128 0x5
 4249 173f 0C       		.byte	0xc
 4250 1740 FFFFFF00 		.4byte	0xffffff
 4251 1744 00       		.byte	0
 4252 1745 29       		.uleb128 0x29
 4253 1746 50000000 		.4byte	.LVL10
 4254 174a E9250000 		.4byte	0x25e9
ARM GAS  C:\Users\nicpa\AppData\Local\Temp\ccPr5feD.s 			page 145


 4255 174e 2A       		.uleb128 0x2a
 4256 174f 56000000 		.4byte	.LVL11
 4257 1753 F5250000 		.4byte	0x25f5
 4258 1757 61170000 		.4byte	0x1761
 4259 175b 2B       		.uleb128 0x2b
 4260 175c 01       		.uleb128 0x1
 4261 175d 50       		.byte	0x50
 4262 175e 01       		.uleb128 0x1
 4263 175f 32       		.byte	0x32
 4264 1760 00       		.byte	0
 4265 1761 2A       		.uleb128 0x2a
 4266 1762 60000000 		.4byte	.LVL12
 4267 1766 01260000 		.4byte	0x2601
 4268 176a 83170000 		.4byte	0x1783
 4269 176e 2B       		.uleb128 0x2b
 4270 176f 01       		.uleb128 0x1
 4271 1770 50       		.byte	0x50
 4272 1771 05       		.uleb128 0x5
 4273 1772 03       		.byte	0x3
 4274 1773 00000000 		.4byte	.LC0
 4275 1777 2B       		.uleb128 0x2b
 4276 1778 01       		.uleb128 0x1
 4277 1779 51       		.byte	0x51
 4278 177a 02       		.uleb128 0x2
 4279 177b 08       		.byte	0x8
 4280 177c 87       		.byte	0x87
 4281 177d 2B       		.uleb128 0x2b
 4282 177e 01       		.uleb128 0x1
 4283 177f 52       		.byte	0x52
 4284 1780 01       		.uleb128 0x1
 4285 1781 35       		.byte	0x35
 4286 1782 00       		.byte	0
 4287 1783 29       		.uleb128 0x29
 4288 1784 66000000 		.4byte	.LVL13
 4289 1788 E9250000 		.4byte	0x25e9
 4290 178c 2A       		.uleb128 0x2a
 4291 178d 76000000 		.4byte	.LVL14
 4292 1791 01260000 		.4byte	0x2601
 4293 1795 AF170000 		.4byte	0x17af
 4294 1799 2B       		.uleb128 0x2b
 4295 179a 01       		.uleb128 0x1
 4296 179b 50       		.byte	0x50
 4297 179c 05       		.uleb128 0x5
 4298 179d 03       		.byte	0x3
 4299 179e 08000000 		.4byte	.LC1
 4300 17a2 2B       		.uleb128 0x2b
 4301 17a3 01       		.uleb128 0x1
 4302 17a4 51       		.byte	0x51
 4303 17a5 02       		.uleb128 0x2
 4304 17a6 08       		.byte	0x8
 4305 17a7 FA       		.byte	0xfa
 4306 17a8 2B       		.uleb128 0x2b
 4307 17a9 01       		.uleb128 0x1
 4308 17aa 52       		.byte	0x52
 4309 17ab 02       		.uleb128 0x2
 4310 17ac 08       		.byte	0x8
 4311 17ad 9B       		.byte	0x9b
ARM GAS  C:\Users\nicpa\AppData\Local\Temp\ccPr5feD.s 			page 146


 4312 17ae 00       		.byte	0
 4313 17af 2A       		.uleb128 0x2a
 4314 17b0 82000000 		.4byte	.LVL15
 4315 17b4 01260000 		.4byte	0x2601
 4316 17b8 D2170000 		.4byte	0x17d2
 4317 17bc 2B       		.uleb128 0x2b
 4318 17bd 01       		.uleb128 0x1
 4319 17be 50       		.byte	0x50
 4320 17bf 05       		.uleb128 0x5
 4321 17c0 03       		.byte	0x3
 4322 17c1 0C000000 		.4byte	.LC2
 4323 17c5 2B       		.uleb128 0x2b
 4324 17c6 01       		.uleb128 0x1
 4325 17c7 51       		.byte	0x51
 4326 17c8 02       		.uleb128 0x2
 4327 17c9 08       		.byte	0x8
 4328 17ca FA       		.byte	0xfa
 4329 17cb 2B       		.uleb128 0x2b
 4330 17cc 01       		.uleb128 0x1
 4331 17cd 52       		.byte	0x52
 4332 17ce 02       		.uleb128 0x2
 4333 17cf 08       		.byte	0x8
 4334 17d0 9B       		.byte	0x9b
 4335 17d1 00       		.byte	0
 4336 17d2 29       		.uleb128 0x29
 4337 17d3 8C000000 		.4byte	.LVL16
 4338 17d7 E9250000 		.4byte	0x25e9
 4339 17db 2A       		.uleb128 0x2a
 4340 17dc 96000000 		.4byte	.LVL17
 4341 17e0 01260000 		.4byte	0x2601
 4342 17e4 FE170000 		.4byte	0x17fe
 4343 17e8 2B       		.uleb128 0x2b
 4344 17e9 01       		.uleb128 0x1
 4345 17ea 50       		.byte	0x50
 4346 17eb 05       		.uleb128 0x5
 4347 17ec 03       		.byte	0x3
 4348 17ed 10000000 		.4byte	.LC3
 4349 17f1 2B       		.uleb128 0x2b
 4350 17f2 01       		.uleb128 0x1
 4351 17f3 51       		.byte	0x51
 4352 17f4 02       		.uleb128 0x2
 4353 17f5 08       		.byte	0x8
 4354 17f6 28       		.byte	0x28
 4355 17f7 2B       		.uleb128 0x2b
 4356 17f8 01       		.uleb128 0x1
 4357 17f9 52       		.byte	0x52
 4358 17fa 02       		.uleb128 0x2
 4359 17fb 08       		.byte	0x8
 4360 17fc 28       		.byte	0x28
 4361 17fd 00       		.byte	0
 4362 17fe 29       		.uleb128 0x29
 4363 17ff 9C000000 		.4byte	.LVL18
 4364 1803 E9250000 		.4byte	0x25e9
 4365 1807 2A       		.uleb128 0x2a
 4366 1808 A6000000 		.4byte	.LVL19
 4367 180c 01260000 		.4byte	0x2601
 4368 1810 2A180000 		.4byte	0x182a
ARM GAS  C:\Users\nicpa\AppData\Local\Temp\ccPr5feD.s 			page 147


 4369 1814 2B       		.uleb128 0x2b
 4370 1815 01       		.uleb128 0x1
 4371 1816 50       		.byte	0x50
 4372 1817 05       		.uleb128 0x5
 4373 1818 03       		.byte	0x3
 4374 1819 28000000 		.4byte	.LC4
 4375 181d 2B       		.uleb128 0x2b
 4376 181e 01       		.uleb128 0x1
 4377 181f 51       		.byte	0x51
 4378 1820 02       		.uleb128 0x2
 4379 1821 08       		.byte	0x8
 4380 1822 28       		.byte	0x28
 4381 1823 2B       		.uleb128 0x2b
 4382 1824 01       		.uleb128 0x1
 4383 1825 52       		.byte	0x52
 4384 1826 02       		.uleb128 0x2
 4385 1827 08       		.byte	0x8
 4386 1828 4B       		.byte	0x4b
 4387 1829 00       		.byte	0
 4388 182a 2A       		.uleb128 0x2a
 4389 182b B0000000 		.4byte	.LVL20
 4390 182f 01260000 		.4byte	0x2601
 4391 1833 4D180000 		.4byte	0x184d
 4392 1837 2B       		.uleb128 0x2b
 4393 1838 01       		.uleb128 0x1
 4394 1839 50       		.byte	0x50
 4395 183a 05       		.uleb128 0x5
 4396 183b 03       		.byte	0x3
 4397 183c 44000000 		.4byte	.LC5
 4398 1840 2B       		.uleb128 0x2b
 4399 1841 01       		.uleb128 0x1
 4400 1842 51       		.byte	0x51
 4401 1843 02       		.uleb128 0x2
 4402 1844 08       		.byte	0x8
 4403 1845 28       		.byte	0x28
 4404 1846 2B       		.uleb128 0x2b
 4405 1847 01       		.uleb128 0x1
 4406 1848 52       		.byte	0x52
 4407 1849 02       		.uleb128 0x2
 4408 184a 08       		.byte	0x8
 4409 184b 6E       		.byte	0x6e
 4410 184c 00       		.byte	0
 4411 184d 2A       		.uleb128 0x2a
 4412 184e BA000000 		.4byte	.LVL21
 4413 1852 01260000 		.4byte	0x2601
 4414 1856 70180000 		.4byte	0x1870
 4415 185a 2B       		.uleb128 0x2b
 4416 185b 01       		.uleb128 0x1
 4417 185c 50       		.byte	0x50
 4418 185d 05       		.uleb128 0x5
 4419 185e 03       		.byte	0x3
 4420 185f 5C000000 		.4byte	.LC6
 4421 1863 2B       		.uleb128 0x2b
 4422 1864 01       		.uleb128 0x1
 4423 1865 51       		.byte	0x51
 4424 1866 02       		.uleb128 0x2
 4425 1867 08       		.byte	0x8
ARM GAS  C:\Users\nicpa\AppData\Local\Temp\ccPr5feD.s 			page 148


 4426 1868 28       		.byte	0x28
 4427 1869 2B       		.uleb128 0x2b
 4428 186a 01       		.uleb128 0x1
 4429 186b 52       		.byte	0x52
 4430 186c 02       		.uleb128 0x2
 4431 186d 08       		.byte	0x8
 4432 186e 91       		.byte	0x91
 4433 186f 00       		.byte	0
 4434 1870 29       		.uleb128 0x29
 4435 1871 C4000000 		.4byte	.LVL22
 4436 1875 E9250000 		.4byte	0x25e9
 4437 1879 2A       		.uleb128 0x2a
 4438 187a CE000000 		.4byte	.LVL23
 4439 187e 01260000 		.4byte	0x2601
 4440 1882 9C180000 		.4byte	0x189c
 4441 1886 2B       		.uleb128 0x2b
 4442 1887 01       		.uleb128 0x1
 4443 1888 50       		.byte	0x50
 4444 1889 05       		.uleb128 0x5
 4445 188a 03       		.byte	0x3
 4446 188b 28000000 		.4byte	.LC4
 4447 188f 2B       		.uleb128 0x2b
 4448 1890 01       		.uleb128 0x1
 4449 1891 51       		.byte	0x51
 4450 1892 02       		.uleb128 0x2
 4451 1893 08       		.byte	0x8
 4452 1894 28       		.byte	0x28
 4453 1895 2B       		.uleb128 0x2b
 4454 1896 01       		.uleb128 0x1
 4455 1897 52       		.byte	0x52
 4456 1898 02       		.uleb128 0x2
 4457 1899 08       		.byte	0x8
 4458 189a 4B       		.byte	0x4b
 4459 189b 00       		.byte	0
 4460 189c 29       		.uleb128 0x29
 4461 189d D4000000 		.4byte	.LVL24
 4462 18a1 E9250000 		.4byte	0x25e9
 4463 18a5 2A       		.uleb128 0x2a
 4464 18a6 DE000000 		.4byte	.LVL25
 4465 18aa 01260000 		.4byte	0x2601
 4466 18ae C8180000 		.4byte	0x18c8
 4467 18b2 2B       		.uleb128 0x2b
 4468 18b3 01       		.uleb128 0x1
 4469 18b4 50       		.byte	0x50
 4470 18b5 05       		.uleb128 0x5
 4471 18b6 03       		.byte	0x3
 4472 18b7 10000000 		.4byte	.LC3
 4473 18bb 2B       		.uleb128 0x2b
 4474 18bc 01       		.uleb128 0x1
 4475 18bd 51       		.byte	0x51
 4476 18be 02       		.uleb128 0x2
 4477 18bf 08       		.byte	0x8
 4478 18c0 28       		.byte	0x28
 4479 18c1 2B       		.uleb128 0x2b
 4480 18c2 01       		.uleb128 0x1
 4481 18c3 52       		.byte	0x52
 4482 18c4 02       		.uleb128 0x2
ARM GAS  C:\Users\nicpa\AppData\Local\Temp\ccPr5feD.s 			page 149


 4483 18c5 08       		.byte	0x8
 4484 18c6 28       		.byte	0x28
 4485 18c7 00       		.byte	0
 4486 18c8 2A       		.uleb128 0x2a
 4487 18c9 E8000000 		.4byte	.LVL26
 4488 18cd 01260000 		.4byte	0x2601
 4489 18d1 EB180000 		.4byte	0x18eb
 4490 18d5 2B       		.uleb128 0x2b
 4491 18d6 01       		.uleb128 0x1
 4492 18d7 50       		.byte	0x50
 4493 18d8 05       		.uleb128 0x5
 4494 18d9 03       		.byte	0x3
 4495 18da 44000000 		.4byte	.LC5
 4496 18de 2B       		.uleb128 0x2b
 4497 18df 01       		.uleb128 0x1
 4498 18e0 51       		.byte	0x51
 4499 18e1 02       		.uleb128 0x2
 4500 18e2 08       		.byte	0x8
 4501 18e3 28       		.byte	0x28
 4502 18e4 2B       		.uleb128 0x2b
 4503 18e5 01       		.uleb128 0x1
 4504 18e6 52       		.byte	0x52
 4505 18e7 02       		.uleb128 0x2
 4506 18e8 08       		.byte	0x8
 4507 18e9 6E       		.byte	0x6e
 4508 18ea 00       		.byte	0
 4509 18eb 2A       		.uleb128 0x2a
 4510 18ec F2000000 		.4byte	.LVL27
 4511 18f0 01260000 		.4byte	0x2601
 4512 18f4 0E190000 		.4byte	0x190e
 4513 18f8 2B       		.uleb128 0x2b
 4514 18f9 01       		.uleb128 0x1
 4515 18fa 50       		.byte	0x50
 4516 18fb 05       		.uleb128 0x5
 4517 18fc 03       		.byte	0x3
 4518 18fd 5C000000 		.4byte	.LC6
 4519 1901 2B       		.uleb128 0x2b
 4520 1902 01       		.uleb128 0x1
 4521 1903 51       		.byte	0x51
 4522 1904 02       		.uleb128 0x2
 4523 1905 08       		.byte	0x8
 4524 1906 28       		.byte	0x28
 4525 1907 2B       		.uleb128 0x2b
 4526 1908 01       		.uleb128 0x1
 4527 1909 52       		.byte	0x52
 4528 190a 02       		.uleb128 0x2
 4529 190b 08       		.byte	0x8
 4530 190c 91       		.byte	0x91
 4531 190d 00       		.byte	0
 4532 190e 29       		.uleb128 0x29
 4533 190f FC000000 		.4byte	.LVL28
 4534 1913 E9250000 		.4byte	0x25e9
 4535 1917 2A       		.uleb128 0x2a
 4536 1918 06010000 		.4byte	.LVL29
 4537 191c 01260000 		.4byte	0x2601
 4538 1920 3A190000 		.4byte	0x193a
 4539 1924 2B       		.uleb128 0x2b
ARM GAS  C:\Users\nicpa\AppData\Local\Temp\ccPr5feD.s 			page 150


 4540 1925 01       		.uleb128 0x1
 4541 1926 50       		.byte	0x50
 4542 1927 05       		.uleb128 0x5
 4543 1928 03       		.byte	0x3
 4544 1929 44000000 		.4byte	.LC5
 4545 192d 2B       		.uleb128 0x2b
 4546 192e 01       		.uleb128 0x1
 4547 192f 51       		.byte	0x51
 4548 1930 02       		.uleb128 0x2
 4549 1931 08       		.byte	0x8
 4550 1932 28       		.byte	0x28
 4551 1933 2B       		.uleb128 0x2b
 4552 1934 01       		.uleb128 0x1
 4553 1935 52       		.byte	0x52
 4554 1936 02       		.uleb128 0x2
 4555 1937 08       		.byte	0x8
 4556 1938 6E       		.byte	0x6e
 4557 1939 00       		.byte	0
 4558 193a 29       		.uleb128 0x29
 4559 193b 0C010000 		.4byte	.LVL30
 4560 193f E9250000 		.4byte	0x25e9
 4561 1943 2A       		.uleb128 0x2a
 4562 1944 16010000 		.4byte	.LVL31
 4563 1948 01260000 		.4byte	0x2601
 4564 194c 66190000 		.4byte	0x1966
 4565 1950 2B       		.uleb128 0x2b
 4566 1951 01       		.uleb128 0x1
 4567 1952 50       		.byte	0x50
 4568 1953 05       		.uleb128 0x5
 4569 1954 03       		.byte	0x3
 4570 1955 10000000 		.4byte	.LC3
 4571 1959 2B       		.uleb128 0x2b
 4572 195a 01       		.uleb128 0x1
 4573 195b 51       		.byte	0x51
 4574 195c 02       		.uleb128 0x2
 4575 195d 08       		.byte	0x8
 4576 195e 28       		.byte	0x28
 4577 195f 2B       		.uleb128 0x2b
 4578 1960 01       		.uleb128 0x1
 4579 1961 52       		.byte	0x52
 4580 1962 02       		.uleb128 0x2
 4581 1963 08       		.byte	0x8
 4582 1964 28       		.byte	0x28
 4583 1965 00       		.byte	0
 4584 1966 2A       		.uleb128 0x2a
 4585 1967 20010000 		.4byte	.LVL32
 4586 196b 01260000 		.4byte	0x2601
 4587 196f 89190000 		.4byte	0x1989
 4588 1973 2B       		.uleb128 0x2b
 4589 1974 01       		.uleb128 0x1
 4590 1975 50       		.byte	0x50
 4591 1976 05       		.uleb128 0x5
 4592 1977 03       		.byte	0x3
 4593 1978 28000000 		.4byte	.LC4
 4594 197c 2B       		.uleb128 0x2b
 4595 197d 01       		.uleb128 0x1
 4596 197e 51       		.byte	0x51
ARM GAS  C:\Users\nicpa\AppData\Local\Temp\ccPr5feD.s 			page 151


 4597 197f 02       		.uleb128 0x2
 4598 1980 08       		.byte	0x8
 4599 1981 28       		.byte	0x28
 4600 1982 2B       		.uleb128 0x2b
 4601 1983 01       		.uleb128 0x1
 4602 1984 52       		.byte	0x52
 4603 1985 02       		.uleb128 0x2
 4604 1986 08       		.byte	0x8
 4605 1987 4B       		.byte	0x4b
 4606 1988 00       		.byte	0
 4607 1989 2A       		.uleb128 0x2a
 4608 198a 2A010000 		.4byte	.LVL33
 4609 198e 01260000 		.4byte	0x2601
 4610 1992 AC190000 		.4byte	0x19ac
 4611 1996 2B       		.uleb128 0x2b
 4612 1997 01       		.uleb128 0x1
 4613 1998 50       		.byte	0x50
 4614 1999 05       		.uleb128 0x5
 4615 199a 03       		.byte	0x3
 4616 199b 5C000000 		.4byte	.LC6
 4617 199f 2B       		.uleb128 0x2b
 4618 19a0 01       		.uleb128 0x1
 4619 19a1 51       		.byte	0x51
 4620 19a2 02       		.uleb128 0x2
 4621 19a3 08       		.byte	0x8
 4622 19a4 28       		.byte	0x28
 4623 19a5 2B       		.uleb128 0x2b
 4624 19a6 01       		.uleb128 0x1
 4625 19a7 52       		.byte	0x52
 4626 19a8 02       		.uleb128 0x2
 4627 19a9 08       		.byte	0x8
 4628 19aa 91       		.byte	0x91
 4629 19ab 00       		.byte	0
 4630 19ac 29       		.uleb128 0x29
 4631 19ad 34010000 		.4byte	.LVL34
 4632 19b1 E9250000 		.4byte	0x25e9
 4633 19b5 2A       		.uleb128 0x2a
 4634 19b6 3E010000 		.4byte	.LVL35
 4635 19ba 01260000 		.4byte	0x2601
 4636 19be D8190000 		.4byte	0x19d8
 4637 19c2 2B       		.uleb128 0x2b
 4638 19c3 01       		.uleb128 0x1
 4639 19c4 50       		.byte	0x50
 4640 19c5 05       		.uleb128 0x5
 4641 19c6 03       		.byte	0x3
 4642 19c7 10000000 		.4byte	.LC3
 4643 19cb 2B       		.uleb128 0x2b
 4644 19cc 01       		.uleb128 0x1
 4645 19cd 51       		.byte	0x51
 4646 19ce 02       		.uleb128 0x2
 4647 19cf 08       		.byte	0x8
 4648 19d0 28       		.byte	0x28
 4649 19d1 2B       		.uleb128 0x2b
 4650 19d2 01       		.uleb128 0x1
 4651 19d3 52       		.byte	0x52
 4652 19d4 02       		.uleb128 0x2
 4653 19d5 08       		.byte	0x8
ARM GAS  C:\Users\nicpa\AppData\Local\Temp\ccPr5feD.s 			page 152


 4654 19d6 28       		.byte	0x28
 4655 19d7 00       		.byte	0
 4656 19d8 2A       		.uleb128 0x2a
 4657 19d9 48010000 		.4byte	.LVL36
 4658 19dd 01260000 		.4byte	0x2601
 4659 19e1 FB190000 		.4byte	0x19fb
 4660 19e5 2B       		.uleb128 0x2b
 4661 19e6 01       		.uleb128 0x1
 4662 19e7 50       		.byte	0x50
 4663 19e8 05       		.uleb128 0x5
 4664 19e9 03       		.byte	0x3
 4665 19ea 28000000 		.4byte	.LC4
 4666 19ee 2B       		.uleb128 0x2b
 4667 19ef 01       		.uleb128 0x1
 4668 19f0 51       		.byte	0x51
 4669 19f1 02       		.uleb128 0x2
 4670 19f2 08       		.byte	0x8
 4671 19f3 28       		.byte	0x28
 4672 19f4 2B       		.uleb128 0x2b
 4673 19f5 01       		.uleb128 0x1
 4674 19f6 52       		.byte	0x52
 4675 19f7 02       		.uleb128 0x2
 4676 19f8 08       		.byte	0x8
 4677 19f9 4B       		.byte	0x4b
 4678 19fa 00       		.byte	0
 4679 19fb 2A       		.uleb128 0x2a
 4680 19fc 52010000 		.4byte	.LVL37
 4681 1a00 01260000 		.4byte	0x2601
 4682 1a04 1E1A0000 		.4byte	0x1a1e
 4683 1a08 2B       		.uleb128 0x2b
 4684 1a09 01       		.uleb128 0x1
 4685 1a0a 50       		.byte	0x50
 4686 1a0b 05       		.uleb128 0x5
 4687 1a0c 03       		.byte	0x3
 4688 1a0d 44000000 		.4byte	.LC5
 4689 1a11 2B       		.uleb128 0x2b
 4690 1a12 01       		.uleb128 0x1
 4691 1a13 51       		.byte	0x51
 4692 1a14 02       		.uleb128 0x2
 4693 1a15 08       		.byte	0x8
 4694 1a16 28       		.byte	0x28
 4695 1a17 2B       		.uleb128 0x2b
 4696 1a18 01       		.uleb128 0x1
 4697 1a19 52       		.byte	0x52
 4698 1a1a 02       		.uleb128 0x2
 4699 1a1b 08       		.byte	0x8
 4700 1a1c 6E       		.byte	0x6e
 4701 1a1d 00       		.byte	0
 4702 1a1e 29       		.uleb128 0x29
 4703 1a1f 58010000 		.4byte	.LVL38
 4704 1a23 E9250000 		.4byte	0x25e9
 4705 1a27 2A       		.uleb128 0x2a
 4706 1a28 62010000 		.4byte	.LVL39
 4707 1a2c 01260000 		.4byte	0x2601
 4708 1a30 4A1A0000 		.4byte	0x1a4a
 4709 1a34 2B       		.uleb128 0x2b
 4710 1a35 01       		.uleb128 0x1
ARM GAS  C:\Users\nicpa\AppData\Local\Temp\ccPr5feD.s 			page 153


 4711 1a36 50       		.byte	0x50
 4712 1a37 05       		.uleb128 0x5
 4713 1a38 03       		.byte	0x3
 4714 1a39 5C000000 		.4byte	.LC6
 4715 1a3d 2B       		.uleb128 0x2b
 4716 1a3e 01       		.uleb128 0x1
 4717 1a3f 51       		.byte	0x51
 4718 1a40 02       		.uleb128 0x2
 4719 1a41 08       		.byte	0x8
 4720 1a42 28       		.byte	0x28
 4721 1a43 2B       		.uleb128 0x2b
 4722 1a44 01       		.uleb128 0x1
 4723 1a45 52       		.byte	0x52
 4724 1a46 02       		.uleb128 0x2
 4725 1a47 08       		.byte	0x8
 4726 1a48 91       		.byte	0x91
 4727 1a49 00       		.byte	0
 4728 1a4a 2C       		.uleb128 0x2c
 4729 1a4b 6A010000 		.4byte	.LVL40
 4730 1a4f 0D260000 		.4byte	0x260d
 4731 1a53 2B       		.uleb128 0x2b
 4732 1a54 01       		.uleb128 0x1
 4733 1a55 50       		.byte	0x50
 4734 1a56 01       		.uleb128 0x1
 4735 1a57 32       		.byte	0x32
 4736 1a58 2B       		.uleb128 0x2b
 4737 1a59 01       		.uleb128 0x1
 4738 1a5a 51       		.byte	0x51
 4739 1a5b 01       		.uleb128 0x1
 4740 1a5c 31       		.byte	0x31
 4741 1a5d 00       		.byte	0
 4742 1a5e 00       		.byte	0
 4743 1a5f 2D       		.uleb128 0x2d
 4744 1a60 C00C0000 		.4byte	.LASF457
 4745 1a64 01       		.byte	0x1
 4746 1a65 86       		.byte	0x86
 4747 1a66 00000000 		.4byte	.LFB700
 4748 1a6a 9C000000 		.4byte	.LFE700-.LFB700
 4749 1a6e 01       		.uleb128 0x1
 4750 1a6f 9C       		.byte	0x9c
 4751 1a70 B51B0000 		.4byte	0x1bb5
 4752 1a74 2E       		.uleb128 0x2e
 4753 1a75 771A0000 		.4byte	.LASF459
 4754 1a79 01       		.byte	0x1
 4755 1a7a 98       		.byte	0x98
 4756 1a7b B51B0000 		.4byte	0x1bb5
 4757 1a7f 02       		.uleb128 0x2
 4758 1a80 91       		.byte	0x91
 4759 1a81 74       		.sleb128 -12
 4760 1a82 29       		.uleb128 0x29
 4761 1a83 08000000 		.4byte	.LVL42
 4762 1a87 A1250000 		.4byte	0x25a1
 4763 1a8b 2A       		.uleb128 0x2a
 4764 1a8c 0E000000 		.4byte	.LVL43
 4765 1a90 AD250000 		.4byte	0x25ad
 4766 1a94 9E1A0000 		.4byte	0x1a9e
 4767 1a98 2B       		.uleb128 0x2b
ARM GAS  C:\Users\nicpa\AppData\Local\Temp\ccPr5feD.s 			page 154


 4768 1a99 01       		.uleb128 0x1
 4769 1a9a 50       		.byte	0x50
 4770 1a9b 01       		.uleb128 0x1
 4771 1a9c 32       		.byte	0x32
 4772 1a9d 00       		.byte	0
 4773 1a9e 2A       		.uleb128 0x2a
 4774 1a9f 14000000 		.4byte	.LVL44
 4775 1aa3 B9250000 		.4byte	0x25b9
 4776 1aa7 B11A0000 		.4byte	0x1ab1
 4777 1aab 2B       		.uleb128 0x2b
 4778 1aac 01       		.uleb128 0x1
 4779 1aad 50       		.byte	0x50
 4780 1aae 01       		.uleb128 0x1
 4781 1aaf 30       		.byte	0x30
 4782 1ab0 00       		.byte	0
 4783 1ab1 2A       		.uleb128 0x2a
 4784 1ab2 1C000000 		.4byte	.LVL45
 4785 1ab6 C5250000 		.4byte	0x25c5
 4786 1aba C81A0000 		.4byte	0x1ac8
 4787 1abe 2B       		.uleb128 0x2b
 4788 1abf 01       		.uleb128 0x1
 4789 1ac0 50       		.byte	0x50
 4790 1ac1 05       		.uleb128 0x5
 4791 1ac2 0C       		.byte	0xc
 4792 1ac3 FFFFFF00 		.4byte	0xffffff
 4793 1ac7 00       		.byte	0
 4794 1ac8 2A       		.uleb128 0x2a
 4795 1ac9 2A000000 		.4byte	.LVL46
 4796 1acd D1250000 		.4byte	0x25d1
 4797 1ad1 ED1A0000 		.4byte	0x1aed
 4798 1ad5 2B       		.uleb128 0x2b
 4799 1ad6 01       		.uleb128 0x1
 4800 1ad7 50       		.byte	0x50
 4801 1ad8 01       		.uleb128 0x1
 4802 1ad9 31       		.byte	0x31
 4803 1ada 2B       		.uleb128 0x2b
 4804 1adb 01       		.uleb128 0x1
 4805 1adc 51       		.byte	0x51
 4806 1add 01       		.uleb128 0x1
 4807 1ade 31       		.byte	0x31
 4808 1adf 2B       		.uleb128 0x2b
 4809 1ae0 01       		.uleb128 0x1
 4810 1ae1 52       		.byte	0x52
 4811 1ae2 03       		.uleb128 0x3
 4812 1ae3 0A       		.byte	0xa
 4813 1ae4 0701     		.2byte	0x107
 4814 1ae6 2B       		.uleb128 0x2b
 4815 1ae7 01       		.uleb128 0x1
 4816 1ae8 53       		.byte	0x53
 4817 1ae9 02       		.uleb128 0x2
 4818 1aea 08       		.byte	0x8
 4819 1aeb AF       		.byte	0xaf
 4820 1aec 00       		.byte	0
 4821 1aed 2A       		.uleb128 0x2a
 4822 1aee 36000000 		.4byte	.LVL47
 4823 1af2 D1250000 		.4byte	0x25d1
 4824 1af6 131B0000 		.4byte	0x1b13
ARM GAS  C:\Users\nicpa\AppData\Local\Temp\ccPr5feD.s 			page 155


 4825 1afa 2B       		.uleb128 0x2b
 4826 1afb 01       		.uleb128 0x1
 4827 1afc 50       		.byte	0x50
 4828 1afd 02       		.uleb128 0x2
 4829 1afe 08       		.byte	0x8
 4830 1aff 5F       		.byte	0x5f
 4831 1b00 2B       		.uleb128 0x2b
 4832 1b01 01       		.uleb128 0x1
 4833 1b02 51       		.byte	0x51
 4834 1b03 02       		.uleb128 0x2
 4835 1b04 08       		.byte	0x8
 4836 1b05 46       		.byte	0x46
 4837 1b06 2B       		.uleb128 0x2b
 4838 1b07 01       		.uleb128 0x1
 4839 1b08 52       		.byte	0x52
 4840 1b09 02       		.uleb128 0x2
 4841 1b0a 08       		.byte	0x8
 4842 1b0b A0       		.byte	0xa0
 4843 1b0c 2B       		.uleb128 0x2b
 4844 1b0d 01       		.uleb128 0x1
 4845 1b0e 53       		.byte	0x53
 4846 1b0f 02       		.uleb128 0x2
 4847 1b10 08       		.byte	0x8
 4848 1b11 78       		.byte	0x78
 4849 1b12 00       		.byte	0
 4850 1b13 29       		.uleb128 0x29
 4851 1b14 3C000000 		.4byte	.LVL48
 4852 1b18 E9250000 		.4byte	0x25e9
 4853 1b1c 2A       		.uleb128 0x2a
 4854 1b1d 42000000 		.4byte	.LVL49
 4855 1b21 F5250000 		.4byte	0x25f5
 4856 1b25 2F1B0000 		.4byte	0x1b2f
 4857 1b29 2B       		.uleb128 0x2b
 4858 1b2a 01       		.uleb128 0x1
 4859 1b2b 50       		.byte	0x50
 4860 1b2c 01       		.uleb128 0x1
 4861 1b2d 32       		.byte	0x32
 4862 1b2e 00       		.byte	0
 4863 1b2f 29       		.uleb128 0x29
 4864 1b30 48000000 		.4byte	.LVL50
 4865 1b34 E9250000 		.4byte	0x25e9
 4866 1b38 2A       		.uleb128 0x2a
 4867 1b39 5C000000 		.4byte	.LVL51
 4868 1b3d 18260000 		.4byte	0x2618
 4869 1b41 551B0000 		.4byte	0x1b55
 4870 1b45 2B       		.uleb128 0x2b
 4871 1b46 01       		.uleb128 0x1
 4872 1b47 50       		.byte	0x50
 4873 1b48 02       		.uleb128 0x2
 4874 1b49 74       		.byte	0x74
 4875 1b4a 00       		.sleb128 0
 4876 1b4b 2B       		.uleb128 0x2b
 4877 1b4c 01       		.uleb128 0x1
 4878 1b4d 51       		.byte	0x51
 4879 1b4e 05       		.uleb128 0x5
 4880 1b4f 03       		.byte	0x3
 4881 1b50 7C000000 		.4byte	.LC7
ARM GAS  C:\Users\nicpa\AppData\Local\Temp\ccPr5feD.s 			page 156


 4882 1b54 00       		.byte	0
 4883 1b55 2A       		.uleb128 0x2a
 4884 1b56 66000000 		.4byte	.LVL52
 4885 1b5a 01260000 		.4byte	0x2601
 4886 1b5e 751B0000 		.4byte	0x1b75
 4887 1b62 2B       		.uleb128 0x2b
 4888 1b63 01       		.uleb128 0x1
 4889 1b64 50       		.byte	0x50
 4890 1b65 02       		.uleb128 0x2
 4891 1b66 74       		.byte	0x74
 4892 1b67 00       		.sleb128 0
 4893 1b68 2B       		.uleb128 0x2b
 4894 1b69 01       		.uleb128 0x1
 4895 1b6a 51       		.byte	0x51
 4896 1b6b 02       		.uleb128 0x2
 4897 1b6c 08       		.byte	0x8
 4898 1b6d 82       		.byte	0x82
 4899 1b6e 2B       		.uleb128 0x2b
 4900 1b6f 01       		.uleb128 0x1
 4901 1b70 52       		.byte	0x52
 4902 1b71 02       		.uleb128 0x2
 4903 1b72 08       		.byte	0x8
 4904 1b73 50       		.byte	0x50
 4905 1b74 00       		.byte	0
 4906 1b75 29       		.uleb128 0x29
 4907 1b76 6C000000 		.4byte	.LVL53
 4908 1b7a E9250000 		.4byte	0x25e9
 4909 1b7e 2A       		.uleb128 0x2a
 4910 1b7f 76000000 		.4byte	.LVL54
 4911 1b83 01260000 		.4byte	0x2601
 4912 1b87 A01B0000 		.4byte	0x1ba0
 4913 1b8b 2B       		.uleb128 0x2b
 4914 1b8c 01       		.uleb128 0x1
 4915 1b8d 50       		.byte	0x50
 4916 1b8e 05       		.uleb128 0x5
 4917 1b8f 03       		.byte	0x3
 4918 1b90 80000000 		.4byte	.LC8
 4919 1b94 2B       		.uleb128 0x2b
 4920 1b95 01       		.uleb128 0x1
 4921 1b96 51       		.byte	0x51
 4922 1b97 02       		.uleb128 0x2
 4923 1b98 08       		.byte	0x8
 4924 1b99 3C       		.byte	0x3c
 4925 1b9a 2B       		.uleb128 0x2b
 4926 1b9b 01       		.uleb128 0x1
 4927 1b9c 52       		.byte	0x52
 4928 1b9d 01       		.uleb128 0x1
 4929 1b9e 3F       		.byte	0x3f
 4930 1b9f 00       		.byte	0
 4931 1ba0 2C       		.uleb128 0x2c
 4932 1ba1 7E000000 		.4byte	.LVL55
 4933 1ba5 0D260000 		.4byte	0x260d
 4934 1ba9 2B       		.uleb128 0x2b
 4935 1baa 01       		.uleb128 0x1
 4936 1bab 50       		.byte	0x50
 4937 1bac 01       		.uleb128 0x1
 4938 1bad 32       		.byte	0x32
ARM GAS  C:\Users\nicpa\AppData\Local\Temp\ccPr5feD.s 			page 157


 4939 1bae 2B       		.uleb128 0x2b
 4940 1baf 01       		.uleb128 0x1
 4941 1bb0 51       		.byte	0x51
 4942 1bb1 01       		.uleb128 0x1
 4943 1bb2 31       		.byte	0x31
 4944 1bb3 00       		.byte	0
 4945 1bb4 00       		.byte	0
 4946 1bb5 0C       		.uleb128 0xc
 4947 1bb6 F50B0000 		.4byte	0xbf5
 4948 1bba C51B0000 		.4byte	0x1bc5
 4949 1bbe 0D       		.uleb128 0xd
 4950 1bbf 8E050000 		.4byte	0x58e
 4951 1bc3 03       		.byte	0x3
 4952 1bc4 00       		.byte	0
 4953 1bc5 2D       		.uleb128 0x2d
 4954 1bc6 890E0000 		.4byte	.LASF458
 4955 1bca 01       		.byte	0x1
 4956 1bcb B6       		.byte	0xb6
 4957 1bcc 00000000 		.4byte	.LFB701
 4958 1bd0 DC000000 		.4byte	.LFE701-.LFB701
 4959 1bd4 01       		.uleb128 0x1
 4960 1bd5 9C       		.byte	0x9c
 4961 1bd6 C91D0000 		.4byte	0x1dc9
 4962 1bda 2E       		.uleb128 0x2e
 4963 1bdb 50100000 		.4byte	.LASF460
 4964 1bdf 01       		.byte	0x1
 4965 1be0 CA       		.byte	0xca
 4966 1be1 B51B0000 		.4byte	0x1bb5
 4967 1be5 02       		.uleb128 0x2
 4968 1be6 91       		.byte	0x91
 4969 1be7 74       		.sleb128 -12
 4970 1be8 2E       		.uleb128 0x2e
 4971 1be9 86190000 		.4byte	.LASF461
 4972 1bed 01       		.byte	0x1
 4973 1bee CB       		.byte	0xcb
 4974 1bef B51B0000 		.4byte	0x1bb5
 4975 1bf3 02       		.uleb128 0x2
 4976 1bf4 91       		.byte	0x91
 4977 1bf5 70       		.sleb128 -16
 4978 1bf6 29       		.uleb128 0x29
 4979 1bf7 08000000 		.4byte	.LVL56
 4980 1bfb A1250000 		.4byte	0x25a1
 4981 1bff 2A       		.uleb128 0x2a
 4982 1c00 0E000000 		.4byte	.LVL57
 4983 1c04 AD250000 		.4byte	0x25ad
 4984 1c08 121C0000 		.4byte	0x1c12
 4985 1c0c 2B       		.uleb128 0x2b
 4986 1c0d 01       		.uleb128 0x1
 4987 1c0e 50       		.byte	0x50
 4988 1c0f 01       		.uleb128 0x1
 4989 1c10 32       		.byte	0x32
 4990 1c11 00       		.byte	0
 4991 1c12 2A       		.uleb128 0x2a
 4992 1c13 14000000 		.4byte	.LVL58
 4993 1c17 B9250000 		.4byte	0x25b9
 4994 1c1b 251C0000 		.4byte	0x1c25
 4995 1c1f 2B       		.uleb128 0x2b
ARM GAS  C:\Users\nicpa\AppData\Local\Temp\ccPr5feD.s 			page 158


 4996 1c20 01       		.uleb128 0x1
 4997 1c21 50       		.byte	0x50
 4998 1c22 01       		.uleb128 0x1
 4999 1c23 30       		.byte	0x30
 5000 1c24 00       		.byte	0
 5001 1c25 2A       		.uleb128 0x2a
 5002 1c26 1C000000 		.4byte	.LVL59
 5003 1c2a C5250000 		.4byte	0x25c5
 5004 1c2e 3C1C0000 		.4byte	0x1c3c
 5005 1c32 2B       		.uleb128 0x2b
 5006 1c33 01       		.uleb128 0x1
 5007 1c34 50       		.byte	0x50
 5008 1c35 05       		.uleb128 0x5
 5009 1c36 0C       		.byte	0xc
 5010 1c37 FFFFFF00 		.4byte	0xffffff
 5011 1c3b 00       		.byte	0
 5012 1c3c 2A       		.uleb128 0x2a
 5013 1c3d 2A000000 		.4byte	.LVL60
 5014 1c41 D1250000 		.4byte	0x25d1
 5015 1c45 611C0000 		.4byte	0x1c61
 5016 1c49 2B       		.uleb128 0x2b
 5017 1c4a 01       		.uleb128 0x1
 5018 1c4b 50       		.byte	0x50
 5019 1c4c 01       		.uleb128 0x1
 5020 1c4d 31       		.byte	0x31
 5021 1c4e 2B       		.uleb128 0x2b
 5022 1c4f 01       		.uleb128 0x1
 5023 1c50 51       		.byte	0x51
 5024 1c51 01       		.uleb128 0x1
 5025 1c52 31       		.byte	0x31
 5026 1c53 2B       		.uleb128 0x2b
 5027 1c54 01       		.uleb128 0x1
 5028 1c55 52       		.byte	0x52
 5029 1c56 03       		.uleb128 0x3
 5030 1c57 0A       		.byte	0xa
 5031 1c58 0701     		.2byte	0x107
 5032 1c5a 2B       		.uleb128 0x2b
 5033 1c5b 01       		.uleb128 0x1
 5034 1c5c 53       		.byte	0x53
 5035 1c5d 02       		.uleb128 0x2
 5036 1c5e 08       		.byte	0x8
 5037 1c5f AF       		.byte	0xaf
 5038 1c60 00       		.byte	0
 5039 1c61 2A       		.uleb128 0x2a
 5040 1c62 36000000 		.4byte	.LVL61
 5041 1c66 D1250000 		.4byte	0x25d1
 5042 1c6a 861C0000 		.4byte	0x1c86
 5043 1c6e 2B       		.uleb128 0x2b
 5044 1c6f 01       		.uleb128 0x1
 5045 1c70 50       		.byte	0x50
 5046 1c71 01       		.uleb128 0x1
 5047 1c72 4E       		.byte	0x4e
 5048 1c73 2B       		.uleb128 0x2b
 5049 1c74 01       		.uleb128 0x1
 5050 1c75 51       		.byte	0x51
 5051 1c76 02       		.uleb128 0x2
 5052 1c77 08       		.byte	0x8
ARM GAS  C:\Users\nicpa\AppData\Local\Temp\ccPr5feD.s 			page 159


 5053 1c78 46       		.byte	0x46
 5054 1c79 2B       		.uleb128 0x2b
 5055 1c7a 01       		.uleb128 0x1
 5056 1c7b 52       		.byte	0x52
 5057 1c7c 02       		.uleb128 0x2
 5058 1c7d 08       		.byte	0x8
 5059 1c7e 5A       		.byte	0x5a
 5060 1c7f 2B       		.uleb128 0x2b
 5061 1c80 01       		.uleb128 0x1
 5062 1c81 53       		.byte	0x53
 5063 1c82 02       		.uleb128 0x2
 5064 1c83 08       		.byte	0x8
 5065 1c84 78       		.byte	0x78
 5066 1c85 00       		.byte	0
 5067 1c86 2A       		.uleb128 0x2a
 5068 1c87 42000000 		.4byte	.LVL62
 5069 1c8b D1250000 		.4byte	0x25d1
 5070 1c8f AC1C0000 		.4byte	0x1cac
 5071 1c93 2B       		.uleb128 0x2b
 5072 1c94 01       		.uleb128 0x1
 5073 1c95 50       		.byte	0x50
 5074 1c96 02       		.uleb128 0x2
 5075 1c97 08       		.byte	0x8
 5076 1c98 96       		.byte	0x96
 5077 1c99 2B       		.uleb128 0x2b
 5078 1c9a 01       		.uleb128 0x1
 5079 1c9b 51       		.byte	0x51
 5080 1c9c 02       		.uleb128 0x2
 5081 1c9d 08       		.byte	0x8
 5082 1c9e 46       		.byte	0x46
 5083 1c9f 2B       		.uleb128 0x2b
 5084 1ca0 01       		.uleb128 0x1
 5085 1ca1 52       		.byte	0x52
 5086 1ca2 02       		.uleb128 0x2
 5087 1ca3 08       		.byte	0x8
 5088 1ca4 E1       		.byte	0xe1
 5089 1ca5 2B       		.uleb128 0x2b
 5090 1ca6 01       		.uleb128 0x1
 5091 1ca7 53       		.byte	0x53
 5092 1ca8 02       		.uleb128 0x2
 5093 1ca9 08       		.byte	0x8
 5094 1caa 78       		.byte	0x78
 5095 1cab 00       		.byte	0
 5096 1cac 29       		.uleb128 0x29
 5097 1cad 48000000 		.4byte	.LVL63
 5098 1cb1 E9250000 		.4byte	0x25e9
 5099 1cb5 2A       		.uleb128 0x2a
 5100 1cb6 4E000000 		.4byte	.LVL64
 5101 1cba F5250000 		.4byte	0x25f5
 5102 1cbe C81C0000 		.4byte	0x1cc8
 5103 1cc2 2B       		.uleb128 0x2b
 5104 1cc3 01       		.uleb128 0x1
 5105 1cc4 50       		.byte	0x50
 5106 1cc5 01       		.uleb128 0x1
 5107 1cc6 32       		.byte	0x32
 5108 1cc7 00       		.byte	0
 5109 1cc8 29       		.uleb128 0x29
ARM GAS  C:\Users\nicpa\AppData\Local\Temp\ccPr5feD.s 			page 160


 5110 1cc9 54000000 		.4byte	.LVL65
 5111 1ccd E9250000 		.4byte	0x25e9
 5112 1cd1 2A       		.uleb128 0x2a
 5113 1cd2 68000000 		.4byte	.LVL66
 5114 1cd6 18260000 		.4byte	0x2618
 5115 1cda EB1C0000 		.4byte	0x1ceb
 5116 1cde 2B       		.uleb128 0x2b
 5117 1cdf 01       		.uleb128 0x1
 5118 1ce0 50       		.byte	0x50
 5119 1ce1 02       		.uleb128 0x2
 5120 1ce2 91       		.byte	0x91
 5121 1ce3 74       		.sleb128 -12
 5122 1ce4 2B       		.uleb128 0x2b
 5123 1ce5 01       		.uleb128 0x1
 5124 1ce6 51       		.byte	0x51
 5125 1ce7 02       		.uleb128 0x2
 5126 1ce8 74       		.byte	0x74
 5127 1ce9 00       		.sleb128 0
 5128 1cea 00       		.byte	0
 5129 1ceb 2A       		.uleb128 0x2a
 5130 1cec 74000000 		.4byte	.LVL67
 5131 1cf0 18260000 		.4byte	0x2618
 5132 1cf4 051D0000 		.4byte	0x1d05
 5133 1cf8 2B       		.uleb128 0x2b
 5134 1cf9 01       		.uleb128 0x1
 5135 1cfa 50       		.byte	0x50
 5136 1cfb 02       		.uleb128 0x2
 5137 1cfc 7D       		.byte	0x7d
 5138 1cfd 00       		.sleb128 0
 5139 1cfe 2B       		.uleb128 0x2b
 5140 1cff 01       		.uleb128 0x1
 5141 1d00 51       		.byte	0x51
 5142 1d01 02       		.uleb128 0x2
 5143 1d02 74       		.byte	0x74
 5144 1d03 00       		.sleb128 0
 5145 1d04 00       		.byte	0
 5146 1d05 2A       		.uleb128 0x2a
 5147 1d06 7E000000 		.4byte	.LVL68
 5148 1d0a 01260000 		.4byte	0x2601
 5149 1d0e 251D0000 		.4byte	0x1d25
 5150 1d12 2B       		.uleb128 0x2b
 5151 1d13 01       		.uleb128 0x1
 5152 1d14 50       		.byte	0x50
 5153 1d15 02       		.uleb128 0x2
 5154 1d16 7D       		.byte	0x7d
 5155 1d17 00       		.sleb128 0
 5156 1d18 2B       		.uleb128 0x2b
 5157 1d19 01       		.uleb128 0x1
 5158 1d1a 51       		.byte	0x51
 5159 1d1b 02       		.uleb128 0x2
 5160 1d1c 08       		.byte	0x8
 5161 1d1d 3C       		.byte	0x3c
 5162 1d1e 2B       		.uleb128 0x2b
 5163 1d1f 01       		.uleb128 0x1
 5164 1d20 52       		.byte	0x52
 5165 1d21 02       		.uleb128 0x2
 5166 1d22 08       		.byte	0x8
ARM GAS  C:\Users\nicpa\AppData\Local\Temp\ccPr5feD.s 			page 161


 5167 1d23 50       		.byte	0x50
 5168 1d24 00       		.byte	0
 5169 1d25 2A       		.uleb128 0x2a
 5170 1d26 88000000 		.4byte	.LVL69
 5171 1d2a 01260000 		.4byte	0x2601
 5172 1d2e 451D0000 		.4byte	0x1d45
 5173 1d32 2B       		.uleb128 0x2b
 5174 1d33 01       		.uleb128 0x1
 5175 1d34 50       		.byte	0x50
 5176 1d35 02       		.uleb128 0x2
 5177 1d36 91       		.byte	0x91
 5178 1d37 74       		.sleb128 -12
 5179 1d38 2B       		.uleb128 0x2b
 5180 1d39 01       		.uleb128 0x1
 5181 1d3a 51       		.byte	0x51
 5182 1d3b 02       		.uleb128 0x2
 5183 1d3c 08       		.byte	0x8
 5184 1d3d A5       		.byte	0xa5
 5185 1d3e 2B       		.uleb128 0x2b
 5186 1d3f 01       		.uleb128 0x1
 5187 1d40 52       		.byte	0x52
 5188 1d41 02       		.uleb128 0x2
 5189 1d42 08       		.byte	0x8
 5190 1d43 50       		.byte	0x50
 5191 1d44 00       		.byte	0
 5192 1d45 29       		.uleb128 0x29
 5193 1d46 8E000000 		.4byte	.LVL70
 5194 1d4a E9250000 		.4byte	0x25e9
 5195 1d4e 2A       		.uleb128 0x2a
 5196 1d4f 98000000 		.4byte	.LVL71
 5197 1d53 01260000 		.4byte	0x2601
 5198 1d57 701D0000 		.4byte	0x1d70
 5199 1d5b 2B       		.uleb128 0x2b
 5200 1d5c 01       		.uleb128 0x1
 5201 1d5d 50       		.byte	0x50
 5202 1d5e 05       		.uleb128 0x5
 5203 1d5f 03       		.byte	0x3
 5204 1d60 94000000 		.4byte	.LC9
 5205 1d64 2B       		.uleb128 0x2b
 5206 1d65 01       		.uleb128 0x1
 5207 1d66 51       		.byte	0x51
 5208 1d67 01       		.uleb128 0x1
 5209 1d68 3A       		.byte	0x3a
 5210 1d69 2B       		.uleb128 0x2b
 5211 1d6a 01       		.uleb128 0x1
 5212 1d6b 52       		.byte	0x52
 5213 1d6c 02       		.uleb128 0x2
 5214 1d6d 08       		.byte	0x8
 5215 1d6e 82       		.byte	0x82
 5216 1d6f 00       		.byte	0
 5217 1d70 2A       		.uleb128 0x2a
 5218 1d71 A2000000 		.4byte	.LVL72
 5219 1d75 01260000 		.4byte	0x2601
 5220 1d79 931D0000 		.4byte	0x1d93
 5221 1d7d 2B       		.uleb128 0x2b
 5222 1d7e 01       		.uleb128 0x1
 5223 1d7f 50       		.byte	0x50
ARM GAS  C:\Users\nicpa\AppData\Local\Temp\ccPr5feD.s 			page 162


 5224 1d80 05       		.uleb128 0x5
 5225 1d81 03       		.byte	0x3
 5226 1d82 A4000000 		.4byte	.LC10
 5227 1d86 2B       		.uleb128 0x2b
 5228 1d87 01       		.uleb128 0x1
 5229 1d88 51       		.byte	0x51
 5230 1d89 02       		.uleb128 0x2
 5231 1d8a 08       		.byte	0x8
 5232 1d8b 87       		.byte	0x87
 5233 1d8c 2B       		.uleb128 0x2b
 5234 1d8d 01       		.uleb128 0x1
 5235 1d8e 52       		.byte	0x52
 5236 1d8f 02       		.uleb128 0x2
 5237 1d90 08       		.byte	0x8
 5238 1d91 82       		.byte	0x82
 5239 1d92 00       		.byte	0
 5240 1d93 2A       		.uleb128 0x2a
 5241 1d94 AC000000 		.4byte	.LVL73
 5242 1d98 01260000 		.4byte	0x2601
 5243 1d9c B41D0000 		.4byte	0x1db4
 5244 1da0 2B       		.uleb128 0x2b
 5245 1da1 01       		.uleb128 0x1
 5246 1da2 50       		.byte	0x50
 5247 1da3 05       		.uleb128 0x5
 5248 1da4 03       		.byte	0x3
 5249 1da5 B4000000 		.4byte	.LC11
 5250 1da9 2B       		.uleb128 0x2b
 5251 1daa 01       		.uleb128 0x1
 5252 1dab 51       		.byte	0x51
 5253 1dac 01       		.uleb128 0x1
 5254 1dad 4E       		.byte	0x4e
 5255 1dae 2B       		.uleb128 0x2b
 5256 1daf 01       		.uleb128 0x1
 5257 1db0 52       		.byte	0x52
 5258 1db1 01       		.uleb128 0x1
 5259 1db2 3F       		.byte	0x3f
 5260 1db3 00       		.byte	0
 5261 1db4 2C       		.uleb128 0x2c
 5262 1db5 B4000000 		.4byte	.LVL74
 5263 1db9 0D260000 		.4byte	0x260d
 5264 1dbd 2B       		.uleb128 0x2b
 5265 1dbe 01       		.uleb128 0x1
 5266 1dbf 50       		.byte	0x50
 5267 1dc0 01       		.uleb128 0x1
 5268 1dc1 32       		.byte	0x32
 5269 1dc2 2B       		.uleb128 0x2b
 5270 1dc3 01       		.uleb128 0x1
 5271 1dc4 51       		.byte	0x51
 5272 1dc5 01       		.uleb128 0x1
 5273 1dc6 31       		.byte	0x31
 5274 1dc7 00       		.byte	0
 5275 1dc8 00       		.byte	0
 5276 1dc9 27       		.uleb128 0x27
 5277 1dca 0B070000 		.4byte	.LASF463
 5278 1dce 01       		.byte	0x1
 5279 1dcf F3       		.byte	0xf3
 5280 1dd0 00000000 		.4byte	.LFB702
ARM GAS  C:\Users\nicpa\AppData\Local\Temp\ccPr5feD.s 			page 163


 5281 1dd4 E8010000 		.4byte	.LFE702-.LFB702
 5282 1dd8 01       		.uleb128 0x1
 5283 1dd9 9C       		.byte	0x9c
 5284 1dda 71210000 		.4byte	0x2171
 5285 1dde 2F       		.uleb128 0x2f
 5286 1ddf 5A220000 		.4byte	.LASF464
 5287 1de3 01       		.byte	0x1
 5288 1de4 F3       		.byte	0xf3
 5289 1de5 71210000 		.4byte	0x2171
 5290 1de9 2C000000 		.4byte	.LLST1
 5291 1ded 28       		.uleb128 0x28
 5292 1dee 666300   		.ascii	"fc\000"
 5293 1df1 01       		.byte	0x1
 5294 1df2 F3       		.byte	0xf3
 5295 1df3 B7040000 		.4byte	0x4b7
 5296 1df7 58000000 		.4byte	.LLST2
 5297 1dfb 2F       		.uleb128 0x2f
 5298 1dfc 2C190000 		.4byte	.LASF465
 5299 1e00 01       		.byte	0x1
 5300 1e01 F3       		.byte	0xf3
 5301 1e02 B7040000 		.4byte	0x4b7
 5302 1e06 84000000 		.4byte	.LLST3
 5303 1e0a 28       		.uleb128 0x28
 5304 1e0b 414300   		.ascii	"AC\000"
 5305 1e0e 01       		.byte	0x1
 5306 1e0f F3       		.byte	0xf3
 5307 1e10 1B0C0000 		.4byte	0xc1b
 5308 1e14 B0000000 		.4byte	.LLST4
 5309 1e18 28       		.uleb128 0x28
 5310 1e19 444300   		.ascii	"DC\000"
 5311 1e1c 01       		.byte	0x1
 5312 1e1d F3       		.byte	0xf3
 5313 1e1e 1B0C0000 		.4byte	0xc1b
 5314 1e22 DF000000 		.4byte	.LLST5
 5315 1e26 30       		.uleb128 0x30
 5316 1e27 6A00     		.ascii	"j\000"
 5317 1e29 01       		.byte	0x1
 5318 1e2a FB       		.byte	0xfb
 5319 1e2b 2C000000 		.4byte	0x2c
 5320 1e2f FF000000 		.4byte	.LLST6
 5321 1e33 2E       		.uleb128 0x2e
 5322 1e34 A4130000 		.4byte	.LASF466
 5323 1e38 01       		.byte	0x1
 5324 1e39 FD       		.byte	0xfd
 5325 1e3a 77210000 		.4byte	0x2177
 5326 1e3e 03       		.uleb128 0x3
 5327 1e3f 91       		.byte	0x91
 5328 1e40 EC7B     		.sleb128 -532
 5329 1e42 31       		.uleb128 0x31
 5330 1e43 1D130000 		.4byte	.LASF467
 5331 1e47 01       		.byte	0x1
 5332 1e48 2101     		.2byte	0x121
 5333 1e4a B51B0000 		.4byte	0x1bb5
 5334 1e4e 03       		.uleb128 0x3
 5335 1e4f 91       		.byte	0x91
 5336 1e50 E87B     		.sleb128 -536
 5337 1e52 31       		.uleb128 0x31
ARM GAS  C:\Users\nicpa\AppData\Local\Temp\ccPr5feD.s 			page 164


 5338 1e53 EE070000 		.4byte	.LASF468
 5339 1e57 01       		.byte	0x1
 5340 1e58 2201     		.2byte	0x122
 5341 1e5a 87210000 		.4byte	0x2187
 5342 1e5e 03       		.uleb128 0x3
 5343 1e5f 91       		.byte	0x91
 5344 1e60 E07B     		.sleb128 -544
 5345 1e62 32       		.uleb128 0x32
 5346 1e63 3C000000 		.4byte	.LBB19
 5347 1e67 16000000 		.4byte	.LBE19-.LBB19
 5348 1e6b 7E1E0000 		.4byte	0x1e7e
 5349 1e6f 33       		.uleb128 0x33
 5350 1e70 6900     		.ascii	"i\000"
 5351 1e72 01       		.byte	0x1
 5352 1e73 0101     		.2byte	0x101
 5353 1e75 2C000000 		.4byte	0x2c
 5354 1e79 38010000 		.4byte	.LLST7
 5355 1e7d 00       		.byte	0
 5356 1e7e 32       		.uleb128 0x32
 5357 1e7f 52000000 		.4byte	.LBB20
 5358 1e83 68000000 		.4byte	.LBE20-.LBB20
 5359 1e87 0E1F0000 		.4byte	0x1f0e
 5360 1e8b 33       		.uleb128 0x33
 5361 1e8c 6900     		.ascii	"i\000"
 5362 1e8e 01       		.byte	0x1
 5363 1e8f 0601     		.2byte	0x106
 5364 1e91 2C000000 		.4byte	0x2c
 5365 1e95 4B010000 		.4byte	.LLST8
 5366 1e99 34       		.uleb128 0x34
 5367 1e9a 52000000 		.4byte	.LBB21
 5368 1e9e 64000000 		.4byte	.LBE21-.LBB21
 5369 1ea2 33       		.uleb128 0x33
 5370 1ea3 593000   		.ascii	"Y0\000"
 5371 1ea6 01       		.byte	0x1
 5372 1ea7 0801     		.2byte	0x108
 5373 1ea9 2C000000 		.4byte	0x2c
 5374 1ead 76010000 		.4byte	.LLST9
 5375 1eb1 33       		.uleb128 0x33
 5376 1eb2 593100   		.ascii	"Y1\000"
 5377 1eb5 01       		.byte	0x1
 5378 1eb6 0901     		.2byte	0x109
 5379 1eb8 2C000000 		.4byte	0x2c
 5380 1ebc 9C010000 		.4byte	.LLST10
 5381 1ec0 33       		.uleb128 0x33
 5382 1ec1 583000   		.ascii	"X0\000"
 5383 1ec4 01       		.byte	0x1
 5384 1ec5 0A01     		.2byte	0x10a
 5385 1ec7 2C000000 		.4byte	0x2c
 5386 1ecb CD010000 		.4byte	.LLST11
 5387 1ecf 33       		.uleb128 0x33
 5388 1ed0 583100   		.ascii	"X1\000"
 5389 1ed3 01       		.byte	0x1
 5390 1ed4 0B01     		.2byte	0x10b
 5391 1ed6 2C000000 		.4byte	0x2c
 5392 1eda 06020000 		.4byte	.LLST12
 5393 1ede 2C       		.uleb128 0x2c
 5394 1edf B4000000 		.4byte	.LVL94
ARM GAS  C:\Users\nicpa\AppData\Local\Temp\ccPr5feD.s 			page 165


 5395 1ee3 DD250000 		.4byte	0x25dd
 5396 1ee7 2B       		.uleb128 0x2b
 5397 1ee8 01       		.uleb128 0x1
 5398 1ee9 50       		.byte	0x50
 5399 1eea 0E       		.uleb128 0xe
 5400 1eeb 75       		.byte	0x75
 5401 1eec 7F       		.sleb128 -1
 5402 1eed 32       		.byte	0x32
 5403 1eee 24       		.byte	0x24
 5404 1eef 91       		.byte	0x91
 5405 1ef0 00       		.sleb128 0
 5406 1ef1 22       		.byte	0x22
 5407 1ef2 0A       		.byte	0xa
 5408 1ef3 1402     		.2byte	0x214
 5409 1ef5 1C       		.byte	0x1c
 5410 1ef6 06       		.byte	0x6
 5411 1ef7 23       		.byte	0x23
 5412 1ef8 07       		.uleb128 0x7
 5413 1ef9 2B       		.uleb128 0x2b
 5414 1efa 01       		.uleb128 0x1
 5415 1efb 52       		.byte	0x52
 5416 1efc 0E       		.uleb128 0xe
 5417 1efd 75       		.byte	0x75
 5418 1efe 00       		.sleb128 0
 5419 1eff 32       		.byte	0x32
 5420 1f00 24       		.byte	0x24
 5421 1f01 91       		.byte	0x91
 5422 1f02 00       		.sleb128 0
 5423 1f03 22       		.byte	0x22
 5424 1f04 0A       		.byte	0xa
 5425 1f05 1402     		.2byte	0x214
 5426 1f07 1C       		.byte	0x1c
 5427 1f08 06       		.byte	0x6
 5428 1f09 23       		.byte	0x23
 5429 1f0a 07       		.uleb128 0x7
 5430 1f0b 00       		.byte	0
 5431 1f0c 00       		.byte	0
 5432 1f0d 00       		.byte	0
 5433 1f0e 35       		.uleb128 0x35
 5434 1f0f F1150000 		.4byte	0x15f1
 5435 1f13 E2000000 		.4byte	.LBB22
 5436 1f17 06000000 		.4byte	.LBE22-.LBB22
 5437 1f1b 01       		.byte	0x1
 5438 1f1c 1601     		.2byte	0x116
 5439 1f1e 3E1F0000 		.4byte	0x1f3e
 5440 1f22 36       		.uleb128 0x36
 5441 1f23 16160000 		.4byte	0x1616
 5442 1f27 3F020000 		.4byte	.LLST13
 5443 1f2b 36       		.uleb128 0x36
 5444 1f2c 0A160000 		.4byte	0x160a
 5445 1f30 53020000 		.4byte	.LLST14
 5446 1f34 36       		.uleb128 0x36
 5447 1f35 FE150000 		.4byte	0x15fe
 5448 1f39 67020000 		.4byte	.LLST15
 5449 1f3d 00       		.byte	0
 5450 1f3e 29       		.uleb128 0x29
 5451 1f3f 1E000000 		.4byte	.LVL76
ARM GAS  C:\Users\nicpa\AppData\Local\Temp\ccPr5feD.s 			page 166


 5452 1f43 A1250000 		.4byte	0x25a1
 5453 1f47 2A       		.uleb128 0x2a
 5454 1f48 24000000 		.4byte	.LVL77
 5455 1f4c AD250000 		.4byte	0x25ad
 5456 1f50 5A1F0000 		.4byte	0x1f5a
 5457 1f54 2B       		.uleb128 0x2b
 5458 1f55 01       		.uleb128 0x1
 5459 1f56 50       		.byte	0x50
 5460 1f57 01       		.uleb128 0x1
 5461 1f58 32       		.byte	0x32
 5462 1f59 00       		.byte	0
 5463 1f5a 2A       		.uleb128 0x2a
 5464 1f5b 2A000000 		.4byte	.LVL78
 5465 1f5f B9250000 		.4byte	0x25b9
 5466 1f63 6D1F0000 		.4byte	0x1f6d
 5467 1f67 2B       		.uleb128 0x2b
 5468 1f68 01       		.uleb128 0x1
 5469 1f69 50       		.byte	0x50
 5470 1f6a 01       		.uleb128 0x1
 5471 1f6b 30       		.byte	0x30
 5472 1f6c 00       		.byte	0
 5473 1f6d 2A       		.uleb128 0x2a
 5474 1f6e 32000000 		.4byte	.LVL79
 5475 1f72 C5250000 		.4byte	0x25c5
 5476 1f76 841F0000 		.4byte	0x1f84
 5477 1f7a 2B       		.uleb128 0x2b
 5478 1f7b 01       		.uleb128 0x1
 5479 1f7c 50       		.byte	0x50
 5480 1f7d 05       		.uleb128 0x5
 5481 1f7e 0C       		.byte	0xc
 5482 1f7f FFFFFF00 		.4byte	0xffffff
 5483 1f83 00       		.byte	0
 5484 1f84 2A       		.uleb128 0x2a
 5485 1f85 D2000000 		.4byte	.LVL97
 5486 1f89 DD250000 		.4byte	0x25dd
 5487 1f8d AA1F0000 		.4byte	0x1faa
 5488 1f91 2B       		.uleb128 0x2b
 5489 1f92 01       		.uleb128 0x1
 5490 1f93 50       		.byte	0x50
 5491 1f94 02       		.uleb128 0x2
 5492 1f95 08       		.byte	0x8
 5493 1f96 4B       		.byte	0x4b
 5494 1f97 2B       		.uleb128 0x2b
 5495 1f98 01       		.uleb128 0x1
 5496 1f99 51       		.byte	0x51
 5497 1f9a 02       		.uleb128 0x2
 5498 1f9b 08       		.byte	0x8
 5499 1f9c 4B       		.byte	0x4b
 5500 1f9d 2B       		.uleb128 0x2b
 5501 1f9e 01       		.uleb128 0x1
 5502 1f9f 52       		.byte	0x52
 5503 1fa0 02       		.uleb128 0x2
 5504 1fa1 08       		.byte	0x8
 5505 1fa2 C8       		.byte	0xc8
 5506 1fa3 2B       		.uleb128 0x2b
 5507 1fa4 01       		.uleb128 0x1
 5508 1fa5 53       		.byte	0x53
ARM GAS  C:\Users\nicpa\AppData\Local\Temp\ccPr5feD.s 			page 167


 5509 1fa6 02       		.uleb128 0x2
 5510 1fa7 08       		.byte	0x8
 5511 1fa8 4B       		.byte	0x4b
 5512 1fa9 00       		.byte	0
 5513 1faa 29       		.uleb128 0x29
 5514 1fab D8000000 		.4byte	.LVL98
 5515 1faf E9250000 		.4byte	0x25e9
 5516 1fb3 2A       		.uleb128 0x2a
 5517 1fb4 E2000000 		.4byte	.LVL99
 5518 1fb8 01260000 		.4byte	0x2601
 5519 1fbc D61F0000 		.4byte	0x1fd6
 5520 1fc0 2B       		.uleb128 0x2b
 5521 1fc1 01       		.uleb128 0x1
 5522 1fc2 50       		.byte	0x50
 5523 1fc3 05       		.uleb128 0x5
 5524 1fc4 03       		.byte	0x3
 5525 1fc5 D0000000 		.4byte	.LC12
 5526 1fc9 2B       		.uleb128 0x2b
 5527 1fca 01       		.uleb128 0x1
 5528 1fcb 51       		.byte	0x51
 5529 1fcc 02       		.uleb128 0x2
 5530 1fcd 08       		.byte	0x8
 5531 1fce 4B       		.byte	0x4b
 5532 1fcf 2B       		.uleb128 0x2b
 5533 1fd0 01       		.uleb128 0x1
 5534 1fd1 52       		.byte	0x52
 5535 1fd2 02       		.uleb128 0x2
 5536 1fd3 08       		.byte	0x8
 5537 1fd4 37       		.byte	0x37
 5538 1fd5 00       		.byte	0
 5539 1fd6 2A       		.uleb128 0x2a
 5540 1fd7 FC000000 		.4byte	.LVL101
 5541 1fdb D1250000 		.4byte	0x25d1
 5542 1fdf FB1F0000 		.4byte	0x1ffb
 5543 1fe3 2B       		.uleb128 0x2b
 5544 1fe4 01       		.uleb128 0x1
 5545 1fe5 50       		.byte	0x50
 5546 1fe6 01       		.uleb128 0x1
 5547 1fe7 37       		.byte	0x37
 5548 1fe8 2B       		.uleb128 0x2b
 5549 1fe9 01       		.uleb128 0x1
 5550 1fea 51       		.byte	0x51
 5551 1feb 01       		.uleb128 0x1
 5552 1fec 37       		.byte	0x37
 5553 1fed 2B       		.uleb128 0x2b
 5554 1fee 01       		.uleb128 0x1
 5555 1fef 52       		.byte	0x52
 5556 1ff0 03       		.uleb128 0x3
 5557 1ff1 0A       		.byte	0xa
 5558 1ff2 0101     		.2byte	0x101
 5559 1ff4 2B       		.uleb128 0x2b
 5560 1ff5 01       		.uleb128 0x1
 5561 1ff6 53       		.byte	0x53
 5562 1ff7 02       		.uleb128 0x2
 5563 1ff8 08       		.byte	0x8
 5564 1ff9 78       		.byte	0x78
 5565 1ffa 00       		.byte	0
ARM GAS  C:\Users\nicpa\AppData\Local\Temp\ccPr5feD.s 			page 168


 5566 1ffb 29       		.uleb128 0x29
 5567 1ffc 02010000 		.4byte	.LVL102
 5568 2000 E9250000 		.4byte	0x25e9
 5569 2004 2A       		.uleb128 0x2a
 5570 2005 08010000 		.4byte	.LVL103
 5571 2009 F5250000 		.4byte	0x25f5
 5572 200d 17200000 		.4byte	0x2017
 5573 2011 2B       		.uleb128 0x2b
 5574 2012 01       		.uleb128 0x1
 5575 2013 50       		.byte	0x50
 5576 2014 01       		.uleb128 0x1
 5577 2015 32       		.byte	0x32
 5578 2016 00       		.byte	0
 5579 2017 2A       		.uleb128 0x2a
 5580 2018 1E010000 		.4byte	.LVL104
 5581 201c 18260000 		.4byte	0x2618
 5582 2020 38200000 		.4byte	0x2038
 5583 2024 2B       		.uleb128 0x2b
 5584 2025 01       		.uleb128 0x1
 5585 2026 50       		.byte	0x50
 5586 2027 03       		.uleb128 0x3
 5587 2028 91       		.byte	0x91
 5588 2029 E87B     		.sleb128 -536
 5589 202b 2B       		.uleb128 0x2b
 5590 202c 01       		.uleb128 0x1
 5591 202d 51       		.byte	0x51
 5592 202e 02       		.uleb128 0x2
 5593 202f 74       		.byte	0x74
 5594 2030 00       		.sleb128 0
 5595 2031 2B       		.uleb128 0x2b
 5596 2032 01       		.uleb128 0x1
 5597 2033 52       		.byte	0x52
 5598 2034 02       		.uleb128 0x2
 5599 2035 77       		.byte	0x77
 5600 2036 00       		.sleb128 0
 5601 2037 00       		.byte	0
 5602 2038 2A       		.uleb128 0x2a
 5603 2039 28010000 		.4byte	.LVL105
 5604 203d 18260000 		.4byte	0x2618
 5605 2041 58200000 		.4byte	0x2058
 5606 2045 2B       		.uleb128 0x2b
 5607 2046 01       		.uleb128 0x1
 5608 2047 50       		.byte	0x50
 5609 2048 02       		.uleb128 0x2
 5610 2049 7D       		.byte	0x7d
 5611 204a 00       		.sleb128 0
 5612 204b 2B       		.uleb128 0x2b
 5613 204c 01       		.uleb128 0x1
 5614 204d 51       		.byte	0x51
 5615 204e 02       		.uleb128 0x2
 5616 204f 74       		.byte	0x74
 5617 2050 00       		.sleb128 0
 5618 2051 2B       		.uleb128 0x2b
 5619 2052 01       		.uleb128 0x1
 5620 2053 52       		.byte	0x52
 5621 2054 02       		.uleb128 0x2
 5622 2055 78       		.byte	0x78
ARM GAS  C:\Users\nicpa\AppData\Local\Temp\ccPr5feD.s 			page 169


 5623 2056 00       		.sleb128 0
 5624 2057 00       		.byte	0
 5625 2058 2A       		.uleb128 0x2a
 5626 2059 32010000 		.4byte	.LVL106
 5627 205d 01260000 		.4byte	0x2601
 5628 2061 7B200000 		.4byte	0x207b
 5629 2065 2B       		.uleb128 0x2b
 5630 2066 01       		.uleb128 0x1
 5631 2067 50       		.byte	0x50
 5632 2068 05       		.uleb128 0x5
 5633 2069 03       		.byte	0x3
 5634 206a E4000000 		.4byte	.LC13
 5635 206e 2B       		.uleb128 0x2b
 5636 206f 01       		.uleb128 0x1
 5637 2070 51       		.byte	0x51
 5638 2071 02       		.uleb128 0x2
 5639 2072 08       		.byte	0x8
 5640 2073 BE       		.byte	0xbe
 5641 2074 2B       		.uleb128 0x2b
 5642 2075 01       		.uleb128 0x1
 5643 2076 52       		.byte	0x52
 5644 2077 02       		.uleb128 0x2
 5645 2078 08       		.byte	0x8
 5646 2079 82       		.byte	0x82
 5647 207a 00       		.byte	0
 5648 207b 2A       		.uleb128 0x2a
 5649 207c 3C010000 		.4byte	.LVL107
 5650 2080 01260000 		.4byte	0x2601
 5651 2084 9E200000 		.4byte	0x209e
 5652 2088 2B       		.uleb128 0x2b
 5653 2089 01       		.uleb128 0x1
 5654 208a 50       		.byte	0x50
 5655 208b 05       		.uleb128 0x5
 5656 208c 03       		.byte	0x3
 5657 208d EC000000 		.4byte	.LC14
 5658 2091 2B       		.uleb128 0x2b
 5659 2092 01       		.uleb128 0x1
 5660 2093 51       		.byte	0x51
 5661 2094 02       		.uleb128 0x2
 5662 2095 08       		.byte	0x8
 5663 2096 28       		.byte	0x28
 5664 2097 2B       		.uleb128 0x2b
 5665 2098 01       		.uleb128 0x1
 5666 2099 52       		.byte	0x52
 5667 209a 02       		.uleb128 0x2
 5668 209b 08       		.byte	0x8
 5669 209c 82       		.byte	0x82
 5670 209d 00       		.byte	0
 5671 209e 29       		.uleb128 0x29
 5672 209f 42010000 		.4byte	.LVL108
 5673 20a3 E9250000 		.4byte	0x25e9
 5674 20a7 2A       		.uleb128 0x2a
 5675 20a8 4C010000 		.4byte	.LVL109
 5676 20ac 01260000 		.4byte	0x2601
 5677 20b0 C8200000 		.4byte	0x20c8
 5678 20b4 2B       		.uleb128 0x2b
 5679 20b5 01       		.uleb128 0x1
ARM GAS  C:\Users\nicpa\AppData\Local\Temp\ccPr5feD.s 			page 170


 5680 20b6 50       		.byte	0x50
 5681 20b7 03       		.uleb128 0x3
 5682 20b8 91       		.byte	0x91
 5683 20b9 E87B     		.sleb128 -536
 5684 20bb 2B       		.uleb128 0x2b
 5685 20bc 01       		.uleb128 0x1
 5686 20bd 51       		.byte	0x51
 5687 20be 02       		.uleb128 0x2
 5688 20bf 08       		.byte	0x8
 5689 20c0 41       		.byte	0x41
 5690 20c1 2B       		.uleb128 0x2b
 5691 20c2 01       		.uleb128 0x1
 5692 20c3 52       		.byte	0x52
 5693 20c4 02       		.uleb128 0x2
 5694 20c5 08       		.byte	0x8
 5695 20c6 9B       		.byte	0x9b
 5696 20c7 00       		.byte	0
 5697 20c8 29       		.uleb128 0x29
 5698 20c9 68010000 		.4byte	.LVL110
 5699 20cd E9250000 		.4byte	0x25e9
 5700 20d1 2A       		.uleb128 0x2a
 5701 20d2 74010000 		.4byte	.LVL111
 5702 20d6 01260000 		.4byte	0x2601
 5703 20da F0200000 		.4byte	0x20f0
 5704 20de 2B       		.uleb128 0x2b
 5705 20df 01       		.uleb128 0x1
 5706 20e0 50       		.byte	0x50
 5707 20e1 02       		.uleb128 0x2
 5708 20e2 74       		.byte	0x74
 5709 20e3 00       		.sleb128 0
 5710 20e4 2B       		.uleb128 0x2b
 5711 20e5 01       		.uleb128 0x1
 5712 20e6 51       		.byte	0x51
 5713 20e7 01       		.uleb128 0x1
 5714 20e8 49       		.byte	0x49
 5715 20e9 2B       		.uleb128 0x2b
 5716 20ea 01       		.uleb128 0x1
 5717 20eb 52       		.byte	0x52
 5718 20ec 02       		.uleb128 0x2
 5719 20ed 08       		.byte	0x8
 5720 20ee 91       		.byte	0x91
 5721 20ef 00       		.byte	0
 5722 20f0 2A       		.uleb128 0x2a
 5723 20f1 7E010000 		.4byte	.LVL112
 5724 20f5 01260000 		.4byte	0x2601
 5725 20f9 10210000 		.4byte	0x2110
 5726 20fd 2B       		.uleb128 0x2b
 5727 20fe 01       		.uleb128 0x1
 5728 20ff 50       		.byte	0x50
 5729 2100 02       		.uleb128 0x2
 5730 2101 74       		.byte	0x74
 5731 2102 00       		.sleb128 0
 5732 2103 2B       		.uleb128 0x2b
 5733 2104 01       		.uleb128 0x1
 5734 2105 51       		.byte	0x51
 5735 2106 02       		.uleb128 0x2
 5736 2107 08       		.byte	0x8
ARM GAS  C:\Users\nicpa\AppData\Local\Temp\ccPr5feD.s 			page 171


 5737 2108 5A       		.byte	0x5a
 5738 2109 2B       		.uleb128 0x2b
 5739 210a 01       		.uleb128 0x1
 5740 210b 52       		.byte	0x52
 5741 210c 02       		.uleb128 0x2
 5742 210d 08       		.byte	0x8
 5743 210e 91       		.byte	0x91
 5744 210f 00       		.byte	0
 5745 2110 29       		.uleb128 0x29
 5746 2111 84010000 		.4byte	.LVL113
 5747 2115 E9250000 		.4byte	0x25e9
 5748 2119 2A       		.uleb128 0x2a
 5749 211a 8E010000 		.4byte	.LVL114
 5750 211e 01260000 		.4byte	0x2601
 5751 2122 39210000 		.4byte	0x2139
 5752 2126 2B       		.uleb128 0x2b
 5753 2127 01       		.uleb128 0x1
 5754 2128 50       		.byte	0x50
 5755 2129 02       		.uleb128 0x2
 5756 212a 7D       		.byte	0x7d
 5757 212b 00       		.sleb128 0
 5758 212c 2B       		.uleb128 0x2b
 5759 212d 01       		.uleb128 0x1
 5760 212e 51       		.byte	0x51
 5761 212f 02       		.uleb128 0x2
 5762 2130 08       		.byte	0x8
 5763 2131 B4       		.byte	0xb4
 5764 2132 2B       		.uleb128 0x2b
 5765 2133 01       		.uleb128 0x1
 5766 2134 52       		.byte	0x52
 5767 2135 02       		.uleb128 0x2
 5768 2136 08       		.byte	0x8
 5769 2137 9B       		.byte	0x9b
 5770 2138 00       		.byte	0
 5771 2139 2A       		.uleb128 0x2a
 5772 213a 98010000 		.4byte	.LVL115
 5773 213e 01260000 		.4byte	0x2601
 5774 2142 5C210000 		.4byte	0x215c
 5775 2146 2B       		.uleb128 0x2b
 5776 2147 01       		.uleb128 0x1
 5777 2148 50       		.byte	0x50
 5778 2149 05       		.uleb128 0x5
 5779 214a 03       		.byte	0x3
 5780 214b FC000000 		.4byte	.LC16
 5781 214f 2B       		.uleb128 0x2b
 5782 2150 01       		.uleb128 0x1
 5783 2151 51       		.byte	0x51
 5784 2152 02       		.uleb128 0x2
 5785 2153 08       		.byte	0x8
 5786 2154 C8       		.byte	0xc8
 5787 2155 2B       		.uleb128 0x2b
 5788 2156 01       		.uleb128 0x1
 5789 2157 52       		.byte	0x52
 5790 2158 02       		.uleb128 0x2
 5791 2159 08       		.byte	0x8
 5792 215a 9B       		.byte	0x9b
 5793 215b 00       		.byte	0
ARM GAS  C:\Users\nicpa\AppData\Local\Temp\ccPr5feD.s 			page 172


 5794 215c 2C       		.uleb128 0x2c
 5795 215d A0010000 		.4byte	.LVL116
 5796 2161 0D260000 		.4byte	0x260d
 5797 2165 2B       		.uleb128 0x2b
 5798 2166 01       		.uleb128 0x1
 5799 2167 50       		.byte	0x50
 5800 2168 01       		.uleb128 0x1
 5801 2169 32       		.byte	0x32
 5802 216a 2B       		.uleb128 0x2b
 5803 216b 01       		.uleb128 0x1
 5804 216c 51       		.byte	0x51
 5805 216d 01       		.uleb128 0x1
 5806 216e 31       		.byte	0x31
 5807 216f 00       		.byte	0
 5808 2170 00       		.byte	0
 5809 2171 1A       		.uleb128 0x1a
 5810 2172 04       		.byte	0x4
 5811 2173 1B0C0000 		.4byte	0xc1b
 5812 2177 0C       		.uleb128 0xc
 5813 2178 2C000000 		.4byte	0x2c
 5814 217c 87210000 		.4byte	0x2187
 5815 2180 0D       		.uleb128 0xd
 5816 2181 8E050000 		.4byte	0x58e
 5817 2185 7C       		.byte	0x7c
 5818 2186 00       		.byte	0
 5819 2187 0C       		.uleb128 0xc
 5820 2188 F50B0000 		.4byte	0xbf5
 5821 218c 97210000 		.4byte	0x2197
 5822 2190 0D       		.uleb128 0xd
 5823 2191 8E050000 		.4byte	0x58e
 5824 2195 04       		.byte	0x4
 5825 2196 00       		.byte	0
 5826 2197 37       		.uleb128 0x37
 5827 2198 E00D0000 		.4byte	.LASF526
 5828 219c 01       		.byte	0x1
 5829 219d 4C01     		.2byte	0x14c
 5830 219f 00000000 		.4byte	.LFB703
 5831 21a3 54020000 		.4byte	.LFE703-.LFB703
 5832 21a7 01       		.uleb128 0x1
 5833 21a8 9C       		.byte	0x9c
 5834 21a9 1D230000 		.4byte	0x231d
 5835 21ad 38       		.uleb128 0x38
 5836 21ae 601F0000 		.4byte	.LASF469
 5837 21b2 01       		.byte	0x1
 5838 21b3 4C01     		.2byte	0x14c
 5839 21b5 570C0000 		.4byte	0xc57
 5840 21b9 7F020000 		.4byte	.LLST16
 5841 21bd 39       		.uleb128 0x39
 5842 21be 00080000 		.4byte	.LASF470
 5843 21c2 01       		.byte	0x1
 5844 21c3 5301     		.2byte	0x153
 5845 21c5 80040000 		.4byte	0x480
 5846 21c9 A0020000 		.4byte	.LLST17
 5847 21cd 35       		.uleb128 0x35
 5848 21ce 23160000 		.4byte	0x1623
 5849 21d2 20000000 		.4byte	.LBB24
 5850 21d6 20000000 		.4byte	.LBE24-.LBB24
ARM GAS  C:\Users\nicpa\AppData\Local\Temp\ccPr5feD.s 			page 173


 5851 21da 01       		.byte	0x1
 5852 21db 5601     		.2byte	0x156
 5853 21dd 0B220000 		.4byte	0x220b
 5854 21e1 36       		.uleb128 0x36
 5855 21e2 30160000 		.4byte	0x1630
 5856 21e6 D5020000 		.4byte	.LLST18
 5857 21ea 3A       		.uleb128 0x3a
 5858 21eb E8150000 		.4byte	0x15e8
 5859 21ef 38000000 		.4byte	.LBB26
 5860 21f3 04000000 		.4byte	.LBE26-.LBB26
 5861 21f7 03       		.byte	0x3
 5862 21f8 BE06     		.2byte	0x6be
 5863 21fa 3A       		.uleb128 0x3a
 5864 21fb DF150000 		.4byte	0x15df
 5865 21ff 3C000000 		.4byte	.LBB28
 5866 2203 04000000 		.4byte	.LBE28-.LBB28
 5867 2207 03       		.byte	0x3
 5868 2208 BF06     		.2byte	0x6bf
 5869 220a 00       		.byte	0
 5870 220b 35       		.uleb128 0x35
 5871 220c 3D160000 		.4byte	0x163d
 5872 2210 DE010000 		.4byte	.LBB30
 5873 2214 16000000 		.4byte	.LBE30-.LBB30
 5874 2218 01       		.byte	0x1
 5875 2219 E401     		.2byte	0x1e4
 5876 221b 29220000 		.4byte	0x2229
 5877 221f 36       		.uleb128 0x36
 5878 2220 4A160000 		.4byte	0x164a
 5879 2224 F4020000 		.4byte	.LLST19
 5880 2228 00       		.byte	0
 5881 2229 29       		.uleb128 0x29
 5882 222a 08000000 		.4byte	.LVL120
 5883 222e 23260000 		.4byte	0x2623
 5884 2232 2A       		.uleb128 0x2a
 5885 2233 0E000000 		.4byte	.LVL121
 5886 2237 2F260000 		.4byte	0x262f
 5887 223b 45220000 		.4byte	0x2245
 5888 223f 2B       		.uleb128 0x2b
 5889 2240 01       		.uleb128 0x1
 5890 2241 50       		.byte	0x50
 5891 2242 01       		.uleb128 0x1
 5892 2243 44       		.byte	0x44
 5893 2244 00       		.byte	0
 5894 2245 2A       		.uleb128 0x2a
 5895 2246 14000000 		.4byte	.LVL122
 5896 224a 3A260000 		.4byte	0x263a
 5897 224e 58220000 		.4byte	0x2258
 5898 2252 2B       		.uleb128 0x2b
 5899 2253 01       		.uleb128 0x1
 5900 2254 50       		.byte	0x50
 5901 2255 01       		.uleb128 0x1
 5902 2256 31       		.byte	0x31
 5903 2257 00       		.byte	0
 5904 2258 2A       		.uleb128 0x2a
 5905 2259 1A000000 		.4byte	.LVL123
 5906 225d 57160000 		.4byte	0x1657
 5907 2261 6B220000 		.4byte	0x226b
ARM GAS  C:\Users\nicpa\AppData\Local\Temp\ccPr5feD.s 			page 174


 5908 2265 2B       		.uleb128 0x2b
 5909 2266 01       		.uleb128 0x1
 5910 2267 50       		.byte	0x50
 5911 2268 01       		.uleb128 0x1
 5912 2269 31       		.byte	0x31
 5913 226a 00       		.byte	0
 5914 226b 2A       		.uleb128 0x2a
 5915 226c 72000000 		.4byte	.LVL133
 5916 2270 57160000 		.4byte	0x1657
 5917 2274 7F220000 		.4byte	0x227f
 5918 2278 2B       		.uleb128 0x2b
 5919 2279 01       		.uleb128 0x1
 5920 227a 50       		.byte	0x50
 5921 227b 02       		.uleb128 0x2
 5922 227c 75       		.byte	0x75
 5923 227d 00       		.sleb128 0
 5924 227e 00       		.byte	0
 5925 227f 2A       		.uleb128 0x2a
 5926 2280 A8000000 		.4byte	.LVL134
 5927 2284 45260000 		.4byte	0x2645
 5928 2288 92220000 		.4byte	0x2292
 5929 228c 2B       		.uleb128 0x2b
 5930 228d 01       		.uleb128 0x1
 5931 228e 50       		.byte	0x50
 5932 228f 01       		.uleb128 0x1
 5933 2290 3C       		.byte	0x3c
 5934 2291 00       		.byte	0
 5935 2292 2A       		.uleb128 0x2a
 5936 2293 B0000000 		.4byte	.LVL135
 5937 2297 45260000 		.4byte	0x2645
 5938 229b A5220000 		.4byte	0x22a5
 5939 229f 2B       		.uleb128 0x2b
 5940 22a0 01       		.uleb128 0x1
 5941 22a1 50       		.byte	0x50
 5942 22a2 01       		.uleb128 0x1
 5943 22a3 3D       		.byte	0x3d
 5944 22a4 00       		.byte	0
 5945 22a5 2A       		.uleb128 0x2a
 5946 22a6 C8000000 		.4byte	.LVL136
 5947 22aa 45260000 		.4byte	0x2645
 5948 22ae B8220000 		.4byte	0x22b8
 5949 22b2 2B       		.uleb128 0x2b
 5950 22b3 01       		.uleb128 0x1
 5951 22b4 50       		.byte	0x50
 5952 22b5 01       		.uleb128 0x1
 5953 22b6 3C       		.byte	0x3c
 5954 22b7 00       		.byte	0
 5955 22b8 2A       		.uleb128 0x2a
 5956 22b9 D0000000 		.4byte	.LVL137
 5957 22bd 45260000 		.4byte	0x2645
 5958 22c1 CB220000 		.4byte	0x22cb
 5959 22c5 2B       		.uleb128 0x2b
 5960 22c6 01       		.uleb128 0x1
 5961 22c7 50       		.byte	0x50
 5962 22c8 01       		.uleb128 0x1
 5963 22c9 3D       		.byte	0x3d
 5964 22ca 00       		.byte	0
ARM GAS  C:\Users\nicpa\AppData\Local\Temp\ccPr5feD.s 			page 175


 5965 22cb 29       		.uleb128 0x29
 5966 22cc D4000000 		.4byte	.LVL138
 5967 22d0 5F1A0000 		.4byte	0x1a5f
 5968 22d4 29       		.uleb128 0x29
 5969 22d5 32010000 		.4byte	.LVL139
 5970 22d9 C51B0000 		.4byte	0x1bc5
 5971 22dd 2A       		.uleb128 0x2a
 5972 22de 7C010000 		.4byte	.LVL140
 5973 22e2 C91D0000 		.4byte	0x1dc9
 5974 22e6 F4220000 		.4byte	0x22f4
 5975 22ea 2B       		.uleb128 0x2b
 5976 22eb 01       		.uleb128 0x1
 5977 22ec 50       		.byte	0x50
 5978 22ed 05       		.uleb128 0x5
 5979 22ee 03       		.byte	0x3
 5980 22ef 00000000 		.4byte	signal_R
 5981 22f3 00       		.byte	0
 5982 22f4 2A       		.uleb128 0x2a
 5983 22f5 C6010000 		.4byte	.LVL141
 5984 22f9 C91D0000 		.4byte	0x1dc9
 5985 22fd 0B230000 		.4byte	0x230b
 5986 2301 2B       		.uleb128 0x2b
 5987 2302 01       		.uleb128 0x1
 5988 2303 50       		.byte	0x50
 5989 2304 05       		.uleb128 0x5
 5990 2305 03       		.byte	0x3
 5991 2306 00000000 		.4byte	signal_IF
 5992 230a 00       		.byte	0
 5993 230b 2C       		.uleb128 0x2c
 5994 230c FC010000 		.4byte	.LVL146
 5995 2310 50260000 		.4byte	0x2650
 5996 2314 2B       		.uleb128 0x2b
 5997 2315 01       		.uleb128 0x1
 5998 2316 50       		.byte	0x50
 5999 2317 03       		.uleb128 0x3
 6000 2318 0A       		.byte	0xa
 6001 2319 D007     		.2byte	0x7d0
 6002 231b 00       		.byte	0
 6003 231c 00       		.byte	0
 6004 231d 3B       		.uleb128 0x3b
 6005 231e 61130000 		.4byte	.LASF471
 6006 2322 03       		.byte	0x3
 6007 2323 0108     		.2byte	0x801
 6008 2325 29230000 		.4byte	0x2329
 6009 2329 0E       		.uleb128 0xe
 6010 232a AC040000 		.4byte	0x4ac
 6011 232e 3C       		.uleb128 0x3c
 6012 232f CC1B0000 		.4byte	.LASF472
 6013 2333 0A       		.byte	0xa
 6014 2334 A7       		.byte	0xa7
 6015 2335 39230000 		.4byte	0x2339
 6016 2339 1A       		.uleb128 0x1a
 6017 233a 04       		.byte	0x4
 6018 233b 3F230000 		.4byte	0x233f
 6019 233f 11       		.uleb128 0x11
 6020 2340 DE0B0000 		.4byte	0xbde
 6021 2344 3C       		.uleb128 0x3c
ARM GAS  C:\Users\nicpa\AppData\Local\Temp\ccPr5feD.s 			page 176


 6022 2345 0D200000 		.4byte	.LASF473
 6023 2349 14       		.byte	0x14
 6024 234a 1C       		.byte	0x1c
 6025 234b 4F230000 		.4byte	0x234f
 6026 234f 11       		.uleb128 0x11
 6027 2350 4B0C0000 		.4byte	0xc4b
 6028 2354 3C       		.uleb128 0x3c
 6029 2355 F6060000 		.4byte	.LASF474
 6030 2359 15       		.byte	0x15
 6031 235a 5E       		.byte	0x5e
 6032 235b 890E0000 		.4byte	0xe89
 6033 235f 3C       		.uleb128 0x3c
 6034 2360 1F210000 		.4byte	.LASF475
 6035 2364 16       		.byte	0x16
 6036 2365 1F       		.byte	0x1f
 6037 2366 6A230000 		.4byte	0x236a
 6038 236a 11       		.uleb128 0x11
 6039 236b 62100000 		.4byte	0x1062
 6040 236f 3C       		.uleb128 0x3c
 6041 2370 2C230000 		.4byte	.LASF476
 6042 2374 17       		.byte	0x17
 6043 2375 7F       		.byte	0x7f
 6044 2376 EE0D0000 		.4byte	0xdee
 6045 237a 3C       		.uleb128 0x3c
 6046 237b 01210000 		.4byte	.LASF477
 6047 237f 18       		.byte	0x18
 6048 2380 7F       		.byte	0x7f
 6049 2381 EE0D0000 		.4byte	0xdee
 6050 2385 3C       		.uleb128 0x3c
 6051 2386 7F150000 		.4byte	.LASF478
 6052 238a 19       		.byte	0x19
 6053 238b 87       		.byte	0x87
 6054 238c 650F0000 		.4byte	0xf65
 6055 2390 3B       		.uleb128 0x3b
 6056 2391 C3010000 		.4byte	.LASF479
 6057 2395 1A       		.byte	0x1a
 6058 2396 0708     		.2byte	0x807
 6059 2398 EB140000 		.4byte	0x14eb
 6060 239c 3B       		.uleb128 0x3b
 6061 239d 57200000 		.4byte	.LASF480
 6062 23a1 1A       		.byte	0x1a
 6063 23a2 0808     		.2byte	0x808
 6064 23a4 EB140000 		.4byte	0x14eb
 6065 23a8 3B       		.uleb128 0x3b
 6066 23a9 A8180000 		.4byte	.LASF481
 6067 23ad 1A       		.byte	0x1a
 6068 23ae 0C08     		.2byte	0x80c
 6069 23b0 EB140000 		.4byte	0x14eb
 6070 23b4 3B       		.uleb128 0x3b
 6071 23b5 6E130000 		.4byte	.LASF482
 6072 23b9 1A       		.byte	0x1a
 6073 23ba 0E08     		.2byte	0x80e
 6074 23bc EB140000 		.4byte	0x14eb
 6075 23c0 3C       		.uleb128 0x3c
 6076 23c1 B1030000 		.4byte	.LASF483
 6077 23c5 1B       		.byte	0x1b
 6078 23c6 18       		.byte	0x18
ARM GAS  C:\Users\nicpa\AppData\Local\Temp\ccPr5feD.s 			page 177


 6079 23c7 CB230000 		.4byte	0x23cb
 6080 23cb 11       		.uleb128 0x11
 6081 23cc 8B040000 		.4byte	0x48b
 6082 23d0 3C       		.uleb128 0x3c
 6083 23d1 481D0000 		.4byte	.LASF484
 6084 23d5 1B       		.byte	0x1b
 6085 23d6 19       		.byte	0x19
 6086 23d7 CB230000 		.4byte	0x23cb
 6087 23db 3C       		.uleb128 0x3c
 6088 23dc F2220000 		.4byte	.LASF485
 6089 23e0 1B       		.byte	0x1b
 6090 23e1 1A       		.byte	0x1a
 6091 23e2 CB230000 		.4byte	0x23cb
 6092 23e6 3C       		.uleb128 0x3c
 6093 23e7 4C090000 		.4byte	.LASF486
 6094 23eb 1B       		.byte	0x1b
 6095 23ec 1B       		.byte	0x1b
 6096 23ed CB230000 		.4byte	0x23cb
 6097 23f1 3C       		.uleb128 0x3c
 6098 23f2 C40F0000 		.4byte	.LASF487
 6099 23f6 1B       		.byte	0x1b
 6100 23f7 1C       		.byte	0x1c
 6101 23f8 CB230000 		.4byte	0x23cb
 6102 23fc 3D       		.uleb128 0x3d
 6103 23fd 47060000 		.4byte	.LASF488
 6104 2401 1B       		.byte	0x1b
 6105 2402 27       		.byte	0x27
 6106 2403 8B040000 		.4byte	0x48b
 6107 2407 05       		.uleb128 0x5
 6108 2408 03       		.byte	0x3
 6109 2409 00000000 		.4byte	currentpage
 6110 240d 3D       		.uleb128 0x3d
 6111 240e 6E1C0000 		.4byte	.LASF489
 6112 2412 1B       		.byte	0x1b
 6113 2413 28       		.byte	0x28
 6114 2414 8B040000 		.4byte	0x48b
 6115 2418 05       		.uleb128 0x5
 6116 2419 03       		.byte	0x3
 6117 241a 00000000 		.4byte	currenttouch
 6118 241e 3D       		.uleb128 0x3d
 6119 241f 2E070000 		.4byte	.LASF490
 6120 2423 1B       		.byte	0x1b
 6121 2424 29       		.byte	0x29
 6122 2425 590C0000 		.4byte	0xc59
 6123 2429 05       		.uleb128 0x5
 6124 242a 03       		.byte	0x3
 6125 242b 00000000 		.4byte	alerte
 6126 242f 3E       		.uleb128 0x3e
 6127 2430 4C454400 		.ascii	"LED\000"
 6128 2434 1B       		.byte	0x1b
 6129 2435 2C       		.byte	0x2c
 6130 2436 B7040000 		.4byte	0x4b7
 6131 243a 05       		.uleb128 0x5
 6132 243b 03       		.byte	0x3
 6133 243c 00000000 		.4byte	LED
 6134 2440 3D       		.uleb128 0x3d
 6135 2441 31190000 		.4byte	.LASF491
ARM GAS  C:\Users\nicpa\AppData\Local\Temp\ccPr5feD.s 			page 178


 6136 2445 1B       		.byte	0x1b
 6137 2446 2F       		.byte	0x2f
 6138 2447 590C0000 		.4byte	0xc59
 6139 244b 05       		.uleb128 0x5
 6140 244c 03       		.byte	0x3
 6141 244d 00000000 		.4byte	maxormin
 6142 2451 3D       		.uleb128 0x3d
 6143 2452 09100000 		.4byte	.LASF492
 6144 2456 1B       		.byte	0x1b
 6145 2457 30       		.byte	0x30
 6146 2458 B7040000 		.4byte	0x4b7
 6147 245c 05       		.uleb128 0x5
 6148 245d 03       		.byte	0x3
 6149 245e 00000000 		.4byte	hrmax
 6150 2462 3D       		.uleb128 0x3d
 6151 2463 2D120000 		.4byte	.LASF493
 6152 2467 1B       		.byte	0x1b
 6153 2468 31       		.byte	0x31
 6154 2469 B7040000 		.4byte	0x4b7
 6155 246d 05       		.uleb128 0x5
 6156 246e 03       		.byte	0x3
 6157 246f 00000000 		.4byte	hrmin
 6158 2473 0C       		.uleb128 0xc
 6159 2474 1B0C0000 		.4byte	0xc1b
 6160 2478 84240000 		.4byte	0x2484
 6161 247c 0F       		.uleb128 0xf
 6162 247d 8E050000 		.4byte	0x58e
 6163 2481 E703     		.2byte	0x3e7
 6164 2483 00       		.byte	0
 6165 2484 3D       		.uleb128 0x3d
 6166 2485 14120000 		.4byte	.LASF494
 6167 2489 1C       		.byte	0x1c
 6168 248a 17       		.byte	0x17
 6169 248b 73240000 		.4byte	0x2473
 6170 248f 05       		.uleb128 0x5
 6171 2490 03       		.byte	0x3
 6172 2491 00000000 		.4byte	red_data
 6173 2495 3D       		.uleb128 0x3d
 6174 2496 EA220000 		.4byte	.LASF495
 6175 249a 1C       		.byte	0x1c
 6176 249b 18       		.byte	0x18
 6177 249c 73240000 		.4byte	0x2473
 6178 24a0 05       		.uleb128 0x5
 6179 24a1 03       		.byte	0x3
 6180 24a2 00000000 		.4byte	ir_data
 6181 24a6 3D       		.uleb128 0x3d
 6182 24a7 AC1D0000 		.4byte	.LASF496
 6183 24ab 1C       		.byte	0x1c
 6184 24ac 19       		.byte	0x19
 6185 24ad 590C0000 		.4byte	0xc59
 6186 24b1 05       		.uleb128 0x5
 6187 24b2 03       		.byte	0x3
 6188 24b3 00000000 		.4byte	read_flag_MAX
 6189 24b7 3D       		.uleb128 0x3d
 6190 24b8 5F0F0000 		.4byte	.LASF497
 6191 24bc 1C       		.byte	0x1c
 6192 24bd 1A       		.byte	0x1a
ARM GAS  C:\Users\nicpa\AppData\Local\Temp\ccPr5feD.s 			page 179


 6193 24be 2C000000 		.4byte	0x2c
 6194 24c2 05       		.uleb128 0x5
 6195 24c3 03       		.byte	0x3
 6196 24c4 00000000 		.4byte	write_idx_MAX
 6197 24c8 0C       		.uleb128 0xc
 6198 24c9 FC0B0000 		.4byte	0xbfc
 6199 24cd D9240000 		.4byte	0x24d9
 6200 24d1 0F       		.uleb128 0xf
 6201 24d2 8E050000 		.4byte	0x58e
 6202 24d6 E703     		.2byte	0x3e7
 6203 24d8 00       		.byte	0
 6204 24d9 3D       		.uleb128 0x3d
 6205 24da 93060000 		.4byte	.LASF498
 6206 24de 1D       		.byte	0x1d
 6207 24df 16       		.byte	0x16
 6208 24e0 C8240000 		.4byte	0x24c8
 6209 24e4 05       		.uleb128 0x5
 6210 24e5 03       		.byte	0x3
 6211 24e6 00000000 		.4byte	signal_R
 6212 24ea 3D       		.uleb128 0x3d
 6213 24eb B5000000 		.4byte	.LASF499
 6214 24ef 1D       		.byte	0x1d
 6215 24f0 17       		.byte	0x17
 6216 24f1 C8240000 		.4byte	0x24c8
 6217 24f5 05       		.uleb128 0x5
 6218 24f6 03       		.byte	0x3
 6219 24f7 00000000 		.4byte	signal_IF
 6220 24fb 3D       		.uleb128 0x3d
 6221 24fc 57180000 		.4byte	.LASF500
 6222 2500 1D       		.byte	0x1d
 6223 2501 18       		.byte	0x18
 6224 2502 C8240000 		.4byte	0x24c8
 6225 2506 05       		.uleb128 0x5
 6226 2507 03       		.byte	0x3
 6227 2508 00000000 		.4byte	signal_AC_R
 6228 250c 3D       		.uleb128 0x3d
 6229 250d F70B0000 		.4byte	.LASF501
 6230 2511 1D       		.byte	0x1d
 6231 2512 19       		.byte	0x19
 6232 2513 C8240000 		.4byte	0x24c8
 6233 2517 05       		.uleb128 0x5
 6234 2518 03       		.byte	0x3
 6235 2519 00000000 		.4byte	signal_AC_IF
 6236 251d 3D       		.uleb128 0x3d
 6237 251e DA130000 		.4byte	.LASF502
 6238 2522 1D       		.byte	0x1d
 6239 2523 1B       		.byte	0x1b
 6240 2524 1B0C0000 		.4byte	0xc1b
 6241 2528 05       		.uleb128 0x5
 6242 2529 03       		.byte	0x3
 6243 252a 00000000 		.4byte	AC_R
 6244 252e 3D       		.uleb128 0x3d
 6245 252f 45200000 		.4byte	.LASF503
 6246 2533 1D       		.byte	0x1d
 6247 2534 1C       		.byte	0x1c
 6248 2535 1B0C0000 		.4byte	0xc1b
 6249 2539 05       		.uleb128 0x5
ARM GAS  C:\Users\nicpa\AppData\Local\Temp\ccPr5feD.s 			page 180


 6250 253a 03       		.byte	0x3
 6251 253b 00000000 		.4byte	AC_IF
 6252 253f 3D       		.uleb128 0x3d
 6253 2540 F5010000 		.4byte	.LASF504
 6254 2544 1D       		.byte	0x1d
 6255 2545 1D       		.byte	0x1d
 6256 2546 1B0C0000 		.4byte	0xc1b
 6257 254a 05       		.uleb128 0x5
 6258 254b 03       		.byte	0x3
 6259 254c 00000000 		.4byte	DC_R
 6260 2550 3D       		.uleb128 0x3d
 6261 2551 E70F0000 		.4byte	.LASF505
 6262 2555 1D       		.byte	0x1d
 6263 2556 1E       		.byte	0x1e
 6264 2557 1B0C0000 		.4byte	0xc1b
 6265 255b 05       		.uleb128 0x5
 6266 255c 03       		.byte	0x3
 6267 255d 00000000 		.4byte	DC_IF
 6268 2561 3E       		.uleb128 0x3e
 6269 2562 5300     		.ascii	"S\000"
 6270 2564 1D       		.byte	0x1d
 6271 2565 1F       		.byte	0x1f
 6272 2566 1B0C0000 		.4byte	0xc1b
 6273 256a 05       		.uleb128 0x5
 6274 256b 03       		.byte	0x3
 6275 256c 00000000 		.4byte	S
 6276 2570 3E       		.uleb128 0x3e
 6277 2571 5200     		.ascii	"R\000"
 6278 2573 1D       		.byte	0x1d
 6279 2574 20       		.byte	0x20
 6280 2575 1B0C0000 		.4byte	0xc1b
 6281 2579 05       		.uleb128 0x5
 6282 257a 03       		.byte	0x3
 6283 257b 00000000 		.4byte	R
 6284 257f 3E       		.uleb128 0x3e
 6285 2580 42504D00 		.ascii	"BPM\000"
 6286 2584 1D       		.byte	0x1d
 6287 2585 23       		.byte	0x23
 6288 2586 1B0C0000 		.4byte	0xc1b
 6289 258a 05       		.uleb128 0x5
 6290 258b 03       		.byte	0x3
 6291 258c 00000000 		.4byte	BPM
 6292 2590 3D       		.uleb128 0x3d
 6293 2591 EC040000 		.4byte	.LASF506
 6294 2595 1E       		.byte	0x1e
 6295 2596 48       		.byte	0x48
 6296 2597 590C0000 		.4byte	0xc59
 6297 259b 05       		.uleb128 0x5
 6298 259c 03       		.byte	0x3
 6299 259d 00000000 		.4byte	LED_flag
 6300 25a1 3F       		.uleb128 0x3f
 6301 25a2 61150000 		.4byte	.LASF507
 6302 25a6 61150000 		.4byte	.LASF507
 6303 25aa 1A       		.byte	0x1a
 6304 25ab F601     		.2byte	0x1f6
 6305 25ad 3F       		.uleb128 0x3f
 6306 25ae AE200000 		.4byte	.LASF508
ARM GAS  C:\Users\nicpa\AppData\Local\Temp\ccPr5feD.s 			page 181


 6307 25b2 AE200000 		.4byte	.LASF508
 6308 25b6 1A       		.byte	0x1a
 6309 25b7 C501     		.2byte	0x1c5
 6310 25b9 3F       		.uleb128 0x3f
 6311 25ba 7C130000 		.4byte	.LASF509
 6312 25be 7C130000 		.4byte	.LASF509
 6313 25c2 1A       		.byte	0x1a
 6314 25c3 C101     		.2byte	0x1c1
 6315 25c5 3F       		.uleb128 0x3f
 6316 25c6 C80A0000 		.4byte	.LASF510
 6317 25ca C80A0000 		.4byte	.LASF510
 6318 25ce 1A       		.byte	0x1a
 6319 25cf C001     		.2byte	0x1c0
 6320 25d1 3F       		.uleb128 0x3f
 6321 25d2 95050000 		.4byte	.LASF511
 6322 25d6 95050000 		.4byte	.LASF511
 6323 25da 1A       		.byte	0x1a
 6324 25db 1202     		.2byte	0x212
 6325 25dd 3F       		.uleb128 0x3f
 6326 25de 760A0000 		.4byte	.LASF512
 6327 25e2 760A0000 		.4byte	.LASF512
 6328 25e6 1A       		.byte	0x1a
 6329 25e7 0902     		.2byte	0x209
 6330 25e9 3F       		.uleb128 0x3f
 6331 25ea 3F1F0000 		.4byte	.LASF513
 6332 25ee 3F1F0000 		.4byte	.LASF513
 6333 25f2 1A       		.byte	0x1a
 6334 25f3 2B03     		.2byte	0x32b
 6335 25f5 3F       		.uleb128 0x3f
 6336 25f6 B90D0000 		.4byte	.LASF514
 6337 25fa B90D0000 		.4byte	.LASF514
 6338 25fe 1A       		.byte	0x1a
 6339 25ff 2603     		.2byte	0x326
 6340 2601 3F       		.uleb128 0x3f
 6341 2602 85040000 		.4byte	.LASF515
 6342 2606 85040000 		.4byte	.LASF515
 6343 260a 1A       		.byte	0x1a
 6344 260b 0503     		.2byte	0x305
 6345 260d 40       		.uleb128 0x40
 6346 260e A1010000 		.4byte	.LASF516
 6347 2612 A1010000 		.4byte	.LASF516
 6348 2616 1F       		.byte	0x1f
 6349 2617 18       		.byte	0x18
 6350 2618 40       		.uleb128 0x40
 6351 2619 0F100000 		.4byte	.LASF517
 6352 261d 0F100000 		.4byte	.LASF517
 6353 2621 20       		.byte	0x20
 6354 2622 E7       		.byte	0xe7
 6355 2623 3F       		.uleb128 0x3f
 6356 2624 BD110000 		.4byte	.LASF518
 6357 2628 BD110000 		.4byte	.LASF518
 6358 262c 1A       		.byte	0x1a
 6359 262d 6D01     		.2byte	0x16d
 6360 262f 40       		.uleb128 0x40
 6361 2630 AE190000 		.4byte	.LASF519
 6362 2634 AE190000 		.4byte	.LASF519
 6363 2638 13       		.byte	0x13
ARM GAS  C:\Users\nicpa\AppData\Local\Temp\ccPr5feD.s 			page 182


 6364 2639 79       		.byte	0x79
 6365 263a 40       		.uleb128 0x40
 6366 263b 7B1C0000 		.4byte	.LASF520
 6367 263f 7B1C0000 		.4byte	.LASF520
 6368 2643 13       		.byte	0x13
 6369 2644 7A       		.byte	0x7a
 6370 2645 40       		.uleb128 0x40
 6371 2646 C40E0000 		.4byte	.LASF521
 6372 264a C40E0000 		.4byte	.LASF521
 6373 264e 1C       		.byte	0x1c
 6374 264f 1F       		.byte	0x1f
 6375 2650 3F       		.uleb128 0x3f
 6376 2651 35180000 		.4byte	.LASF522
 6377 2655 35180000 		.4byte	.LASF522
 6378 2659 21       		.byte	0x21
 6379 265a ED02     		.2byte	0x2ed
 6380 265c 00       		.byte	0
 6381              		.section	.debug_abbrev,"",%progbits
 6382              	.Ldebug_abbrev0:
 6383 0000 01       		.uleb128 0x1
 6384 0001 11       		.uleb128 0x11
 6385 0002 01       		.byte	0x1
 6386 0003 25       		.uleb128 0x25
 6387 0004 0E       		.uleb128 0xe
 6388 0005 13       		.uleb128 0x13
 6389 0006 0B       		.uleb128 0xb
 6390 0007 03       		.uleb128 0x3
 6391 0008 0E       		.uleb128 0xe
 6392 0009 1B       		.uleb128 0x1b
 6393 000a 0E       		.uleb128 0xe
 6394 000b 55       		.uleb128 0x55
 6395 000c 17       		.uleb128 0x17
 6396 000d 11       		.uleb128 0x11
 6397 000e 01       		.uleb128 0x1
 6398 000f 10       		.uleb128 0x10
 6399 0010 17       		.uleb128 0x17
 6400 0011 00       		.byte	0
 6401 0012 00       		.byte	0
 6402 0013 02       		.uleb128 0x2
 6403 0014 24       		.uleb128 0x24
 6404 0015 00       		.byte	0
 6405 0016 0B       		.uleb128 0xb
 6406 0017 0B       		.uleb128 0xb
 6407 0018 3E       		.uleb128 0x3e
 6408 0019 0B       		.uleb128 0xb
 6409 001a 03       		.uleb128 0x3
 6410 001b 0E       		.uleb128 0xe
 6411 001c 00       		.byte	0
 6412 001d 00       		.byte	0
 6413 001e 03       		.uleb128 0x3
 6414 001f 24       		.uleb128 0x24
 6415 0020 00       		.byte	0
 6416 0021 0B       		.uleb128 0xb
 6417 0022 0B       		.uleb128 0xb
 6418 0023 3E       		.uleb128 0x3e
 6419 0024 0B       		.uleb128 0xb
 6420 0025 03       		.uleb128 0x3
ARM GAS  C:\Users\nicpa\AppData\Local\Temp\ccPr5feD.s 			page 183


 6421 0026 08       		.uleb128 0x8
 6422 0027 00       		.byte	0
 6423 0028 00       		.byte	0
 6424 0029 04       		.uleb128 0x4
 6425 002a 04       		.uleb128 0x4
 6426 002b 01       		.byte	0x1
 6427 002c 0B       		.uleb128 0xb
 6428 002d 0B       		.uleb128 0xb
 6429 002e 49       		.uleb128 0x49
 6430 002f 13       		.uleb128 0x13
 6431 0030 3A       		.uleb128 0x3a
 6432 0031 0B       		.uleb128 0xb
 6433 0032 3B       		.uleb128 0x3b
 6434 0033 0B       		.uleb128 0xb
 6435 0034 01       		.uleb128 0x1
 6436 0035 13       		.uleb128 0x13
 6437 0036 00       		.byte	0
 6438 0037 00       		.byte	0
 6439 0038 05       		.uleb128 0x5
 6440 0039 28       		.uleb128 0x28
 6441 003a 00       		.byte	0
 6442 003b 03       		.uleb128 0x3
 6443 003c 0E       		.uleb128 0xe
 6444 003d 1C       		.uleb128 0x1c
 6445 003e 0D       		.uleb128 0xd
 6446 003f 00       		.byte	0
 6447 0040 00       		.byte	0
 6448 0041 06       		.uleb128 0x6
 6449 0042 28       		.uleb128 0x28
 6450 0043 00       		.byte	0
 6451 0044 03       		.uleb128 0x3
 6452 0045 0E       		.uleb128 0xe
 6453 0046 1C       		.uleb128 0x1c
 6454 0047 0B       		.uleb128 0xb
 6455 0048 00       		.byte	0
 6456 0049 00       		.byte	0
 6457 004a 07       		.uleb128 0x7
 6458 004b 16       		.uleb128 0x16
 6459 004c 00       		.byte	0
 6460 004d 03       		.uleb128 0x3
 6461 004e 0E       		.uleb128 0xe
 6462 004f 3A       		.uleb128 0x3a
 6463 0050 0B       		.uleb128 0xb
 6464 0051 3B       		.uleb128 0x3b
 6465 0052 0B       		.uleb128 0xb
 6466 0053 49       		.uleb128 0x49
 6467 0054 13       		.uleb128 0x13
 6468 0055 00       		.byte	0
 6469 0056 00       		.byte	0
 6470 0057 08       		.uleb128 0x8
 6471 0058 13       		.uleb128 0x13
 6472 0059 01       		.byte	0x1
 6473 005a 0B       		.uleb128 0xb
 6474 005b 05       		.uleb128 0x5
 6475 005c 3A       		.uleb128 0x3a
 6476 005d 0B       		.uleb128 0xb
 6477 005e 3B       		.uleb128 0x3b
ARM GAS  C:\Users\nicpa\AppData\Local\Temp\ccPr5feD.s 			page 184


 6478 005f 05       		.uleb128 0x5
 6479 0060 01       		.uleb128 0x1
 6480 0061 13       		.uleb128 0x13
 6481 0062 00       		.byte	0
 6482 0063 00       		.byte	0
 6483 0064 09       		.uleb128 0x9
 6484 0065 0D       		.uleb128 0xd
 6485 0066 00       		.byte	0
 6486 0067 03       		.uleb128 0x3
 6487 0068 0E       		.uleb128 0xe
 6488 0069 3A       		.uleb128 0x3a
 6489 006a 0B       		.uleb128 0xb
 6490 006b 3B       		.uleb128 0x3b
 6491 006c 05       		.uleb128 0x5
 6492 006d 49       		.uleb128 0x49
 6493 006e 13       		.uleb128 0x13
 6494 006f 38       		.uleb128 0x38
 6495 0070 0B       		.uleb128 0xb
 6496 0071 00       		.byte	0
 6497 0072 00       		.byte	0
 6498 0073 0A       		.uleb128 0xa
 6499 0074 0D       		.uleb128 0xd
 6500 0075 00       		.byte	0
 6501 0076 03       		.uleb128 0x3
 6502 0077 0E       		.uleb128 0xe
 6503 0078 3A       		.uleb128 0x3a
 6504 0079 0B       		.uleb128 0xb
 6505 007a 3B       		.uleb128 0x3b
 6506 007b 05       		.uleb128 0x5
 6507 007c 49       		.uleb128 0x49
 6508 007d 13       		.uleb128 0x13
 6509 007e 38       		.uleb128 0x38
 6510 007f 05       		.uleb128 0x5
 6511 0080 00       		.byte	0
 6512 0081 00       		.byte	0
 6513 0082 0B       		.uleb128 0xb
 6514 0083 0D       		.uleb128 0xd
 6515 0084 00       		.byte	0
 6516 0085 03       		.uleb128 0x3
 6517 0086 08       		.uleb128 0x8
 6518 0087 3A       		.uleb128 0x3a
 6519 0088 0B       		.uleb128 0xb
 6520 0089 3B       		.uleb128 0x3b
 6521 008a 05       		.uleb128 0x5
 6522 008b 49       		.uleb128 0x49
 6523 008c 13       		.uleb128 0x13
 6524 008d 38       		.uleb128 0x38
 6525 008e 05       		.uleb128 0x5
 6526 008f 00       		.byte	0
 6527 0090 00       		.byte	0
 6528 0091 0C       		.uleb128 0xc
 6529 0092 01       		.uleb128 0x1
 6530 0093 01       		.byte	0x1
 6531 0094 49       		.uleb128 0x49
 6532 0095 13       		.uleb128 0x13
 6533 0096 01       		.uleb128 0x1
 6534 0097 13       		.uleb128 0x13
ARM GAS  C:\Users\nicpa\AppData\Local\Temp\ccPr5feD.s 			page 185


 6535 0098 00       		.byte	0
 6536 0099 00       		.byte	0
 6537 009a 0D       		.uleb128 0xd
 6538 009b 21       		.uleb128 0x21
 6539 009c 00       		.byte	0
 6540 009d 49       		.uleb128 0x49
 6541 009e 13       		.uleb128 0x13
 6542 009f 2F       		.uleb128 0x2f
 6543 00a0 0B       		.uleb128 0xb
 6544 00a1 00       		.byte	0
 6545 00a2 00       		.byte	0
 6546 00a3 0E       		.uleb128 0xe
 6547 00a4 35       		.uleb128 0x35
 6548 00a5 00       		.byte	0
 6549 00a6 49       		.uleb128 0x49
 6550 00a7 13       		.uleb128 0x13
 6551 00a8 00       		.byte	0
 6552 00a9 00       		.byte	0
 6553 00aa 0F       		.uleb128 0xf
 6554 00ab 21       		.uleb128 0x21
 6555 00ac 00       		.byte	0
 6556 00ad 49       		.uleb128 0x49
 6557 00ae 13       		.uleb128 0x13
 6558 00af 2F       		.uleb128 0x2f
 6559 00b0 05       		.uleb128 0x5
 6560 00b1 00       		.byte	0
 6561 00b2 00       		.byte	0
 6562 00b3 10       		.uleb128 0x10
 6563 00b4 16       		.uleb128 0x16
 6564 00b5 00       		.byte	0
 6565 00b6 03       		.uleb128 0x3
 6566 00b7 0E       		.uleb128 0xe
 6567 00b8 3A       		.uleb128 0x3a
 6568 00b9 0B       		.uleb128 0xb
 6569 00ba 3B       		.uleb128 0x3b
 6570 00bb 05       		.uleb128 0x5
 6571 00bc 49       		.uleb128 0x49
 6572 00bd 13       		.uleb128 0x13
 6573 00be 00       		.byte	0
 6574 00bf 00       		.byte	0
 6575 00c0 11       		.uleb128 0x11
 6576 00c1 26       		.uleb128 0x26
 6577 00c2 00       		.byte	0
 6578 00c3 49       		.uleb128 0x49
 6579 00c4 13       		.uleb128 0x13
 6580 00c5 00       		.byte	0
 6581 00c6 00       		.byte	0
 6582 00c7 12       		.uleb128 0x12
 6583 00c8 13       		.uleb128 0x13
 6584 00c9 01       		.byte	0x1
 6585 00ca 0B       		.uleb128 0xb
 6586 00cb 0B       		.uleb128 0xb
 6587 00cc 3A       		.uleb128 0x3a
 6588 00cd 0B       		.uleb128 0xb
 6589 00ce 3B       		.uleb128 0x3b
 6590 00cf 0B       		.uleb128 0xb
 6591 00d0 01       		.uleb128 0x1
ARM GAS  C:\Users\nicpa\AppData\Local\Temp\ccPr5feD.s 			page 186


 6592 00d1 13       		.uleb128 0x13
 6593 00d2 00       		.byte	0
 6594 00d3 00       		.byte	0
 6595 00d4 13       		.uleb128 0x13
 6596 00d5 0D       		.uleb128 0xd
 6597 00d6 00       		.byte	0
 6598 00d7 03       		.uleb128 0x3
 6599 00d8 08       		.uleb128 0x8
 6600 00d9 3A       		.uleb128 0x3a
 6601 00da 0B       		.uleb128 0xb
 6602 00db 3B       		.uleb128 0x3b
 6603 00dc 0B       		.uleb128 0xb
 6604 00dd 49       		.uleb128 0x49
 6605 00de 13       		.uleb128 0x13
 6606 00df 38       		.uleb128 0x38
 6607 00e0 0B       		.uleb128 0xb
 6608 00e1 00       		.byte	0
 6609 00e2 00       		.byte	0
 6610 00e3 14       		.uleb128 0x14
 6611 00e4 0D       		.uleb128 0xd
 6612 00e5 00       		.byte	0
 6613 00e6 03       		.uleb128 0x3
 6614 00e7 0E       		.uleb128 0xe
 6615 00e8 3A       		.uleb128 0x3a
 6616 00e9 0B       		.uleb128 0xb
 6617 00ea 3B       		.uleb128 0x3b
 6618 00eb 0B       		.uleb128 0xb
 6619 00ec 49       		.uleb128 0x49
 6620 00ed 13       		.uleb128 0x13
 6621 00ee 38       		.uleb128 0x38
 6622 00ef 0B       		.uleb128 0xb
 6623 00f0 00       		.byte	0
 6624 00f1 00       		.byte	0
 6625 00f2 15       		.uleb128 0x15
 6626 00f3 13       		.uleb128 0x13
 6627 00f4 01       		.byte	0x1
 6628 00f5 0B       		.uleb128 0xb
 6629 00f6 05       		.uleb128 0x5
 6630 00f7 3A       		.uleb128 0x3a
 6631 00f8 0B       		.uleb128 0xb
 6632 00f9 3B       		.uleb128 0x3b
 6633 00fa 0B       		.uleb128 0xb
 6634 00fb 01       		.uleb128 0x1
 6635 00fc 13       		.uleb128 0x13
 6636 00fd 00       		.byte	0
 6637 00fe 00       		.byte	0
 6638 00ff 16       		.uleb128 0x16
 6639 0100 0D       		.uleb128 0xd
 6640 0101 00       		.byte	0
 6641 0102 03       		.uleb128 0x3
 6642 0103 0E       		.uleb128 0xe
 6643 0104 3A       		.uleb128 0x3a
 6644 0105 0B       		.uleb128 0xb
 6645 0106 3B       		.uleb128 0x3b
 6646 0107 0B       		.uleb128 0xb
 6647 0108 49       		.uleb128 0x49
 6648 0109 13       		.uleb128 0x13
ARM GAS  C:\Users\nicpa\AppData\Local\Temp\ccPr5feD.s 			page 187


 6649 010a 38       		.uleb128 0x38
 6650 010b 05       		.uleb128 0x5
 6651 010c 00       		.byte	0
 6652 010d 00       		.byte	0
 6653 010e 17       		.uleb128 0x17
 6654 010f 13       		.uleb128 0x13
 6655 0110 01       		.byte	0x1
 6656 0111 0B       		.uleb128 0xb
 6657 0112 0B       		.uleb128 0xb
 6658 0113 3A       		.uleb128 0x3a
 6659 0114 0B       		.uleb128 0xb
 6660 0115 3B       		.uleb128 0x3b
 6661 0116 05       		.uleb128 0x5
 6662 0117 01       		.uleb128 0x1
 6663 0118 13       		.uleb128 0x13
 6664 0119 00       		.byte	0
 6665 011a 00       		.byte	0
 6666 011b 18       		.uleb128 0x18
 6667 011c 0F       		.uleb128 0xf
 6668 011d 00       		.byte	0
 6669 011e 0B       		.uleb128 0xb
 6670 011f 0B       		.uleb128 0xb
 6671 0120 00       		.byte	0
 6672 0121 00       		.byte	0
 6673 0122 19       		.uleb128 0x19
 6674 0123 04       		.uleb128 0x4
 6675 0124 01       		.byte	0x1
 6676 0125 0B       		.uleb128 0xb
 6677 0126 0B       		.uleb128 0xb
 6678 0127 49       		.uleb128 0x49
 6679 0128 13       		.uleb128 0x13
 6680 0129 3A       		.uleb128 0x3a
 6681 012a 0B       		.uleb128 0xb
 6682 012b 3B       		.uleb128 0x3b
 6683 012c 05       		.uleb128 0x5
 6684 012d 01       		.uleb128 0x1
 6685 012e 13       		.uleb128 0x13
 6686 012f 00       		.byte	0
 6687 0130 00       		.byte	0
 6688 0131 1A       		.uleb128 0x1a
 6689 0132 0F       		.uleb128 0xf
 6690 0133 00       		.byte	0
 6691 0134 0B       		.uleb128 0xb
 6692 0135 0B       		.uleb128 0xb
 6693 0136 49       		.uleb128 0x49
 6694 0137 13       		.uleb128 0x13
 6695 0138 00       		.byte	0
 6696 0139 00       		.byte	0
 6697 013a 1B       		.uleb128 0x1b
 6698 013b 15       		.uleb128 0x15
 6699 013c 01       		.byte	0x1
 6700 013d 27       		.uleb128 0x27
 6701 013e 19       		.uleb128 0x19
 6702 013f 01       		.uleb128 0x1
 6703 0140 13       		.uleb128 0x13
 6704 0141 00       		.byte	0
 6705 0142 00       		.byte	0
ARM GAS  C:\Users\nicpa\AppData\Local\Temp\ccPr5feD.s 			page 188


 6706 0143 1C       		.uleb128 0x1c
 6707 0144 05       		.uleb128 0x5
 6708 0145 00       		.byte	0
 6709 0146 49       		.uleb128 0x49
 6710 0147 13       		.uleb128 0x13
 6711 0148 00       		.byte	0
 6712 0149 00       		.byte	0
 6713 014a 1D       		.uleb128 0x1d
 6714 014b 15       		.uleb128 0x15
 6715 014c 01       		.byte	0x1
 6716 014d 27       		.uleb128 0x27
 6717 014e 19       		.uleb128 0x19
 6718 014f 49       		.uleb128 0x49
 6719 0150 13       		.uleb128 0x13
 6720 0151 01       		.uleb128 0x1
 6721 0152 13       		.uleb128 0x13
 6722 0153 00       		.byte	0
 6723 0154 00       		.byte	0
 6724 0155 1E       		.uleb128 0x1e
 6725 0156 13       		.uleb128 0x13
 6726 0157 01       		.byte	0x1
 6727 0158 03       		.uleb128 0x3
 6728 0159 0E       		.uleb128 0xe
 6729 015a 0B       		.uleb128 0xb
 6730 015b 0B       		.uleb128 0xb
 6731 015c 3A       		.uleb128 0x3a
 6732 015d 0B       		.uleb128 0xb
 6733 015e 3B       		.uleb128 0x3b
 6734 015f 05       		.uleb128 0x5
 6735 0160 01       		.uleb128 0x1
 6736 0161 13       		.uleb128 0x13
 6737 0162 00       		.byte	0
 6738 0163 00       		.byte	0
 6739 0164 1F       		.uleb128 0x1f
 6740 0165 13       		.uleb128 0x13
 6741 0166 01       		.byte	0x1
 6742 0167 03       		.uleb128 0x3
 6743 0168 0E       		.uleb128 0xe
 6744 0169 0B       		.uleb128 0xb
 6745 016a 0B       		.uleb128 0xb
 6746 016b 3A       		.uleb128 0x3a
 6747 016c 0B       		.uleb128 0xb
 6748 016d 3B       		.uleb128 0x3b
 6749 016e 0B       		.uleb128 0xb
 6750 016f 01       		.uleb128 0x1
 6751 0170 13       		.uleb128 0x13
 6752 0171 00       		.byte	0
 6753 0172 00       		.byte	0
 6754 0173 20       		.uleb128 0x20
 6755 0174 26       		.uleb128 0x26
 6756 0175 00       		.byte	0
 6757 0176 00       		.byte	0
 6758 0177 00       		.byte	0
 6759 0178 21       		.uleb128 0x21
 6760 0179 0D       		.uleb128 0xd
 6761 017a 00       		.byte	0
 6762 017b 03       		.uleb128 0x3
ARM GAS  C:\Users\nicpa\AppData\Local\Temp\ccPr5feD.s 			page 189


 6763 017c 08       		.uleb128 0x8
 6764 017d 3A       		.uleb128 0x3a
 6765 017e 0B       		.uleb128 0xb
 6766 017f 3B       		.uleb128 0x3b
 6767 0180 05       		.uleb128 0x5
 6768 0181 49       		.uleb128 0x49
 6769 0182 13       		.uleb128 0x13
 6770 0183 38       		.uleb128 0x38
 6771 0184 0B       		.uleb128 0xb
 6772 0185 00       		.byte	0
 6773 0186 00       		.byte	0
 6774 0187 22       		.uleb128 0x22
 6775 0188 17       		.uleb128 0x17
 6776 0189 01       		.byte	0x1
 6777 018a 0B       		.uleb128 0xb
 6778 018b 0B       		.uleb128 0xb
 6779 018c 3A       		.uleb128 0x3a
 6780 018d 0B       		.uleb128 0xb
 6781 018e 3B       		.uleb128 0x3b
 6782 018f 05       		.uleb128 0x5
 6783 0190 01       		.uleb128 0x1
 6784 0191 13       		.uleb128 0x13
 6785 0192 00       		.byte	0
 6786 0193 00       		.byte	0
 6787 0194 23       		.uleb128 0x23
 6788 0195 0D       		.uleb128 0xd
 6789 0196 00       		.byte	0
 6790 0197 03       		.uleb128 0x3
 6791 0198 0E       		.uleb128 0xe
 6792 0199 3A       		.uleb128 0x3a
 6793 019a 0B       		.uleb128 0xb
 6794 019b 3B       		.uleb128 0x3b
 6795 019c 05       		.uleb128 0x5
 6796 019d 49       		.uleb128 0x49
 6797 019e 13       		.uleb128 0x13
 6798 019f 00       		.byte	0
 6799 01a0 00       		.byte	0
 6800 01a1 24       		.uleb128 0x24
 6801 01a2 2E       		.uleb128 0x2e
 6802 01a3 00       		.byte	0
 6803 01a4 03       		.uleb128 0x3
 6804 01a5 0E       		.uleb128 0xe
 6805 01a6 3A       		.uleb128 0x3a
 6806 01a7 0B       		.uleb128 0xb
 6807 01a8 3B       		.uleb128 0x3b
 6808 01a9 05       		.uleb128 0x5
 6809 01aa 27       		.uleb128 0x27
 6810 01ab 19       		.uleb128 0x19
 6811 01ac 20       		.uleb128 0x20
 6812 01ad 0B       		.uleb128 0xb
 6813 01ae 00       		.byte	0
 6814 01af 00       		.byte	0
 6815 01b0 25       		.uleb128 0x25
 6816 01b1 2E       		.uleb128 0x2e
 6817 01b2 01       		.byte	0x1
 6818 01b3 03       		.uleb128 0x3
 6819 01b4 0E       		.uleb128 0xe
ARM GAS  C:\Users\nicpa\AppData\Local\Temp\ccPr5feD.s 			page 190


 6820 01b5 3A       		.uleb128 0x3a
 6821 01b6 0B       		.uleb128 0xb
 6822 01b7 3B       		.uleb128 0x3b
 6823 01b8 05       		.uleb128 0x5
 6824 01b9 27       		.uleb128 0x27
 6825 01ba 19       		.uleb128 0x19
 6826 01bb 20       		.uleb128 0x20
 6827 01bc 0B       		.uleb128 0xb
 6828 01bd 01       		.uleb128 0x1
 6829 01be 13       		.uleb128 0x13
 6830 01bf 00       		.byte	0
 6831 01c0 00       		.byte	0
 6832 01c1 26       		.uleb128 0x26
 6833 01c2 05       		.uleb128 0x5
 6834 01c3 00       		.byte	0
 6835 01c4 03       		.uleb128 0x3
 6836 01c5 0E       		.uleb128 0xe
 6837 01c6 3A       		.uleb128 0x3a
 6838 01c7 0B       		.uleb128 0xb
 6839 01c8 3B       		.uleb128 0x3b
 6840 01c9 05       		.uleb128 0x5
 6841 01ca 49       		.uleb128 0x49
 6842 01cb 13       		.uleb128 0x13
 6843 01cc 00       		.byte	0
 6844 01cd 00       		.byte	0
 6845 01ce 27       		.uleb128 0x27
 6846 01cf 2E       		.uleb128 0x2e
 6847 01d0 01       		.byte	0x1
 6848 01d1 3F       		.uleb128 0x3f
 6849 01d2 19       		.uleb128 0x19
 6850 01d3 03       		.uleb128 0x3
 6851 01d4 0E       		.uleb128 0xe
 6852 01d5 3A       		.uleb128 0x3a
 6853 01d6 0B       		.uleb128 0xb
 6854 01d7 3B       		.uleb128 0x3b
 6855 01d8 0B       		.uleb128 0xb
 6856 01d9 27       		.uleb128 0x27
 6857 01da 19       		.uleb128 0x19
 6858 01db 11       		.uleb128 0x11
 6859 01dc 01       		.uleb128 0x1
 6860 01dd 12       		.uleb128 0x12
 6861 01de 06       		.uleb128 0x6
 6862 01df 40       		.uleb128 0x40
 6863 01e0 18       		.uleb128 0x18
 6864 01e1 9742     		.uleb128 0x2117
 6865 01e3 19       		.uleb128 0x19
 6866 01e4 01       		.uleb128 0x1
 6867 01e5 13       		.uleb128 0x13
 6868 01e6 00       		.byte	0
 6869 01e7 00       		.byte	0
 6870 01e8 28       		.uleb128 0x28
 6871 01e9 05       		.uleb128 0x5
 6872 01ea 00       		.byte	0
 6873 01eb 03       		.uleb128 0x3
 6874 01ec 08       		.uleb128 0x8
 6875 01ed 3A       		.uleb128 0x3a
 6876 01ee 0B       		.uleb128 0xb
ARM GAS  C:\Users\nicpa\AppData\Local\Temp\ccPr5feD.s 			page 191


 6877 01ef 3B       		.uleb128 0x3b
 6878 01f0 0B       		.uleb128 0xb
 6879 01f1 49       		.uleb128 0x49
 6880 01f2 13       		.uleb128 0x13
 6881 01f3 02       		.uleb128 0x2
 6882 01f4 17       		.uleb128 0x17
 6883 01f5 00       		.byte	0
 6884 01f6 00       		.byte	0
 6885 01f7 29       		.uleb128 0x29
 6886 01f8 898201   		.uleb128 0x4109
 6887 01fb 00       		.byte	0
 6888 01fc 11       		.uleb128 0x11
 6889 01fd 01       		.uleb128 0x1
 6890 01fe 31       		.uleb128 0x31
 6891 01ff 13       		.uleb128 0x13
 6892 0200 00       		.byte	0
 6893 0201 00       		.byte	0
 6894 0202 2A       		.uleb128 0x2a
 6895 0203 898201   		.uleb128 0x4109
 6896 0206 01       		.byte	0x1
 6897 0207 11       		.uleb128 0x11
 6898 0208 01       		.uleb128 0x1
 6899 0209 31       		.uleb128 0x31
 6900 020a 13       		.uleb128 0x13
 6901 020b 01       		.uleb128 0x1
 6902 020c 13       		.uleb128 0x13
 6903 020d 00       		.byte	0
 6904 020e 00       		.byte	0
 6905 020f 2B       		.uleb128 0x2b
 6906 0210 8A8201   		.uleb128 0x410a
 6907 0213 00       		.byte	0
 6908 0214 02       		.uleb128 0x2
 6909 0215 18       		.uleb128 0x18
 6910 0216 9142     		.uleb128 0x2111
 6911 0218 18       		.uleb128 0x18
 6912 0219 00       		.byte	0
 6913 021a 00       		.byte	0
 6914 021b 2C       		.uleb128 0x2c
 6915 021c 898201   		.uleb128 0x4109
 6916 021f 01       		.byte	0x1
 6917 0220 11       		.uleb128 0x11
 6918 0221 01       		.uleb128 0x1
 6919 0222 31       		.uleb128 0x31
 6920 0223 13       		.uleb128 0x13
 6921 0224 00       		.byte	0
 6922 0225 00       		.byte	0
 6923 0226 2D       		.uleb128 0x2d
 6924 0227 2E       		.uleb128 0x2e
 6925 0228 01       		.byte	0x1
 6926 0229 3F       		.uleb128 0x3f
 6927 022a 19       		.uleb128 0x19
 6928 022b 03       		.uleb128 0x3
 6929 022c 0E       		.uleb128 0xe
 6930 022d 3A       		.uleb128 0x3a
 6931 022e 0B       		.uleb128 0xb
 6932 022f 3B       		.uleb128 0x3b
 6933 0230 0B       		.uleb128 0xb
ARM GAS  C:\Users\nicpa\AppData\Local\Temp\ccPr5feD.s 			page 192


 6934 0231 11       		.uleb128 0x11
 6935 0232 01       		.uleb128 0x1
 6936 0233 12       		.uleb128 0x12
 6937 0234 06       		.uleb128 0x6
 6938 0235 40       		.uleb128 0x40
 6939 0236 18       		.uleb128 0x18
 6940 0237 9742     		.uleb128 0x2117
 6941 0239 19       		.uleb128 0x19
 6942 023a 01       		.uleb128 0x1
 6943 023b 13       		.uleb128 0x13
 6944 023c 00       		.byte	0
 6945 023d 00       		.byte	0
 6946 023e 2E       		.uleb128 0x2e
 6947 023f 34       		.uleb128 0x34
 6948 0240 00       		.byte	0
 6949 0241 03       		.uleb128 0x3
 6950 0242 0E       		.uleb128 0xe
 6951 0243 3A       		.uleb128 0x3a
 6952 0244 0B       		.uleb128 0xb
 6953 0245 3B       		.uleb128 0x3b
 6954 0246 0B       		.uleb128 0xb
 6955 0247 49       		.uleb128 0x49
 6956 0248 13       		.uleb128 0x13
 6957 0249 02       		.uleb128 0x2
 6958 024a 18       		.uleb128 0x18
 6959 024b 00       		.byte	0
 6960 024c 00       		.byte	0
 6961 024d 2F       		.uleb128 0x2f
 6962 024e 05       		.uleb128 0x5
 6963 024f 00       		.byte	0
 6964 0250 03       		.uleb128 0x3
 6965 0251 0E       		.uleb128 0xe
 6966 0252 3A       		.uleb128 0x3a
 6967 0253 0B       		.uleb128 0xb
 6968 0254 3B       		.uleb128 0x3b
 6969 0255 0B       		.uleb128 0xb
 6970 0256 49       		.uleb128 0x49
 6971 0257 13       		.uleb128 0x13
 6972 0258 02       		.uleb128 0x2
 6973 0259 17       		.uleb128 0x17
 6974 025a 00       		.byte	0
 6975 025b 00       		.byte	0
 6976 025c 30       		.uleb128 0x30
 6977 025d 34       		.uleb128 0x34
 6978 025e 00       		.byte	0
 6979 025f 03       		.uleb128 0x3
 6980 0260 08       		.uleb128 0x8
 6981 0261 3A       		.uleb128 0x3a
 6982 0262 0B       		.uleb128 0xb
 6983 0263 3B       		.uleb128 0x3b
 6984 0264 0B       		.uleb128 0xb
 6985 0265 49       		.uleb128 0x49
 6986 0266 13       		.uleb128 0x13
 6987 0267 02       		.uleb128 0x2
 6988 0268 17       		.uleb128 0x17
 6989 0269 00       		.byte	0
 6990 026a 00       		.byte	0
ARM GAS  C:\Users\nicpa\AppData\Local\Temp\ccPr5feD.s 			page 193


 6991 026b 31       		.uleb128 0x31
 6992 026c 34       		.uleb128 0x34
 6993 026d 00       		.byte	0
 6994 026e 03       		.uleb128 0x3
 6995 026f 0E       		.uleb128 0xe
 6996 0270 3A       		.uleb128 0x3a
 6997 0271 0B       		.uleb128 0xb
 6998 0272 3B       		.uleb128 0x3b
 6999 0273 05       		.uleb128 0x5
 7000 0274 49       		.uleb128 0x49
 7001 0275 13       		.uleb128 0x13
 7002 0276 02       		.uleb128 0x2
 7003 0277 18       		.uleb128 0x18
 7004 0278 00       		.byte	0
 7005 0279 00       		.byte	0
 7006 027a 32       		.uleb128 0x32
 7007 027b 0B       		.uleb128 0xb
 7008 027c 01       		.byte	0x1
 7009 027d 11       		.uleb128 0x11
 7010 027e 01       		.uleb128 0x1
 7011 027f 12       		.uleb128 0x12
 7012 0280 06       		.uleb128 0x6
 7013 0281 01       		.uleb128 0x1
 7014 0282 13       		.uleb128 0x13
 7015 0283 00       		.byte	0
 7016 0284 00       		.byte	0
 7017 0285 33       		.uleb128 0x33
 7018 0286 34       		.uleb128 0x34
 7019 0287 00       		.byte	0
 7020 0288 03       		.uleb128 0x3
 7021 0289 08       		.uleb128 0x8
 7022 028a 3A       		.uleb128 0x3a
 7023 028b 0B       		.uleb128 0xb
 7024 028c 3B       		.uleb128 0x3b
 7025 028d 05       		.uleb128 0x5
 7026 028e 49       		.uleb128 0x49
 7027 028f 13       		.uleb128 0x13
 7028 0290 02       		.uleb128 0x2
 7029 0291 17       		.uleb128 0x17
 7030 0292 00       		.byte	0
 7031 0293 00       		.byte	0
 7032 0294 34       		.uleb128 0x34
 7033 0295 0B       		.uleb128 0xb
 7034 0296 01       		.byte	0x1
 7035 0297 11       		.uleb128 0x11
 7036 0298 01       		.uleb128 0x1
 7037 0299 12       		.uleb128 0x12
 7038 029a 06       		.uleb128 0x6
 7039 029b 00       		.byte	0
 7040 029c 00       		.byte	0
 7041 029d 35       		.uleb128 0x35
 7042 029e 1D       		.uleb128 0x1d
 7043 029f 01       		.byte	0x1
 7044 02a0 31       		.uleb128 0x31
 7045 02a1 13       		.uleb128 0x13
 7046 02a2 11       		.uleb128 0x11
 7047 02a3 01       		.uleb128 0x1
ARM GAS  C:\Users\nicpa\AppData\Local\Temp\ccPr5feD.s 			page 194


 7048 02a4 12       		.uleb128 0x12
 7049 02a5 06       		.uleb128 0x6
 7050 02a6 58       		.uleb128 0x58
 7051 02a7 0B       		.uleb128 0xb
 7052 02a8 59       		.uleb128 0x59
 7053 02a9 05       		.uleb128 0x5
 7054 02aa 01       		.uleb128 0x1
 7055 02ab 13       		.uleb128 0x13
 7056 02ac 00       		.byte	0
 7057 02ad 00       		.byte	0
 7058 02ae 36       		.uleb128 0x36
 7059 02af 05       		.uleb128 0x5
 7060 02b0 00       		.byte	0
 7061 02b1 31       		.uleb128 0x31
 7062 02b2 13       		.uleb128 0x13
 7063 02b3 02       		.uleb128 0x2
 7064 02b4 17       		.uleb128 0x17
 7065 02b5 00       		.byte	0
 7066 02b6 00       		.byte	0
 7067 02b7 37       		.uleb128 0x37
 7068 02b8 2E       		.uleb128 0x2e
 7069 02b9 01       		.byte	0x1
 7070 02ba 3F       		.uleb128 0x3f
 7071 02bb 19       		.uleb128 0x19
 7072 02bc 03       		.uleb128 0x3
 7073 02bd 0E       		.uleb128 0xe
 7074 02be 3A       		.uleb128 0x3a
 7075 02bf 0B       		.uleb128 0xb
 7076 02c0 3B       		.uleb128 0x3b
 7077 02c1 05       		.uleb128 0x5
 7078 02c2 27       		.uleb128 0x27
 7079 02c3 19       		.uleb128 0x19
 7080 02c4 8701     		.uleb128 0x87
 7081 02c6 19       		.uleb128 0x19
 7082 02c7 11       		.uleb128 0x11
 7083 02c8 01       		.uleb128 0x1
 7084 02c9 12       		.uleb128 0x12
 7085 02ca 06       		.uleb128 0x6
 7086 02cb 40       		.uleb128 0x40
 7087 02cc 18       		.uleb128 0x18
 7088 02cd 9742     		.uleb128 0x2117
 7089 02cf 19       		.uleb128 0x19
 7090 02d0 01       		.uleb128 0x1
 7091 02d1 13       		.uleb128 0x13
 7092 02d2 00       		.byte	0
 7093 02d3 00       		.byte	0
 7094 02d4 38       		.uleb128 0x38
 7095 02d5 05       		.uleb128 0x5
 7096 02d6 00       		.byte	0
 7097 02d7 03       		.uleb128 0x3
 7098 02d8 0E       		.uleb128 0xe
 7099 02d9 3A       		.uleb128 0x3a
 7100 02da 0B       		.uleb128 0xb
 7101 02db 3B       		.uleb128 0x3b
 7102 02dc 05       		.uleb128 0x5
 7103 02dd 49       		.uleb128 0x49
 7104 02de 13       		.uleb128 0x13
ARM GAS  C:\Users\nicpa\AppData\Local\Temp\ccPr5feD.s 			page 195


 7105 02df 02       		.uleb128 0x2
 7106 02e0 17       		.uleb128 0x17
 7107 02e1 00       		.byte	0
 7108 02e2 00       		.byte	0
 7109 02e3 39       		.uleb128 0x39
 7110 02e4 34       		.uleb128 0x34
 7111 02e5 00       		.byte	0
 7112 02e6 03       		.uleb128 0x3
 7113 02e7 0E       		.uleb128 0xe
 7114 02e8 3A       		.uleb128 0x3a
 7115 02e9 0B       		.uleb128 0xb
 7116 02ea 3B       		.uleb128 0x3b
 7117 02eb 05       		.uleb128 0x5
 7118 02ec 49       		.uleb128 0x49
 7119 02ed 13       		.uleb128 0x13
 7120 02ee 02       		.uleb128 0x2
 7121 02ef 17       		.uleb128 0x17
 7122 02f0 00       		.byte	0
 7123 02f1 00       		.byte	0
 7124 02f2 3A       		.uleb128 0x3a
 7125 02f3 1D       		.uleb128 0x1d
 7126 02f4 00       		.byte	0
 7127 02f5 31       		.uleb128 0x31
 7128 02f6 13       		.uleb128 0x13
 7129 02f7 11       		.uleb128 0x11
 7130 02f8 01       		.uleb128 0x1
 7131 02f9 12       		.uleb128 0x12
 7132 02fa 06       		.uleb128 0x6
 7133 02fb 58       		.uleb128 0x58
 7134 02fc 0B       		.uleb128 0xb
 7135 02fd 59       		.uleb128 0x59
 7136 02fe 05       		.uleb128 0x5
 7137 02ff 00       		.byte	0
 7138 0300 00       		.byte	0
 7139 0301 3B       		.uleb128 0x3b
 7140 0302 34       		.uleb128 0x34
 7141 0303 00       		.byte	0
 7142 0304 03       		.uleb128 0x3
 7143 0305 0E       		.uleb128 0xe
 7144 0306 3A       		.uleb128 0x3a
 7145 0307 0B       		.uleb128 0xb
 7146 0308 3B       		.uleb128 0x3b
 7147 0309 05       		.uleb128 0x5
 7148 030a 49       		.uleb128 0x49
 7149 030b 13       		.uleb128 0x13
 7150 030c 3F       		.uleb128 0x3f
 7151 030d 19       		.uleb128 0x19
 7152 030e 3C       		.uleb128 0x3c
 7153 030f 19       		.uleb128 0x19
 7154 0310 00       		.byte	0
 7155 0311 00       		.byte	0
 7156 0312 3C       		.uleb128 0x3c
 7157 0313 34       		.uleb128 0x34
 7158 0314 00       		.byte	0
 7159 0315 03       		.uleb128 0x3
 7160 0316 0E       		.uleb128 0xe
 7161 0317 3A       		.uleb128 0x3a
ARM GAS  C:\Users\nicpa\AppData\Local\Temp\ccPr5feD.s 			page 196


 7162 0318 0B       		.uleb128 0xb
 7163 0319 3B       		.uleb128 0x3b
 7164 031a 0B       		.uleb128 0xb
 7165 031b 49       		.uleb128 0x49
 7166 031c 13       		.uleb128 0x13
 7167 031d 3F       		.uleb128 0x3f
 7168 031e 19       		.uleb128 0x19
 7169 031f 3C       		.uleb128 0x3c
 7170 0320 19       		.uleb128 0x19
 7171 0321 00       		.byte	0
 7172 0322 00       		.byte	0
 7173 0323 3D       		.uleb128 0x3d
 7174 0324 34       		.uleb128 0x34
 7175 0325 00       		.byte	0
 7176 0326 03       		.uleb128 0x3
 7177 0327 0E       		.uleb128 0xe
 7178 0328 3A       		.uleb128 0x3a
 7179 0329 0B       		.uleb128 0xb
 7180 032a 3B       		.uleb128 0x3b
 7181 032b 0B       		.uleb128 0xb
 7182 032c 49       		.uleb128 0x49
 7183 032d 13       		.uleb128 0x13
 7184 032e 3F       		.uleb128 0x3f
 7185 032f 19       		.uleb128 0x19
 7186 0330 02       		.uleb128 0x2
 7187 0331 18       		.uleb128 0x18
 7188 0332 00       		.byte	0
 7189 0333 00       		.byte	0
 7190 0334 3E       		.uleb128 0x3e
 7191 0335 34       		.uleb128 0x34
 7192 0336 00       		.byte	0
 7193 0337 03       		.uleb128 0x3
 7194 0338 08       		.uleb128 0x8
 7195 0339 3A       		.uleb128 0x3a
 7196 033a 0B       		.uleb128 0xb
 7197 033b 3B       		.uleb128 0x3b
 7198 033c 0B       		.uleb128 0xb
 7199 033d 49       		.uleb128 0x49
 7200 033e 13       		.uleb128 0x13
 7201 033f 3F       		.uleb128 0x3f
 7202 0340 19       		.uleb128 0x19
 7203 0341 02       		.uleb128 0x2
 7204 0342 18       		.uleb128 0x18
 7205 0343 00       		.byte	0
 7206 0344 00       		.byte	0
 7207 0345 3F       		.uleb128 0x3f
 7208 0346 2E       		.uleb128 0x2e
 7209 0347 00       		.byte	0
 7210 0348 3F       		.uleb128 0x3f
 7211 0349 19       		.uleb128 0x19
 7212 034a 3C       		.uleb128 0x3c
 7213 034b 19       		.uleb128 0x19
 7214 034c 6E       		.uleb128 0x6e
 7215 034d 0E       		.uleb128 0xe
 7216 034e 03       		.uleb128 0x3
 7217 034f 0E       		.uleb128 0xe
 7218 0350 3A       		.uleb128 0x3a
ARM GAS  C:\Users\nicpa\AppData\Local\Temp\ccPr5feD.s 			page 197


 7219 0351 0B       		.uleb128 0xb
 7220 0352 3B       		.uleb128 0x3b
 7221 0353 05       		.uleb128 0x5
 7222 0354 00       		.byte	0
 7223 0355 00       		.byte	0
 7224 0356 40       		.uleb128 0x40
 7225 0357 2E       		.uleb128 0x2e
 7226 0358 00       		.byte	0
 7227 0359 3F       		.uleb128 0x3f
 7228 035a 19       		.uleb128 0x19
 7229 035b 3C       		.uleb128 0x3c
 7230 035c 19       		.uleb128 0x19
 7231 035d 6E       		.uleb128 0x6e
 7232 035e 0E       		.uleb128 0xe
 7233 035f 03       		.uleb128 0x3
 7234 0360 0E       		.uleb128 0xe
 7235 0361 3A       		.uleb128 0x3a
 7236 0362 0B       		.uleb128 0xb
 7237 0363 3B       		.uleb128 0x3b
 7238 0364 0B       		.uleb128 0xb
 7239 0365 00       		.byte	0
 7240 0366 00       		.byte	0
 7241 0367 00       		.byte	0
 7242              		.section	.debug_loc,"",%progbits
 7243              	.Ldebug_loc0:
 7244              	.LLST0:
 7245 0000 00000000 		.4byte	.LVL0
 7246 0004 07000000 		.4byte	.LVL1-1
 7247 0008 0100     		.2byte	0x1
 7248 000a 50       		.byte	0x50
 7249 000b 07000000 		.4byte	.LVL1-1
 7250 000f 6C010000 		.4byte	.LVL41
 7251 0013 0100     		.2byte	0x1
 7252 0015 54       		.byte	0x54
 7253 0016 6C010000 		.4byte	.LVL41
 7254 001a 98010000 		.4byte	.LFE699
 7255 001e 0400     		.2byte	0x4
 7256 0020 F3       		.byte	0xf3
 7257 0021 01       		.uleb128 0x1
 7258 0022 50       		.byte	0x50
 7259 0023 9F       		.byte	0x9f
 7260 0024 00000000 		.4byte	0
 7261 0028 00000000 		.4byte	0
 7262              	.LLST1:
 7263 002c 00000000 		.4byte	.LVL75
 7264 0030 1D000000 		.4byte	.LVL76-1
 7265 0034 0100     		.2byte	0x1
 7266 0036 50       		.byte	0x50
 7267 0037 1D000000 		.4byte	.LVL76-1
 7268 003b AC010000 		.4byte	.LVL118
 7269 003f 0100     		.2byte	0x1
 7270 0041 56       		.byte	0x56
 7271 0042 AC010000 		.4byte	.LVL118
 7272 0046 E8010000 		.4byte	.LFE702
 7273 004a 0400     		.2byte	0x4
 7274 004c F3       		.byte	0xf3
 7275 004d 01       		.uleb128 0x1
ARM GAS  C:\Users\nicpa\AppData\Local\Temp\ccPr5feD.s 			page 198


 7276 004e 50       		.byte	0x50
 7277 004f 9F       		.byte	0x9f
 7278 0050 00000000 		.4byte	0
 7279 0054 00000000 		.4byte	0
 7280              	.LLST2:
 7281 0058 00000000 		.4byte	.LVL75
 7282 005c 1D000000 		.4byte	.LVL76-1
 7283 0060 0100     		.2byte	0x1
 7284 0062 51       		.byte	0x51
 7285 0063 1D000000 		.4byte	.LVL76-1
 7286 0067 AC010000 		.4byte	.LVL118
 7287 006b 0100     		.2byte	0x1
 7288 006d 57       		.byte	0x57
 7289 006e AC010000 		.4byte	.LVL118
 7290 0072 E8010000 		.4byte	.LFE702
 7291 0076 0400     		.2byte	0x4
 7292 0078 F3       		.byte	0xf3
 7293 0079 01       		.uleb128 0x1
 7294 007a 51       		.byte	0x51
 7295 007b 9F       		.byte	0x9f
 7296 007c 00000000 		.4byte	0
 7297 0080 00000000 		.4byte	0
 7298              	.LLST3:
 7299 0084 00000000 		.4byte	.LVL75
 7300 0088 1D000000 		.4byte	.LVL76-1
 7301 008c 0100     		.2byte	0x1
 7302 008e 52       		.byte	0x52
 7303 008f 1D000000 		.4byte	.LVL76-1
 7304 0093 AC010000 		.4byte	.LVL118
 7305 0097 0100     		.2byte	0x1
 7306 0099 58       		.byte	0x58
 7307 009a AC010000 		.4byte	.LVL118
 7308 009e E8010000 		.4byte	.LFE702
 7309 00a2 0400     		.2byte	0x4
 7310 00a4 F3       		.byte	0xf3
 7311 00a5 01       		.uleb128 0x1
 7312 00a6 52       		.byte	0x52
 7313 00a7 9F       		.byte	0x9f
 7314 00a8 00000000 		.4byte	0
 7315 00ac 00000000 		.4byte	0
 7316              	.LLST4:
 7317 00b0 00000000 		.4byte	.LVL75
 7318 00b4 1D000000 		.4byte	.LVL76-1
 7319 00b8 0100     		.2byte	0x1
 7320 00ba 53       		.byte	0x53
 7321 00bb 1D000000 		.4byte	.LVL76-1
 7322 00bf A8010000 		.4byte	.LVL117
 7323 00c3 0200     		.2byte	0x2
 7324 00c5 90       		.byte	0x90
 7325 00c6 50       		.uleb128 0x50
 7326 00c7 A8010000 		.4byte	.LVL117
 7327 00cb E8010000 		.4byte	.LFE702
 7328 00cf 0600     		.2byte	0x6
 7329 00d1 F3       		.byte	0xf3
 7330 00d2 03       		.uleb128 0x3
 7331 00d3 F5       		.byte	0xf5
 7332 00d4 03       		.uleb128 0x3
ARM GAS  C:\Users\nicpa\AppData\Local\Temp\ccPr5feD.s 			page 199


 7333 00d5 25       		.uleb128 0x25
 7334 00d6 9F       		.byte	0x9f
 7335 00d7 00000000 		.4byte	0
 7336 00db 00000000 		.4byte	0
 7337              	.LLST5:
 7338 00df 00000000 		.4byte	.LVL75
 7339 00e3 AC010000 		.4byte	.LVL118
 7340 00e7 0200     		.2byte	0x2
 7341 00e9 91       		.byte	0x91
 7342 00ea 00       		.sleb128 0
 7343 00eb AC010000 		.4byte	.LVL118
 7344 00ef E8010000 		.4byte	.LFE702
 7345 00f3 0200     		.2byte	0x2
 7346 00f5 7D       		.byte	0x7d
 7347 00f6 00       		.sleb128 0
 7348 00f7 00000000 		.4byte	0
 7349 00fb 00000000 		.4byte	0
 7350              	.LLST6:
 7351 00ff 32000000 		.4byte	.LVL79
 7352 0103 52000000 		.4byte	.LVL83
 7353 0107 0400     		.2byte	0x4
 7354 0109 0A       		.byte	0xa
 7355 010a F401     		.2byte	0x1f4
 7356 010c 9F       		.byte	0x9f
 7357 010d 52000000 		.4byte	.LVL83
 7358 0111 7C000000 		.4byte	.LVL85
 7359 0115 0100     		.2byte	0x1
 7360 0117 53       		.byte	0x53
 7361 0118 7C000000 		.4byte	.LVL85
 7362 011c B6000000 		.4byte	.LVL95
 7363 0120 0300     		.2byte	0x3
 7364 0122 74       		.byte	0x74
 7365 0123 7C       		.sleb128 -4
 7366 0124 9F       		.byte	0x9f
 7367 0125 B6000000 		.4byte	.LVL95
 7368 0129 BA000000 		.4byte	.LVL96
 7369 012d 0100     		.2byte	0x1
 7370 012f 53       		.byte	0x53
 7371 0130 00000000 		.4byte	0
 7372 0134 00000000 		.4byte	0
 7373              	.LLST7:
 7374 0138 3C000000 		.4byte	.LVL80
 7375 013c 50000000 		.4byte	.LVL82
 7376 0140 0100     		.2byte	0x1
 7377 0142 53       		.byte	0x53
 7378 0143 00000000 		.4byte	0
 7379 0147 00000000 		.4byte	0
 7380              	.LLST8:
 7381 014b 52000000 		.4byte	.LVL83
 7382 014f 98000000 		.4byte	.LVL88
 7383 0153 0100     		.2byte	0x1
 7384 0155 55       		.byte	0x55
 7385 0156 98000000 		.4byte	.LVL88
 7386 015a B6000000 		.4byte	.LVL95
 7387 015e 0300     		.2byte	0x3
 7388 0160 75       		.byte	0x75
 7389 0161 7F       		.sleb128 -1
ARM GAS  C:\Users\nicpa\AppData\Local\Temp\ccPr5feD.s 			page 200


 7390 0162 9F       		.byte	0x9f
 7391 0163 B6000000 		.4byte	.LVL95
 7392 0167 BA000000 		.4byte	.LVL96
 7393 016b 0100     		.2byte	0x1
 7394 016d 55       		.byte	0x55
 7395 016e 00000000 		.4byte	0
 7396 0172 00000000 		.4byte	0
 7397              	.LLST9:
 7398 0176 76000000 		.4byte	.LVL84
 7399 017a AA000000 		.4byte	.LVL92
 7400 017e 0800     		.2byte	0x8
 7401 0180 F5       		.byte	0xf5
 7402 0181 4D       		.uleb128 0x4d
 7403 0182 25       		.uleb128 0x25
 7404 0183 F7       		.byte	0xf7
 7405 0184 2C       		.uleb128 0x2c
 7406 0185 F7       		.byte	0xf7
 7407 0186 00       		.uleb128 0
 7408 0187 9F       		.byte	0x9f
 7409 0188 AA000000 		.4byte	.LVL92
 7410 018c B3000000 		.4byte	.LVL94-1
 7411 0190 0200     		.2byte	0x2
 7412 0192 90       		.byte	0x90
 7413 0193 4F       		.uleb128 0x4f
 7414 0194 00000000 		.4byte	0
 7415 0198 00000000 		.4byte	0
 7416              	.LLST10:
 7417 019c 90000000 		.4byte	.LVL86
 7418 01a0 A0000000 		.4byte	.LVL90
 7419 01a4 0800     		.2byte	0x8
 7420 01a6 F5       		.byte	0xf5
 7421 01a7 4F       		.uleb128 0x4f
 7422 01a8 25       		.uleb128 0x25
 7423 01a9 F7       		.byte	0xf7
 7424 01aa 2C       		.uleb128 0x2c
 7425 01ab F7       		.byte	0xf7
 7426 01ac 00       		.uleb128 0
 7427 01ad 9F       		.byte	0x9f
 7428 01ae A0000000 		.4byte	.LVL90
 7429 01b2 AA000000 		.4byte	.LVL92
 7430 01b6 0200     		.2byte	0x2
 7431 01b8 90       		.byte	0x90
 7432 01b9 4F       		.uleb128 0x4f
 7433 01ba AA000000 		.4byte	.LVL92
 7434 01be B3000000 		.4byte	.LVL94-1
 7435 01c2 0100     		.2byte	0x1
 7436 01c4 53       		.byte	0x53
 7437 01c5 00000000 		.4byte	0
 7438 01c9 00000000 		.4byte	0
 7439              	.LLST11:
 7440 01cd 96000000 		.4byte	.LVL87
 7441 01d1 B0000000 		.4byte	.LVL93
 7442 01d5 0300     		.2byte	0x3
 7443 01d7 70       		.byte	0x70
 7444 01d8 07       		.sleb128 7
 7445 01d9 9F       		.byte	0x9f
 7446 01da B0000000 		.4byte	.LVL93
ARM GAS  C:\Users\nicpa\AppData\Local\Temp\ccPr5feD.s 			page 201


 7447 01de B3000000 		.4byte	.LVL94-1
 7448 01e2 0100     		.2byte	0x1
 7449 01e4 50       		.byte	0x50
 7450 01e5 B3000000 		.4byte	.LVL94-1
 7451 01e9 B6000000 		.4byte	.LVL95
 7452 01ed 0F00     		.2byte	0xf
 7453 01ef 75       		.byte	0x75
 7454 01f0 7F       		.sleb128 -1
 7455 01f1 32       		.byte	0x32
 7456 01f2 24       		.byte	0x24
 7457 01f3 91       		.byte	0x91
 7458 01f4 00       		.sleb128 0
 7459 01f5 22       		.byte	0x22
 7460 01f6 0A       		.byte	0xa
 7461 01f7 1402     		.2byte	0x214
 7462 01f9 1C       		.byte	0x1c
 7463 01fa 06       		.byte	0x6
 7464 01fb 23       		.byte	0x23
 7465 01fc 07       		.uleb128 0x7
 7466 01fd 9F       		.byte	0x9f
 7467 01fe 00000000 		.4byte	0
 7468 0202 00000000 		.4byte	0
 7469              	.LLST12:
 7470 0206 9C000000 		.4byte	.LVL89
 7471 020a A6000000 		.4byte	.LVL91
 7472 020e 0300     		.2byte	0x3
 7473 0210 72       		.byte	0x72
 7474 0211 07       		.sleb128 7
 7475 0212 9F       		.byte	0x9f
 7476 0213 A6000000 		.4byte	.LVL91
 7477 0217 B3000000 		.4byte	.LVL94-1
 7478 021b 0100     		.2byte	0x1
 7479 021d 52       		.byte	0x52
 7480 021e B3000000 		.4byte	.LVL94-1
 7481 0222 B6000000 		.4byte	.LVL95
 7482 0226 0F00     		.2byte	0xf
 7483 0228 75       		.byte	0x75
 7484 0229 00       		.sleb128 0
 7485 022a 32       		.byte	0x32
 7486 022b 24       		.byte	0x24
 7487 022c 91       		.byte	0x91
 7488 022d 00       		.sleb128 0
 7489 022e 22       		.byte	0x22
 7490 022f 0A       		.byte	0xa
 7491 0230 1402     		.2byte	0x214
 7492 0232 1C       		.byte	0x1c
 7493 0233 06       		.byte	0x6
 7494 0234 23       		.byte	0x23
 7495 0235 07       		.uleb128 0x7
 7496 0236 9F       		.byte	0x9f
 7497 0237 00000000 		.4byte	0
 7498 023b 00000000 		.4byte	0
 7499              	.LLST13:
 7500 023f E2000000 		.4byte	.LVL99
 7501 0243 E8000000 		.4byte	.LVL100
 7502 0247 0200     		.2byte	0x2
 7503 0249 31       		.byte	0x31
ARM GAS  C:\Users\nicpa\AppData\Local\Temp\ccPr5feD.s 			page 202


 7504 024a 9F       		.byte	0x9f
 7505 024b 00000000 		.4byte	0
 7506 024f 00000000 		.4byte	0
 7507              	.LLST14:
 7508 0253 E2000000 		.4byte	.LVL99
 7509 0257 E8000000 		.4byte	.LVL100
 7510 025b 0200     		.2byte	0x2
 7511 025d 33       		.byte	0x33
 7512 025e 9F       		.byte	0x9f
 7513 025f 00000000 		.4byte	0
 7514 0263 00000000 		.4byte	0
 7515              	.LLST15:
 7516 0267 E2000000 		.4byte	.LVL99
 7517 026b E8000000 		.4byte	.LVL100
 7518 026f 0600     		.2byte	0x6
 7519 0271 0C       		.byte	0xc
 7520 0272 00003240 		.4byte	0x40320000
 7521 0276 9F       		.byte	0x9f
 7522 0277 00000000 		.4byte	0
 7523 027b 00000000 		.4byte	0
 7524              	.LLST16:
 7525 027f 00000000 		.4byte	.LVL119
 7526 0283 07000000 		.4byte	.LVL120-1
 7527 0287 0100     		.2byte	0x1
 7528 0289 50       		.byte	0x50
 7529 028a 07000000 		.4byte	.LVL120-1
 7530 028e 54020000 		.4byte	.LFE703
 7531 0292 0400     		.2byte	0x4
 7532 0294 F3       		.byte	0xf3
 7533 0295 01       		.uleb128 0x1
 7534 0296 50       		.byte	0x50
 7535 0297 9F       		.byte	0x9f
 7536 0298 00000000 		.4byte	0
 7537 029c 00000000 		.4byte	0
 7538              	.LLST17:
 7539 02a0 14000000 		.4byte	.LVL122
 7540 02a4 42000000 		.4byte	.LVL126
 7541 02a8 0200     		.2byte	0x2
 7542 02aa 31       		.byte	0x31
 7543 02ab 9F       		.byte	0x9f
 7544 02ac 42000000 		.4byte	.LVL126
 7545 02b0 58000000 		.4byte	.LVL127
 7546 02b4 0100     		.2byte	0x1
 7547 02b6 55       		.byte	0x55
 7548 02b7 5A000000 		.4byte	.LVL128
 7549 02bb 66000000 		.4byte	.LVL130
 7550 02bf 0100     		.2byte	0x1
 7551 02c1 55       		.byte	0x55
 7552 02c2 68000000 		.4byte	.LVL131
 7553 02c6 54020000 		.4byte	.LFE703
 7554 02ca 0100     		.2byte	0x1
 7555 02cc 55       		.byte	0x55
 7556 02cd 00000000 		.4byte	0
 7557 02d1 00000000 		.4byte	0
 7558              	.LLST18:
 7559 02d5 20000000 		.4byte	.LVL124
 7560 02d9 2A000000 		.4byte	.LVL125
ARM GAS  C:\Users\nicpa\AppData\Local\Temp\ccPr5feD.s 			page 203


 7561 02dd 0100     		.2byte	0x1
 7562 02df 53       		.byte	0x53
 7563 02e0 DA010000 		.4byte	.LVL142
 7564 02e4 DE010000 		.4byte	.LVL143
 7565 02e8 0200     		.2byte	0x2
 7566 02ea 73       		.byte	0x73
 7567 02eb 00       		.sleb128 0
 7568 02ec 00000000 		.4byte	0
 7569 02f0 00000000 		.4byte	0
 7570              	.LLST19:
 7571 02f4 DE010000 		.4byte	.LVL143
 7572 02f8 E8010000 		.4byte	.LVL144
 7573 02fc 0100     		.2byte	0x1
 7574 02fe 53       		.byte	0x53
 7575 02ff 00000000 		.4byte	0
 7576 0303 00000000 		.4byte	0
 7577              		.section	.debug_aranges,"",%progbits
 7578 0000 3C000000 		.4byte	0x3c
 7579 0004 0200     		.2byte	0x2
 7580 0006 00000000 		.4byte	.Ldebug_info0
 7581 000a 04       		.byte	0x4
 7582 000b 00       		.byte	0
 7583 000c 0000     		.2byte	0
 7584 000e 0000     		.2byte	0
 7585 0010 00000000 		.4byte	.LFB699
 7586 0014 98010000 		.4byte	.LFE699-.LFB699
 7587 0018 00000000 		.4byte	.LFB700
 7588 001c 9C000000 		.4byte	.LFE700-.LFB700
 7589 0020 00000000 		.4byte	.LFB701
 7590 0024 DC000000 		.4byte	.LFE701-.LFB701
 7591 0028 00000000 		.4byte	.LFB702
 7592 002c E8010000 		.4byte	.LFE702-.LFB702
 7593 0030 00000000 		.4byte	.LFB703
 7594 0034 54020000 		.4byte	.LFE703-.LFB703
 7595 0038 00000000 		.4byte	0
 7596 003c 00000000 		.4byte	0
 7597              		.section	.debug_ranges,"",%progbits
 7598              	.Ldebug_ranges0:
 7599 0000 00000000 		.4byte	.LFB699
 7600 0004 98010000 		.4byte	.LFE699
 7601 0008 00000000 		.4byte	.LFB700
 7602 000c 9C000000 		.4byte	.LFE700
 7603 0010 00000000 		.4byte	.LFB701
 7604 0014 DC000000 		.4byte	.LFE701
 7605 0018 00000000 		.4byte	.LFB702
 7606 001c E8010000 		.4byte	.LFE702
 7607 0020 00000000 		.4byte	.LFB703
 7608 0024 54020000 		.4byte	.LFE703
 7609 0028 00000000 		.4byte	0
 7610 002c 00000000 		.4byte	0
 7611              		.section	.debug_line,"",%progbits
 7612              	.Ldebug_line0:
 7613 0000 86070000 		.section	.debug_str,"MS",%progbits,1
 7613      02000806 
 7613      00000201 
 7613      FB0E0D00 
 7613      01010101 
ARM GAS  C:\Users\nicpa\AppData\Local\Temp\ccPr5feD.s 			page 204


 7614              	.LASF184:
 7615 0000 52534552 		.ascii	"RSERVED1\000"
 7615      56454431 
 7615      00
 7616              	.LASF380:
 7617 0009 63617074 		.ascii	"captureInput\000"
 7617      75726549 
 7617      6E707574 
 7617      00
 7618              	.LASF136:
 7619 0016 7564625F 		.ascii	"udb_interrupts_3_IRQn\000"
 7619      696E7465 
 7619      72727570 
 7619      74735F33 
 7619      5F495251 
 7620              	.LASF175:
 7621 002c 696E7438 		.ascii	"int8_t\000"
 7621      5F7400
 7622              	.LASF232:
 7623 0033 63727970 		.ascii	"cryptoBase\000"
 7623      746F4261 
 7623      736500
 7624              	.LASF296:
 7625 003e 63707573 		.ascii	"cpussCm0StatusOffset\000"
 7625      73436D30 
 7625      53746174 
 7625      75734F66 
 7625      66736574 
 7626              	.LASF193:
 7627 0053 73697A65 		.ascii	"sizetype\000"
 7627      74797065 
 7627      00
 7628              	.LASF432:
 7629 005c 70616645 		.ascii	"pafEncode\000"
 7629      6E636F64 
 7629      6500
 7630              	.LASF410:
 7631 0066 4755495F 		.ascii	"GUI_FONT_PROP_EXT\000"
 7631      464F4E54 
 7631      5F50524F 
 7631      505F4558 
 7631      5400
 7632              	.LASF360:
 7633 0078 63795F73 		.ascii	"cy_stc_scb_uart_context\000"
 7633      74635F73 
 7633      63625F75 
 7633      6172745F 
 7633      636F6E74 
 7634              	.LASF357:
 7635 0090 696E6974 		.ascii	"initKey\000"
 7635      4B657900 
 7636              	.LASF24:
 7637 0098 696F7373 		.ascii	"ioss_interrupts_gpio_13_IRQn\000"
 7637      5F696E74 
 7637      65727275 
 7637      7074735F 
 7637      6770696F 
ARM GAS  C:\Users\nicpa\AppData\Local\Temp\ccPr5feD.s 			page 205


 7638              	.LASF499:
 7639 00b5 7369676E 		.ascii	"signal_IF\000"
 7639      616C5F49 
 7639      4600
 7640              	.LASF30:
 7641 00bf 73727373 		.ascii	"srss_interrupt_mcwdt_0_IRQn\000"
 7641      5F696E74 
 7641      65727275 
 7641      70745F6D 
 7641      63776474 
 7642              	.LASF379:
 7643 00db 63617074 		.ascii	"captureInputMode\000"
 7643      75726549 
 7643      6E707574 
 7643      4D6F6465 
 7643      00
 7644              	.LASF351:
 7645 00ec 72784275 		.ascii	"rxBuf\000"
 7645      6600
 7646              	.LASF259:
 7647 00f2 63727970 		.ascii	"cryptoMemSize\000"
 7647      746F4D65 
 7647      6D53697A 
 7647      6500
 7648              	.LASF273:
 7649 0100 64774368 		.ascii	"dwChCtlPreemptablePos\000"
 7649      43746C50 
 7649      7265656D 
 7649      70746162 
 7649      6C65506F 
 7650              	.LASF228:
 7651 0116 6873696F 		.ascii	"hsiomBase\000"
 7651      6D426173 
 7651      6500
 7652              	.LASF102:
 7653 0120 74637077 		.ascii	"tcpwm_0_interrupts_1_IRQn\000"
 7653      6D5F305F 
 7653      696E7465 
 7653      72727570 
 7653      74735F31 
 7654              	.LASF40:
 7655 013a 63707573 		.ascii	"cpuss_interrupts_ipc_4_IRQn\000"
 7655      735F696E 
 7655      74657272 
 7655      75707473 
 7655      5F697063 
 7656              	.LASF108:
 7657 0156 74637077 		.ascii	"tcpwm_0_interrupts_7_IRQn\000"
 7657      6D5F305F 
 7657      696E7465 
 7657      72727570 
 7657      74735F37 
 7658              	.LASF16:
 7659 0170 696F7373 		.ascii	"ioss_interrupts_gpio_5_IRQn\000"
 7659      5F696E74 
 7659      65727275 
 7659      7074735F 
ARM GAS  C:\Users\nicpa\AppData\Local\Temp\ccPr5feD.s 			page 206


 7659      6770696F 
 7660              	.LASF57:
 7661 018c 7363625F 		.ascii	"scb_5_interrupt_IRQn\000"
 7661      355F696E 
 7661      74657272 
 7661      7570745F 
 7661      4952516E 
 7662              	.LASF516:
 7663 01a1 55706461 		.ascii	"UpdateDisplay\000"
 7663      74654469 
 7663      73706C61 
 7663      7900
 7664              	.LASF33:
 7665 01af 73727373 		.ascii	"srss_interrupt_IRQn\000"
 7665      5F696E74 
 7665      65727275 
 7665      70745F49 
 7665      52516E00 
 7666              	.LASF479:
 7667 01c3 4755495F 		.ascii	"GUI_Font16_1\000"
 7667      466F6E74 
 7667      31365F31 
 7667      00
 7668              	.LASF429:
 7669 01d0 70664765 		.ascii	"pfGetFontInfo\000"
 7669      74466F6E 
 7669      74496E66 
 7669      6F00
 7670              	.LASF146:
 7671 01de 7564625F 		.ascii	"udb_interrupts_13_IRQn\000"
 7671      696E7465 
 7671      72727570 
 7671      74735F31 
 7671      335F4952 
 7672              	.LASF504:
 7673 01f5 44435F52 		.ascii	"DC_R\000"
 7673      00
 7674              	.LASF287:
 7675 01fa 70657269 		.ascii	"periDiv24_5CtlOffset\000"
 7675      44697632 
 7675      345F3543 
 7675      746C4F66 
 7675      66736574 
 7676              	.LASF96:
 7677 020f 63707573 		.ascii	"cpuss_interrupt_fm_IRQn\000"
 7677      735F696E 
 7677      74657272 
 7677      7570745F 
 7677      666D5F49 
 7678              	.LASF200:
 7679 0227 494E5452 		.ascii	"INTR_MASKED\000"
 7679      5F4D4153 
 7679      4B454400 
 7680              	.LASF327:
 7681 0233 73746174 		.ascii	"state\000"
 7681      6500
 7682              	.LASF396:
ARM GAS  C:\Users\nicpa\AppData\Local\Temp\ccPr5feD.s 			page 207


 7683 0239 5853697A 		.ascii	"XSize\000"
 7683      6500
 7684              	.LASF196:
 7685 023f 4F55545F 		.ascii	"OUT_SET\000"
 7685      53455400 
 7686              	.LASF289:
 7687 0247 6770696F 		.ascii	"gpioPrtCfgOffset\000"
 7687      50727443 
 7687      66674F66 
 7687      66736574 
 7687      00
 7688              	.LASF195:
 7689 0258 4F55545F 		.ascii	"OUT_CLR\000"
 7689      434C5200 
 7690              	.LASF375:
 7691 0260 636F6D70 		.ascii	"compare0\000"
 7691      61726530 
 7691      00
 7692              	.LASF376:
 7693 0269 636F6D70 		.ascii	"compare1\000"
 7693      61726531 
 7693      00
 7694              	.LASF251:
 7695 0272 73727373 		.ascii	"srssNumHfroot\000"
 7695      4E756D48 
 7695      66726F6F 
 7695      7400
 7696              	.LASF152:
 7697 0280 70726F66 		.ascii	"profile_interrupt_IRQn\000"
 7697      696C655F 
 7697      696E7465 
 7697      72727570 
 7697      745F4952 
 7698              	.LASF23:
 7699 0297 696F7373 		.ascii	"ioss_interrupts_gpio_12_IRQn\000"
 7699      5F696E74 
 7699      65727275 
 7699      7074735F 
 7699      6770696F 
 7700              	.LASF525:
 7701 02b4 433A5C55 		.ascii	"C:\\Users\\nicpa\\OneDrive\\Documents\\PolyDoc\\GBM"
 7701      73657273 
 7701      5C6E6963 
 7701      70615C4F 
 7701      6E654472 
 7702 02e1 32313030 		.ascii	"2100FINAL\\Laboratoire3\\Laboratoire3.cydsn\000"
 7702      46494E41 
 7702      4C5C4C61 
 7702      626F7261 
 7702      746F6972 
 7703              	.LASF72:
 7704 030b 63707573 		.ascii	"cpuss_interrupts_dw0_11_IRQn\000"
 7704      735F696E 
 7704      74657272 
 7704      75707473 
 7704      5F647730 
 7705              	.LASF153:
ARM GAS  C:\Users\nicpa\AppData\Local\Temp\ccPr5feD.s 			page 208


 7706 0328 736D6966 		.ascii	"smif_interrupt_IRQn\000"
 7706      5F696E74 
 7706      65727275 
 7706      70745F49 
 7706      52516E00 
 7707              	.LASF123:
 7708 033c 74637077 		.ascii	"tcpwm_1_interrupts_14_IRQn\000"
 7708      6D5F315F 
 7708      696E7465 
 7708      72727570 
 7708      74735F31 
 7709              	.LASF54:
 7710 0357 7363625F 		.ascii	"scb_2_interrupt_IRQn\000"
 7710      325F696E 
 7710      74657272 
 7710      7570745F 
 7710      4952516E 
 7711              	.LASF446:
 7712 036c 43595F45 		.ascii	"CY_EINK_FULL_4STAGE\000"
 7712      494E4B5F 
 7712      46554C4C 
 7712      5F345354 
 7712      41474500 
 7713              	.LASF92:
 7714 0380 63707573 		.ascii	"cpuss_interrupts_dw1_15_IRQn\000"
 7714      735F696E 
 7714      74657272 
 7714      75707473 
 7714      5F647731 
 7715              	.LASF387:
 7716 039d 636F756E 		.ascii	"countInputMode\000"
 7716      74496E70 
 7716      75744D6F 
 7716      646500
 7717              	.LASF187:
 7718 03ac 49435052 		.ascii	"ICPR\000"
 7718      00
 7719              	.LASF483:
 7720 03b1 50414745 		.ascii	"PAGE_MENU\000"
 7720      5F4D454E 
 7720      5500
 7721              	.LASF274:
 7722 03bb 64775374 		.ascii	"dwStatusChIdxPos\000"
 7722      61747573 
 7722      43684964 
 7722      78506F73 
 7722      00
 7723              	.LASF65:
 7724 03cc 63707573 		.ascii	"cpuss_interrupts_dw0_4_IRQn\000"
 7724      735F696E 
 7724      74657272 
 7724      75707473 
 7724      5F647730 
 7725              	.LASF38:
 7726 03e8 63707573 		.ascii	"cpuss_interrupts_ipc_2_IRQn\000"
 7726      735F696E 
 7726      74657272 
ARM GAS  C:\Users\nicpa\AppData\Local\Temp\ccPr5feD.s 			page 209


 7726      75707473 
 7726      5F697063 
 7727              	.LASF39:
 7728 0404 63707573 		.ascii	"cpuss_interrupts_ipc_3_IRQn\000"
 7728      735F696E 
 7728      74657272 
 7728      75707473 
 7728      5F697063 
 7729              	.LASF107:
 7730 0420 74637077 		.ascii	"tcpwm_0_interrupts_6_IRQn\000"
 7730      6D5F305F 
 7730      696E7465 
 7730      72727570 
 7730      74735F36 
 7731              	.LASF140:
 7732 043a 7564625F 		.ascii	"udb_interrupts_7_IRQn\000"
 7732      696E7465 
 7732      72727570 
 7732      74735F37 
 7732      5F495251 
 7733              	.LASF15:
 7734 0450 696F7373 		.ascii	"ioss_interrupts_gpio_4_IRQn\000"
 7734      5F696E74 
 7734      65727275 
 7734      7074735F 
 7734      6770696F 
 7735              	.LASF290:
 7736 046c 6770696F 		.ascii	"gpioPrtCfgInOffset\000"
 7736      50727443 
 7736      6667496E 
 7736      4F666673 
 7736      657400
 7737              	.LASF433:
 7738 047f 59446973 		.ascii	"YDist\000"
 7738      7400
 7739              	.LASF515:
 7740 0485 4755495F 		.ascii	"GUI_DispStringAt\000"
 7740      44697370 
 7740      53747269 
 7740      6E674174 
 7740      00
 7741              	.LASF236:
 7742 0496 666C6173 		.ascii	"flashcVersion\000"
 7742      68635665 
 7742      7273696F 
 7742      6E00
 7743              	.LASF163:
 7744 04a4 5F5F7569 		.ascii	"__uint8_t\000"
 7744      6E74385F 
 7744      7400
 7745              	.LASF367:
 7746 04ae 74784C65 		.ascii	"txLeftToTransmit\000"
 7746      6674546F 
 7746      5472616E 
 7746      736D6974 
 7746      00
 7747              	.LASF356:
ARM GAS  C:\Users\nicpa\AppData\Local\Temp\ccPr5feD.s 			page 210


 7748 04bf 74784275 		.ascii	"txBufIdx\000"
 7748      66496478 
 7748      00
 7749              	.LASF80:
 7750 04c8 63707573 		.ascii	"cpuss_interrupts_dw1_3_IRQn\000"
 7750      735F696E 
 7750      74657272 
 7750      75707473 
 7750      5F647731 
 7751              	.LASF316:
 7752 04e4 696E7472 		.ascii	"intrSrc\000"
 7752      53726300 
 7753              	.LASF506:
 7754 04ec 4C45445F 		.ascii	"LED_flag\000"
 7754      666C6167 
 7754      00
 7755              	.LASF325:
 7756 04f5 75736552 		.ascii	"useRxFifo\000"
 7756      78466966 
 7756      6F00
 7757              	.LASF355:
 7758 04ff 74784275 		.ascii	"txBufSize\000"
 7758      6653697A 
 7758      6500
 7759              	.LASF442:
 7760 0509 704D6F6E 		.ascii	"pMono\000"
 7760      6F00
 7761              	.LASF169:
 7762 050f 6C6F6E67 		.ascii	"long int\000"
 7762      20696E74 
 7762      00
 7763              	.LASF210:
 7764 0518 494E5452 		.ascii	"INTR_CAUSE0\000"
 7764      5F434155 
 7764      53453000 
 7765              	.LASF211:
 7766 0524 494E5452 		.ascii	"INTR_CAUSE1\000"
 7766      5F434155 
 7766      53453100 
 7767              	.LASF212:
 7768 0530 494E5452 		.ascii	"INTR_CAUSE2\000"
 7768      5F434155 
 7768      53453200 
 7769              	.LASF213:
 7770 053c 494E5452 		.ascii	"INTR_CAUSE3\000"
 7770      5F434155 
 7770      53453300 
 7771              	.LASF456:
 7772 0548 5F5F4E56 		.ascii	"__NVIC_EnableIRQ\000"
 7772      49435F45 
 7772      6E61626C 
 7772      65495251 
 7772      00
 7773              	.LASF133:
 7774 0559 7564625F 		.ascii	"udb_interrupts_0_IRQn\000"
 7774      696E7465 
 7774      72727570 
ARM GAS  C:\Users\nicpa\AppData\Local\Temp\ccPr5feD.s 			page 211


 7774      74735F30 
 7774      5F495251 
 7775              	.LASF122:
 7776 056f 74637077 		.ascii	"tcpwm_1_interrupts_13_IRQn\000"
 7776      6D5F315F 
 7776      696E7465 
 7776      72727570 
 7776      74735F31 
 7777              	.LASF256:
 7778 058a 75646250 		.ascii	"udbPresent\000"
 7778      72657365 
 7778      6E7400
 7779              	.LASF511:
 7780 0595 4755495F 		.ascii	"GUI_DrawRect\000"
 7780      44726177 
 7780      52656374 
 7780      00
 7781              	.LASF277:
 7782 05a2 70657269 		.ascii	"periTrCmdGrSelMsk\000"
 7782      5472436D 
 7782      64477253 
 7782      656C4D73 
 7782      6B00
 7783              	.LASF381:
 7784 05b4 72656C6F 		.ascii	"reloadInputMode\000"
 7784      6164496E 
 7784      7075744D 
 7784      6F646500 
 7785              	.LASF284:
 7786 05c4 70657269 		.ascii	"periDiv8CtlOffset\000"
 7786      44697638 
 7786      43746C4F 
 7786      66667365 
 7786      7400
 7787              	.LASF455:
 7788 05d6 4952516E 		.ascii	"IRQn\000"
 7788      00
 7789              	.LASF279:
 7790 05db 70657269 		.ascii	"periTrGrSize\000"
 7790      54724772 
 7790      53697A65 
 7790      00
 7791              	.LASF139:
 7792 05e8 7564625F 		.ascii	"udb_interrupts_6_IRQn\000"
 7792      696E7465 
 7792      72727570 
 7792      74735F36 
 7792      5F495251 
 7793              	.LASF90:
 7794 05fe 63707573 		.ascii	"cpuss_interrupts_dw1_13_IRQn\000"
 7794      735F696E 
 7794      74657272 
 7794      75707473 
 7794      5F647731 
 7795              	.LASF47:
 7796 061b 63707573 		.ascii	"cpuss_interrupts_ipc_11_IRQn\000"
 7796      735F696E 
ARM GAS  C:\Users\nicpa\AppData\Local\Temp\ccPr5feD.s 			page 212


 7796      74657272 
 7796      75707473 
 7796      5F697063 
 7797              	.LASF422:
 7798 0638 70664765 		.ascii	"pfGetLineDistX\000"
 7798      744C696E 
 7798      65446973 
 7798      745800
 7799              	.LASF488:
 7800 0647 63757272 		.ascii	"currentpage\000"
 7800      656E7470 
 7800      61676500 
 7801              	.LASF408:
 7802 0653 70614368 		.ascii	"paCharInfo\000"
 7802      6172496E 
 7802      666F00
 7803              	.LASF430:
 7804 065e 70664973 		.ascii	"pfIsInFont\000"
 7804      496E466F 
 7804      6E7400
 7805              	.LASF79:
 7806 0669 63707573 		.ascii	"cpuss_interrupts_dw1_2_IRQn\000"
 7806      735F696E 
 7806      74657272 
 7806      75707473 
 7806      5F647731 
 7807              	.LASF207:
 7808 0685 4346475F 		.ascii	"CFG_IN_GPIO5V\000"
 7808      494E5F47 
 7808      50494F35 
 7808      5600
 7809              	.LASF498:
 7810 0693 7369676E 		.ascii	"signal_R\000"
 7810      616C5F52 
 7810      00
 7811              	.LASF10:
 7812 069c 53797354 		.ascii	"SysTick_IRQn\000"
 7812      69636B5F 
 7812      4952516E 
 7812      00
 7813              	.LASF60:
 7814 06a9 6373645F 		.ascii	"csd_interrupt_IRQn\000"
 7814      696E7465 
 7814      72727570 
 7814      745F4952 
 7814      516E00
 7815              	.LASF368:
 7816 06bc 63795F73 		.ascii	"cy_stc_scb_uart_context_t\000"
 7816      74635F73 
 7816      63625F75 
 7816      6172745F 
 7816      636F6E74 
 7817              	.LASF252:
 7818 06d6 70657269 		.ascii	"periClockNr\000"
 7818      436C6F63 
 7818      6B4E7200 
 7819              	.LASF162:
ARM GAS  C:\Users\nicpa\AppData\Local\Temp\ccPr5feD.s 			page 213


 7820 06e2 7369676E 		.ascii	"signed char\000"
 7820      65642063 
 7820      68617200 
 7821              	.LASF176:
 7822 06ee 75696E74 		.ascii	"uint8_t\000"
 7822      385F7400 
 7823              	.LASF474:
 7824 06f6 43595F45 		.ascii	"CY_EINK_SPIM_context\000"
 7824      494E4B5F 
 7824      5350494D 
 7824      5F636F6E 
 7824      74657874 
 7825              	.LASF463:
 7826 070b 75706461 		.ascii	"updateSignal\000"
 7826      74655369 
 7826      676E616C 
 7826      00
 7827              	.LASF282:
 7828 0718 70657269 		.ascii	"periDivCmdPaDivSelPos\000"
 7828      44697643 
 7828      6D645061 
 7828      44697653 
 7828      656C506F 
 7829              	.LASF490:
 7830 072e 616C6572 		.ascii	"alerte\000"
 7830      746500
 7831              	.LASF303:
 7832 0735 63707573 		.ascii	"cpussRomCtl\000"
 7832      73526F6D 
 7832      43746C00 
 7833              	.LASF43:
 7834 0741 63707573 		.ascii	"cpuss_interrupts_ipc_7_IRQn\000"
 7834      735F696E 
 7834      74657272 
 7834      75707473 
 7834      5F697063 
 7835              	.LASF339:
 7836 075d 736C6176 		.ascii	"slaveTxBufferIdx\000"
 7836      65547842 
 7836      75666665 
 7836      72496478 
 7836      00
 7837              	.LASF19:
 7838 076e 696F7373 		.ascii	"ioss_interrupts_gpio_8_IRQn\000"
 7838      5F696E74 
 7838      65727275 
 7838      7074735F 
 7838      6770696F 
 7839              	.LASF59:
 7840 078a 7363625F 		.ascii	"scb_7_interrupt_IRQn\000"
 7840      375F696E 
 7840      74657272 
 7840      7570745F 
 7840      4952516E 
 7841              	.LASF224:
 7842 079f 666C6173 		.ascii	"flashcBase\000"
 7842      68634261 
ARM GAS  C:\Users\nicpa\AppData\Local\Temp\ccPr5feD.s 			page 214


 7842      736500
 7843              	.LASF341:
 7844 07aa 736C6176 		.ascii	"slaveRxBuffer\000"
 7844      65527842 
 7844      75666665 
 7844      7200
 7845              	.LASF182:
 7846 07b8 52455345 		.ascii	"RESERVED0\000"
 7846      52564544 
 7846      3000
 7847              	.LASF208:
 7848 07c2 52455345 		.ascii	"RESERVED1\000"
 7848      52564544 
 7848      3100
 7849              	.LASF164:
 7850 07cc 756E7369 		.ascii	"unsigned char\000"
 7850      676E6564 
 7850      20636861 
 7850      7200
 7851              	.LASF188:
 7852 07da 52455345 		.ascii	"RESERVED3\000"
 7852      52564544 
 7852      3300
 7853              	.LASF190:
 7854 07e4 52455345 		.ascii	"RESERVED4\000"
 7854      52564544 
 7854      3400
 7855              	.LASF468:
 7856 07ee 74617578 		.ascii	"taux_oxy\000"
 7856      5F6F7879 
 7856      00
 7857              	.LASF393:
 7858 07f7 4C617374 		.ascii	"LastChar\000"
 7858      43686172 
 7858      00
 7859              	.LASF470:
 7860 0800 73656C65 		.ascii	"selection\000"
 7860      6374696F 
 7860      6E00
 7861              	.LASF346:
 7862 080a 63795F73 		.ascii	"cy_stc_scb_i2c_context_t\000"
 7862      74635F73 
 7862      63625F69 
 7862      32635F63 
 7862      6F6E7465 
 7863              	.LASF44:
 7864 0823 63707573 		.ascii	"cpuss_interrupts_ipc_8_IRQn\000"
 7864      735F696E 
 7864      74657272 
 7864      75707473 
 7864      5F697063 
 7865              	.LASF189:
 7866 083f 49414252 		.ascii	"IABR\000"
 7866      00
 7867              	.LASF118:
 7868 0844 74637077 		.ascii	"tcpwm_1_interrupts_9_IRQn\000"
 7868      6D5F315F 
ARM GAS  C:\Users\nicpa\AppData\Local\Temp\ccPr5feD.s 			page 215


 7868      696E7465 
 7868      72727570 
 7868      74735F39 
 7869              	.LASF156:
 7870 085e 7573625F 		.ascii	"usb_interrupt_lo_IRQn\000"
 7870      696E7465 
 7870      72727570 
 7870      745F6C6F 
 7870      5F495251 
 7871              	.LASF416:
 7872 0874 4C486569 		.ascii	"LHeight\000"
 7872      67687400 
 7873              	.LASF35:
 7874 087c 626C6573 		.ascii	"bless_interrupt_IRQn\000"
 7874      735F696E 
 7874      74657272 
 7874      7570745F 
 7874      4952516E 
 7875              	.LASF298:
 7876 0891 63707573 		.ascii	"cpussTrimRamCtlOffset\000"
 7876      73547269 
 7876      6D52616D 
 7876      43746C4F 
 7876      66667365 
 7877              	.LASF158:
 7878 08a7 756E636F 		.ascii	"unconnected_IRQn\000"
 7878      6E6E6563 
 7878      7465645F 
 7878      4952516E 
 7878      00
 7879              	.LASF319:
 7880 08b8 5F426F6F 		.ascii	"_Bool\000"
 7880      6C00
 7881              	.LASF230:
 7882 08be 70617373 		.ascii	"passBase\000"
 7882      42617365 
 7882      00
 7883              	.LASF299:
 7884 08c7 63707573 		.ascii	"cpussTrimRomCtlOffset\000"
 7884      73547269 
 7884      6D526F6D 
 7884      43746C4F 
 7884      66667365 
 7885              	.LASF75:
 7886 08dd 63707573 		.ascii	"cpuss_interrupts_dw0_14_IRQn\000"
 7886      735F696E 
 7886      74657272 
 7886      75707473 
 7886      5F647730 
 7887              	.LASF439:
 7888 08fa 4755495F 		.ascii	"GUI_ISINFONT\000"
 7888      4953494E 
 7888      464F4E54 
 7888      00
 7889              	.LASF434:
 7890 0907 584D6167 		.ascii	"XMag\000"
 7890      00
ARM GAS  C:\Users\nicpa\AppData\Local\Temp\ccPr5feD.s 			page 216


 7891              	.LASF191:
 7892 090c 52455345 		.ascii	"RESERVED5\000"
 7892      52564544 
 7892      3500
 7893              	.LASF6:
 7894 0916 55736167 		.ascii	"UsageFault_IRQn\000"
 7894      65466175 
 7894      6C745F49 
 7894      52516E00 
 7895              	.LASF414:
 7896 0926 466C6167 		.ascii	"Flags\000"
 7896      7300
 7897              	.LASF126:
 7898 092c 74637077 		.ascii	"tcpwm_1_interrupts_17_IRQn\000"
 7898      6D5F315F 
 7898      696E7465 
 7898      72727570 
 7898      74735F31 
 7899              	.LASF311:
 7900 0947 63686172 		.ascii	"char\000"
 7900      00
 7901              	.LASF486:
 7902 094c 50414745 		.ascii	"PAGE_HR\000"
 7902      5F485200 
 7903              	.LASF155:
 7904 0954 7573625F 		.ascii	"usb_interrupt_med_IRQn\000"
 7904      696E7465 
 7904      72727570 
 7904      745F6D65 
 7904      645F4952 
 7905              	.LASF11:
 7906 096b 696F7373 		.ascii	"ioss_interrupts_gpio_0_IRQn\000"
 7906      5F696E74 
 7906      65727275 
 7906      7074735F 
 7906      6770696F 
 7907              	.LASF291:
 7908 0987 6770696F 		.ascii	"gpioPrtCfgOutOffset\000"
 7908      50727443 
 7908      66674F75 
 7908      744F6666 
 7908      73657400 
 7909              	.LASF349:
 7910 099b 63795F73 		.ascii	"cy_stc_scb_spi_context\000"
 7910      74635F73 
 7910      63625F73 
 7910      70695F63 
 7910      6F6E7465 
 7911              	.LASF397:
 7912 09b2 58446973 		.ascii	"XDist\000"
 7912      7400
 7913              	.LASF68:
 7914 09b8 63707573 		.ascii	"cpuss_interrupts_dw0_7_IRQn\000"
 7914      735F696E 
 7914      74657272 
 7914      75707473 
 7914      5F647730 
ARM GAS  C:\Users\nicpa\AppData\Local\Temp\ccPr5feD.s 			page 217


 7915              	.LASF372:
 7916 09d4 72756E4D 		.ascii	"runMode\000"
 7916      6F646500 
 7917              	.LASF111:
 7918 09dc 74637077 		.ascii	"tcpwm_1_interrupts_2_IRQn\000"
 7918      6D5F315F 
 7918      696E7465 
 7918      72727570 
 7918      74735F32 
 7919              	.LASF219:
 7920 09f6 4750494F 		.ascii	"GPIO_V1_Type\000"
 7920      5F56315F 
 7920      54797065 
 7920      00
 7921              	.LASF42:
 7922 0a03 63707573 		.ascii	"cpuss_interrupts_ipc_6_IRQn\000"
 7922      735F696E 
 7922      74657272 
 7922      75707473 
 7922      5F697063 
 7923              	.LASF409:
 7924 0a1f 704E6578 		.ascii	"pNext\000"
 7924      7400
 7925              	.LASF352:
 7926 0a25 72784275 		.ascii	"rxBufSize\000"
 7926      6653697A 
 7926      6500
 7927              	.LASF18:
 7928 0a2f 696F7373 		.ascii	"ioss_interrupts_gpio_7_IRQn\000"
 7928      5F696E74 
 7928      65727275 
 7928      7074735F 
 7928      6770696F 
 7929              	.LASF404:
 7930 0a4b 4755495F 		.ascii	"GUI_CHARINFO_EXT\000"
 7930      43484152 
 7930      494E464F 
 7930      5F455854 
 7930      00
 7931              	.LASF166:
 7932 0a5c 5F5F7569 		.ascii	"__uint16_t\000"
 7932      6E743136 
 7932      5F7400
 7933              	.LASF371:
 7934 0a67 636C6F63 		.ascii	"clockPrescaler\000"
 7934      6B507265 
 7934      7363616C 
 7934      657200
 7935              	.LASF512:
 7936 0a76 4755495F 		.ascii	"GUI_DrawLine\000"
 7936      44726177 
 7936      4C696E65 
 7936      00
 7937              	.LASF186:
 7938 0a83 52455345 		.ascii	"RESERVED2\000"
 7938      52564544 
 7938      3200
ARM GAS  C:\Users\nicpa\AppData\Local\Temp\ccPr5feD.s 			page 218


 7939              	.LASF449:
 7940 0a8d 5F5F4453 		.ascii	"__DSB\000"
 7940      4200
 7941              	.LASF83:
 7942 0a93 63707573 		.ascii	"cpuss_interrupts_dw1_6_IRQn\000"
 7942      735F696E 
 7942      74657272 
 7942      75707473 
 7942      5F647731 
 7943              	.LASF443:
 7944 0aaf 7050726F 		.ascii	"pProp\000"
 7944      7000
 7945              	.LASF448:
 7946 0ab5 5F5F4953 		.ascii	"__ISB\000"
 7946      4200
 7947              	.LASF246:
 7948 0abb 63707573 		.ascii	"cpussIpc0Irq\000"
 7948      73497063 
 7948      30497271 
 7948      00
 7949              	.LASF510:
 7950 0ac8 4755495F 		.ascii	"GUI_SetBkColor\000"
 7950      53657442 
 7950      6B436F6C 
 7950      6F7200
 7951              	.LASF119:
 7952 0ad7 74637077 		.ascii	"tcpwm_1_interrupts_10_IRQn\000"
 7952      6D5F315F 
 7952      696E7465 
 7952      72727570 
 7952      74735F31 
 7953              	.LASF88:
 7954 0af2 63707573 		.ascii	"cpuss_interrupts_dw1_11_IRQn\000"
 7954      735F696E 
 7954      74657272 
 7954      75707473 
 7954      5F647731 
 7955              	.LASF203:
 7956 0b0f 4346475F 		.ascii	"CFG_IN\000"
 7956      494E00
 7957              	.LASF295:
 7958 0b16 63707573 		.ascii	"cpussCm4StatusOffset\000"
 7958      73436D34 
 7958      53746174 
 7958      75734F66 
 7958      66736574 
 7959              	.LASF427:
 7960 0b2b 70664469 		.ascii	"pfDispChar\000"
 7960      73704368 
 7960      617200
 7961              	.LASF336:
 7962 0b36 736C6176 		.ascii	"slaveRdBufEmpty\000"
 7962      65526442 
 7962      7566456D 
 7962      70747900 
 7963              	.LASF392:
 7964 0b46 46697273 		.ascii	"FirstChar\000"
ARM GAS  C:\Users\nicpa\AppData\Local\Temp\ccPr5feD.s 			page 219


 7964      74436861 
 7964      7200
 7965              	.LASF226:
 7966 0b50 75646242 		.ascii	"udbBase\000"
 7966      61736500 
 7967              	.LASF61:
 7968 0b58 63707573 		.ascii	"cpuss_interrupts_dw0_0_IRQn\000"
 7968      735F696E 
 7968      74657272 
 7968      75707473 
 7968      5F647730 
 7969              	.LASF216:
 7970 0b74 5644445F 		.ascii	"VDD_INTR_MASK\000"
 7970      494E5452 
 7970      5F4D4153 
 7970      4B00
 7971              	.LASF103:
 7972 0b82 74637077 		.ascii	"tcpwm_0_interrupts_2_IRQn\000"
 7972      6D5F305F 
 7972      696E7465 
 7972      72727570 
 7972      74735F32 
 7973              	.LASF185:
 7974 0b9c 49535052 		.ascii	"ISPR\000"
 7974      00
 7975              	.LASF438:
 7976 0ba1 4755495F 		.ascii	"GUI_GETFONTINFO\000"
 7976      47455446 
 7976      4F4E5449 
 7976      4E464F00 
 7977              	.LASF125:
 7978 0bb1 74637077 		.ascii	"tcpwm_1_interrupts_16_IRQn\000"
 7978      6D5F315F 
 7978      696E7465 
 7978      72727570 
 7978      74735F31 
 7979              	.LASF293:
 7980 0bcc 63707573 		.ascii	"cpussCm0ClockCtlOffset\000"
 7980      73436D30 
 7980      436C6F63 
 7980      6B43746C 
 7980      4F666673 
 7981              	.LASF278:
 7982 0be3 70657269 		.ascii	"periTrGrOffset\000"
 7982      54724772 
 7982      4F666673 
 7982      657400
 7983              	.LASF402:
 7984 0bf2 58506F73 		.ascii	"XPos\000"
 7984      00
 7985              	.LASF501:
 7986 0bf7 7369676E 		.ascii	"signal_AC_IF\000"
 7986      616C5F41 
 7986      435F4946 
 7986      00
 7987              	.LASF391:
 7988 0c04 4755495F 		.ascii	"GUI_FONT_TRANSLIST\000"
ARM GAS  C:\Users\nicpa\AppData\Local\Temp\ccPr5feD.s 			page 220


 7988      464F4E54 
 7988      5F545241 
 7988      4E534C49 
 7988      535400
 7989              	.LASF340:
 7990 0c17 736C6176 		.ascii	"slaveTxBufferCnt\000"
 7990      65547842 
 7990      75666665 
 7990      72436E74 
 7990      00
 7991              	.LASF308:
 7992 0c28 6970634C 		.ascii	"ipcLockStatusOffset\000"
 7992      6F636B53 
 7992      74617475 
 7992      734F6666 
 7992      73657400 
 7993              	.LASF142:
 7994 0c3c 7564625F 		.ascii	"udb_interrupts_9_IRQn\000"
 7994      696E7465 
 7994      72727570 
 7994      74735F39 
 7994      5F495251 
 7995              	.LASF462:
 7996 0c52 75706461 		.ascii	"updateMenu\000"
 7996      74654D65 
 7996      6E7500
 7997              	.LASF50:
 7998 0c5d 63707573 		.ascii	"cpuss_interrupts_ipc_14_IRQn\000"
 7998      735F696E 
 7998      74657272 
 7998      75707473 
 7998      5F697063 
 7999              	.LASF192:
 8000 0c7a 53544952 		.ascii	"STIR\000"
 8000      00
 8001              	.LASF115:
 8002 0c7f 74637077 		.ascii	"tcpwm_1_interrupts_6_IRQn\000"
 8002      6D5F315F 
 8002      696E7465 
 8002      72727570 
 8002      74735F36 
 8003              	.LASF318:
 8004 0c99 63795F73 		.ascii	"cy_stc_sysint_t\000"
 8004      74635F73 
 8004      7973696E 
 8004      745F7400 
 8005              	.LASF294:
 8006 0ca9 63707573 		.ascii	"cpussCm4ClockCtlOffset\000"
 8006      73436D34 
 8006      436C6F63 
 8006      6B43746C 
 8006      4F666673 
 8007              	.LASF457:
 8008 0cc0 75706461 		.ascii	"updateLED\000"
 8008      74654C45 
 8008      4400
 8009              	.LASF524:
ARM GAS  C:\Users\nicpa\AppData\Local\Temp\ccPr5feD.s 			page 221


 8010 0cca 4C45445F 		.ascii	"LED_task.c\000"
 8010      7461736B 
 8010      2E6300
 8011              	.LASF129:
 8012 0cd5 74637077 		.ascii	"tcpwm_1_interrupts_20_IRQn\000"
 8012      6D5F315F 
 8012      696E7465 
 8012      72727570 
 8012      74735F32 
 8013              	.LASF157:
 8014 0cf0 70617373 		.ascii	"pass_interrupt_dacs_IRQn\000"
 8014      5F696E74 
 8014      65727275 
 8014      70745F64 
 8014      6163735F 
 8015              	.LASF206:
 8016 0d09 52455345 		.ascii	"RESERVED\000"
 8016      52564544 
 8016      00
 8017              	.LASF297:
 8018 0d12 63707573 		.ascii	"cpussCm4PwrCtlOffset\000"
 8018      73436D34 
 8018      50777243 
 8018      746C4F66 
 8018      66736574 
 8019              	.LASF94:
 8020 0d27 63707573 		.ascii	"cpuss_interrupts_fault_1_IRQn\000"
 8020      735F696E 
 8020      74657272 
 8020      75707473 
 8020      5F666175 
 8021              	.LASF361:
 8022 0d45 74785374 		.ascii	"txStatus\000"
 8022      61747573 
 8022      00
 8023              	.LASF320:
 8024 0d4e 43595F53 		.ascii	"CY_SCB_I2C_ACK\000"
 8024      43425F49 
 8024      32435F41 
 8024      434B00
 8025              	.LASF269:
 8026 0d5d 666C6173 		.ascii	"flashCtlMainWs4Freq\000"
 8026      6843746C 
 8026      4D61696E 
 8026      57733446 
 8026      72657100 
 8027              	.LASF249:
 8028 0d71 73727373 		.ascii	"srssNumClkpath\000"
 8028      4E756D43 
 8028      6C6B7061 
 8028      746800
 8029              	.LASF217:
 8030 0d80 5644445F 		.ascii	"VDD_INTR_MASKED\000"
 8030      494E5452 
 8030      5F4D4153 
 8030      4B454400 
 8031              	.LASF248:
ARM GAS  C:\Users\nicpa\AppData\Local\Temp\ccPr5feD.s 			page 222


 8032 0d90 63707573 		.ascii	"cpussNotConnectedIrq\000"
 8032      734E6F74 
 8032      436F6E6E 
 8032      65637465 
 8032      64497271 
 8033              	.LASF447:
 8034 0da5 43595F45 		.ascii	"CY_EINK_FULL_2STAGE\000"
 8034      494E4B5F 
 8034      46554C4C 
 8034      5F325354 
 8034      41474500 
 8035              	.LASF514:
 8036 0db9 4755495F 		.ascii	"GUI_SetTextAlign\000"
 8036      53657454 
 8036      65787441 
 8036      6C69676E 
 8036      00
 8037              	.LASF135:
 8038 0dca 7564625F 		.ascii	"udb_interrupts_2_IRQn\000"
 8038      696E7465 
 8038      72727570 
 8038      74735F32 
 8038      5F495251 
 8039              	.LASF526:
 8040 0de0 76494E54 		.ascii	"vINTERFACE_task\000"
 8040      45524641 
 8040      43455F74 
 8040      61736B00 
 8041              	.LASF225:
 8042 0df0 70657269 		.ascii	"periBase\000"
 8042      42617365 
 8042      00
 8043              	.LASF437:
 8044 0df9 4755495F 		.ascii	"GUI_GETCHARDISTX\000"
 8044      47455443 
 8044      48415244 
 8044      49535458 
 8044      00
 8045              	.LASF261:
 8046 0e0a 666C6173 		.ascii	"flashPipeRequired\000"
 8046      68506970 
 8046      65526571 
 8046      75697265 
 8046      6400
 8047              	.LASF395:
 8048 0e1c 4755495F 		.ascii	"GUI_FONT_TRANSINFO\000"
 8048      464F4E54 
 8048      5F545241 
 8048      4E53494E 
 8048      464F00
 8049              	.LASF332:
 8050 0e2f 6D617374 		.ascii	"masterBufferSize\000"
 8050      65724275 
 8050      66666572 
 8050      53697A65 
 8050      00
 8051              	.LASF2:
ARM GAS  C:\Users\nicpa\AppData\Local\Temp\ccPr5feD.s 			page 223


 8052 0e40 4E6F6E4D 		.ascii	"NonMaskableInt_IRQn\000"
 8052      61736B61 
 8052      626C6549 
 8052      6E745F49 
 8052      52516E00 
 8053              	.LASF120:
 8054 0e54 74637077 		.ascii	"tcpwm_1_interrupts_11_IRQn\000"
 8054      6D5F315F 
 8054      696E7465 
 8054      72727570 
 8054      74735F31 
 8055              	.LASF245:
 8056 0e6f 63707573 		.ascii	"cpussFlashPaSize\000"
 8056      73466C61 
 8056      73685061 
 8056      53697A65 
 8056      00
 8057              	.LASF344:
 8058 0e80 63624576 		.ascii	"cbEvents\000"
 8058      656E7473 
 8058      00
 8059              	.LASF458:
 8060 0e89 75706461 		.ascii	"updateHR\000"
 8060      74654852 
 8060      00
 8061              	.LASF171:
 8062 0e92 6C6F6E67 		.ascii	"long unsigned int\000"
 8062      20756E73 
 8062      69676E65 
 8062      6420696E 
 8062      7400
 8063              	.LASF312:
 8064 0ea4 666C6F61 		.ascii	"float32_t\000"
 8064      7433325F 
 8064      7400
 8065              	.LASF4:
 8066 0eae 4D656D6F 		.ascii	"MemoryManagement_IRQn\000"
 8066      72794D61 
 8066      6E616765 
 8066      6D656E74 
 8066      5F495251 
 8067              	.LASF521:
 8068 0ec4 77726974 		.ascii	"write_register_MAX\000"
 8068      655F7265 
 8068      67697374 
 8068      65725F4D 
 8068      415800
 8069              	.LASF350:
 8070 0ed7 73746174 		.ascii	"status\000"
 8070      757300
 8071              	.LASF400:
 8072 0ede 4755495F 		.ascii	"GUI_CHARINFO\000"
 8072      43484152 
 8072      494E464F 
 8072      00
 8073              	.LASF255:
 8074 0eeb 65704D6F 		.ascii	"epMonitorNr\000"
ARM GAS  C:\Users\nicpa\AppData\Local\Temp\ccPr5feD.s 			page 224


 8074      6E69746F 
 8074      724E7200 
 8075              	.LASF322:
 8076 0ef7 63795F65 		.ascii	"cy_en_scb_i2c_command_t\000"
 8076      6E5F7363 
 8076      625F6932 
 8076      635F636F 
 8076      6D6D616E 
 8077              	.LASF306:
 8078 0f0f 63707573 		.ascii	"cpussRam2Ctl0\000"
 8078      7352616D 
 8078      3243746C 
 8078      3000
 8079              	.LASF160:
 8080 0f1d 4952516E 		.ascii	"IRQn_Type\000"
 8080      5F547970 
 8080      6500
 8081              	.LASF250:
 8082 0f27 73727373 		.ascii	"srssNumPll\000"
 8082      4E756D50 
 8082      6C6C00
 8083              	.LASF233:
 8084 0f32 63707573 		.ascii	"cpussVersion\000"
 8084      73566572 
 8084      73696F6E 
 8084      00
 8085              	.LASF98:
 8086 0f3f 63707573 		.ascii	"cpuss_interrupts_cm0_cti_1_IRQn\000"
 8086      735F696E 
 8086      74657272 
 8086      75707473 
 8086      5F636D30 
 8087              	.LASF497:
 8088 0f5f 77726974 		.ascii	"write_idx_MAX\000"
 8088      655F6964 
 8088      785F4D41 
 8088      5800
 8089              	.LASF247:
 8090 0f6d 63707573 		.ascii	"cpussFmIrq\000"
 8090      73466D49 
 8090      727100
 8091              	.LASF335:
 8092 0f78 736C6176 		.ascii	"slaveStatus\000"
 8092      65537461 
 8092      74757300 
 8093              	.LASF258:
 8094 0f84 70726F74 		.ascii	"protBusMasterMask\000"
 8094      4275734D 
 8094      61737465 
 8094      724D6173 
 8094      6B00
 8095              	.LASF365:
 8096 0f96 72785269 		.ascii	"rxRingBufHead\000"
 8096      6E674275 
 8096      66486561 
 8096      6400
 8097              	.LASF271:
ARM GAS  C:\Users\nicpa\AppData\Local\Temp\ccPr5feD.s 			page 225


 8098 0fa4 64774368 		.ascii	"dwChSize\000"
 8098      53697A65 
 8098      00
 8099              	.LASF145:
 8100 0fad 7564625F 		.ascii	"udb_interrupts_12_IRQn\000"
 8100      696E7465 
 8100      72727570 
 8100      74735F31 
 8100      325F4952 
 8101              	.LASF487:
 8102 0fc4 50414745 		.ascii	"PAGE_LED\000"
 8102      5F4C4544 
 8102      00
 8103              	.LASF114:
 8104 0fcd 74637077 		.ascii	"tcpwm_1_interrupts_5_IRQn\000"
 8104      6D5F315F 
 8104      696E7465 
 8104      72727570 
 8104      74735F35 
 8105              	.LASF505:
 8106 0fe7 44435F49 		.ascii	"DC_IF\000"
 8106      4600
 8107              	.LASF45:
 8108 0fed 63707573 		.ascii	"cpuss_interrupts_ipc_9_IRQn\000"
 8108      735F696E 
 8108      74657272 
 8108      75707473 
 8108      5F697063 
 8109              	.LASF492:
 8110 1009 68726D61 		.ascii	"hrmax\000"
 8110      7800
 8111              	.LASF517:
 8112 100f 73707269 		.ascii	"sprintf\000"
 8112      6E746600 
 8113              	.LASF420:
 8114 1017 74475549 		.ascii	"tGUI_GetLineLen\000"
 8114      5F476574 
 8114      4C696E65 
 8114      4C656E00 
 8115              	.LASF369:
 8116 1027 63795F73 		.ascii	"cy_stc_tcpwm_counter_config\000"
 8116      74635F74 
 8116      6370776D 
 8116      5F636F75 
 8116      6E746572 
 8117              	.LASF253:
 8118 1043 736D6966 		.ascii	"smifDeviceNr\000"
 8118      44657669 
 8118      63654E72 
 8118      00
 8119              	.LASF460:
 8120 1050 66726571 		.ascii	"frequence_max\000"
 8120      75656E63 
 8120      655F6D61 
 8120      7800
 8121              	.LASF86:
 8122 105e 63707573 		.ascii	"cpuss_interrupts_dw1_9_IRQn\000"
ARM GAS  C:\Users\nicpa\AppData\Local\Temp\ccPr5feD.s 			page 226


 8122      735F696E 
 8122      74657272 
 8122      75707473 
 8122      5F647731 
 8123              	.LASF22:
 8124 107a 696F7373 		.ascii	"ioss_interrupts_gpio_11_IRQn\000"
 8124      5F696E74 
 8124      65727275 
 8124      7074735F 
 8124      6770696F 
 8125              	.LASF285:
 8126 1097 70657269 		.ascii	"periDiv16CtlOffset\000"
 8126      44697631 
 8126      3643746C 
 8126      4F666673 
 8126      657400
 8127              	.LASF71:
 8128 10aa 63707573 		.ascii	"cpuss_interrupts_dw0_10_IRQn\000"
 8128      735F696E 
 8128      74657272 
 8128      75707473 
 8128      5F647730 
 8129              	.LASF300:
 8130 10c7 63707573 		.ascii	"cpussSysTickCtlOffset\000"
 8130      73537973 
 8130      5469636B 
 8130      43746C4F 
 8130      66667365 
 8131              	.LASF378:
 8132 10dd 696E7465 		.ascii	"interruptSources\000"
 8132      72727570 
 8132      74536F75 
 8132      72636573 
 8132      00
 8133              	.LASF5:
 8134 10ee 42757346 		.ascii	"BusFault_IRQn\000"
 8134      61756C74 
 8134      5F495251 
 8134      6E00
 8135              	.LASF338:
 8136 10fc 736C6176 		.ascii	"slaveTxBufferSize\000"
 8136      65547842 
 8136      75666665 
 8136      7253697A 
 8136      6500
 8137              	.LASF281:
 8138 110e 70657269 		.ascii	"periDivCmdTypeSelPos\000"
 8138      44697643 
 8138      6D645479 
 8138      70655365 
 8138      6C506F73 
 8139              	.LASF91:
 8140 1123 63707573 		.ascii	"cpuss_interrupts_dw1_14_IRQn\000"
 8140      735F696E 
 8140      74657272 
 8140      75707473 
 8140      5F647731 
ARM GAS  C:\Users\nicpa\AppData\Local\Temp\ccPr5feD.s 			page 227


 8141              	.LASF223:
 8142 1140 63707573 		.ascii	"cpussBase\000"
 8142      73426173 
 8142      6500
 8143              	.LASF227:
 8144 114a 70726F74 		.ascii	"protBase\000"
 8144      42617365 
 8144      00
 8145              	.LASF239:
 8146 1153 69706356 		.ascii	"ipcVersion\000"
 8146      65727369 
 8146      6F6E00
 8147              	.LASF64:
 8148 115e 63707573 		.ascii	"cpuss_interrupts_dw0_3_IRQn\000"
 8148      735F696E 
 8148      74657272 
 8148      75707473 
 8148      5F647730 
 8149              	.LASF170:
 8150 117a 5F5F7569 		.ascii	"__uint32_t\000"
 8150      6E743332 
 8150      5F7400
 8151              	.LASF431:
 8152 1185 70664765 		.ascii	"pfGetCharInfo\000"
 8152      74436861 
 8152      72496E66 
 8152      6F00
 8153              	.LASF254:
 8154 1193 70617373 		.ascii	"passSarChannels\000"
 8154      53617243 
 8154      68616E6E 
 8154      656C7300 
 8155              	.LASF106:
 8156 11a3 74637077 		.ascii	"tcpwm_0_interrupts_5_IRQn\000"
 8156      6D5F305F 
 8156      696E7465 
 8156      72727570 
 8156      74735F35 
 8157              	.LASF518:
 8158 11bd 4755495F 		.ascii	"GUI_Init\000"
 8158      496E6974 
 8158      00
 8159              	.LASF14:
 8160 11c6 696F7373 		.ascii	"ioss_interrupts_gpio_3_IRQn\000"
 8160      5F696E74 
 8160      65727275 
 8160      7074735F 
 8160      6770696F 
 8161              	.LASF128:
 8162 11e2 74637077 		.ascii	"tcpwm_1_interrupts_19_IRQn\000"
 8162      6D5F315F 
 8162      696E7465 
 8162      72727570 
 8162      74735F31 
 8163              	.LASF204:
 8164 11fd 4346475F 		.ascii	"CFG_OUT\000"
 8164      4F555400 
ARM GAS  C:\Users\nicpa\AppData\Local\Temp\ccPr5feD.s 			page 228


 8165              	.LASF334:
 8166 1205 6D617374 		.ascii	"masterNumBytes\000"
 8166      65724E75 
 8166      6D427974 
 8166      657300
 8167              	.LASF494:
 8168 1214 7265645F 		.ascii	"red_data\000"
 8168      64617461 
 8168      00
 8169              	.LASF309:
 8170 121d 63795F73 		.ascii	"cy_stc_device_t\000"
 8170      74635F64 
 8170      65766963 
 8170      655F7400 
 8171              	.LASF493:
 8172 122d 68726D69 		.ascii	"hrmin\000"
 8172      6E00
 8173              	.LASF454:
 8174 1233 5F5F4E56 		.ascii	"__NVIC_DisableIRQ\000"
 8174      49435F44 
 8174      69736162 
 8174      6C654952 
 8174      5100
 8175              	.LASF9:
 8176 1245 50656E64 		.ascii	"PendSV_IRQn\000"
 8176      53565F49 
 8176      52516E00 
 8177              	.LASF70:
 8178 1251 63707573 		.ascii	"cpuss_interrupts_dw0_9_IRQn\000"
 8178      735F696E 
 8178      74657272 
 8178      75707473 
 8178      5F647730 
 8179              	.LASF144:
 8180 126d 7564625F 		.ascii	"udb_interrupts_11_IRQn\000"
 8180      696E7465 
 8180      72727570 
 8180      74735F31 
 8180      315F4952 
 8181              	.LASF113:
 8182 1284 74637077 		.ascii	"tcpwm_1_interrupts_4_IRQn\000"
 8182      6D5F315F 
 8182      696E7465 
 8182      72727570 
 8182      74735F34 
 8183              	.LASF313:
 8184 129e 646F7562 		.ascii	"double\000"
 8184      6C6500
 8185              	.LASF7:
 8186 12a5 53564361 		.ascii	"SVCall_IRQn\000"
 8186      6C6C5F49 
 8186      52516E00 
 8187              	.LASF234:
 8188 12b1 63727970 		.ascii	"cryptoVersion\000"
 8188      746F5665 
 8188      7273696F 
 8188      6E00
ARM GAS  C:\Users\nicpa\AppData\Local\Temp\ccPr5feD.s 			page 229


 8189              	.LASF385:
 8190 12bf 73746F70 		.ascii	"stopInputMode\000"
 8190      496E7075 
 8190      744D6F64 
 8190      6500
 8191              	.LASF445:
 8192 12cd 43595F45 		.ascii	"CY_EINK_PARTIAL\000"
 8192      494E4B5F 
 8192      50415254 
 8192      49414C00 
 8193              	.LASF260:
 8194 12dd 666C6173 		.ascii	"flashRwwRequired\000"
 8194      68527777 
 8194      52657175 
 8194      69726564 
 8194      00
 8195              	.LASF268:
 8196 12ee 666C6173 		.ascii	"flashCtlMainWs3Freq\000"
 8196      6843746C 
 8196      4D61696E 
 8196      57733346 
 8196      72657100 
 8197              	.LASF132:
 8198 1302 74637077 		.ascii	"tcpwm_1_interrupts_23_IRQn\000"
 8198      6D5F315F 
 8198      696E7465 
 8198      72727570 
 8198      74735F32 
 8199              	.LASF467:
 8200 131d 66726571 		.ascii	"frequence\000"
 8200      75656E63 
 8200      6500
 8201              	.LASF85:
 8202 1327 63707573 		.ascii	"cpuss_interrupts_dw1_8_IRQn\000"
 8202      735F696E 
 8202      74657272 
 8202      75707473 
 8202      5F647731 
 8203              	.LASF353:
 8204 1343 72784275 		.ascii	"rxBufIdx\000"
 8204      66496478 
 8204      00
 8205              	.LASF286:
 8206 134c 70657269 		.ascii	"periDiv16_5CtlOffset\000"
 8206      44697631 
 8206      365F3543 
 8206      746C4F66 
 8206      66736574 
 8207              	.LASF471:
 8208 1361 49544D5F 		.ascii	"ITM_RxBuffer\000"
 8208      52784275 
 8208      66666572 
 8208      00
 8209              	.LASF482:
 8210 136e 4755495F 		.ascii	"GUI_Font32B_1\000"
 8210      466F6E74 
 8210      3332425F 
ARM GAS  C:\Users\nicpa\AppData\Local\Temp\ccPr5feD.s 			page 230


 8210      3100
 8211              	.LASF509:
 8212 137c 4755495F 		.ascii	"GUI_SetColor\000"
 8212      53657443 
 8212      6F6C6F72 
 8212      00
 8213              	.LASF121:
 8214 1389 74637077 		.ascii	"tcpwm_1_interrupts_12_IRQn\000"
 8214      6D5F315F 
 8214      696E7465 
 8214      72727570 
 8214      74735F31 
 8215              	.LASF466:
 8216 13a4 7461626C 		.ascii	"tableauX\000"
 8216      65617558 
 8216      00
 8217              	.LASF0:
 8218 13ad 666C6F61 		.ascii	"float\000"
 8218      7400
 8219              	.LASF242:
 8220 13b3 63707573 		.ascii	"cpussIpcNr\000"
 8220      73497063 
 8220      4E7200
 8221              	.LASF63:
 8222 13be 63707573 		.ascii	"cpuss_interrupts_dw0_2_IRQn\000"
 8222      735F696E 
 8222      74657272 
 8222      75707473 
 8222      5F647730 
 8223              	.LASF502:
 8224 13da 41435F52 		.ascii	"AC_R\000"
 8224      00
 8225              	.LASF138:
 8226 13df 7564625F 		.ascii	"udb_interrupts_5_IRQn\000"
 8226      696E7465 
 8226      72727570 
 8226      74735F35 
 8226      5F495251 
 8227              	.LASF174:
 8228 13f5 756E7369 		.ascii	"unsigned int\000"
 8228      676E6564 
 8228      20696E74 
 8228      00
 8229              	.LASF46:
 8230 1402 63707573 		.ascii	"cpuss_interrupts_ipc_10_IRQn\000"
 8230      735F696E 
 8230      74657272 
 8230      75707473 
 8230      5F697063 
 8231              	.LASF523:
 8232 141f 474E5520 		.ascii	"GNU C11 5.4.1 20160609 (release) [ARM/embedded-5-br"
 8232      43313120 
 8232      352E342E 
 8232      31203230 
 8232      31363036 
 8233 1452 616E6368 		.ascii	"anch revision 237715] -mcpu=cortex-m4 -mfloat-abi=s"
 8233      20726576 
ARM GAS  C:\Users\nicpa\AppData\Local\Temp\ccPr5feD.s 			page 231


 8233      6973696F 
 8233      6E203233 
 8233      37373135 
 8234 1485 6F667466 		.ascii	"oftfp -mfpu=fpv4-sp-d16 -mthumb -g -Og -ffunction-s"
 8234      70202D6D 
 8234      6670753D 
 8234      66707634 
 8234      2D73702D 
 8235 14b8 65637469 		.ascii	"ections -ffat-lto-objects\000"
 8235      6F6E7320 
 8235      2D666661 
 8235      742D6C74 
 8235      6F2D6F62 
 8236              	.LASF406:
 8237 14d2 46697273 		.ascii	"First\000"
 8237      7400
 8238              	.LASF78:
 8239 14d8 63707573 		.ascii	"cpuss_interrupts_dw1_1_IRQn\000"
 8239      735F696E 
 8239      74657272 
 8239      75707473 
 8239      5F647731 
 8240              	.LASF377:
 8241 14f4 656E6162 		.ascii	"enableCompareSwap\000"
 8241      6C65436F 
 8241      6D706172 
 8241      65537761 
 8241      7000
 8242              	.LASF419:
 8243 1506 74475549 		.ascii	"tGUI_GetLineDistX\000"
 8243      5F476574 
 8243      4C696E65 
 8243      44697374 
 8243      5800
 8244              	.LASF288:
 8245 1518 6770696F 		.ascii	"gpioPrtIntrCfgOffset\000"
 8245      50727449 
 8245      6E747243 
 8245      66674F66 
 8245      66736574 
 8246              	.LASF305:
 8247 152d 63707573 		.ascii	"cpussRam1Ctl0\000"
 8247      7352616D 
 8247      3143746C 
 8247      3000
 8248              	.LASF388:
 8249 153b 636F756E 		.ascii	"countInput\000"
 8249      74496E70 
 8249      757400
 8250              	.LASF131:
 8251 1546 74637077 		.ascii	"tcpwm_1_interrupts_22_IRQn\000"
 8251      6D5F315F 
 8251      696E7465 
 8251      72727570 
 8251      74735F32 
 8252              	.LASF507:
 8253 1561 4755495F 		.ascii	"GUI_Clear\000"
ARM GAS  C:\Users\nicpa\AppData\Local\Temp\ccPr5feD.s 			page 232


 8253      436C6561 
 8253      7200
 8254              	.LASF413:
 8255 156b 4755495F 		.ascii	"GUI_FONT_MONO\000"
 8255      464F4E54 
 8255      5F4D4F4E 
 8255      4F00
 8256              	.LASF394:
 8257 1579 704C6973 		.ascii	"pList\000"
 8257      7400
 8258              	.LASF478:
 8259 157f 55415254 		.ascii	"UART_context\000"
 8259      5F636F6E 
 8259      74657874 
 8259      00
 8260              	.LASF149:
 8261 158c 70617373 		.ascii	"pass_interrupt_sar_IRQn\000"
 8261      5F696E74 
 8261      65727275 
 8261      70745F73 
 8261      61725F49 
 8262              	.LASF421:
 8263 15a4 74474C5F 		.ascii	"tGL_DispLine\000"
 8263      44697370 
 8263      4C696E65 
 8263      00
 8264              	.LASF26:
 8265 15b1 696F7373 		.ascii	"ioss_interrupt_gpio_IRQn\000"
 8265      5F696E74 
 8265      65727275 
 8265      70745F67 
 8265      70696F5F 
 8266              	.LASF373:
 8267 15ca 636F756E 		.ascii	"countDirection\000"
 8267      74446972 
 8267      65637469 
 8267      6F6E00
 8268              	.LASF342:
 8269 15d9 736C6176 		.ascii	"slaveRxBufferSize\000"
 8269      65527842 
 8269      75666665 
 8269      7253697A 
 8269      6500
 8270              	.LASF148:
 8271 15eb 7564625F 		.ascii	"udb_interrupts_15_IRQn\000"
 8271      696E7465 
 8271      72727570 
 8271      74735F31 
 8271      355F4952 
 8272              	.LASF323:
 8273 1602 63795F63 		.ascii	"cy_cb_scb_i2c_handle_events_t\000"
 8273      625F7363 
 8273      625F6932 
 8273      635F6861 
 8273      6E646C65 
 8274              	.LASF197:
 8275 1620 4F55545F 		.ascii	"OUT_INV\000"
ARM GAS  C:\Users\nicpa\AppData\Local\Temp\ccPr5feD.s 			page 233


 8275      494E5600 
 8276              	.LASF117:
 8277 1628 74637077 		.ascii	"tcpwm_1_interrupts_8_IRQn\000"
 8277      6D5F315F 
 8277      696E7465 
 8277      72727570 
 8277      74735F38 
 8278              	.LASF275:
 8279 1642 64775374 		.ascii	"dwStatusChIdxMsk\000"
 8279      61747573 
 8279      43684964 
 8279      784D736B 
 8279      00
 8280              	.LASF364:
 8281 1653 72785269 		.ascii	"rxRingBufSize\000"
 8281      6E674275 
 8281      6653697A 
 8281      6500
 8282              	.LASF264:
 8283 1661 666C6173 		.ascii	"flashEraseDelay\000"
 8283      68457261 
 8283      73654465 
 8283      6C617900 
 8284              	.LASF56:
 8285 1671 7363625F 		.ascii	"scb_4_interrupt_IRQn\000"
 8285      345F696E 
 8285      74657272 
 8285      7570745F 
 8285      4952516E 
 8286              	.LASF215:
 8287 1686 5644445F 		.ascii	"VDD_INTR\000"
 8287      494E5452 
 8287      00
 8288              	.LASF25:
 8289 168f 696F7373 		.ascii	"ioss_interrupts_gpio_14_IRQn\000"
 8289      5F696E74 
 8289      65727275 
 8289      7074735F 
 8289      6770696F 
 8290              	.LASF74:
 8291 16ac 63707573 		.ascii	"cpuss_interrupts_dw0_13_IRQn\000"
 8291      735F696E 
 8291      74657272 
 8291      75707473 
 8291      5F647730 
 8292              	.LASF222:
 8293 16c9 6C6F6E67 		.ascii	"long double\000"
 8293      20646F75 
 8293      626C6500 
 8294              	.LASF31:
 8295 16d5 73727373 		.ascii	"srss_interrupt_mcwdt_1_IRQn\000"
 8295      5F696E74 
 8295      65727275 
 8295      70745F6D 
 8295      63776474 
 8296              	.LASF201:
 8297 16f1 494E5452 		.ascii	"INTR_SET\000"
ARM GAS  C:\Users\nicpa\AppData\Local\Temp\ccPr5feD.s 			page 234


 8297      5F534554 
 8297      00
 8298              	.LASF359:
 8299 16fa 63795F63 		.ascii	"cy_cb_scb_uart_handle_events_t\000"
 8299      625F7363 
 8299      625F7561 
 8299      72745F68 
 8299      616E646C 
 8300              	.LASF67:
 8301 1719 63707573 		.ascii	"cpuss_interrupts_dw0_6_IRQn\000"
 8301      735F696E 
 8301      74657272 
 8301      75707473 
 8301      5F647730 
 8302              	.LASF110:
 8303 1735 74637077 		.ascii	"tcpwm_1_interrupts_1_IRQn\000"
 8303      6D5F315F 
 8303      696E7465 
 8303      72727570 
 8303      74735F31 
 8304              	.LASF41:
 8305 174f 63707573 		.ascii	"cpuss_interrupts_ipc_5_IRQn\000"
 8305      735F696E 
 8305      74657272 
 8305      75707473 
 8305      5F697063 
 8306              	.LASF17:
 8307 176b 696F7373 		.ascii	"ioss_interrupts_gpio_6_IRQn\000"
 8307      5F696E74 
 8307      65727275 
 8307      7074735F 
 8307      6770696F 
 8308              	.LASF151:
 8309 1787 61756469 		.ascii	"audioss_interrupt_pdm_IRQn\000"
 8309      6F73735F 
 8309      696E7465 
 8309      72727570 
 8309      745F7064 
 8310              	.LASF221:
 8311 17a2 4750494F 		.ascii	"GPIO_Type\000"
 8311      5F547970 
 8311      6500
 8312              	.LASF418:
 8313 17ac 4755495F 		.ascii	"GUI_FONTINFO\000"
 8313      464F4E54 
 8313      494E464F 
 8313      00
 8314              	.LASF302:
 8315 17b9 63707573 		.ascii	"cpussCm4NmiCtlOffset\000"
 8315      73436D34 
 8315      4E6D6943 
 8315      746C4F66 
 8315      66736574 
 8316              	.LASF301:
 8317 17ce 63707573 		.ascii	"cpussCm0NmiCtlOffset\000"
 8317      73436D30 
 8317      4E6D6943 
ARM GAS  C:\Users\nicpa\AppData\Local\Temp\ccPr5feD.s 			page 235


 8317      746C4F66 
 8317      66736574 
 8318              	.LASF194:
 8319 17e3 4E564943 		.ascii	"NVIC_Type\000"
 8319      5F547970 
 8319      6500
 8320              	.LASF267:
 8321 17ed 666C6173 		.ascii	"flashCtlMainWs2Freq\000"
 8321      6843746C 
 8321      4D61696E 
 8321      57733246 
 8321      72657100 
 8322              	.LASF161:
 8323 1801 5F5F696E 		.ascii	"__int8_t\000"
 8323      74385F74 
 8323      00
 8324              	.LASF116:
 8325 180a 74637077 		.ascii	"tcpwm_1_interrupts_7_IRQn\000"
 8325      6D5F315F 
 8325      696E7465 
 8325      72727570 
 8325      74735F37 
 8326              	.LASF326:
 8327 1824 75736554 		.ascii	"useTxFifo\000"
 8327      78466966 
 8327      6F00
 8328              	.LASF310:
 8329 182e 63686172 		.ascii	"char_t\000"
 8329      5F7400
 8330              	.LASF522:
 8331 1835 76546173 		.ascii	"vTaskDelay\000"
 8331      6B44656C 
 8331      617900
 8332              	.LASF173:
 8333 1840 6C6F6E67 		.ascii	"long long unsigned int\000"
 8333      206C6F6E 
 8333      6720756E 
 8333      7369676E 
 8333      65642069 
 8334              	.LASF500:
 8335 1857 7369676E 		.ascii	"signal_AC_R\000"
 8335      616C5F41 
 8335      435F5200 
 8336              	.LASF202:
 8337 1863 494E5452 		.ascii	"INTR_CFG\000"
 8337      5F434647 
 8337      00
 8338              	.LASF87:
 8339 186c 63707573 		.ascii	"cpuss_interrupts_dw1_10_IRQn\000"
 8339      735F696E 
 8339      74657272 
 8339      75707473 
 8339      5F647731 
 8340              	.LASF178:
 8341 1889 75696E74 		.ascii	"uint16_t\000"
 8341      31365F74 
 8341      00
ARM GAS  C:\Users\nicpa\AppData\Local\Temp\ccPr5feD.s 			page 236


 8342              	.LASF154:
 8343 1892 7573625F 		.ascii	"usb_interrupt_hi_IRQn\000"
 8343      696E7465 
 8343      72727570 
 8343      745F6869 
 8343      5F495251 
 8344              	.LASF481:
 8345 18a8 4755495F 		.ascii	"GUI_Font24B_1\000"
 8345      466F6E74 
 8345      3234425F 
 8345      3100
 8346              	.LASF209:
 8347 18b6 4750494F 		.ascii	"GPIO_PRT_V1_Type\000"
 8347      5F505254 
 8347      5F56315F 
 8347      54797065 
 8347      00
 8348              	.LASF73:
 8349 18c7 63707573 		.ascii	"cpuss_interrupts_dw0_12_IRQn\000"
 8349      735F696E 
 8349      74657272 
 8349      75707473 
 8349      5F647730 
 8350              	.LASF1:
 8351 18e4 52657365 		.ascii	"Reset_IRQn\000"
 8351      745F4952 
 8351      516E00
 8352              	.LASF452:
 8353 18ef 76616C75 		.ascii	"value\000"
 8353      6500
 8354              	.LASF124:
 8355 18f5 74637077 		.ascii	"tcpwm_1_interrupts_15_IRQn\000"
 8355      6D5F315F 
 8355      696E7465 
 8355      72727570 
 8355      74735F31 
 8356              	.LASF82:
 8357 1910 63707573 		.ascii	"cpuss_interrupts_dw1_5_IRQn\000"
 8357      735F696E 
 8357      74657272 
 8357      75707473 
 8357      5F647731 
 8358              	.LASF465:
 8359 192c 73706F32 		.ascii	"spo2\000"
 8359      00
 8360              	.LASF491:
 8361 1931 6D61786F 		.ascii	"maxormin\000"
 8361      726D696E 
 8361      00
 8362              	.LASF315:
 8363 193a 666C6F61 		.ascii	"float32\000"
 8363      74333200 
 8364              	.LASF436:
 8365 1942 4755495F 		.ascii	"GUI_DISPCHAR\000"
 8365      44495350 
 8365      43484152 
 8365      00
ARM GAS  C:\Users\nicpa\AppData\Local\Temp\ccPr5feD.s 			page 237


 8366              	.LASF53:
 8367 194f 7363625F 		.ascii	"scb_1_interrupt_IRQn\000"
 8367      315F696E 
 8367      74657272 
 8367      7570745F 
 8367      4952516E 
 8368              	.LASF66:
 8369 1964 63707573 		.ascii	"cpuss_interrupts_dw0_5_IRQn\000"
 8369      735F696E 
 8369      74657272 
 8369      75707473 
 8369      5F647730 
 8370              	.LASF354:
 8371 1980 74784275 		.ascii	"txBuf\000"
 8371      6600
 8372              	.LASF461:
 8373 1986 66726571 		.ascii	"frequence_min\000"
 8373      75656E63 
 8373      655F6D69 
 8373      6E00
 8374              	.LASF109:
 8375 1994 74637077 		.ascii	"tcpwm_1_interrupts_0_IRQn\000"
 8375      6D5F315F 
 8375      696E7465 
 8375      72727570 
 8375      74735F30 
 8376              	.LASF519:
 8377 19ae 43795F45 		.ascii	"Cy_EINK_Start\000"
 8377      494E4B5F 
 8377      53746172 
 8377      7400
 8378              	.LASF390:
 8379 19bc 5469636B 		.ascii	"TickType_t\000"
 8379      54797065 
 8379      5F7400
 8380              	.LASF49:
 8381 19c7 63707573 		.ascii	"cpuss_interrupts_ipc_13_IRQn\000"
 8381      735F696E 
 8381      74657272 
 8381      75707473 
 8381      5F697063 
 8382              	.LASF147:
 8383 19e4 7564625F 		.ascii	"udb_interrupts_14_IRQn\000"
 8383      696E7465 
 8383      72727570 
 8383      74735F31 
 8383      345F4952 
 8384              	.LASF179:
 8385 19fb 696E7433 		.ascii	"int32_t\000"
 8385      325F7400 
 8386              	.LASF218:
 8387 1a03 5644445F 		.ascii	"VDD_INTR_SET\000"
 8387      494E5452 
 8387      5F534554 
 8387      00
 8388              	.LASF244:
 8389 1a10 63707573 		.ascii	"cpussDwChNr\000"
ARM GAS  C:\Users\nicpa\AppData\Local\Temp\ccPr5feD.s 			page 238


 8389      73447743 
 8389      684E7200 
 8390              	.LASF412:
 8391 1a1c 70547261 		.ascii	"pTrans\000"
 8391      6E7300
 8392              	.LASF183:
 8393 1a23 49434552 		.ascii	"ICER\000"
 8393      00
 8394              	.LASF304:
 8395 1a28 63707573 		.ascii	"cpussRam0Ctl0\000"
 8395      7352616D 
 8395      3043746C 
 8395      3000
 8396              	.LASF370:
 8397 1a36 70657269 		.ascii	"period\000"
 8397      6F6400
 8398              	.LASF81:
 8399 1a3d 63707573 		.ascii	"cpuss_interrupts_dw1_4_IRQn\000"
 8399      735F696E 
 8399      74657272 
 8399      75707473 
 8399      5F647731 
 8400              	.LASF93:
 8401 1a59 63707573 		.ascii	"cpuss_interrupts_fault_0_IRQn\000"
 8401      735F696E 
 8401      74657272 
 8401      75707473 
 8401      5F666175 
 8402              	.LASF459:
 8403 1a77 76616C65 		.ascii	"valeur_LED\000"
 8403      75725F4C 
 8403      454400
 8404              	.LASF405:
 8405 1a82 4755495F 		.ascii	"GUI_FONT_PROP\000"
 8405      464F4E54 
 8405      5F50524F 
 8405      5000
 8406              	.LASF165:
 8407 1a90 5F5F696E 		.ascii	"__int16_t\000"
 8407      7431365F 
 8407      7400
 8408              	.LASF104:
 8409 1a9a 74637077 		.ascii	"tcpwm_0_interrupts_3_IRQn\000"
 8409      6D5F305F 
 8409      696E7465 
 8409      72727570 
 8409      74735F33 
 8410              	.LASF424:
 8411 1ab4 70664469 		.ascii	"pfDispLine\000"
 8411      73704C69 
 8411      6E6500
 8412              	.LASF95:
 8413 1abf 63707573 		.ascii	"cpuss_interrupt_crypto_IRQn\000"
 8413      735F696E 
 8413      74657272 
 8413      7570745F 
 8413      63727970 
ARM GAS  C:\Users\nicpa\AppData\Local\Temp\ccPr5feD.s 			page 239


 8414              	.LASF440:
 8415 1adb 4755495F 		.ascii	"GUI_GETCHARINFO\000"
 8415      47455443 
 8415      48415249 
 8415      4E464F00 
 8416              	.LASF199:
 8417 1aeb 494E5452 		.ascii	"INTR_MASK\000"
 8417      5F4D4153 
 8417      4B00
 8418              	.LASF280:
 8419 1af5 70657269 		.ascii	"periDivCmdDivSelMsk\000"
 8419      44697643 
 8419      6D644469 
 8419      7653656C 
 8419      4D736B00 
 8420              	.LASF52:
 8421 1b09 7363625F 		.ascii	"scb_0_interrupt_IRQn\000"
 8421      305F696E 
 8421      74657272 
 8421      7570745F 
 8421      4952516E 
 8422              	.LASF235:
 8423 1b1e 64775665 		.ascii	"dwVersion\000"
 8423      7273696F 
 8423      6E00
 8424              	.LASF205:
 8425 1b28 4346475F 		.ascii	"CFG_SIO\000"
 8425      53494F00 
 8426              	.LASF435:
 8427 1b30 594D6167 		.ascii	"YMag\000"
 8427      00
 8428              	.LASF150:
 8429 1b35 61756469 		.ascii	"audioss_interrupt_i2s_IRQn\000"
 8429      6F73735F 
 8429      696E7465 
 8429      72727570 
 8429      745F6932 
 8430              	.LASF229:
 8431 1b50 6770696F 		.ascii	"gpioBase\000"
 8431      42617365 
 8431      00
 8432              	.LASF101:
 8433 1b59 74637077 		.ascii	"tcpwm_0_interrupts_0_IRQn\000"
 8433      6D5F305F 
 8433      696E7465 
 8433      72727570 
 8433      74735F30 
 8434              	.LASF134:
 8435 1b73 7564625F 		.ascii	"udb_interrupts_1_IRQn\000"
 8435      696E7465 
 8435      72727570 
 8435      74735F31 
 8435      5F495251 
 8436              	.LASF317:
 8437 1b89 696E7472 		.ascii	"intrPriority\000"
 8437      5072696F 
 8437      72697479 
ARM GAS  C:\Users\nicpa\AppData\Local\Temp\ccPr5feD.s 			page 240


 8437      00
 8438              	.LASF257:
 8439 1b96 73797350 		.ascii	"sysPmSimoPresent\000"
 8439      6D53696D 
 8439      6F507265 
 8439      73656E74 
 8439      00
 8440              	.LASF168:
 8441 1ba7 5F5F696E 		.ascii	"__int32_t\000"
 8441      7433325F 
 8441      7400
 8442              	.LASF423:
 8443 1bb1 70664765 		.ascii	"pfGetLineLen\000"
 8443      744C696E 
 8443      654C656E 
 8443      00
 8444              	.LASF243:
 8445 1bbe 63707573 		.ascii	"cpussIpcIrqNr\000"
 8445      73497063 
 8445      4972714E 
 8445      7200
 8446              	.LASF472:
 8447 1bcc 63795F64 		.ascii	"cy_device\000"
 8447      65766963 
 8447      6500
 8448              	.LASF220:
 8449 1bd6 4750494F 		.ascii	"GPIO_PRT_Type\000"
 8449      5F505254 
 8449      5F547970 
 8449      6500
 8450              	.LASF8:
 8451 1be4 44656275 		.ascii	"DebugMonitor_IRQn\000"
 8451      674D6F6E 
 8451      69746F72 
 8451      5F495251 
 8451      6E00
 8452              	.LASF383:
 8453 1bf6 73746172 		.ascii	"startInputMode\000"
 8453      74496E70 
 8453      75744D6F 
 8453      646500
 8454              	.LASF362:
 8455 1c05 72785374 		.ascii	"rxStatus\000"
 8455      61747573 
 8455      00
 8456              	.LASF417:
 8457 1c0e 43486569 		.ascii	"CHeight\000"
 8457      67687400 
 8458              	.LASF331:
 8459 1c16 6D617374 		.ascii	"masterBuffer\000"
 8459      65724275 
 8459      66666572 
 8459      00
 8460              	.LASF345:
 8461 1c23 63624164 		.ascii	"cbAddr\000"
 8461      647200
 8462              	.LASF48:
ARM GAS  C:\Users\nicpa\AppData\Local\Temp\ccPr5feD.s 			page 241


 8463 1c2a 63707573 		.ascii	"cpuss_interrupts_ipc_12_IRQn\000"
 8463      735F696E 
 8463      74657272 
 8463      75707473 
 8463      5F697063 
 8464              	.LASF58:
 8465 1c47 7363625F 		.ascii	"scb_6_interrupt_IRQn\000"
 8465      365F696E 
 8465      74657272 
 8465      7570745F 
 8465      4952516E 
 8466              	.LASF314:
 8467 1c5c 75696E74 		.ascii	"uint8\000"
 8467      3800
 8468              	.LASF241:
 8469 1c62 70726F74 		.ascii	"protVersion\000"
 8469      56657273 
 8469      696F6E00 
 8470              	.LASF489:
 8471 1c6e 63757272 		.ascii	"currenttouch\000"
 8471      656E7474 
 8471      6F756368 
 8471      00
 8472              	.LASF520:
 8473 1c7b 43795F45 		.ascii	"Cy_EINK_Power\000"
 8473      494E4B5F 
 8473      506F7765 
 8473      7200
 8474              	.LASF450:
 8475 1c89 62617365 		.ascii	"base\000"
 8475      00
 8476              	.LASF240:
 8477 1c8e 70657269 		.ascii	"periVersion\000"
 8477      56657273 
 8477      696F6E00 
 8478              	.LASF358:
 8479 1c9a 63795F73 		.ascii	"cy_stc_scb_spi_context_t\000"
 8479      74635F73 
 8479      63625F73 
 8479      70695F63 
 8479      6F6E7465 
 8480              	.LASF159:
 8481 1cb3 73686F72 		.ascii	"short int\000"
 8481      7420696E 
 8481      7400
 8482              	.LASF425:
 8483 1cbd 74475549 		.ascii	"tGUI_ENC_APIList\000"
 8483      5F454E43 
 8483      5F415049 
 8483      4C697374 
 8483      00
 8484              	.LASF97:
 8485 1cce 63707573 		.ascii	"cpuss_interrupts_cm0_cti_0_IRQn\000"
 8485      735F696E 
 8485      74657272 
 8485      75707473 
 8485      5F636D30 
ARM GAS  C:\Users\nicpa\AppData\Local\Temp\ccPr5feD.s 			page 242


 8486              	.LASF28:
 8487 1cee 6C70636F 		.ascii	"lpcomp_interrupt_IRQn\000"
 8487      6D705F69 
 8487      6E746572 
 8487      72757074 
 8487      5F495251 
 8488              	.LASF34:
 8489 1d04 70617373 		.ascii	"pass_interrupt_ctbs_IRQn\000"
 8489      5F696E74 
 8489      65727275 
 8489      70745F63 
 8489      7462735F 
 8490              	.LASF426:
 8491 1d1d 4755495F 		.ascii	"GUI_FONT\000"
 8491      464F4E54 
 8491      00
 8492              	.LASF407:
 8493 1d26 4C617374 		.ascii	"Last\000"
 8493      00
 8494              	.LASF177:
 8495 1d2b 696E7431 		.ascii	"int16_t\000"
 8495      365F7400 
 8496              	.LASF29:
 8497 1d33 7363625F 		.ascii	"scb_8_interrupt_IRQn\000"
 8497      385F696E 
 8497      74657272 
 8497      7570745F 
 8497      4952516E 
 8498              	.LASF484:
 8499 1d48 50414745 		.ascii	"PAGE_SIGNAL_IR\000"
 8499      5F534947 
 8499      4E414C5F 
 8499      495200
 8500              	.LASF266:
 8501 1d57 666C6173 		.ascii	"flashCtlMainWs1Freq\000"
 8501      6843746C 
 8501      4D61696E 
 8501      57733146 
 8501      72657100 
 8502              	.LASF20:
 8503 1d6b 696F7373 		.ascii	"ioss_interrupts_gpio_9_IRQn\000"
 8503      5F696E74 
 8503      65727275 
 8503      7074735F 
 8503      6770696F 
 8504              	.LASF403:
 8505 1d87 59506F73 		.ascii	"YPos\000"
 8505      00
 8506              	.LASF100:
 8507 1d8c 63707573 		.ascii	"cpuss_interrupts_cm4_cti_1_IRQn\000"
 8507      735F696E 
 8507      74657272 
 8507      75707473 
 8507      5F636D34 
 8508              	.LASF496:
 8509 1dac 72656164 		.ascii	"read_flag_MAX\000"
 8509      5F666C61 
ARM GAS  C:\Users\nicpa\AppData\Local\Temp\ccPr5feD.s 			page 243


 8509      675F4D41 
 8509      5800
 8510              	.LASF141:
 8511 1dba 7564625F 		.ascii	"udb_interrupts_8_IRQn\000"
 8511      696E7465 
 8511      72727570 
 8511      74735F38 
 8511      5F495251 
 8512              	.LASF333:
 8513 1dd0 6D617374 		.ascii	"masterBufferIdx\000"
 8513      65724275 
 8513      66666572 
 8513      49647800 
 8514              	.LASF444:
 8515 1de0 7050726F 		.ascii	"pPropExt\000"
 8515      70457874 
 8515      00
 8516              	.LASF21:
 8517 1de9 696F7373 		.ascii	"ioss_interrupts_gpio_10_IRQn\000"
 8517      5F696E74 
 8517      65727275 
 8517      7074735F 
 8517      6770696F 
 8518              	.LASF328:
 8519 1e06 6D617374 		.ascii	"masterStatus\000"
 8519      65725374 
 8519      61747573 
 8519      00
 8520              	.LASF263:
 8521 1e13 666C6173 		.ascii	"flashProgramDelay\000"
 8521      6850726F 
 8521      6772616D 
 8521      44656C61 
 8521      7900
 8522              	.LASF451:
 8523 1e25 70696E4E 		.ascii	"pinNum\000"
 8523      756D00
 8524              	.LASF214:
 8525 1e2c 5644445F 		.ascii	"VDD_ACTIVE\000"
 8525      41435449 
 8525      564500
 8526              	.LASF389:
 8527 1e37 63795F73 		.ascii	"cy_stc_tcpwm_counter_config_t\000"
 8527      74635F74 
 8527      6370776D 
 8527      5F636F75 
 8527      6E746572 
 8528              	.LASF347:
 8529 1e55 63795F63 		.ascii	"cy_cb_scb_spi_handle_events_t\000"
 8529      625F7363 
 8529      625F7370 
 8529      695F6861 
 8529      6E646C65 
 8530              	.LASF237:
 8531 1e73 6770696F 		.ascii	"gpioVersion\000"
 8531      56657273 
 8531      696F6E00 
ARM GAS  C:\Users\nicpa\AppData\Local\Temp\ccPr5feD.s 			page 244


 8532              	.LASF292:
 8533 1e7f 6770696F 		.ascii	"gpioPrtCfgSioOffset\000"
 8533      50727443 
 8533      66675369 
 8533      6F4F6666 
 8533      73657400 
 8534              	.LASF441:
 8535 1e93 70466F6E 		.ascii	"pFontData\000"
 8535      74446174 
 8535      6100
 8536              	.LASF76:
 8537 1e9d 63707573 		.ascii	"cpuss_interrupts_dw0_15_IRQn\000"
 8537      735F696E 
 8537      74657272 
 8537      75707473 
 8537      5F647730 
 8538              	.LASF37:
 8539 1eba 63707573 		.ascii	"cpuss_interrupts_ipc_1_IRQn\000"
 8539      735F696E 
 8539      74657272 
 8539      75707473 
 8539      5F697063 
 8540              	.LASF105:
 8541 1ed6 74637077 		.ascii	"tcpwm_0_interrupts_4_IRQn\000"
 8541      6D5F305F 
 8541      696E7465 
 8541      72727570 
 8541      74735F34 
 8542              	.LASF13:
 8543 1ef0 696F7373 		.ascii	"ioss_interrupts_gpio_2_IRQn\000"
 8543      5F696E74 
 8543      65727275 
 8543      7074735F 
 8543      6770696F 
 8544              	.LASF428:
 8545 1f0c 70664765 		.ascii	"pfGetCharDistX\000"
 8545      74436861 
 8545      72446973 
 8545      745800
 8546              	.LASF415:
 8547 1f1b 42617365 		.ascii	"Baseline\000"
 8547      6C696E65 
 8547      00
 8548              	.LASF127:
 8549 1f24 74637077 		.ascii	"tcpwm_1_interrupts_18_IRQn\000"
 8549      6D5F315F 
 8549      696E7465 
 8549      72727570 
 8549      74735F31 
 8550              	.LASF513:
 8551 1f3f 4755495F 		.ascii	"GUI_SetFont\000"
 8551      53657446 
 8551      6F6E7400 
 8552              	.LASF55:
 8553 1f4b 7363625F 		.ascii	"scb_3_interrupt_IRQn\000"
 8553      335F696E 
 8553      74657272 
ARM GAS  C:\Users\nicpa\AppData\Local\Temp\ccPr5feD.s 			page 245


 8553      7570745F 
 8553      4952516E 
 8554              	.LASF469:
 8555 1f60 70765061 		.ascii	"pvParameters\000"
 8555      72616D65 
 8555      74657273 
 8555      00
 8556              	.LASF69:
 8557 1f6d 63707573 		.ascii	"cpuss_interrupts_dw0_8_IRQn\000"
 8557      735F696E 
 8557      74657272 
 8557      75707473 
 8557      5F647730 
 8558              	.LASF143:
 8559 1f89 7564625F 		.ascii	"udb_interrupts_10_IRQn\000"
 8559      696E7465 
 8559      72727570 
 8559      74735F31 
 8559      305F4952 
 8560              	.LASF27:
 8561 1fa0 696F7373 		.ascii	"ioss_interrupt_vdd_IRQn\000"
 8561      5F696E74 
 8561      65727275 
 8561      70745F76 
 8561      64645F49 
 8562              	.LASF112:
 8563 1fb8 74637077 		.ascii	"tcpwm_1_interrupts_3_IRQn\000"
 8563      6D5F315F 
 8563      696E7465 
 8563      72727570 
 8563      74735F33 
 8564              	.LASF374:
 8565 1fd2 636F6D70 		.ascii	"compareOrCapture\000"
 8565      6172654F 
 8565      72436170 
 8565      74757265 
 8565      00
 8566              	.LASF337:
 8567 1fe3 736C6176 		.ascii	"slaveTxBuffer\000"
 8567      65547842 
 8567      75666665 
 8567      7200
 8568              	.LASF172:
 8569 1ff1 6C6F6E67 		.ascii	"long long int\000"
 8569      206C6F6E 
 8569      6720696E 
 8569      7400
 8570              	.LASF180:
 8571 1fff 75696E74 		.ascii	"uint32_t\000"
 8571      33325F74 
 8571      00
 8572              	.LASF198:
 8573 2008 494E5452 		.ascii	"INTR\000"
 8573      00
 8574              	.LASF473:
 8575 200d 5050475F 		.ascii	"PPG_RDY_isr_cfg\000"
 8575      5244595F 
ARM GAS  C:\Users\nicpa\AppData\Local\Temp\ccPr5feD.s 			page 246


 8575      6973725F 
 8575      63666700 
 8576              	.LASF329:
 8577 201d 6D617374 		.ascii	"masterPause\000"
 8577      65725061 
 8577      75736500 
 8578              	.LASF84:
 8579 2029 63707573 		.ascii	"cpuss_interrupts_dw1_7_IRQn\000"
 8579      735F696E 
 8579      74657272 
 8579      75707473 
 8579      5F647731 
 8580              	.LASF503:
 8581 2045 41435F49 		.ascii	"AC_IF\000"
 8581      4600
 8582              	.LASF330:
 8583 204b 6D617374 		.ascii	"masterRdDir\000"
 8583      65725264 
 8583      44697200 
 8584              	.LASF480:
 8585 2057 4755495F 		.ascii	"GUI_Font16B_1\000"
 8585      466F6E74 
 8585      3136425F 
 8585      3100
 8586              	.LASF401:
 8587 2065 5953697A 		.ascii	"YSize\000"
 8587      6500
 8588              	.LASF321:
 8589 206b 43595F53 		.ascii	"CY_SCB_I2C_NAK\000"
 8589      43425F49 
 8589      32435F4E 
 8589      414B00
 8590              	.LASF272:
 8591 207a 64774368 		.ascii	"dwChCtlPrioPos\000"
 8591      43746C50 
 8591      72696F50 
 8591      6F7300
 8592              	.LASF231:
 8593 2089 69706342 		.ascii	"ipcBase\000"
 8593      61736500 
 8594              	.LASF89:
 8595 2091 63707573 		.ascii	"cpuss_interrupts_dw1_12_IRQn\000"
 8595      735F696E 
 8595      74657272 
 8595      75707473 
 8595      5F647731 
 8596              	.LASF508:
 8597 20ae 4755495F 		.ascii	"GUI_SetPenSize\000"
 8597      53657450 
 8597      656E5369 
 8597      7A6500
 8598              	.LASF386:
 8599 20bd 73746F70 		.ascii	"stopInput\000"
 8599      496E7075 
 8599      7400
 8600              	.LASF167:
 8601 20c7 73686F72 		.ascii	"short unsigned int\000"
ARM GAS  C:\Users\nicpa\AppData\Local\Temp\ccPr5feD.s 			page 247


 8601      7420756E 
 8601      7369676E 
 8601      65642069 
 8601      6E7400
 8602              	.LASF411:
 8603 20da 70547261 		.ascii	"pTransData\000"
 8603      6E734461 
 8603      746100
 8604              	.LASF62:
 8605 20e5 63707573 		.ascii	"cpuss_interrupts_dw0_1_IRQn\000"
 8605      735F696E 
 8605      74657272 
 8605      75707473 
 8605      5F647730 
 8606              	.LASF477:
 8607 2101 4932436D 		.ascii	"I2Cm_context\000"
 8607      5F636F6E 
 8607      74657874 
 8607      00
 8608              	.LASF343:
 8609 210e 736C6176 		.ascii	"slaveRxBufferIdx\000"
 8609      65527842 
 8609      75666665 
 8609      72496478 
 8609      00
 8610              	.LASF475:
 8611 211f 43595F45 		.ascii	"CY_EINK_Timer_config\000"
 8611      494E4B5F 
 8611      54696D65 
 8611      725F636F 
 8611      6E666967 
 8612              	.LASF262:
 8613 2134 666C6173 		.ascii	"flashWriteDelay\000"
 8613      68577269 
 8613      74654465 
 8613      6C617900 
 8614              	.LASF36:
 8615 2144 63707573 		.ascii	"cpuss_interrupts_ipc_0_IRQn\000"
 8615      735F696E 
 8615      74657272 
 8615      75707473 
 8615      5F697063 
 8616              	.LASF283:
 8617 2160 70657269 		.ascii	"periDivCmdPaTypeSelPos\000"
 8617      44697643 
 8617      6D645061 
 8617      54797065 
 8617      53656C50 
 8618              	.LASF137:
 8619 2177 7564625F 		.ascii	"udb_interrupts_4_IRQn\000"
 8619      696E7465 
 8619      72727570 
 8619      74735F34 
 8619      5F495251 
 8620              	.LASF12:
 8621 218d 696F7373 		.ascii	"ioss_interrupts_gpio_1_IRQn\000"
 8621      5F696E74 
ARM GAS  C:\Users\nicpa\AppData\Local\Temp\ccPr5feD.s 			page 248


 8621      65727275 
 8621      7074735F 
 8621      6770696F 
 8622              	.LASF307:
 8623 21a9 69706353 		.ascii	"ipcStructSize\000"
 8623      74727563 
 8623      7453697A 
 8623      6500
 8624              	.LASF324:
 8625 21b7 63795F63 		.ascii	"cy_cb_scb_i2c_handle_addr_t\000"
 8625      625F7363 
 8625      625F6932 
 8625      635F6861 
 8625      6E646C65 
 8626              	.LASF276:
 8627 21d3 70657269 		.ascii	"periTrCmdOffset\000"
 8627      5472436D 
 8627      644F6666 
 8627      73657400 
 8628              	.LASF398:
 8629 21e3 42797465 		.ascii	"BytesPerLine\000"
 8629      73506572 
 8629      4C696E65 
 8629      00
 8630              	.LASF99:
 8631 21f0 63707573 		.ascii	"cpuss_interrupts_cm4_cti_0_IRQn\000"
 8631      735F696E 
 8631      74657272 
 8631      75707473 
 8631      5F636D34 
 8632              	.LASF77:
 8633 2210 63707573 		.ascii	"cpuss_interrupts_dw1_0_IRQn\000"
 8633      735F696E 
 8633      74657272 
 8633      75707473 
 8633      5F647731 
 8634              	.LASF382:
 8635 222c 72656C6F 		.ascii	"reloadInput\000"
 8635      6164496E 
 8635      70757400 
 8636              	.LASF181:
 8637 2238 49534552 		.ascii	"ISER\000"
 8637      00
 8638              	.LASF51:
 8639 223d 63707573 		.ascii	"cpuss_interrupts_ipc_15_IRQn\000"
 8639      735F696E 
 8639      74657272 
 8639      75707473 
 8639      5F697063 
 8640              	.LASF464:
 8641 225a 76656374 		.ascii	"vecteur\000"
 8641      65757200 
 8642              	.LASF366:
 8643 2262 72785269 		.ascii	"rxRingBufTail\000"
 8643      6E674275 
 8643      66546169 
 8643      6C00
ARM GAS  C:\Users\nicpa\AppData\Local\Temp\ccPr5feD.s 			page 249


 8644              	.LASF32:
 8645 2270 73727373 		.ascii	"srss_interrupt_backup_IRQn\000"
 8645      5F696E74 
 8645      65727275 
 8645      70745F62 
 8645      61636B75 
 8646              	.LASF399:
 8647 228b 70446174 		.ascii	"pData\000"
 8647      6100
 8648              	.LASF3:
 8649 2291 48617264 		.ascii	"HardFault_IRQn\000"
 8649      4661756C 
 8649      745F4952 
 8649      516E00
 8650              	.LASF453:
 8651 22a0 43795F47 		.ascii	"Cy_GPIO_Write\000"
 8651      50494F5F 
 8651      57726974 
 8651      6500
 8652              	.LASF130:
 8653 22ae 74637077 		.ascii	"tcpwm_1_interrupts_21_IRQn\000"
 8653      6D5F315F 
 8653      696E7465 
 8653      72727570 
 8653      74735F32 
 8654              	.LASF363:
 8655 22c9 72785269 		.ascii	"rxRingBuf\000"
 8655      6E674275 
 8655      6600
 8656              	.LASF348:
 8657 22d3 63795F73 		.ascii	"cy_stc_scb_i2c_context\000"
 8657      74635F73 
 8657      63625F69 
 8657      32635F63 
 8657      6F6E7465 
 8658              	.LASF495:
 8659 22ea 69725F64 		.ascii	"ir_data\000"
 8659      61746100 
 8660              	.LASF485:
 8661 22f2 50414745 		.ascii	"PAGE_SIGNAL_R\000"
 8661      5F534947 
 8661      4E414C5F 
 8661      5200
 8662              	.LASF384:
 8663 2300 73746172 		.ascii	"startInput\000"
 8663      74496E70 
 8663      757400
 8664              	.LASF265:
 8665 230b 666C6173 		.ascii	"flashCtlMainWs0Freq\000"
 8665      6843746C 
 8665      4D61696E 
 8665      57733046 
 8665      72657100 
 8666              	.LASF238:
 8667 231f 6873696F 		.ascii	"hsiomVersion\000"
 8667      6D566572 
 8667      73696F6E 
ARM GAS  C:\Users\nicpa\AppData\Local\Temp\ccPr5feD.s 			page 250


 8667      00
 8668              	.LASF476:
 8669 232c 4932435F 		.ascii	"I2C_MAX_context\000"
 8669      4D41585F 
 8669      636F6E74 
 8669      65787400 
 8670              	.LASF270:
 8671 233c 64774368 		.ascii	"dwChOffset\000"
 8671      4F666673 
 8671      657400
 8672              		.ident	"GCC: (GNU Tools for ARM Embedded Processors) 5.4.1 20160609 (release) [ARM/embedded-5-bran
