ARM GAS  C:\Users\nicpa\AppData\Local\Temp\ccPr5feD.s 			page 1


   1              		.syntax unified
   2              		.cpu cortex-m4
   3              		.eabi_attribute 27, 1
   4              		.fpu fpv4-sp-d16
   5              		.eabi_attribute 20, 1
   6              		.eabi_attribute 21, 1
   7              		.eabi_attribute 23, 3
   8              		.eabi_attribute 24, 1
   9              		.eabi_attribute 25, 1
  10              		.eabi_attribute 26, 1
  11              		.eabi_attribute 30, 1
  12              		.eabi_attribute 34, 1
  13              		.eabi_attribute 18, 4
  14              		.thumb
  15              		.syntax unified
  16              		.file	"LED_task.c"
  17              		.text
  18              	.Ltext0:
  19              		.cfi_sections	.debug_frame
  20              		.section	.text.updateMenu,"ax",%progbits
  21              		.align	2
  22              		.global	updateMenu
  23              		.thumb
  24              		.thumb_func
  25              		.type	updateMenu, %function
  26              	updateMenu:
  27              	.LFB699:
  28              		.file 1 "LED_task.c"
   1:LED_task.c    **** /* ========================================
   2:LED_task.c    ****  *
   3:LED_task.c    **** 
   4:LED_task.c    ****  *
   5:LED_task.c    ****  * ========================================
   6:LED_task.c    **** */
   7:LED_task.c    **** 
   8:LED_task.c    **** #include "LED_task.h"
   9:LED_task.c    **** 
  10:LED_task.c    **** //uint32_t red_example[]={99513,98160,99413,98419,99319,98729,99145,99050,98949,99419,98798,99851,9
  11:LED_task.c    **** //uint32_t ir_example[]={99513,98160,99413,98419,99319,98729,99145,99050,98949,99419,98798,99851,98
  12:LED_task.c    **** 
  13:LED_task.c    **** 
  14:LED_task.c    **** /*******************************************************************************
  15:LED_task.c    **** * Function Name: void updateMenu(int n)
  16:LED_task.c    **** ********************************************************************************
  17:LED_task.c    **** *
  18:LED_task.c    **** * Summary:  
  19:LED_task.c    **** * Elle met à jour l’affichage du menu sur l’écran en fonction du numéro d’option appelé. 
  20:LED_task.c    **** * correspondant à ce numéro sera la seule en gras. 
  21:LED_task.c    **** *
  22:LED_task.c    **** * Parameters:
  23:LED_task.c    **** *  int n : numéro de l’option (sur 4)
  24:LED_task.c    **** *
  25:LED_task.c    **** * Return:
  26:LED_task.c    **** *  None
  27:LED_task.c    **** *
  28:LED_task.c    **** * Side Effects:
  29:LED_task.c    **** *  L’écran prend quelque temps avant de s’actualiser.
ARM GAS  C:\Users\nicpa\AppData\Local\Temp\ccPr5feD.s 			page 2


  30:LED_task.c    **** *
  31:LED_task.c    **** *******************************************************************************/
  32:LED_task.c    **** 
  33:LED_task.c    **** void updateMenu(int n){
  29              		.loc 1 33 0
  30              		.cfi_startproc
  31              		@ args = 0, pretend = 0, frame = 0
  32              		@ frame_needed = 0, uses_anonymous_args = 0
  33              	.LVL0:
  34 0000 10B5     		push	{r4, lr}
  35              		.cfi_def_cfa_offset 8
  36              		.cfi_offset 4, -8
  37              		.cfi_offset 14, -4
  38 0002 0446     		mov	r4, r0
  34:LED_task.c    ****     
  35:LED_task.c    ****     GUI_Clear();
  39              		.loc 1 35 0
  40 0004 FFF7FEFF 		bl	GUI_Clear
  41              	.LVL1:
  36:LED_task.c    ****     
  37:LED_task.c    ****     GUI_SetPenSize(2);
  42              		.loc 1 37 0
  43 0008 0220     		movs	r0, #2
  44 000a FFF7FEFF 		bl	GUI_SetPenSize
  45              	.LVL2:
  38:LED_task.c    ****     GUI_SetColor(GUI_BLACK);
  46              		.loc 1 38 0
  47 000e 0020     		movs	r0, #0
  48 0010 FFF7FEFF 		bl	GUI_SetColor
  49              	.LVL3:
  39:LED_task.c    ****     GUI_SetBkColor(GUI_WHITE);
  50              		.loc 1 39 0
  51 0014 6FF07F40 		mvn	r0, #-16777216
  52 0018 FFF7FEFF 		bl	GUI_SetBkColor
  53              	.LVL4:
  40:LED_task.c    ****     
  41:LED_task.c    ****     
  42:LED_task.c    ****     //Rectangle
  43:LED_task.c    ****     GUI_DrawRect(1,1,263,175);
  54              		.loc 1 43 0
  55 001c AF23     		movs	r3, #175
  56 001e 40F20712 		movw	r2, #263
  57 0022 0121     		movs	r1, #1
  58 0024 0846     		mov	r0, r1
  59 0026 FFF7FEFF 		bl	GUI_DrawRect
  60              	.LVL5:
  44:LED_task.c    ****     
  45:LED_task.c    **** 
  46:LED_task.c    ****     GUI_SetPenSize(2);
  61              		.loc 1 46 0
  62 002a 0220     		movs	r0, #2
  63 002c FFF7FEFF 		bl	GUI_SetPenSize
  64              	.LVL6:
  47:LED_task.c    ****     GUI_DrawLine(95,30,170,30);
  65              		.loc 1 47 0
  66 0030 1E23     		movs	r3, #30
  67 0032 AA22     		movs	r2, #170
ARM GAS  C:\Users\nicpa\AppData\Local\Temp\ccPr5feD.s 			page 3


  68 0034 1946     		mov	r1, r3
  69 0036 5F20     		movs	r0, #95
  70 0038 FFF7FEFF 		bl	GUI_DrawLine
  71              	.LVL7:
  48:LED_task.c    ****     
  49:LED_task.c    ****     GUI_SetColor(GUI_BLACK);
  72              		.loc 1 49 0
  73 003c 0020     		movs	r0, #0
  74 003e FFF7FEFF 		bl	GUI_SetColor
  75              	.LVL8:
  50:LED_task.c    ****     GUI_SetBkColor(GUI_WHITE);
  76              		.loc 1 50 0
  77 0042 6FF07F40 		mvn	r0, #-16777216
  78 0046 FFF7FEFF 		bl	GUI_SetBkColor
  79              	.LVL9:
  51:LED_task.c    ****     
  52:LED_task.c    ****     //Write MENU
  53:LED_task.c    ****     GUI_SetFont(GUI_FONT_24B_1);
  80              		.loc 1 53 0
  81 004a 4848     		ldr	r0, .L9
  82 004c FFF7FEFF 		bl	GUI_SetFont
  83              	.LVL10:
  54:LED_task.c    ****     GUI_SetTextAlign(GUI_TA_CENTER);
  84              		.loc 1 54 0
  85 0050 0220     		movs	r0, #2
  86 0052 FFF7FEFF 		bl	GUI_SetTextAlign
  87              	.LVL11:
  55:LED_task.c    ****     GUI_DispStringAt("MENU",135 ,5);
  88              		.loc 1 55 0
  89 0056 0522     		movs	r2, #5
  90 0058 8721     		movs	r1, #135
  91 005a 4548     		ldr	r0, .L9+4
  92 005c FFF7FEFF 		bl	GUI_DispStringAt
  93              	.LVL12:
  56:LED_task.c    ****     
  57:LED_task.c    ****     
  58:LED_task.c    ****     GUI_SetFont(GUI_FONT_16_1);
  94              		.loc 1 58 0
  95 0060 4448     		ldr	r0, .L9+8
  96 0062 FFF7FEFF 		bl	GUI_SetFont
  97              	.LVL13:
  59:LED_task.c    ****     if(alerte)
  98              		.loc 1 59 0
  99 0066 444B     		ldr	r3, .L9+12
 100 0068 1B78     		ldrb	r3, [r3]	@ zero_extendqisi2
 101 006a 2BB1     		cbz	r3, .L2
  60:LED_task.c    ****     {
  61:LED_task.c    ****         GUI_DispStringAt("A",250 ,155);
 102              		.loc 1 61 0
 103 006c 9B22     		movs	r2, #155
 104 006e FA21     		movs	r1, #250
 105 0070 4248     		ldr	r0, .L9+16
 106 0072 FFF7FEFF 		bl	GUI_DispStringAt
 107              	.LVL14:
 108 0076 04E0     		b	.L3
 109              	.L2:
  62:LED_task.c    ****     }
ARM GAS  C:\Users\nicpa\AppData\Local\Temp\ccPr5feD.s 			page 4


  63:LED_task.c    ****     else
  64:LED_task.c    ****     {
  65:LED_task.c    ****         GUI_DispStringAt("D",250 ,155);
 110              		.loc 1 65 0
 111 0078 9B22     		movs	r2, #155
 112 007a FA21     		movs	r1, #250
 113 007c 4048     		ldr	r0, .L9+20
 114 007e FFF7FEFF 		bl	GUI_DispStringAt
 115              	.LVL15:
 116              	.L3:
  66:LED_task.c    ****     }
  67:LED_task.c    ****     
  68:LED_task.c    ****     
  69:LED_task.c    ****     
  70:LED_task.c    ****     //Write options
  71:LED_task.c    ****     if(n == 1)
 117              		.loc 1 71 0
 118 0082 012C     		cmp	r4, #1
 119 0084 19D1     		bne	.L4
  72:LED_task.c    ****     {
  73:LED_task.c    ****         GUI_SetFont(GUI_FONT_16B_1);
 120              		.loc 1 73 0
 121 0086 3F48     		ldr	r0, .L9+24
 122 0088 FFF7FEFF 		bl	GUI_SetFont
 123              	.LVL16:
  74:LED_task.c    ****         GUI_DispStringAt("Show oxygenated signal",40 ,40);
 124              		.loc 1 74 0
 125 008c 2822     		movs	r2, #40
 126 008e 1146     		mov	r1, r2
 127 0090 3D48     		ldr	r0, .L9+28
 128 0092 FFF7FEFF 		bl	GUI_DispStringAt
 129              	.LVL17:
  75:LED_task.c    ****         GUI_SetFont(GUI_FONT_16_1);
 130              		.loc 1 75 0
 131 0096 3748     		ldr	r0, .L9+8
 132 0098 FFF7FEFF 		bl	GUI_SetFont
 133              	.LVL18:
  76:LED_task.c    ****         GUI_DispStringAt("Show non-oxygenated signal",40 ,75);
 134              		.loc 1 76 0
 135 009c 4B22     		movs	r2, #75
 136 009e 2821     		movs	r1, #40
 137 00a0 3A48     		ldr	r0, .L9+32
 138 00a2 FFF7FEFF 		bl	GUI_DispStringAt
 139              	.LVL19:
  77:LED_task.c    ****         GUI_DispStringAt("Change intensity of LED",40 ,110);
 140              		.loc 1 77 0
 141 00a6 6E22     		movs	r2, #110
 142 00a8 2821     		movs	r1, #40
 143 00aa 3948     		ldr	r0, .L9+36
 144 00ac FFF7FEFF 		bl	GUI_DispStringAt
 145              	.LVL20:
  78:LED_task.c    ****         GUI_DispStringAt("Change the heart rate interval",40 ,145);
 146              		.loc 1 78 0
 147 00b0 9122     		movs	r2, #145
 148 00b2 2821     		movs	r1, #40
 149 00b4 3748     		ldr	r0, .L9+40
 150 00b6 FFF7FEFF 		bl	GUI_DispStringAt
ARM GAS  C:\Users\nicpa\AppData\Local\Temp\ccPr5feD.s 			page 5


 151              	.LVL21:
 152              	.L4:
  79:LED_task.c    ****     }
  80:LED_task.c    ****     if(n == 2)
 153              		.loc 1 80 0
 154 00ba 022C     		cmp	r4, #2
 155 00bc 19D1     		bne	.L5
  81:LED_task.c    ****     {
  82:LED_task.c    ****         GUI_SetFont(GUI_FONT_16B_1);
 156              		.loc 1 82 0
 157 00be 3148     		ldr	r0, .L9+24
 158 00c0 FFF7FEFF 		bl	GUI_SetFont
 159              	.LVL22:
  83:LED_task.c    ****         GUI_DispStringAt("Show non-oxygenated signal",40 ,75);
 160              		.loc 1 83 0
 161 00c4 4B22     		movs	r2, #75
 162 00c6 2821     		movs	r1, #40
 163 00c8 3048     		ldr	r0, .L9+32
 164 00ca FFF7FEFF 		bl	GUI_DispStringAt
 165              	.LVL23:
  84:LED_task.c    ****         GUI_SetFont(GUI_FONT_16_1);
 166              		.loc 1 84 0
 167 00ce 2948     		ldr	r0, .L9+8
 168 00d0 FFF7FEFF 		bl	GUI_SetFont
 169              	.LVL24:
  85:LED_task.c    ****         GUI_DispStringAt("Show oxygenated signal",40 ,40);
 170              		.loc 1 85 0
 171 00d4 2822     		movs	r2, #40
 172 00d6 1146     		mov	r1, r2
 173 00d8 2B48     		ldr	r0, .L9+28
 174 00da FFF7FEFF 		bl	GUI_DispStringAt
 175              	.LVL25:
  86:LED_task.c    ****         GUI_DispStringAt("Change intensity of LED",40 ,110);
 176              		.loc 1 86 0
 177 00de 6E22     		movs	r2, #110
 178 00e0 2821     		movs	r1, #40
 179 00e2 2B48     		ldr	r0, .L9+36
 180 00e4 FFF7FEFF 		bl	GUI_DispStringAt
 181              	.LVL26:
  87:LED_task.c    ****         GUI_DispStringAt("Change the heart rate interval",40 ,145);
 182              		.loc 1 87 0
 183 00e8 9122     		movs	r2, #145
 184 00ea 2821     		movs	r1, #40
 185 00ec 2948     		ldr	r0, .L9+40
 186 00ee FFF7FEFF 		bl	GUI_DispStringAt
 187              	.LVL27:
 188              	.L5:
  88:LED_task.c    ****     }
  89:LED_task.c    ****     if(n == 3)
 189              		.loc 1 89 0
 190 00f2 032C     		cmp	r4, #3
 191 00f4 19D1     		bne	.L6
  90:LED_task.c    ****     {
  91:LED_task.c    ****         GUI_SetFont(GUI_FONT_16B_1);
 192              		.loc 1 91 0
 193 00f6 2348     		ldr	r0, .L9+24
 194 00f8 FFF7FEFF 		bl	GUI_SetFont
ARM GAS  C:\Users\nicpa\AppData\Local\Temp\ccPr5feD.s 			page 6


 195              	.LVL28:
  92:LED_task.c    ****         GUI_DispStringAt("Change intensity of LED",40 ,110); 
 196              		.loc 1 92 0
 197 00fc 6E22     		movs	r2, #110
 198 00fe 2821     		movs	r1, #40
 199 0100 2348     		ldr	r0, .L9+36
 200 0102 FFF7FEFF 		bl	GUI_DispStringAt
 201              	.LVL29:
  93:LED_task.c    ****         GUI_SetFont(GUI_FONT_16_1);
 202              		.loc 1 93 0
 203 0106 1B48     		ldr	r0, .L9+8
 204 0108 FFF7FEFF 		bl	GUI_SetFont
 205              	.LVL30:
  94:LED_task.c    ****         GUI_DispStringAt("Show oxygenated signal",40 ,40);
 206              		.loc 1 94 0
 207 010c 2822     		movs	r2, #40
 208 010e 1146     		mov	r1, r2
 209 0110 1D48     		ldr	r0, .L9+28
 210 0112 FFF7FEFF 		bl	GUI_DispStringAt
 211              	.LVL31:
  95:LED_task.c    ****         GUI_DispStringAt("Show non-oxygenated signal",40 ,75);
 212              		.loc 1 95 0
 213 0116 4B22     		movs	r2, #75
 214 0118 2821     		movs	r1, #40
 215 011a 1C48     		ldr	r0, .L9+32
 216 011c FFF7FEFF 		bl	GUI_DispStringAt
 217              	.LVL32:
  96:LED_task.c    ****         GUI_DispStringAt("Change the heart rate interval",40 ,145);
 218              		.loc 1 96 0
 219 0120 9122     		movs	r2, #145
 220 0122 2821     		movs	r1, #40
 221 0124 1B48     		ldr	r0, .L9+40
 222 0126 FFF7FEFF 		bl	GUI_DispStringAt
 223              	.LVL33:
 224              	.L6:
  97:LED_task.c    ****     }
  98:LED_task.c    ****     if(n == 4)
 225              		.loc 1 98 0
 226 012a 042C     		cmp	r4, #4
 227 012c 19D1     		bne	.L7
  99:LED_task.c    ****     {
 100:LED_task.c    ****         GUI_SetFont(GUI_FONT_16_1);
 228              		.loc 1 100 0
 229 012e 1148     		ldr	r0, .L9+8
 230 0130 FFF7FEFF 		bl	GUI_SetFont
 231              	.LVL34:
 101:LED_task.c    ****         GUI_DispStringAt("Show oxygenated signal",40 ,40);
 232              		.loc 1 101 0
 233 0134 2822     		movs	r2, #40
 234 0136 1146     		mov	r1, r2
 235 0138 1348     		ldr	r0, .L9+28
 236 013a FFF7FEFF 		bl	GUI_DispStringAt
 237              	.LVL35:
 102:LED_task.c    ****         GUI_DispStringAt("Show non-oxygenated signal",40 ,75);
 238              		.loc 1 102 0
 239 013e 4B22     		movs	r2, #75
 240 0140 2821     		movs	r1, #40
ARM GAS  C:\Users\nicpa\AppData\Local\Temp\ccPr5feD.s 			page 7


 241 0142 1248     		ldr	r0, .L9+32
 242 0144 FFF7FEFF 		bl	GUI_DispStringAt
 243              	.LVL36:
 103:LED_task.c    ****         GUI_DispStringAt("Change intensity of LED",40 ,110);
 244              		.loc 1 103 0
 245 0148 6E22     		movs	r2, #110
 246 014a 2821     		movs	r1, #40
 247 014c 1048     		ldr	r0, .L9+36
 248 014e FFF7FEFF 		bl	GUI_DispStringAt
 249              	.LVL37:
 104:LED_task.c    ****         GUI_SetFont(GUI_FONT_16B_1);
 250              		.loc 1 104 0
 251 0152 0C48     		ldr	r0, .L9+24
 252 0154 FFF7FEFF 		bl	GUI_SetFont
 253              	.LVL38:
 105:LED_task.c    ****         GUI_DispStringAt("Change the heart rate interval",40 ,145);
 254              		.loc 1 105 0
 255 0158 9122     		movs	r2, #145
 256 015a 2821     		movs	r1, #40
 257 015c 0D48     		ldr	r0, .L9+40
 258 015e FFF7FEFF 		bl	GUI_DispStringAt
 259              	.LVL39:
 260              	.L7:
 106:LED_task.c    ****     }
 107:LED_task.c    ****     
 108:LED_task.c    ****     
 109:LED_task.c    ****     UpdateDisplay(CY_EINK_FULL_2STAGE, true);
 261              		.loc 1 109 0
 262 0162 0121     		movs	r1, #1
 263 0164 0220     		movs	r0, #2
 264 0166 FFF7FEFF 		bl	UpdateDisplay
 265              	.LVL40:
 266 016a 10BD     		pop	{r4, pc}
 267              	.LVL41:
 268              	.L10:
 269              		.align	2
 270              	.L9:
 271 016c 00000000 		.word	GUI_Font24B_1
 272 0170 00000000 		.word	.LC0
 273 0174 00000000 		.word	GUI_Font16_1
 274 0178 00000000 		.word	alerte
 275 017c 08000000 		.word	.LC1
 276 0180 0C000000 		.word	.LC2
 277 0184 00000000 		.word	GUI_Font16B_1
 278 0188 10000000 		.word	.LC3
 279 018c 28000000 		.word	.LC4
 280 0190 44000000 		.word	.LC5
 281 0194 5C000000 		.word	.LC6
 282              		.cfi_endproc
 283              	.LFE699:
 284              		.size	updateMenu, .-updateMenu
 285              		.section	.text.updateLED,"ax",%progbits
 286              		.align	2
 287              		.global	updateLED
 288              		.thumb
 289              		.thumb_func
 290              		.type	updateLED, %function
ARM GAS  C:\Users\nicpa\AppData\Local\Temp\ccPr5feD.s 			page 8


 291              	updateLED:
 292              	.LFB700:
 110:LED_task.c    ****     
 111:LED_task.c    **** }
 112:LED_task.c    **** 
 113:LED_task.c    **** 
 114:LED_task.c    **** 
 115:LED_task.c    **** /*******************************************************************************
 116:LED_task.c    **** * Function Name: void updateLED(void)
 117:LED_task.c    **** ********************************************************************************
 118:LED_task.c    **** *
 119:LED_task.c    **** * Summary:  
 120:LED_task.c    **** * Elle met à jour l’affichage de la page LED sur l’écran. Principalement, elle affiche la var
 121:LED_task.c    **** * l’intensité de la LED.
 122:LED_task.c    **** *
 123:LED_task.c    **** * Parameters:
 124:LED_task.c    **** *  None
 125:LED_task.c    **** *
 126:LED_task.c    **** * Return:
 127:LED_task.c    **** *  None
 128:LED_task.c    **** *
 129:LED_task.c    **** * Side Effects:
 130:LED_task.c    **** *  L’écran prend quelque temps avant de s’actualiser.
 131:LED_task.c    **** *
 132:LED_task.c    **** *******************************************************************************/
 133:LED_task.c    **** 
 134:LED_task.c    **** void updateLED(){
 293              		.loc 1 134 0
 294              		.cfi_startproc
 295              		@ args = 0, pretend = 0, frame = 8
 296              		@ frame_needed = 0, uses_anonymous_args = 0
 297 0000 10B5     		push	{r4, lr}
 298              		.cfi_def_cfa_offset 8
 299              		.cfi_offset 4, -8
 300              		.cfi_offset 14, -4
 301 0002 82B0     		sub	sp, sp, #8
 302              		.cfi_def_cfa_offset 16
 135:LED_task.c    ****    
 136:LED_task.c    ****     GUI_Clear();
 303              		.loc 1 136 0
 304 0004 FFF7FEFF 		bl	GUI_Clear
 305              	.LVL42:
 137:LED_task.c    ****     
 138:LED_task.c    ****     GUI_SetPenSize(2);
 306              		.loc 1 138 0
 307 0008 0220     		movs	r0, #2
 308 000a FFF7FEFF 		bl	GUI_SetPenSize
 309              	.LVL43:
 139:LED_task.c    ****     GUI_SetColor(GUI_BLACK);
 310              		.loc 1 139 0
 311 000e 0020     		movs	r0, #0
 312 0010 FFF7FEFF 		bl	GUI_SetColor
 313              	.LVL44:
 140:LED_task.c    ****     GUI_SetBkColor(GUI_WHITE);
 314              		.loc 1 140 0
 315 0014 6FF07F40 		mvn	r0, #-16777216
 316 0018 FFF7FEFF 		bl	GUI_SetBkColor
ARM GAS  C:\Users\nicpa\AppData\Local\Temp\ccPr5feD.s 			page 9


 317              	.LVL45:
 141:LED_task.c    ****     
 142:LED_task.c    ****     //Rectangle
 143:LED_task.c    ****     GUI_DrawRect(1,1,263,175);
 318              		.loc 1 143 0
 319 001c AF23     		movs	r3, #175
 320 001e 40F20712 		movw	r2, #263
 321 0022 0121     		movs	r1, #1
 322 0024 0846     		mov	r0, r1
 323 0026 FFF7FEFF 		bl	GUI_DrawRect
 324              	.LVL46:
 144:LED_task.c    ****     GUI_DrawRect(95,70,160,120);
 325              		.loc 1 144 0
 326 002a 7823     		movs	r3, #120
 327 002c A022     		movs	r2, #160
 328 002e 4621     		movs	r1, #70
 329 0030 5F20     		movs	r0, #95
 330 0032 FFF7FEFF 		bl	GUI_DrawRect
 331              	.LVL47:
 145:LED_task.c    **** 
 146:LED_task.c    ****     
 147:LED_task.c    ****     GUI_SetFont(GUI_FONT_16_1);
 332              		.loc 1 147 0
 333 0036 1348     		ldr	r0, .L13
 334 0038 FFF7FEFF 		bl	GUI_SetFont
 335              	.LVL48:
 148:LED_task.c    ****     GUI_SetTextAlign(GUI_TA_CENTER);;
 336              		.loc 1 148 0
 337 003c 0220     		movs	r0, #2
 338 003e FFF7FEFF 		bl	GUI_SetTextAlign
 339              	.LVL49:
 149:LED_task.c    ****     
 150:LED_task.c    ****    
 151:LED_task.c    ****     GUI_SetFont(GUI_FONT_32B_1);
 340              		.loc 1 151 0
 341 0042 1148     		ldr	r0, .L13+4
 342 0044 FFF7FEFF 		bl	GUI_SetFont
 343              	.LVL50:
 152:LED_task.c    ****     char valeur_LED[4] = "";
 344              		.loc 1 152 0
 345 0048 02AC     		add	r4, sp, #8
 346 004a 0023     		movs	r3, #0
 347 004c 44F8043D 		str	r3, [r4, #-4]!
 153:LED_task.c    ****     sprintf(valeur_LED,"%d",(int)LED);
 348              		.loc 1 153 0
 349 0050 0E4B     		ldr	r3, .L13+8
 350 0052 1A68     		ldr	r2, [r3]
 351 0054 0E49     		ldr	r1, .L13+12
 352 0056 2046     		mov	r0, r4
 353 0058 FFF7FEFF 		bl	sprintf
 354              	.LVL51:
 154:LED_task.c    **** 
 155:LED_task.c    ****     GUI_DispStringAt(valeur_LED, 130, 80);
 355              		.loc 1 155 0
 356 005c 5022     		movs	r2, #80
 357 005e 8221     		movs	r1, #130
 358 0060 2046     		mov	r0, r4
ARM GAS  C:\Users\nicpa\AppData\Local\Temp\ccPr5feD.s 			page 10


 359 0062 FFF7FEFF 		bl	GUI_DispStringAt
 360              	.LVL52:
 156:LED_task.c    ****     
 157:LED_task.c    ****     GUI_SetFont(GUI_FONT_16B_1);
 361              		.loc 1 157 0
 362 0066 0B48     		ldr	r0, .L13+16
 363 0068 FFF7FEFF 		bl	GUI_SetFont
 364              	.LVL53:
 158:LED_task.c    ****     GUI_DispStringAt("CHANGE LED VALUE", 60 ,15);
 365              		.loc 1 158 0
 366 006c 0F22     		movs	r2, #15
 367 006e 3C21     		movs	r1, #60
 368 0070 0948     		ldr	r0, .L13+20
 369 0072 FFF7FEFF 		bl	GUI_DispStringAt
 370              	.LVL54:
 159:LED_task.c    ****     
 160:LED_task.c    ****     UpdateDisplay(CY_EINK_FULL_2STAGE, true);
 371              		.loc 1 160 0
 372 0076 0121     		movs	r1, #1
 373 0078 0220     		movs	r0, #2
 374 007a FFF7FEFF 		bl	UpdateDisplay
 375              	.LVL55:
 161:LED_task.c    **** }
 376              		.loc 1 161 0
 377 007e 02B0     		add	sp, sp, #8
 378              		.cfi_def_cfa_offset 8
 379              		@ sp needed
 380 0080 10BD     		pop	{r4, pc}
 381              	.L14:
 382 0082 00BF     		.align	2
 383              	.L13:
 384 0084 00000000 		.word	GUI_Font16_1
 385 0088 00000000 		.word	GUI_Font32B_1
 386 008c 00000000 		.word	LED
 387 0090 7C000000 		.word	.LC7
 388 0094 00000000 		.word	GUI_Font16B_1
 389 0098 80000000 		.word	.LC8
 390              		.cfi_endproc
 391              	.LFE700:
 392              		.size	updateLED, .-updateLED
 393              		.section	.text.updateHR,"ax",%progbits
 394              		.align	2
 395              		.global	updateHR
 396              		.thumb
 397              		.thumb_func
 398              		.type	updateHR, %function
 399              	updateHR:
 400              	.LFB701:
 162:LED_task.c    **** 
 163:LED_task.c    **** /*******************************************************************************
 164:LED_task.c    **** * Function Name: void updateHR(void)
 165:LED_task.c    **** ********************************************************************************
 166:LED_task.c    **** *
 167:LED_task.c    **** * Summary:  
 168:LED_task.c    **** * Elle met à jour l’affichage de la page HR sur l’écran. Principalement, elle affiche les var
 169:LED_task.c    **** * fréquence cardiaque maximale et minimale tolérées. 
 170:LED_task.c    **** *
ARM GAS  C:\Users\nicpa\AppData\Local\Temp\ccPr5feD.s 			page 11


 171:LED_task.c    **** * Parameters:
 172:LED_task.c    **** *  None
 173:LED_task.c    **** *
 174:LED_task.c    **** * Return:
 175:LED_task.c    **** *  None
 176:LED_task.c    **** *
 177:LED_task.c    **** * Side Effects:
 178:LED_task.c    **** *  L’écran prend quelque temps avant de s’actualiser.
 179:LED_task.c    **** *
 180:LED_task.c    **** *******************************************************************************/
 181:LED_task.c    **** 
 182:LED_task.c    **** void updateHR(){
 401              		.loc 1 182 0
 402              		.cfi_startproc
 403              		@ args = 0, pretend = 0, frame = 8
 404              		@ frame_needed = 0, uses_anonymous_args = 0
 405 0000 10B5     		push	{r4, lr}
 406              		.cfi_def_cfa_offset 8
 407              		.cfi_offset 4, -8
 408              		.cfi_offset 14, -4
 409 0002 82B0     		sub	sp, sp, #8
 410              		.cfi_def_cfa_offset 16
 183:LED_task.c    ****    
 184:LED_task.c    ****    
 185:LED_task.c    ****     GUI_Clear();
 411              		.loc 1 185 0
 412 0004 FFF7FEFF 		bl	GUI_Clear
 413              	.LVL56:
 186:LED_task.c    ****     
 187:LED_task.c    ****     GUI_SetPenSize(2);
 414              		.loc 1 187 0
 415 0008 0220     		movs	r0, #2
 416 000a FFF7FEFF 		bl	GUI_SetPenSize
 417              	.LVL57:
 188:LED_task.c    ****     GUI_SetColor(GUI_BLACK);
 418              		.loc 1 188 0
 419 000e 0020     		movs	r0, #0
 420 0010 FFF7FEFF 		bl	GUI_SetColor
 421              	.LVL58:
 189:LED_task.c    ****     GUI_SetBkColor(GUI_WHITE);
 422              		.loc 1 189 0
 423 0014 6FF07F40 		mvn	r0, #-16777216
 424 0018 FFF7FEFF 		bl	GUI_SetBkColor
 425              	.LVL59:
 190:LED_task.c    ****     
 191:LED_task.c    ****     //Rectangle
 192:LED_task.c    ****     GUI_DrawRect(1,1,263,175);
 426              		.loc 1 192 0
 427 001c AF23     		movs	r3, #175
 428 001e 40F20712 		movw	r2, #263
 429 0022 0121     		movs	r1, #1
 430 0024 0846     		mov	r0, r1
 431 0026 FFF7FEFF 		bl	GUI_DrawRect
 432              	.LVL60:
 193:LED_task.c    ****     GUI_DrawRect(30,70,90,120);
 433              		.loc 1 193 0
 434 002a 7823     		movs	r3, #120
ARM GAS  C:\Users\nicpa\AppData\Local\Temp\ccPr5feD.s 			page 12


 435 002c 5A22     		movs	r2, #90
 436 002e 4621     		movs	r1, #70
 437 0030 1E20     		movs	r0, #30
 438 0032 FFF7FEFF 		bl	GUI_DrawRect
 439              	.LVL61:
 194:LED_task.c    ****     GUI_DrawRect(150,70,225,120);
 440              		.loc 1 194 0
 441 0036 7823     		movs	r3, #120
 442 0038 E122     		movs	r2, #225
 443 003a 4621     		movs	r1, #70
 444 003c 9620     		movs	r0, #150
 445 003e FFF7FEFF 		bl	GUI_DrawRect
 446              	.LVL62:
 195:LED_task.c    **** 
 196:LED_task.c    ****     
 197:LED_task.c    ****     GUI_SetFont(GUI_FONT_16_1);
 447              		.loc 1 197 0
 448 0042 1D48     		ldr	r0, .L17
 449 0044 FFF7FEFF 		bl	GUI_SetFont
 450              	.LVL63:
 198:LED_task.c    ****     GUI_SetTextAlign(GUI_TA_CENTER);;
 451              		.loc 1 198 0
 452 0048 0220     		movs	r0, #2
 453 004a FFF7FEFF 		bl	GUI_SetTextAlign
 454              	.LVL64:
 199:LED_task.c    ****     
 200:LED_task.c    ****    
 201:LED_task.c    ****     GUI_SetFont(GUI_FONT_32B_1);
 455              		.loc 1 201 0
 456 004e 1B48     		ldr	r0, .L17+4
 457 0050 FFF7FEFF 		bl	GUI_SetFont
 458              	.LVL65:
 202:LED_task.c    ****     char frequence_max[4] = "";
 459              		.loc 1 202 0
 460 0054 0023     		movs	r3, #0
 461 0056 0193     		str	r3, [sp, #4]
 203:LED_task.c    ****     char frequence_min[4] = "";
 462              		.loc 1 203 0
 463 0058 0093     		str	r3, [sp]
 204:LED_task.c    ****     sprintf(frequence_max,"%d",(int)hrmax);
 464              		.loc 1 204 0
 465 005a 194C     		ldr	r4, .L17+8
 466 005c 194B     		ldr	r3, .L17+12
 467 005e 1A68     		ldr	r2, [r3]
 468 0060 2146     		mov	r1, r4
 469 0062 01A8     		add	r0, sp, #4
 470 0064 FFF7FEFF 		bl	sprintf
 471              	.LVL66:
 205:LED_task.c    ****     sprintf(frequence_min,"%d",(int)hrmin);
 472              		.loc 1 205 0
 473 0068 174B     		ldr	r3, .L17+16
 474 006a 1A68     		ldr	r2, [r3]
 475 006c 2146     		mov	r1, r4
 476 006e 6846     		mov	r0, sp
 477 0070 FFF7FEFF 		bl	sprintf
 478              	.LVL67:
 206:LED_task.c    **** 
ARM GAS  C:\Users\nicpa\AppData\Local\Temp\ccPr5feD.s 			page 13


 207:LED_task.c    ****     GUI_DispStringAt(frequence_min, 60, 80);
 479              		.loc 1 207 0
 480 0074 5022     		movs	r2, #80
 481 0076 3C21     		movs	r1, #60
 482 0078 6846     		mov	r0, sp
 483 007a FFF7FEFF 		bl	GUI_DispStringAt
 484              	.LVL68:
 208:LED_task.c    ****     GUI_DispStringAt(frequence_max, 165, 80);
 485              		.loc 1 208 0
 486 007e 5022     		movs	r2, #80
 487 0080 A521     		movs	r1, #165
 488 0082 01A8     		add	r0, sp, #4
 489 0084 FFF7FEFF 		bl	GUI_DispStringAt
 490              	.LVL69:
 209:LED_task.c    ****     
 210:LED_task.c    ****     GUI_SetFont(GUI_FONT_16B_1);
 491              		.loc 1 210 0
 492 0088 1048     		ldr	r0, .L17+20
 493 008a FFF7FEFF 		bl	GUI_SetFont
 494              	.LVL70:
 211:LED_task.c    ****     GUI_DispStringAt("Min Heart Rate",10 ,130);
 495              		.loc 1 211 0
 496 008e 8222     		movs	r2, #130
 497 0090 0A21     		movs	r1, #10
 498 0092 0F48     		ldr	r0, .L17+24
 499 0094 FFF7FEFF 		bl	GUI_DispStringAt
 500              	.LVL71:
 212:LED_task.c    ****     GUI_DispStringAt("Max Heart Rate", 135 ,130);
 501              		.loc 1 212 0
 502 0098 8222     		movs	r2, #130
 503 009a 8721     		movs	r1, #135
 504 009c 0D48     		ldr	r0, .L17+28
 505 009e FFF7FEFF 		bl	GUI_DispStringAt
 506              	.LVL72:
 213:LED_task.c    ****     GUI_DispStringAt("CHANGE HEART RATE INTERVAL",30 ,15);
 507              		.loc 1 213 0
 508 00a2 0F22     		movs	r2, #15
 509 00a4 1E21     		movs	r1, #30
 510 00a6 0C48     		ldr	r0, .L17+32
 511 00a8 FFF7FEFF 		bl	GUI_DispStringAt
 512              	.LVL73:
 214:LED_task.c    ****     
 215:LED_task.c    ****     UpdateDisplay(CY_EINK_FULL_2STAGE, true);
 513              		.loc 1 215 0
 514 00ac 0121     		movs	r1, #1
 515 00ae 0220     		movs	r0, #2
 516 00b0 FFF7FEFF 		bl	UpdateDisplay
 517              	.LVL74:
 216:LED_task.c    ****     
 217:LED_task.c    **** }
 518              		.loc 1 217 0
 519 00b4 02B0     		add	sp, sp, #8
 520              		.cfi_def_cfa_offset 8
 521              		@ sp needed
 522 00b6 10BD     		pop	{r4, pc}
 523              	.L18:
 524              		.align	2
ARM GAS  C:\Users\nicpa\AppData\Local\Temp\ccPr5feD.s 			page 14


 525              	.L17:
 526 00b8 00000000 		.word	GUI_Font16_1
 527 00bc 00000000 		.word	GUI_Font32B_1
 528 00c0 7C000000 		.word	.LC7
 529 00c4 00000000 		.word	hrmax
 530 00c8 00000000 		.word	hrmin
 531 00cc 00000000 		.word	GUI_Font16B_1
 532 00d0 94000000 		.word	.LC9
 533 00d4 A4000000 		.word	.LC10
 534 00d8 B4000000 		.word	.LC11
 535              		.cfi_endproc
 536              	.LFE701:
 537              		.size	updateHR, .-updateHR
 538              		.section	.text.updateSignal,"ax",%progbits
 539              		.align	2
 540              		.global	updateSignal
 541              		.thumb
 542              		.thumb_func
 543              		.type	updateSignal, %function
 544              	updateSignal:
 545              	.LFB702:
 218:LED_task.c    **** 
 219:LED_task.c    **** 
 220:LED_task.c    **** /*******************************************************************************
 221:LED_task.c    **** * Function Name: void updateSignal(float32 *vecteur, uint32_t fc, uint32_t spo2, float32 AC, float3
 222:LED_task.c    **** ********************************************************************************
 223:LED_task.c    **** *
 224:LED_task.c    **** * Summary:  
 225:LED_task.c    **** * Elle met à jour l’affichage du signal, du spo2 et de la fréquence cardiaque. Le signal est af
 226:LED_task.c    **** * forme de courbe et une seule valeur sur 4 est utilisée.
 227:LED_task.c    **** *
 228:LED_task.c    **** * Parameters:
 229:LED_task.c    **** *  float32 *vecteur : données du signal
 230:LED_task.c    **** * uint32_t fc : fréquence cardiaque mesurée
 231:LED_task.c    **** * uint32_t spo2 : taux spo2 mesuré
 232:LED_task.c    **** * float32 AC : amplitude du signal
 233:LED_task.c    **** * float32 DC : décalage du signal
 234:LED_task.c    **** *
 235:LED_task.c    **** * Return:
 236:LED_task.c    **** *  None
 237:LED_task.c    **** *
 238:LED_task.c    **** * Side Effects:
 239:LED_task.c    **** *  L’écran prend quelque temps avant de s’actualiser.
 240:LED_task.c    **** *
 241:LED_task.c    **** *******************************************************************************/
 242:LED_task.c    **** 
 243:LED_task.c    **** void updateSignal(float32 *vecteur, uint32_t fc, uint32_t spo2, float32 AC, float32 DC){
 546              		.loc 1 243 0
 547              		.cfi_startproc
 548              		@ args = 4, pretend = 0, frame = 512
 549              		@ frame_needed = 0, uses_anonymous_args = 0
 550              	.LVL75:
 551 0000 2DE9F041 		push	{r4, r5, r6, r7, r8, lr}
 552              		.cfi_def_cfa_offset 24
 553              		.cfi_offset 4, -24
 554              		.cfi_offset 5, -20
 555              		.cfi_offset 6, -16
ARM GAS  C:\Users\nicpa\AppData\Local\Temp\ccPr5feD.s 			page 15


 556              		.cfi_offset 7, -12
 557              		.cfi_offset 8, -8
 558              		.cfi_offset 14, -4
 559 0004 2DED028B 		vpush.64	{d8}
 560              		.cfi_def_cfa_offset 32
 561              		.cfi_offset 80, -32
 562              		.cfi_offset 81, -28
 563 0008 ADF5007D 		sub	sp, sp, #512
 564              		.cfi_def_cfa_offset 544
 565 000c 0646     		mov	r6, r0
 566 000e 0F46     		mov	r7, r1
 567 0010 9046     		mov	r8, r2
 568 0012 08EE103A 		vmov	s16, r3
 569 0016 DDED888A 		vldr.32	s17, [sp, #544]
 244:LED_task.c    ****     
 245:LED_task.c    ****     GUI_Clear();
 570              		.loc 1 245 0
 571 001a FFF7FEFF 		bl	GUI_Clear
 572              	.LVL76:
 246:LED_task.c    ****     
 247:LED_task.c    ****     GUI_SetPenSize(2);
 573              		.loc 1 247 0
 574 001e 0220     		movs	r0, #2
 575 0020 FFF7FEFF 		bl	GUI_SetPenSize
 576              	.LVL77:
 248:LED_task.c    ****     GUI_SetColor(GUI_BLACK);
 577              		.loc 1 248 0
 578 0024 0020     		movs	r0, #0
 579 0026 FFF7FEFF 		bl	GUI_SetColor
 580              	.LVL78:
 249:LED_task.c    ****     GUI_SetBkColor(GUI_WHITE);
 581              		.loc 1 249 0
 582 002a 6FF07F40 		mvn	r0, #-16777216
 583 002e FFF7FEFF 		bl	GUI_SetBkColor
 584              	.LVL79:
 250:LED_task.c    **** 
 251:LED_task.c    ****     int j=500;
 252:LED_task.c    ****    
 253:LED_task.c    ****     int tableauX[125];
 254:LED_task.c    ****     
 255:LED_task.c    ****     if (!LED_flag)
 585              		.loc 1 255 0
 586 0032 5E4B     		ldr	r3, .L29
 587 0034 1B78     		ldrb	r3, [r3]	@ zero_extendqisi2
 588 0036 002B     		cmp	r3, #0
 589 0038 3FD1     		bne	.L20
 590 003a 04E0     		b	.L21
 591              	.LVL80:
 592              	.L22:
 593              	.LBB19:
 256:LED_task.c    ****     {
 257:LED_task.c    ****         for(int i=0; i<125;i++)
 258:LED_task.c    ****         {
 259:LED_task.c    ****             tableauX[i]=2*i;
 594              		.loc 1 259 0 discriminator 3
 595 003c 5900     		lsls	r1, r3, #1
 596 003e 03AA     		add	r2, sp, #12
ARM GAS  C:\Users\nicpa\AppData\Local\Temp\ccPr5feD.s 			page 16


 597 0040 42F82310 		str	r1, [r2, r3, lsl #2]
 257:LED_task.c    ****         {
 598              		.loc 1 257 0 discriminator 3
 599 0044 0133     		adds	r3, r3, #1
 600              	.LVL81:
 601              	.L21:
 257:LED_task.c    ****         {
 602              		.loc 1 257 0 is_stmt 0 discriminator 1
 603 0046 7C2B     		cmp	r3, #124
 604 0048 F8DD     		ble	.L22
 605 004a 0025     		movs	r5, #0
 606 004c 4FF4FA73 		mov	r3, #500
 607              	.LVL82:
 608 0050 31E0     		b	.L23
 609              	.LVL83:
 610              	.L24:
 611              	.LBE19:
 612              	.LBB20:
 613              	.LBB21:
 260:LED_task.c    ****         }
 261:LED_task.c    ****     
 262:LED_task.c    ****         for(int i=0; i<124;i++)
 263:LED_task.c    ****         {
 264:LED_task.c    ****             int Y0 = (int)(150-((vecteur[j]-(DC-(AC)))*150)/(2*AC));
 614              		.loc 1 264 0 is_stmt 1 discriminator 3
 615 0052 06EB8302 		add	r2, r6, r3, lsl #2
 616 0056 D2ED006A 		vldr.32	s13, [r2]
 617 005a 38EEC85A 		vsub.f32	s10, s17, s16
 618 005e 76EEC56A 		vsub.f32	s13, s13, s10
 619 0062 DFED537A 		vldr.32	s15, .L29+4
 620 0066 66EEA76A 		vmul.f32	s13, s13, s15
 621 006a 78EE085A 		vadd.f32	s11, s16, s16
 622 006e 86EEA56A 		vdiv.f32	s12, s13, s11
 623 0072 77EEC66A 		vsub.f32	s13, s15, s12
 624              	.LVL84:
 265:LED_task.c    ****             int Y1 = (int)(150-((vecteur[j+4]-(DC-(AC)))*150)/(2*AC));
 625              		.loc 1 265 0 discriminator 3
 626 0076 1C1D     		adds	r4, r3, #4
 627 0078 06EB8403 		add	r3, r6, r4, lsl #2
 628              	.LVL85:
 629 007c 93ED007A 		vldr.32	s14, [r3]
 630 0080 37EE457A 		vsub.f32	s14, s14, s10
 631 0084 27EE277A 		vmul.f32	s14, s14, s15
 632 0088 87EE256A 		vdiv.f32	s12, s14, s11
 633 008c 77EEC67A 		vsub.f32	s15, s15, s12
 634              	.LVL86:
 266:LED_task.c    ****             int X0 = tableauX[i]+7;
 635              		.loc 1 266 0 discriminator 3
 636 0090 03AB     		add	r3, sp, #12
 637 0092 53F82500 		ldr	r0, [r3, r5, lsl #2]
 638              	.LVL87:
 267:LED_task.c    ****             int X1 = tableauX[i+1]+7;
 639              		.loc 1 267 0 discriminator 3
 640 0096 0135     		adds	r5, r5, #1
 641              	.LVL88:
 642 0098 53F82520 		ldr	r2, [r3, r5, lsl #2]
 643              	.LVL89:
ARM GAS  C:\Users\nicpa\AppData\Local\Temp\ccPr5feD.s 			page 17


 268:LED_task.c    ****             GUI_DrawLine(X0, Y0, X1, Y1);
 644              		.loc 1 268 0 discriminator 3
 645 009c FDEEE77A 		vcvt.s32.f32	s15, s15
 646              	.LVL90:
 647 00a0 17EE903A 		vmov	r3, s15	@ int
 648 00a4 0732     		adds	r2, r2, #7
 649              	.LVL91:
 650 00a6 FDEEE67A 		vcvt.s32.f32	s15, s13
 651              	.LVL92:
 652 00aa 17EE901A 		vmov	r1, s15	@ int
 653 00ae 0730     		adds	r0, r0, #7
 654              	.LVL93:
 655 00b0 FFF7FEFF 		bl	GUI_DrawLine
 656              	.LVL94:
 269:LED_task.c    ****             j=j+4;
 657              		.loc 1 269 0 discriminator 3
 658 00b4 2346     		mov	r3, r4
 659              	.LVL95:
 660              	.L23:
 661              	.LBE21:
 262:LED_task.c    ****         {
 662              		.loc 1 262 0 discriminator 1
 663 00b6 7B2D     		cmp	r5, #123
 664 00b8 CBDD     		ble	.L24
 665              	.LVL96:
 666              	.L20:
 667              	.LBE20:
 270:LED_task.c    ****         }
 271:LED_task.c    ****     }
 272:LED_task.c    ****     
 273:LED_task.c    ****     if(alerte && LED_flag)
 668              		.loc 1 273 0
 669 00ba 3E4B     		ldr	r3, .L29+8
 670 00bc 1B78     		ldrb	r3, [r3]	@ zero_extendqisi2
 671 00be B3B1     		cbz	r3, .L25
 672              		.loc 1 273 0 is_stmt 0 discriminator 1
 673 00c0 3A4B     		ldr	r3, .L29
 674 00c2 1B78     		ldrb	r3, [r3]	@ zero_extendqisi2
 675 00c4 9BB1     		cbz	r3, .L25
 274:LED_task.c    ****     {
 275:LED_task.c    ****         GUI_DrawLine(75, 75, 200, 75);
 676              		.loc 1 275 0 is_stmt 1
 677 00c6 4B23     		movs	r3, #75
 678 00c8 C822     		movs	r2, #200
 679 00ca 1946     		mov	r1, r3
 680 00cc 1846     		mov	r0, r3
 681 00ce FFF7FEFF 		bl	GUI_DrawLine
 682              	.LVL97:
 276:LED_task.c    ****         GUI_SetFont(GUI_FONT_16B_1);
 683              		.loc 1 276 0
 684 00d2 3948     		ldr	r0, .L29+12
 685 00d4 FFF7FEFF 		bl	GUI_SetFont
 686              	.LVL98:
 277:LED_task.c    ****         GUI_DispStringAt("Movement detected", 75 ,55);   
 687              		.loc 1 277 0
 688 00d8 3722     		movs	r2, #55
 689 00da 4B21     		movs	r1, #75
ARM GAS  C:\Users\nicpa\AppData\Local\Temp\ccPr5feD.s 			page 18


 690 00dc 3748     		ldr	r0, .L29+16
 691 00de FFF7FEFF 		bl	GUI_DispStringAt
 692              	.LVL99:
 693              	.LBB22:
 694              	.LBB23:
 695              		.file 2 "Generated_Source\\PSoC6\\pdl\\drivers/peripheral/gpio/cy_gpio.h"
   1:Generated_Source\PSoC6\pdl\drivers/peripheral/gpio/cy_gpio.h **** /***************************************************************************//**
   2:Generated_Source\PSoC6\pdl\drivers/peripheral/gpio/cy_gpio.h **** * \file cy_gpio.h
   3:Generated_Source\PSoC6\pdl\drivers/peripheral/gpio/cy_gpio.h **** * \version 1.20
   4:Generated_Source\PSoC6\pdl\drivers/peripheral/gpio/cy_gpio.h **** *
   5:Generated_Source\PSoC6\pdl\drivers/peripheral/gpio/cy_gpio.h **** * Provides an API declaration of the GPIO driver
   6:Generated_Source\PSoC6\pdl\drivers/peripheral/gpio/cy_gpio.h **** *
   7:Generated_Source\PSoC6\pdl\drivers/peripheral/gpio/cy_gpio.h **** ********************************************************************************
   8:Generated_Source\PSoC6\pdl\drivers/peripheral/gpio/cy_gpio.h **** * \copyright
   9:Generated_Source\PSoC6\pdl\drivers/peripheral/gpio/cy_gpio.h **** * Copyright 2016-2018, Cypress Semiconductor Corporation. All rights reserved.
  10:Generated_Source\PSoC6\pdl\drivers/peripheral/gpio/cy_gpio.h **** * You may use this file only in accordance with the license, terms, conditions,
  11:Generated_Source\PSoC6\pdl\drivers/peripheral/gpio/cy_gpio.h **** * disclaimers, and limitations in the end user license agreement accompanying
  12:Generated_Source\PSoC6\pdl\drivers/peripheral/gpio/cy_gpio.h **** * the software package with which this file was provided.
  13:Generated_Source\PSoC6\pdl\drivers/peripheral/gpio/cy_gpio.h **** *******************************************************************************/
  14:Generated_Source\PSoC6\pdl\drivers/peripheral/gpio/cy_gpio.h **** 
  15:Generated_Source\PSoC6\pdl\drivers/peripheral/gpio/cy_gpio.h **** /**
  16:Generated_Source\PSoC6\pdl\drivers/peripheral/gpio/cy_gpio.h **** * \addtogroup group_gpio
  17:Generated_Source\PSoC6\pdl\drivers/peripheral/gpio/cy_gpio.h **** * \{
  18:Generated_Source\PSoC6\pdl\drivers/peripheral/gpio/cy_gpio.h **** * The GPIO driver provides an API to configure and access device Input/Output pins.
  19:Generated_Source\PSoC6\pdl\drivers/peripheral/gpio/cy_gpio.h **** *
  20:Generated_Source\PSoC6\pdl\drivers/peripheral/gpio/cy_gpio.h **** * The functions and other declarations used in this driver are in cy_gpio.h. 
  21:Generated_Source\PSoC6\pdl\drivers/peripheral/gpio/cy_gpio.h **** * You can include cy_pdl.h (ModusToolbox only) to get access to all functions 
  22:Generated_Source\PSoC6\pdl\drivers/peripheral/gpio/cy_gpio.h **** * and declarations in the PDL.
  23:Generated_Source\PSoC6\pdl\drivers/peripheral/gpio/cy_gpio.h **** *
  24:Generated_Source\PSoC6\pdl\drivers/peripheral/gpio/cy_gpio.h **** * IO pins include all general purpose types such as GPIO, SIO, HSIO, AUXIO, and
  25:Generated_Source\PSoC6\pdl\drivers/peripheral/gpio/cy_gpio.h **** * their variants.
  26:Generated_Source\PSoC6\pdl\drivers/peripheral/gpio/cy_gpio.h **** *
  27:Generated_Source\PSoC6\pdl\drivers/peripheral/gpio/cy_gpio.h **** * Initialization can be performed either at the port level or by configuring the
  28:Generated_Source\PSoC6\pdl\drivers/peripheral/gpio/cy_gpio.h **** * individual pins. For efficient use of code space, port
  29:Generated_Source\PSoC6\pdl\drivers/peripheral/gpio/cy_gpio.h **** * configuration should be used in the field. Refer to the product device header files 
  30:Generated_Source\PSoC6\pdl\drivers/peripheral/gpio/cy_gpio.h **** * for the list of supported ports and pins.
  31:Generated_Source\PSoC6\pdl\drivers/peripheral/gpio/cy_gpio.h **** * 
  32:Generated_Source\PSoC6\pdl\drivers/peripheral/gpio/cy_gpio.h **** * - Single pin configuration is performed by using \ref Cy_GPIO_Pin_FastInit 
  33:Generated_Source\PSoC6\pdl\drivers/peripheral/gpio/cy_gpio.h **** *   (provide specific values) or \ref Cy_GPIO_Pin_Init (provide a filled
  34:Generated_Source\PSoC6\pdl\drivers/peripheral/gpio/cy_gpio.h **** *   cy_stc_gpio_pin_config_t structure).
  35:Generated_Source\PSoC6\pdl\drivers/peripheral/gpio/cy_gpio.h **** * - An entire port can be configured using \ref Cy_GPIO_Port_Init. Provide a filled 
  36:Generated_Source\PSoC6\pdl\drivers/peripheral/gpio/cy_gpio.h **** *   cy_stc_gpio_prt_config_t structure. The values in the structure are 
  37:Generated_Source\PSoC6\pdl\drivers/peripheral/gpio/cy_gpio.h **** *   bitfields representing the desired value for each pin in the port.
  38:Generated_Source\PSoC6\pdl\drivers/peripheral/gpio/cy_gpio.h **** * - Pin configuration and management is based on the port address and pin number.
  39:Generated_Source\PSoC6\pdl\drivers/peripheral/gpio/cy_gpio.h **** *   \ref Cy_GPIO_PortToAddr function can optionally be used to calculate the port
  40:Generated_Source\PSoC6\pdl\drivers/peripheral/gpio/cy_gpio.h **** *   address from the port number at run-time.
  41:Generated_Source\PSoC6\pdl\drivers/peripheral/gpio/cy_gpio.h **** *
  42:Generated_Source\PSoC6\pdl\drivers/peripheral/gpio/cy_gpio.h **** * Once the pin/port initialization is complete, each pin can be accessed by 
  43:Generated_Source\PSoC6\pdl\drivers/peripheral/gpio/cy_gpio.h **** * specifying the port (GPIO_PRT_Type) and the pin (0-7) in the provided API 
  44:Generated_Source\PSoC6\pdl\drivers/peripheral/gpio/cy_gpio.h **** * functions.
  45:Generated_Source\PSoC6\pdl\drivers/peripheral/gpio/cy_gpio.h **** *
  46:Generated_Source\PSoC6\pdl\drivers/peripheral/gpio/cy_gpio.h **** * \section group_gpio_configuration Configuration Considerations
  47:Generated_Source\PSoC6\pdl\drivers/peripheral/gpio/cy_gpio.h **** *
  48:Generated_Source\PSoC6\pdl\drivers/peripheral/gpio/cy_gpio.h **** * 1. Pin multiplexing is controlled through the High-Speed IO Matrix (HSIOM) selection.
  49:Generated_Source\PSoC6\pdl\drivers/peripheral/gpio/cy_gpio.h **** *    This allows the pin to connect to signal sources/sinks throughout the device,
  50:Generated_Source\PSoC6\pdl\drivers/peripheral/gpio/cy_gpio.h **** *    as defined by the pin HSIOM selection options (en_hsiom_sel_t).
  51:Generated_Source\PSoC6\pdl\drivers/peripheral/gpio/cy_gpio.h **** * 2. All pins are initialized to High-Z drive mode with HSIOM connected to CPU (SW
ARM GAS  C:\Users\nicpa\AppData\Local\Temp\ccPr5feD.s 			page 19


  52:Generated_Source\PSoC6\pdl\drivers/peripheral/gpio/cy_gpio.h **** *    control digital pin only) at Power-On-Reset(POR).
  53:Generated_Source\PSoC6\pdl\drivers/peripheral/gpio/cy_gpio.h **** * 3. Some API functions perform read-modify-write operations on shared port
  54:Generated_Source\PSoC6\pdl\drivers/peripheral/gpio/cy_gpio.h **** *    registers. These functions are not thread safe and care must be taken when
  55:Generated_Source\PSoC6\pdl\drivers/peripheral/gpio/cy_gpio.h **** *    called by the application.
  56:Generated_Source\PSoC6\pdl\drivers/peripheral/gpio/cy_gpio.h **** * 4. Digital input buffer provides a high-impedance buffer for the external 
  57:Generated_Source\PSoC6\pdl\drivers/peripheral/gpio/cy_gpio.h **** *    digital input. The input buffer is connected to the HSIOM for routing to 
  58:Generated_Source\PSoC6\pdl\drivers/peripheral/gpio/cy_gpio.h **** *    the CPU port registers and selected peripheral. Enabling the input 
  59:Generated_Source\PSoC6\pdl\drivers/peripheral/gpio/cy_gpio.h **** *    buffer provides possibility to read the pin state via the CPU.
  60:Generated_Source\PSoC6\pdl\drivers/peripheral/gpio/cy_gpio.h **** *    If pin is connected to an analog signal, the input buffer should be 
  61:Generated_Source\PSoC6\pdl\drivers/peripheral/gpio/cy_gpio.h **** *    disabled to avoid crowbar currents. For more information refer to device 
  62:Generated_Source\PSoC6\pdl\drivers/peripheral/gpio/cy_gpio.h **** *    TRM and the device datasheet.
  63:Generated_Source\PSoC6\pdl\drivers/peripheral/gpio/cy_gpio.h **** *
  64:Generated_Source\PSoC6\pdl\drivers/peripheral/gpio/cy_gpio.h **** * Multiple pins on a port can be updated using direct port register writes with an
  65:Generated_Source\PSoC6\pdl\drivers/peripheral/gpio/cy_gpio.h **** * appropriate port mask. An example is shown below, highlighting the different ways of 
  66:Generated_Source\PSoC6\pdl\drivers/peripheral/gpio/cy_gpio.h **** * configuring Port 1 pins using:
  67:Generated_Source\PSoC6\pdl\drivers/peripheral/gpio/cy_gpio.h **** * 
  68:Generated_Source\PSoC6\pdl\drivers/peripheral/gpio/cy_gpio.h **** * - Port output data register
  69:Generated_Source\PSoC6\pdl\drivers/peripheral/gpio/cy_gpio.h **** * - Port output data set register
  70:Generated_Source\PSoC6\pdl\drivers/peripheral/gpio/cy_gpio.h **** * - Port output data clear register
  71:Generated_Source\PSoC6\pdl\drivers/peripheral/gpio/cy_gpio.h **** *
  72:Generated_Source\PSoC6\pdl\drivers/peripheral/gpio/cy_gpio.h **** * \snippet gpio/gpio_v1_10_sut_01.cydsn/main_cm4.c Cy_GPIO_Snippet
  73:Generated_Source\PSoC6\pdl\drivers/peripheral/gpio/cy_gpio.h **** *
  74:Generated_Source\PSoC6\pdl\drivers/peripheral/gpio/cy_gpio.h **** * \section group_gpio_more_information More Information
  75:Generated_Source\PSoC6\pdl\drivers/peripheral/gpio/cy_gpio.h **** *
  76:Generated_Source\PSoC6\pdl\drivers/peripheral/gpio/cy_gpio.h **** * Refer to the technical reference manual (TRM) and the device datasheet.
  77:Generated_Source\PSoC6\pdl\drivers/peripheral/gpio/cy_gpio.h **** *
  78:Generated_Source\PSoC6\pdl\drivers/peripheral/gpio/cy_gpio.h **** * \section group_gpio_MISRA MISRA-C Compliance
  79:Generated_Source\PSoC6\pdl\drivers/peripheral/gpio/cy_gpio.h **** * The GPIO driver has the following specific deviations:
  80:Generated_Source\PSoC6\pdl\drivers/peripheral/gpio/cy_gpio.h **** *
  81:Generated_Source\PSoC6\pdl\drivers/peripheral/gpio/cy_gpio.h **** * <table class="doxtable">
  82:Generated_Source\PSoC6\pdl\drivers/peripheral/gpio/cy_gpio.h **** *   <tr>
  83:Generated_Source\PSoC6\pdl\drivers/peripheral/gpio/cy_gpio.h **** *     <th>MISRA Rule</th>
  84:Generated_Source\PSoC6\pdl\drivers/peripheral/gpio/cy_gpio.h **** *     <th>Rule Class (Required/Advisory)</th>
  85:Generated_Source\PSoC6\pdl\drivers/peripheral/gpio/cy_gpio.h **** *     <th>Rule Description</th>
  86:Generated_Source\PSoC6\pdl\drivers/peripheral/gpio/cy_gpio.h **** *     <th>Description of Deviation(s)</th>
  87:Generated_Source\PSoC6\pdl\drivers/peripheral/gpio/cy_gpio.h **** *   </tr>
  88:Generated_Source\PSoC6\pdl\drivers/peripheral/gpio/cy_gpio.h **** *   <tr>
  89:Generated_Source\PSoC6\pdl\drivers/peripheral/gpio/cy_gpio.h **** *     <td>11.4</td>
  90:Generated_Source\PSoC6\pdl\drivers/peripheral/gpio/cy_gpio.h **** *     <td>A</td>
  91:Generated_Source\PSoC6\pdl\drivers/peripheral/gpio/cy_gpio.h **** *     <td>A cast should not be performed between a pointer to object type and
  92:Generated_Source\PSoC6\pdl\drivers/peripheral/gpio/cy_gpio.h **** *         a different pointer to object type.</td>
  93:Generated_Source\PSoC6\pdl\drivers/peripheral/gpio/cy_gpio.h **** *     <td> This code is safe because the elements of both GPIO_PRT_V1_Type and GPIO_PRT_V2_Type 
  94:Generated_Source\PSoC6\pdl\drivers/peripheral/gpio/cy_gpio.h **** *          types have identical alignment.</td>
  95:Generated_Source\PSoC6\pdl\drivers/peripheral/gpio/cy_gpio.h **** *   </tr>
  96:Generated_Source\PSoC6\pdl\drivers/peripheral/gpio/cy_gpio.h **** *   <tr>
  97:Generated_Source\PSoC6\pdl\drivers/peripheral/gpio/cy_gpio.h **** *     <td>16.7</td>
  98:Generated_Source\PSoC6\pdl\drivers/peripheral/gpio/cy_gpio.h **** *     <td>A</td>
  99:Generated_Source\PSoC6\pdl\drivers/peripheral/gpio/cy_gpio.h **** *     <td>A pointer parameter in a function prototype should be declared as pointer 
 100:Generated_Source\PSoC6\pdl\drivers/peripheral/gpio/cy_gpio.h **** *         to const if the pointer is not used to modify the addressed object.</td>
 101:Generated_Source\PSoC6\pdl\drivers/peripheral/gpio/cy_gpio.h **** *     <td>The objects pointed to by the base addresses of the GPIO port are not always modified.
 102:Generated_Source\PSoC6\pdl\drivers/peripheral/gpio/cy_gpio.h **** *         While a const qualifier can be used in select scenarios, it brings little benefit
 103:Generated_Source\PSoC6\pdl\drivers/peripheral/gpio/cy_gpio.h **** *         in adding this to the affected functions. </td>
 104:Generated_Source\PSoC6\pdl\drivers/peripheral/gpio/cy_gpio.h **** *   </tr>
 105:Generated_Source\PSoC6\pdl\drivers/peripheral/gpio/cy_gpio.h **** * </table>
 106:Generated_Source\PSoC6\pdl\drivers/peripheral/gpio/cy_gpio.h **** *
 107:Generated_Source\PSoC6\pdl\drivers/peripheral/gpio/cy_gpio.h **** * \section group_gpio_changelog Changelog
 108:Generated_Source\PSoC6\pdl\drivers/peripheral/gpio/cy_gpio.h **** * <table class="doxtable">
ARM GAS  C:\Users\nicpa\AppData\Local\Temp\ccPr5feD.s 			page 20


 109:Generated_Source\PSoC6\pdl\drivers/peripheral/gpio/cy_gpio.h **** *   <tr><th>Version</th><th>Changes</th><th>Reason for Change</th></tr>
 110:Generated_Source\PSoC6\pdl\drivers/peripheral/gpio/cy_gpio.h **** *   <tr>
 111:Generated_Source\PSoC6\pdl\drivers/peripheral/gpio/cy_gpio.h **** *     <td rowspan="3">1.20</td>
 112:Generated_Source\PSoC6\pdl\drivers/peripheral/gpio/cy_gpio.h **** *     <td>Flattened the organization of the driver source code into the single source directory and
 113:Generated_Source\PSoC6\pdl\drivers/peripheral/gpio/cy_gpio.h **** *     <td>Driver library directory-structure simplification.</td>
 114:Generated_Source\PSoC6\pdl\drivers/peripheral/gpio/cy_gpio.h **** *   </tr>
 115:Generated_Source\PSoC6\pdl\drivers/peripheral/gpio/cy_gpio.h **** *   <tr>
 116:Generated_Source\PSoC6\pdl\drivers/peripheral/gpio/cy_gpio.h **** *     <td>Added the functions for configuring the AMux bus splitter switch cells:
 117:Generated_Source\PSoC6\pdl\drivers/peripheral/gpio/cy_gpio.h **** *     - \ref Cy_GPIO_SetAmuxSplit
 118:Generated_Source\PSoC6\pdl\drivers/peripheral/gpio/cy_gpio.h **** *     - \ref Cy_GPIO_GetAmuxSplit
 119:Generated_Source\PSoC6\pdl\drivers/peripheral/gpio/cy_gpio.h **** *     </td>
 120:Generated_Source\PSoC6\pdl\drivers/peripheral/gpio/cy_gpio.h **** *     <td>Added a new functionality related to AMux bus.</td>
 121:Generated_Source\PSoC6\pdl\drivers/peripheral/gpio/cy_gpio.h **** *   </tr>
 122:Generated_Source\PSoC6\pdl\drivers/peripheral/gpio/cy_gpio.h **** *   <tr>
 123:Generated_Source\PSoC6\pdl\drivers/peripheral/gpio/cy_gpio.h **** *     <td>Added register access layer. Use register access macros instead
 124:Generated_Source\PSoC6\pdl\drivers/peripheral/gpio/cy_gpio.h **** *         of direct register access using dereferenced pointers.</td>
 125:Generated_Source\PSoC6\pdl\drivers/peripheral/gpio/cy_gpio.h **** *     <td>Makes register access device-independent, so that the PDL does 
 126:Generated_Source\PSoC6\pdl\drivers/peripheral/gpio/cy_gpio.h **** *         not need to be recompiled for each supported part number.</td>
 127:Generated_Source\PSoC6\pdl\drivers/peripheral/gpio/cy_gpio.h **** *   </tr>
 128:Generated_Source\PSoC6\pdl\drivers/peripheral/gpio/cy_gpio.h **** *   <tr>
 129:Generated_Source\PSoC6\pdl\drivers/peripheral/gpio/cy_gpio.h **** *     <td>1.10.1</td>
 130:Generated_Source\PSoC6\pdl\drivers/peripheral/gpio/cy_gpio.h **** *     <td>Updated description for the functions: \ref Cy_GPIO_GetInterruptStatus, 
 131:Generated_Source\PSoC6\pdl\drivers/peripheral/gpio/cy_gpio.h **** *         \ref Cy_GPIO_GetInterruptMask, \ref Cy_GPIO_GetInterruptStatusMasked.
 132:Generated_Source\PSoC6\pdl\drivers/peripheral/gpio/cy_gpio.h **** *
 133:Generated_Source\PSoC6\pdl\drivers/peripheral/gpio/cy_gpio.h **** *         Minor documentation edits.
 134:Generated_Source\PSoC6\pdl\drivers/peripheral/gpio/cy_gpio.h **** *     </td>
 135:Generated_Source\PSoC6\pdl\drivers/peripheral/gpio/cy_gpio.h **** *     <td>Documentation update and clarification</td>
 136:Generated_Source\PSoC6\pdl\drivers/peripheral/gpio/cy_gpio.h **** *   </tr>
 137:Generated_Source\PSoC6\pdl\drivers/peripheral/gpio/cy_gpio.h **** *   <tr>
 138:Generated_Source\PSoC6\pdl\drivers/peripheral/gpio/cy_gpio.h **** *     <td>1.10</td>
 139:Generated_Source\PSoC6\pdl\drivers/peripheral/gpio/cy_gpio.h **** *     <td>Added input parameter validation to the API functions</td>
 140:Generated_Source\PSoC6\pdl\drivers/peripheral/gpio/cy_gpio.h **** *     <td></td>
 141:Generated_Source\PSoC6\pdl\drivers/peripheral/gpio/cy_gpio.h **** *   </tr>
 142:Generated_Source\PSoC6\pdl\drivers/peripheral/gpio/cy_gpio.h **** *   <tr>
 143:Generated_Source\PSoC6\pdl\drivers/peripheral/gpio/cy_gpio.h **** *     <td>1.0</td>
 144:Generated_Source\PSoC6\pdl\drivers/peripheral/gpio/cy_gpio.h **** *     <td>Initial version</td>
 145:Generated_Source\PSoC6\pdl\drivers/peripheral/gpio/cy_gpio.h **** *     <td></td>
 146:Generated_Source\PSoC6\pdl\drivers/peripheral/gpio/cy_gpio.h **** *   </tr>
 147:Generated_Source\PSoC6\pdl\drivers/peripheral/gpio/cy_gpio.h **** * </table>
 148:Generated_Source\PSoC6\pdl\drivers/peripheral/gpio/cy_gpio.h **** *
 149:Generated_Source\PSoC6\pdl\drivers/peripheral/gpio/cy_gpio.h **** * \defgroup group_gpio_macros Macros
 150:Generated_Source\PSoC6\pdl\drivers/peripheral/gpio/cy_gpio.h **** * \defgroup group_gpio_functions Functions
 151:Generated_Source\PSoC6\pdl\drivers/peripheral/gpio/cy_gpio.h **** * \{
 152:Generated_Source\PSoC6\pdl\drivers/peripheral/gpio/cy_gpio.h **** *   \defgroup group_gpio_functions_init       Initialization Functions
 153:Generated_Source\PSoC6\pdl\drivers/peripheral/gpio/cy_gpio.h **** *   \defgroup group_gpio_functions_gpio       GPIO Functions
 154:Generated_Source\PSoC6\pdl\drivers/peripheral/gpio/cy_gpio.h **** *   \defgroup group_gpio_functions_sio        SIO Functions
 155:Generated_Source\PSoC6\pdl\drivers/peripheral/gpio/cy_gpio.h **** *   \defgroup group_gpio_functions_interrupt  Port Interrupt Functions
 156:Generated_Source\PSoC6\pdl\drivers/peripheral/gpio/cy_gpio.h **** * \}
 157:Generated_Source\PSoC6\pdl\drivers/peripheral/gpio/cy_gpio.h **** * \defgroup group_gpio_data_structures Data Structures
 158:Generated_Source\PSoC6\pdl\drivers/peripheral/gpio/cy_gpio.h **** * \defgroup group_gpio_enums Enumerated Types
 159:Generated_Source\PSoC6\pdl\drivers/peripheral/gpio/cy_gpio.h **** */
 160:Generated_Source\PSoC6\pdl\drivers/peripheral/gpio/cy_gpio.h **** 
 161:Generated_Source\PSoC6\pdl\drivers/peripheral/gpio/cy_gpio.h **** #if !defined(CY_GPIO_H)
 162:Generated_Source\PSoC6\pdl\drivers/peripheral/gpio/cy_gpio.h **** #define CY_GPIO_H
 163:Generated_Source\PSoC6\pdl\drivers/peripheral/gpio/cy_gpio.h **** 
 164:Generated_Source\PSoC6\pdl\drivers/peripheral/gpio/cy_gpio.h **** #include <stddef.h>
 165:Generated_Source\PSoC6\pdl\drivers/peripheral/gpio/cy_gpio.h **** #include "cy_device.h"
ARM GAS  C:\Users\nicpa\AppData\Local\Temp\ccPr5feD.s 			page 21


 166:Generated_Source\PSoC6\pdl\drivers/peripheral/gpio/cy_gpio.h **** #include "cy_device_headers.h"
 167:Generated_Source\PSoC6\pdl\drivers/peripheral/gpio/cy_gpio.h **** #include "cy_syslib.h"
 168:Generated_Source\PSoC6\pdl\drivers/peripheral/gpio/cy_gpio.h **** 
 169:Generated_Source\PSoC6\pdl\drivers/peripheral/gpio/cy_gpio.h **** #if defined(__cplusplus)
 170:Generated_Source\PSoC6\pdl\drivers/peripheral/gpio/cy_gpio.h **** extern "C" {
 171:Generated_Source\PSoC6\pdl\drivers/peripheral/gpio/cy_gpio.h **** #endif
 172:Generated_Source\PSoC6\pdl\drivers/peripheral/gpio/cy_gpio.h **** 
 173:Generated_Source\PSoC6\pdl\drivers/peripheral/gpio/cy_gpio.h **** /** \addtogroup group_gpio_macros
 174:Generated_Source\PSoC6\pdl\drivers/peripheral/gpio/cy_gpio.h **** * \{
 175:Generated_Source\PSoC6\pdl\drivers/peripheral/gpio/cy_gpio.h **** */
 176:Generated_Source\PSoC6\pdl\drivers/peripheral/gpio/cy_gpio.h **** 
 177:Generated_Source\PSoC6\pdl\drivers/peripheral/gpio/cy_gpio.h **** /** Driver major version */
 178:Generated_Source\PSoC6\pdl\drivers/peripheral/gpio/cy_gpio.h **** #define CY_GPIO_DRV_VERSION_MAJOR       1
 179:Generated_Source\PSoC6\pdl\drivers/peripheral/gpio/cy_gpio.h **** 
 180:Generated_Source\PSoC6\pdl\drivers/peripheral/gpio/cy_gpio.h **** /** Driver minor version */
 181:Generated_Source\PSoC6\pdl\drivers/peripheral/gpio/cy_gpio.h **** #define CY_GPIO_DRV_VERSION_MINOR       20
 182:Generated_Source\PSoC6\pdl\drivers/peripheral/gpio/cy_gpio.h **** 
 183:Generated_Source\PSoC6\pdl\drivers/peripheral/gpio/cy_gpio.h **** /** GPIO driver ID */
 184:Generated_Source\PSoC6\pdl\drivers/peripheral/gpio/cy_gpio.h **** #define CY_GPIO_ID CY_PDL_DRV_ID(0x16U)
 185:Generated_Source\PSoC6\pdl\drivers/peripheral/gpio/cy_gpio.h **** 
 186:Generated_Source\PSoC6\pdl\drivers/peripheral/gpio/cy_gpio.h **** /** \} group_gpio_macros */
 187:Generated_Source\PSoC6\pdl\drivers/peripheral/gpio/cy_gpio.h **** 
 188:Generated_Source\PSoC6\pdl\drivers/peripheral/gpio/cy_gpio.h **** 
 189:Generated_Source\PSoC6\pdl\drivers/peripheral/gpio/cy_gpio.h **** /***************************************
 190:Generated_Source\PSoC6\pdl\drivers/peripheral/gpio/cy_gpio.h **** *       Enumerations
 191:Generated_Source\PSoC6\pdl\drivers/peripheral/gpio/cy_gpio.h **** ***************************************/
 192:Generated_Source\PSoC6\pdl\drivers/peripheral/gpio/cy_gpio.h **** /**
 193:Generated_Source\PSoC6\pdl\drivers/peripheral/gpio/cy_gpio.h **** * \addtogroup group_gpio_enums
 194:Generated_Source\PSoC6\pdl\drivers/peripheral/gpio/cy_gpio.h **** * \{
 195:Generated_Source\PSoC6\pdl\drivers/peripheral/gpio/cy_gpio.h **** */
 196:Generated_Source\PSoC6\pdl\drivers/peripheral/gpio/cy_gpio.h **** 
 197:Generated_Source\PSoC6\pdl\drivers/peripheral/gpio/cy_gpio.h **** /** GPIO Driver error codes */
 198:Generated_Source\PSoC6\pdl\drivers/peripheral/gpio/cy_gpio.h **** typedef enum 
 199:Generated_Source\PSoC6\pdl\drivers/peripheral/gpio/cy_gpio.h **** {
 200:Generated_Source\PSoC6\pdl\drivers/peripheral/gpio/cy_gpio.h ****     CY_GPIO_SUCCESS   = 0x00U,                                    /**< Returned successful */
 201:Generated_Source\PSoC6\pdl\drivers/peripheral/gpio/cy_gpio.h ****     CY_GPIO_BAD_PARAM = CY_GPIO_ID | CY_PDL_STATUS_ERROR | 0x01U, /**< Bad parameter was passed */
 202:Generated_Source\PSoC6\pdl\drivers/peripheral/gpio/cy_gpio.h **** } cy_en_gpio_status_t;
 203:Generated_Source\PSoC6\pdl\drivers/peripheral/gpio/cy_gpio.h **** 
 204:Generated_Source\PSoC6\pdl\drivers/peripheral/gpio/cy_gpio.h **** /** AMux switch open/close config */
 205:Generated_Source\PSoC6\pdl\drivers/peripheral/gpio/cy_gpio.h **** typedef enum
 206:Generated_Source\PSoC6\pdl\drivers/peripheral/gpio/cy_gpio.h **** {
 207:Generated_Source\PSoC6\pdl\drivers/peripheral/gpio/cy_gpio.h ****     CY_GPIO_AMUX_OPENALL,   /**< Open ground switch. Open right switch. Open left switch */
 208:Generated_Source\PSoC6\pdl\drivers/peripheral/gpio/cy_gpio.h ****     CY_GPIO_AMUX_L,         /**< Open ground switch. Open right switch. Close left switch */
 209:Generated_Source\PSoC6\pdl\drivers/peripheral/gpio/cy_gpio.h ****     CY_GPIO_AMUX_R,         /**< Open ground switch. Close right switch. Open left switch */
 210:Generated_Source\PSoC6\pdl\drivers/peripheral/gpio/cy_gpio.h ****     CY_GPIO_AMUX_LR,        /**< Open ground switch. Close right switch. Close left switch */
 211:Generated_Source\PSoC6\pdl\drivers/peripheral/gpio/cy_gpio.h ****     CY_GPIO_AMUX_G,         /**< Close ground switch. Open right switch. Open left switch */
 212:Generated_Source\PSoC6\pdl\drivers/peripheral/gpio/cy_gpio.h ****     CY_GPIO_AMUX_GL,        /**< Close ground switch. Open right switch. Close left switch */
 213:Generated_Source\PSoC6\pdl\drivers/peripheral/gpio/cy_gpio.h ****     CY_GPIO_AMUX_GR,        /**< Close ground switch. Close right switch. Open left switch */
 214:Generated_Source\PSoC6\pdl\drivers/peripheral/gpio/cy_gpio.h ****     CY_GPIO_AMUX_GLR,       /**< Close ground switch. Close right switch. Close left switch */
 215:Generated_Source\PSoC6\pdl\drivers/peripheral/gpio/cy_gpio.h **** }cy_en_gpio_amuxconnect_t;
 216:Generated_Source\PSoC6\pdl\drivers/peripheral/gpio/cy_gpio.h **** 
 217:Generated_Source\PSoC6\pdl\drivers/peripheral/gpio/cy_gpio.h **** /**
 218:Generated_Source\PSoC6\pdl\drivers/peripheral/gpio/cy_gpio.h **** * AMux Bus selection
 219:Generated_Source\PSoC6\pdl\drivers/peripheral/gpio/cy_gpio.h **** */
 220:Generated_Source\PSoC6\pdl\drivers/peripheral/gpio/cy_gpio.h **** typedef enum
 221:Generated_Source\PSoC6\pdl\drivers/peripheral/gpio/cy_gpio.h **** {
 222:Generated_Source\PSoC6\pdl\drivers/peripheral/gpio/cy_gpio.h ****     CY_GPIO_AMUXBUSA,       /**< AMuxBus A */
ARM GAS  C:\Users\nicpa\AppData\Local\Temp\ccPr5feD.s 			page 22


 223:Generated_Source\PSoC6\pdl\drivers/peripheral/gpio/cy_gpio.h ****     CY_GPIO_AMUXBUSB        /**< AMuxBus B */
 224:Generated_Source\PSoC6\pdl\drivers/peripheral/gpio/cy_gpio.h **** }cy_en_gpio_amuxselect_t;
 225:Generated_Source\PSoC6\pdl\drivers/peripheral/gpio/cy_gpio.h **** 
 226:Generated_Source\PSoC6\pdl\drivers/peripheral/gpio/cy_gpio.h **** /** \} group_gpio_enums */
 227:Generated_Source\PSoC6\pdl\drivers/peripheral/gpio/cy_gpio.h **** 
 228:Generated_Source\PSoC6\pdl\drivers/peripheral/gpio/cy_gpio.h **** 
 229:Generated_Source\PSoC6\pdl\drivers/peripheral/gpio/cy_gpio.h **** /***************************************
 230:Generated_Source\PSoC6\pdl\drivers/peripheral/gpio/cy_gpio.h **** *       Configuration Structures
 231:Generated_Source\PSoC6\pdl\drivers/peripheral/gpio/cy_gpio.h **** ***************************************/
 232:Generated_Source\PSoC6\pdl\drivers/peripheral/gpio/cy_gpio.h **** 
 233:Generated_Source\PSoC6\pdl\drivers/peripheral/gpio/cy_gpio.h **** /**
 234:Generated_Source\PSoC6\pdl\drivers/peripheral/gpio/cy_gpio.h **** * \addtogroup group_gpio_data_structures
 235:Generated_Source\PSoC6\pdl\drivers/peripheral/gpio/cy_gpio.h **** * \{
 236:Generated_Source\PSoC6\pdl\drivers/peripheral/gpio/cy_gpio.h **** */
 237:Generated_Source\PSoC6\pdl\drivers/peripheral/gpio/cy_gpio.h **** 
 238:Generated_Source\PSoC6\pdl\drivers/peripheral/gpio/cy_gpio.h **** /** This structure is used to initialize a port of GPIO pins */
 239:Generated_Source\PSoC6\pdl\drivers/peripheral/gpio/cy_gpio.h **** typedef struct 
 240:Generated_Source\PSoC6\pdl\drivers/peripheral/gpio/cy_gpio.h **** {
 241:Generated_Source\PSoC6\pdl\drivers/peripheral/gpio/cy_gpio.h ****     uint32_t out;           /**< Initial output data for the IO pins in the port */
 242:Generated_Source\PSoC6\pdl\drivers/peripheral/gpio/cy_gpio.h ****     uint32_t intrMask;      /**< Interrupt enable mask for the port interrupt */
 243:Generated_Source\PSoC6\pdl\drivers/peripheral/gpio/cy_gpio.h ****     uint32_t intrCfg;       /**< Port pin interrupt edge detection configuration */
 244:Generated_Source\PSoC6\pdl\drivers/peripheral/gpio/cy_gpio.h ****     uint32_t cfg;           /**< Port pin drive modes and input buffer enable configuration */
 245:Generated_Source\PSoC6\pdl\drivers/peripheral/gpio/cy_gpio.h ****     uint32_t cfgIn;         /**< Port pin input buffer configuration */
 246:Generated_Source\PSoC6\pdl\drivers/peripheral/gpio/cy_gpio.h ****     uint32_t cfgOut;        /**< Port pin output buffer configuration */
 247:Generated_Source\PSoC6\pdl\drivers/peripheral/gpio/cy_gpio.h ****     uint32_t cfgSIO;        /**< Port SIO pins configuration */
 248:Generated_Source\PSoC6\pdl\drivers/peripheral/gpio/cy_gpio.h ****     uint32_t sel0Active;    /**< HSIOM selection for port pins 0,1,2,3 */
 249:Generated_Source\PSoC6\pdl\drivers/peripheral/gpio/cy_gpio.h ****     uint32_t sel1Active;    /**< HSIOM selection for port pins 4,5,6,7 */
 250:Generated_Source\PSoC6\pdl\drivers/peripheral/gpio/cy_gpio.h **** } cy_stc_gpio_prt_config_t;
 251:Generated_Source\PSoC6\pdl\drivers/peripheral/gpio/cy_gpio.h **** 
 252:Generated_Source\PSoC6\pdl\drivers/peripheral/gpio/cy_gpio.h **** /** This structure is used to initialize a single GPIO pin */
 253:Generated_Source\PSoC6\pdl\drivers/peripheral/gpio/cy_gpio.h **** typedef struct
 254:Generated_Source\PSoC6\pdl\drivers/peripheral/gpio/cy_gpio.h **** {
 255:Generated_Source\PSoC6\pdl\drivers/peripheral/gpio/cy_gpio.h ****     uint32_t outVal;         /**< Pin output state */
 256:Generated_Source\PSoC6\pdl\drivers/peripheral/gpio/cy_gpio.h ****     uint32_t driveMode;      /**< Drive mode */
 257:Generated_Source\PSoC6\pdl\drivers/peripheral/gpio/cy_gpio.h ****     en_hsiom_sel_t hsiom;    /**< HSIOM selection */
 258:Generated_Source\PSoC6\pdl\drivers/peripheral/gpio/cy_gpio.h ****     uint32_t intEdge;        /**< Interrupt Edge type */
 259:Generated_Source\PSoC6\pdl\drivers/peripheral/gpio/cy_gpio.h ****     uint32_t intMask;        /**< Interrupt enable mask */
 260:Generated_Source\PSoC6\pdl\drivers/peripheral/gpio/cy_gpio.h ****     uint32_t vtrip;          /**< Input buffer voltage trip type */
 261:Generated_Source\PSoC6\pdl\drivers/peripheral/gpio/cy_gpio.h ****     uint32_t slewRate;       /**< Output buffer slew rate */
 262:Generated_Source\PSoC6\pdl\drivers/peripheral/gpio/cy_gpio.h ****     uint32_t driveSel;       /**< Drive strength */
 263:Generated_Source\PSoC6\pdl\drivers/peripheral/gpio/cy_gpio.h ****     uint32_t vregEn;         /**< SIO pair output buffer mode */
 264:Generated_Source\PSoC6\pdl\drivers/peripheral/gpio/cy_gpio.h ****     uint32_t ibufMode;       /**< SIO pair input buffer mode */
 265:Generated_Source\PSoC6\pdl\drivers/peripheral/gpio/cy_gpio.h ****     uint32_t vtripSel;       /**< SIO pair input buffer trip point */
 266:Generated_Source\PSoC6\pdl\drivers/peripheral/gpio/cy_gpio.h ****     uint32_t vrefSel;        /**< SIO pair reference voltage for input buffer trip point */
 267:Generated_Source\PSoC6\pdl\drivers/peripheral/gpio/cy_gpio.h ****     uint32_t vohSel;         /**< SIO pair regulated voltage output level */
 268:Generated_Source\PSoC6\pdl\drivers/peripheral/gpio/cy_gpio.h **** } cy_stc_gpio_pin_config_t;
 269:Generated_Source\PSoC6\pdl\drivers/peripheral/gpio/cy_gpio.h **** 
 270:Generated_Source\PSoC6\pdl\drivers/peripheral/gpio/cy_gpio.h **** /** \} group_gpio_data_structures */
 271:Generated_Source\PSoC6\pdl\drivers/peripheral/gpio/cy_gpio.h **** 
 272:Generated_Source\PSoC6\pdl\drivers/peripheral/gpio/cy_gpio.h **** /***************************************
 273:Generated_Source\PSoC6\pdl\drivers/peripheral/gpio/cy_gpio.h **** *        Constants
 274:Generated_Source\PSoC6\pdl\drivers/peripheral/gpio/cy_gpio.h **** ***************************************/
 275:Generated_Source\PSoC6\pdl\drivers/peripheral/gpio/cy_gpio.h **** 
 276:Generated_Source\PSoC6\pdl\drivers/peripheral/gpio/cy_gpio.h **** /** \cond INTERNAL */
 277:Generated_Source\PSoC6\pdl\drivers/peripheral/gpio/cy_gpio.h **** 
 278:Generated_Source\PSoC6\pdl\drivers/peripheral/gpio/cy_gpio.h **** /* General Constants */
 279:Generated_Source\PSoC6\pdl\drivers/peripheral/gpio/cy_gpio.h **** #define CY_GPIO_PRT_HALF                       (4UL)      /**< Half-way point of a GPIO port */
ARM GAS  C:\Users\nicpa\AppData\Local\Temp\ccPr5feD.s 			page 23


 280:Generated_Source\PSoC6\pdl\drivers/peripheral/gpio/cy_gpio.h **** #define CY_GPIO_PRT_DEINIT                     (0UL)      /**< De-init value for port registers */
 281:Generated_Source\PSoC6\pdl\drivers/peripheral/gpio/cy_gpio.h **** 
 282:Generated_Source\PSoC6\pdl\drivers/peripheral/gpio/cy_gpio.h **** /* GPIO Masks */
 283:Generated_Source\PSoC6\pdl\drivers/peripheral/gpio/cy_gpio.h **** #define CY_GPIO_HSIOM_MASK                     (0x1FUL)   /**< HSIOM selection mask */
 284:Generated_Source\PSoC6\pdl\drivers/peripheral/gpio/cy_gpio.h **** #define CY_GPIO_OUT_MASK                       (0x01UL)   /**< Single pin mask for OUT register */
 285:Generated_Source\PSoC6\pdl\drivers/peripheral/gpio/cy_gpio.h **** #define CY_GPIO_IN_MASK                        (0x01UL)   /**< Single pin mask for IN register */
 286:Generated_Source\PSoC6\pdl\drivers/peripheral/gpio/cy_gpio.h **** #define CY_GPIO_CFG_DM_MASK                    (0x0FUL)   /**< Single pin mask for drive mode in CF
 287:Generated_Source\PSoC6\pdl\drivers/peripheral/gpio/cy_gpio.h **** #define CY_GPIO_CFG_IN_VTRIP_SEL_MASK          (0x01UL)   /**< Single pin mask for VTRIP selection 
 288:Generated_Source\PSoC6\pdl\drivers/peripheral/gpio/cy_gpio.h **** #define CY_GPIO_CFG_OUT_SLOW_MASK              (0x01UL)   /**< Single pin mask for slew rate in CFG
 289:Generated_Source\PSoC6\pdl\drivers/peripheral/gpio/cy_gpio.h **** #define CY_GPIO_CFG_OUT_DRIVE_SEL_MASK         (0x03UL)   /**< Single pin mask for drive strength i
 290:Generated_Source\PSoC6\pdl\drivers/peripheral/gpio/cy_gpio.h **** #define CY_GPIO_INTR_STATUS_MASK               (0x01UL)   /**< Single pin mask for interrupt status
 291:Generated_Source\PSoC6\pdl\drivers/peripheral/gpio/cy_gpio.h **** #define CY_GPIO_INTR_EN_MASK                   (0x01UL)   /**< Single pin mask for interrupt status
 292:Generated_Source\PSoC6\pdl\drivers/peripheral/gpio/cy_gpio.h **** #define CY_GPIO_INTR_MASKED_MASK               (0x01UL)   /**< Single pin mask for masked interrupt
 293:Generated_Source\PSoC6\pdl\drivers/peripheral/gpio/cy_gpio.h **** #define CY_GPIO_INTR_SET_MASK                  (0x01UL)   /**< Single pin mask for setting the inte
 294:Generated_Source\PSoC6\pdl\drivers/peripheral/gpio/cy_gpio.h **** #define CY_GPIO_INTR_EDGE_MASK                 (0x03UL)   /**< Single pin mask for interrupt edge t
 295:Generated_Source\PSoC6\pdl\drivers/peripheral/gpio/cy_gpio.h **** #define CY_GPIO_INTR_FLT_EDGE_MASK             (0x07UL)   /**< Single pin mask for setting filtered
 296:Generated_Source\PSoC6\pdl\drivers/peripheral/gpio/cy_gpio.h **** 
 297:Generated_Source\PSoC6\pdl\drivers/peripheral/gpio/cy_gpio.h **** /* SIO Masks */
 298:Generated_Source\PSoC6\pdl\drivers/peripheral/gpio/cy_gpio.h **** #define CY_GPIO_VREG_EN_MASK                   (0x01UL)   /**< Single SIO pin mask for voltage regu
 299:Generated_Source\PSoC6\pdl\drivers/peripheral/gpio/cy_gpio.h **** #define CY_GPIO_IBUF_MASK                      (0x01UL)   /**< Single SIO pin mask for input buffer
 300:Generated_Source\PSoC6\pdl\drivers/peripheral/gpio/cy_gpio.h **** #define CY_GPIO_IBUF_SHIFT                     (0x01UL)   /**< Single SIO pin shift for input buffe
 301:Generated_Source\PSoC6\pdl\drivers/peripheral/gpio/cy_gpio.h **** #define CY_GPIO_VTRIP_SEL_MASK                 (0x01UL)   /**< Single SIO pin mask for the input bu
 302:Generated_Source\PSoC6\pdl\drivers/peripheral/gpio/cy_gpio.h **** #define CY_GPIO_VTRIP_SEL_SHIFT                (0x02UL)   /**< Single SIO pin shift for the input b
 303:Generated_Source\PSoC6\pdl\drivers/peripheral/gpio/cy_gpio.h **** #define CY_GPIO_VREF_SEL_MASK                  (0x03UL)   /**< Single SIO pin mask for voltage refe
 304:Generated_Source\PSoC6\pdl\drivers/peripheral/gpio/cy_gpio.h **** #define CY_GPIO_VREF_SEL_SHIFT                 (0x03UL)   /**< Single SIO pin shift for voltage ref
 305:Generated_Source\PSoC6\pdl\drivers/peripheral/gpio/cy_gpio.h **** #define CY_GPIO_VOH_SEL_MASK                   (0x07UL)   /**< Single SIO pin mask for VOH */
 306:Generated_Source\PSoC6\pdl\drivers/peripheral/gpio/cy_gpio.h **** #define CY_GPIO_VOH_SEL_SHIFT                  (0x05UL)   /**< Single SIO pin shift for VOH */
 307:Generated_Source\PSoC6\pdl\drivers/peripheral/gpio/cy_gpio.h **** 
 308:Generated_Source\PSoC6\pdl\drivers/peripheral/gpio/cy_gpio.h **** /* Special mask for SIO pin pair setting */
 309:Generated_Source\PSoC6\pdl\drivers/peripheral/gpio/cy_gpio.h **** #define CY_GPIO_SIO_ODD_PIN_MASK               (0x00FEUL) /**< SIO pin pair selection mask */
 310:Generated_Source\PSoC6\pdl\drivers/peripheral/gpio/cy_gpio.h **** #define CY_GPIO_SIO_PIN_MASK                   (0x00FFUL) /**< SIO pin pair mask */
 311:Generated_Source\PSoC6\pdl\drivers/peripheral/gpio/cy_gpio.h **** 
 312:Generated_Source\PSoC6\pdl\drivers/peripheral/gpio/cy_gpio.h **** /* Offsets */
 313:Generated_Source\PSoC6\pdl\drivers/peripheral/gpio/cy_gpio.h **** #define CY_GPIO_HSIOM_OFFSET                   (3UL)      /**< Offset for HSIOM */
 314:Generated_Source\PSoC6\pdl\drivers/peripheral/gpio/cy_gpio.h **** #define CY_GPIO_DRIVE_MODE_OFFSET              (2UL)      /**< Offset for Drive mode */
 315:Generated_Source\PSoC6\pdl\drivers/peripheral/gpio/cy_gpio.h **** #define CY_GPIO_INBUF_OFFSET                   (3UL)      /**< Offset for input buffer */
 316:Generated_Source\PSoC6\pdl\drivers/peripheral/gpio/cy_gpio.h **** #define CY_GPIO_CFG_OUT_DRIVE_OFFSET           (16UL)     /**< Offset for drive strength */
 317:Generated_Source\PSoC6\pdl\drivers/peripheral/gpio/cy_gpio.h **** #define CY_GPIO_INTR_CFG_OFFSET                (1UL)      /**< Offset for interrupt config */
 318:Generated_Source\PSoC6\pdl\drivers/peripheral/gpio/cy_gpio.h **** #define CY_GPIO_INTR_FILT_OFFSET               (18UL)     /**< Offset for filtered interrupt config
 319:Generated_Source\PSoC6\pdl\drivers/peripheral/gpio/cy_gpio.h **** #define CY_GPIO_CFG_SIO_OFFSET                 (2UL)      /**< Offset for SIO config */
 320:Generated_Source\PSoC6\pdl\drivers/peripheral/gpio/cy_gpio.h **** 
 321:Generated_Source\PSoC6\pdl\drivers/peripheral/gpio/cy_gpio.h **** /* Parameter validation constants */
 322:Generated_Source\PSoC6\pdl\drivers/peripheral/gpio/cy_gpio.h **** #define CY_GPIO_PINS_MAX                       (8UL)      /**< Number of pins in the port */
 323:Generated_Source\PSoC6\pdl\drivers/peripheral/gpio/cy_gpio.h **** #define CY_GPIO_PRT_PINS_MASK                  (0x0000000FFUL)
 324:Generated_Source\PSoC6\pdl\drivers/peripheral/gpio/cy_gpio.h **** #define CY_GPIO_PRT_INTR_CFG_EDGE_SEL_MASK     (GPIO_PRT_INTR_CFG_EDGE0_SEL_Msk | \
 325:Generated_Source\PSoC6\pdl\drivers/peripheral/gpio/cy_gpio.h ****                                                 GPIO_PRT_INTR_CFG_EDGE1_SEL_Msk | \
 326:Generated_Source\PSoC6\pdl\drivers/peripheral/gpio/cy_gpio.h ****                                                 GPIO_PRT_INTR_CFG_EDGE2_SEL_Msk | \
 327:Generated_Source\PSoC6\pdl\drivers/peripheral/gpio/cy_gpio.h ****                                                 GPIO_PRT_INTR_CFG_EDGE3_SEL_Msk | \
 328:Generated_Source\PSoC6\pdl\drivers/peripheral/gpio/cy_gpio.h ****                                                 GPIO_PRT_INTR_CFG_EDGE4_SEL_Msk | \
 329:Generated_Source\PSoC6\pdl\drivers/peripheral/gpio/cy_gpio.h ****                                                 GPIO_PRT_INTR_CFG_EDGE5_SEL_Msk | \
 330:Generated_Source\PSoC6\pdl\drivers/peripheral/gpio/cy_gpio.h ****                                                 GPIO_PRT_INTR_CFG_EDGE6_SEL_Msk | \
 331:Generated_Source\PSoC6\pdl\drivers/peripheral/gpio/cy_gpio.h ****                                                 GPIO_PRT_INTR_CFG_EDGE7_SEL_Msk)
 332:Generated_Source\PSoC6\pdl\drivers/peripheral/gpio/cy_gpio.h **** #define CY_GPIO_PRT_INTR_CFG_RANGE_MASK        (CY_GPIO_PRT_INTR_CFG_EDGE_SEL_MASK | \
 333:Generated_Source\PSoC6\pdl\drivers/peripheral/gpio/cy_gpio.h ****                                                 GPIO_PRT_INTR_CFG_FLT_EDGE_SEL_Msk | \
 334:Generated_Source\PSoC6\pdl\drivers/peripheral/gpio/cy_gpio.h ****                                                 GPIO_PRT_INTR_CFG_FLT_SEL_Msk)
 335:Generated_Source\PSoC6\pdl\drivers/peripheral/gpio/cy_gpio.h **** #define CY_GPIO_PRT_INT_MASK_MASK              (0x0000001FFUL)
 336:Generated_Source\PSoC6\pdl\drivers/peripheral/gpio/cy_gpio.h **** #define CY_GPIO_PRT_SEL_ACTIVE_MASK            (0x1FFFFFFFUL)
ARM GAS  C:\Users\nicpa\AppData\Local\Temp\ccPr5feD.s 			page 24


 337:Generated_Source\PSoC6\pdl\drivers/peripheral/gpio/cy_gpio.h **** 
 338:Generated_Source\PSoC6\pdl\drivers/peripheral/gpio/cy_gpio.h **** #define GPIO_MAX_SPLIT_CELL_SEGMENTS           (9U)
 339:Generated_Source\PSoC6\pdl\drivers/peripheral/gpio/cy_gpio.h **** 
 340:Generated_Source\PSoC6\pdl\drivers/peripheral/gpio/cy_gpio.h **** /* Parameter validation macros */
 341:Generated_Source\PSoC6\pdl\drivers/peripheral/gpio/cy_gpio.h **** #define CY_GPIO_IS_PIN_VALID(pinNum)           (CY_GPIO_PINS_MAX > (pinNum))
 342:Generated_Source\PSoC6\pdl\drivers/peripheral/gpio/cy_gpio.h **** #define CY_GPIO_IS_FILTER_PIN_VALID(pinNum)    (CY_GPIO_PINS_MAX >= (pinNum))
 343:Generated_Source\PSoC6\pdl\drivers/peripheral/gpio/cy_gpio.h **** #define CY_GPIO_IS_VALUE_VALID(outVal)         (1UL >= (outVal))
 344:Generated_Source\PSoC6\pdl\drivers/peripheral/gpio/cy_gpio.h **** #define CY_GPIO_IS_DM_VALID(driveMode)         (0U == ((driveMode) & (uint32_t)~CY_GPIO_CFG_DM_MASK
 345:Generated_Source\PSoC6\pdl\drivers/peripheral/gpio/cy_gpio.h **** 
 346:Generated_Source\PSoC6\pdl\drivers/peripheral/gpio/cy_gpio.h **** #define CY_GPIO_IS_HSIOM_VALID(hsiom)          (0U == ((hsiom) & (uint32_t)~CY_GPIO_HSIOM_MASK))
 347:Generated_Source\PSoC6\pdl\drivers/peripheral/gpio/cy_gpio.h **** 
 348:Generated_Source\PSoC6\pdl\drivers/peripheral/gpio/cy_gpio.h **** #define CY_GPIO_IS_INT_EDGE_VALID(intEdge)     ((CY_GPIO_INTR_DISABLE  == (intEdge)) || \
 349:Generated_Source\PSoC6\pdl\drivers/peripheral/gpio/cy_gpio.h ****                                                 (CY_GPIO_INTR_RISING   == (intEdge)) || \
 350:Generated_Source\PSoC6\pdl\drivers/peripheral/gpio/cy_gpio.h ****                                                 (CY_GPIO_INTR_FALLING  == (intEdge)) || \
 351:Generated_Source\PSoC6\pdl\drivers/peripheral/gpio/cy_gpio.h ****                                                 (CY_GPIO_INTR_BOTH     == (intEdge)))
 352:Generated_Source\PSoC6\pdl\drivers/peripheral/gpio/cy_gpio.h **** 
 353:Generated_Source\PSoC6\pdl\drivers/peripheral/gpio/cy_gpio.h **** #define CY_GPIO_IS_DRIVE_SEL_VALID(driveSel)   ((CY_GPIO_DRIVE_FULL    == (driveSel)) || \
 354:Generated_Source\PSoC6\pdl\drivers/peripheral/gpio/cy_gpio.h ****                                                 (CY_GPIO_DRIVE_1_2     == (driveSel)) || \
 355:Generated_Source\PSoC6\pdl\drivers/peripheral/gpio/cy_gpio.h ****                                                 (CY_GPIO_DRIVE_1_4     == (driveSel)) || \
 356:Generated_Source\PSoC6\pdl\drivers/peripheral/gpio/cy_gpio.h ****                                                 (CY_GPIO_DRIVE_1_8     == (driveSel)))
 357:Generated_Source\PSoC6\pdl\drivers/peripheral/gpio/cy_gpio.h **** 
 358:Generated_Source\PSoC6\pdl\drivers/peripheral/gpio/cy_gpio.h **** #define CY_GPIO_IS_VREF_SEL_VALID(vrefSel)     ((CY_SIO_VREF_PINREF    == (vrefSel)) || \
 359:Generated_Source\PSoC6\pdl\drivers/peripheral/gpio/cy_gpio.h ****                                                 (CY_SIO_VREF_1_2V      == (vrefSel)) || \
 360:Generated_Source\PSoC6\pdl\drivers/peripheral/gpio/cy_gpio.h ****                                                 (CY_SIO_VREF_AMUX_A    == (vrefSel)) || \
 361:Generated_Source\PSoC6\pdl\drivers/peripheral/gpio/cy_gpio.h ****                                                 (CY_SIO_VREF_AMUX_B    == (vrefSel)))
 362:Generated_Source\PSoC6\pdl\drivers/peripheral/gpio/cy_gpio.h **** 
 363:Generated_Source\PSoC6\pdl\drivers/peripheral/gpio/cy_gpio.h **** #define CY_GPIO_IS_VOH_SEL_VALID(vrefSel)      ((CY_SIO_VOH_1_00       == (vrefSel)) || \
 364:Generated_Source\PSoC6\pdl\drivers/peripheral/gpio/cy_gpio.h ****                                                 (CY_SIO_VOH_1_25       == (vrefSel)) || \
 365:Generated_Source\PSoC6\pdl\drivers/peripheral/gpio/cy_gpio.h ****                                                 (CY_SIO_VOH_1_49       == (vrefSel)) || \
 366:Generated_Source\PSoC6\pdl\drivers/peripheral/gpio/cy_gpio.h ****                                                 (CY_SIO_VOH_1_67       == (vrefSel)) || \
 367:Generated_Source\PSoC6\pdl\drivers/peripheral/gpio/cy_gpio.h ****                                                 (CY_SIO_VOH_2_08       == (vrefSel)) || \
 368:Generated_Source\PSoC6\pdl\drivers/peripheral/gpio/cy_gpio.h ****                                                 (CY_SIO_VOH_2_50       == (vrefSel)) || \
 369:Generated_Source\PSoC6\pdl\drivers/peripheral/gpio/cy_gpio.h ****                                                 (CY_SIO_VOH_2_78       == (vrefSel)) || \
 370:Generated_Source\PSoC6\pdl\drivers/peripheral/gpio/cy_gpio.h ****                                                 (CY_SIO_VOH_4_16       == (vrefSel)))
 371:Generated_Source\PSoC6\pdl\drivers/peripheral/gpio/cy_gpio.h ****                    
 372:Generated_Source\PSoC6\pdl\drivers/peripheral/gpio/cy_gpio.h **** #define CY_GPIO_IS_PIN_BIT_VALID(pinBit)       (0U == ((pinBit) & (uint32_t)~CY_GPIO_PRT_PINS_MASK)
 373:Generated_Source\PSoC6\pdl\drivers/peripheral/gpio/cy_gpio.h **** #define CY_GPIO_IS_INTR_CFG_VALID(intrCfg)     (0U == ((intrCfg) & (uint32_t)~CY_GPIO_PRT_INTR_CFG_
 374:Generated_Source\PSoC6\pdl\drivers/peripheral/gpio/cy_gpio.h **** #define CY_GPIO_IS_INTR_MASK_VALID(intrMask)   (0U == ((intrMask) & (uint32_t)~CY_GPIO_PRT_INT_MASK
 375:Generated_Source\PSoC6\pdl\drivers/peripheral/gpio/cy_gpio.h **** #define CY_GPIO_IS_SEL_ACT_VALID(selActive)    (0U == ((selActive) & (uint32_t)~CY_GPIO_PRT_SEL_ACT
 376:Generated_Source\PSoC6\pdl\drivers/peripheral/gpio/cy_gpio.h **** 
 377:Generated_Source\PSoC6\pdl\drivers/peripheral/gpio/cy_gpio.h **** #define CY_GPIO_IS_AMUX_SPLIT_VALID(switchCtrl)       (((uint32_t) (switchCtrl)) < GPIO_MAX_SPLIT_C
 378:Generated_Source\PSoC6\pdl\drivers/peripheral/gpio/cy_gpio.h **** 
 379:Generated_Source\PSoC6\pdl\drivers/peripheral/gpio/cy_gpio.h **** #define CY_GPIO_IS_AMUX_CONNECT_VALID(amuxConnect)    ((CY_GPIO_AMUX_OPENALL == (amuxConnect)) || \
 380:Generated_Source\PSoC6\pdl\drivers/peripheral/gpio/cy_gpio.h ****                                                        (CY_GPIO_AMUX_L       == (amuxConnect)) || \
 381:Generated_Source\PSoC6\pdl\drivers/peripheral/gpio/cy_gpio.h ****                                                        (CY_GPIO_AMUX_R       == (amuxConnect)) || \
 382:Generated_Source\PSoC6\pdl\drivers/peripheral/gpio/cy_gpio.h ****                                                        (CY_GPIO_AMUX_LR      == (amuxConnect)) || \
 383:Generated_Source\PSoC6\pdl\drivers/peripheral/gpio/cy_gpio.h ****                                                        (CY_GPIO_AMUX_G       == (amuxConnect)) || \
 384:Generated_Source\PSoC6\pdl\drivers/peripheral/gpio/cy_gpio.h ****                                                        (CY_GPIO_AMUX_GL      == (amuxConnect)) || \
 385:Generated_Source\PSoC6\pdl\drivers/peripheral/gpio/cy_gpio.h ****                                                        (CY_GPIO_AMUX_GR      == (amuxConnect)) || \
 386:Generated_Source\PSoC6\pdl\drivers/peripheral/gpio/cy_gpio.h ****                                                        (CY_GPIO_AMUX_GLR     == (amuxConnect)))
 387:Generated_Source\PSoC6\pdl\drivers/peripheral/gpio/cy_gpio.h **** 
 388:Generated_Source\PSoC6\pdl\drivers/peripheral/gpio/cy_gpio.h **** #define CY_GPIO_IS_AMUX_SELECT_VALID(amuxBus)       ((CY_GPIO_AMUXBUSA       == (amuxBus)) || \
 389:Generated_Source\PSoC6\pdl\drivers/peripheral/gpio/cy_gpio.h ****                                                      (CY_GPIO_AMUXBUSB       == (amuxBus)))
 390:Generated_Source\PSoC6\pdl\drivers/peripheral/gpio/cy_gpio.h **** /** \endcond */
 391:Generated_Source\PSoC6\pdl\drivers/peripheral/gpio/cy_gpio.h **** 
 392:Generated_Source\PSoC6\pdl\drivers/peripheral/gpio/cy_gpio.h **** 
 393:Generated_Source\PSoC6\pdl\drivers/peripheral/gpio/cy_gpio.h **** /***************************************
ARM GAS  C:\Users\nicpa\AppData\Local\Temp\ccPr5feD.s 			page 25


 394:Generated_Source\PSoC6\pdl\drivers/peripheral/gpio/cy_gpio.h **** *        Function Constants
 395:Generated_Source\PSoC6\pdl\drivers/peripheral/gpio/cy_gpio.h **** ***************************************/
 396:Generated_Source\PSoC6\pdl\drivers/peripheral/gpio/cy_gpio.h **** 
 397:Generated_Source\PSoC6\pdl\drivers/peripheral/gpio/cy_gpio.h **** /**
 398:Generated_Source\PSoC6\pdl\drivers/peripheral/gpio/cy_gpio.h **** * \addtogroup group_gpio_macros
 399:Generated_Source\PSoC6\pdl\drivers/peripheral/gpio/cy_gpio.h **** * \{
 400:Generated_Source\PSoC6\pdl\drivers/peripheral/gpio/cy_gpio.h **** */
 401:Generated_Source\PSoC6\pdl\drivers/peripheral/gpio/cy_gpio.h **** 
 402:Generated_Source\PSoC6\pdl\drivers/peripheral/gpio/cy_gpio.h **** /**
 403:Generated_Source\PSoC6\pdl\drivers/peripheral/gpio/cy_gpio.h **** * \defgroup group_gpio_driveModes Pin drive mode
 404:Generated_Source\PSoC6\pdl\drivers/peripheral/gpio/cy_gpio.h **** * \{
 405:Generated_Source\PSoC6\pdl\drivers/peripheral/gpio/cy_gpio.h **** * Constants to be used for setting the drive mode of the pin.
 406:Generated_Source\PSoC6\pdl\drivers/peripheral/gpio/cy_gpio.h **** */
 407:Generated_Source\PSoC6\pdl\drivers/peripheral/gpio/cy_gpio.h **** #define CY_GPIO_DM_ANALOG                      (0x00UL) /**< Analog High-Z. Input buffer off */
 408:Generated_Source\PSoC6\pdl\drivers/peripheral/gpio/cy_gpio.h **** #define CY_GPIO_DM_PULLUP_IN_OFF               (0x02UL) /**< Resistive Pull-Up. Input buffer off */
 409:Generated_Source\PSoC6\pdl\drivers/peripheral/gpio/cy_gpio.h **** #define CY_GPIO_DM_PULLDOWN_IN_OFF             (0x03UL) /**< Resistive Pull-Down. Input buffer off 
 410:Generated_Source\PSoC6\pdl\drivers/peripheral/gpio/cy_gpio.h **** #define CY_GPIO_DM_OD_DRIVESLOW_IN_OFF         (0x04UL) /**< Open Drain, Drives Low. Input buffer o
 411:Generated_Source\PSoC6\pdl\drivers/peripheral/gpio/cy_gpio.h **** #define CY_GPIO_DM_OD_DRIVESHIGH_IN_OFF        (0x05UL) /**< Open Drain, Drives High. Input buffer 
 412:Generated_Source\PSoC6\pdl\drivers/peripheral/gpio/cy_gpio.h **** #define CY_GPIO_DM_STRONG_IN_OFF               (0x06UL) /**< Strong Drive. Input buffer off */
 413:Generated_Source\PSoC6\pdl\drivers/peripheral/gpio/cy_gpio.h **** #define CY_GPIO_DM_PULLUP_DOWN_IN_OFF          (0x07UL) /**< Resistive Pull-Up/Down. Input buffer o
 414:Generated_Source\PSoC6\pdl\drivers/peripheral/gpio/cy_gpio.h **** #define CY_GPIO_DM_HIGHZ                       (0x08UL) /**< Digital High-Z. Input buffer on */
 415:Generated_Source\PSoC6\pdl\drivers/peripheral/gpio/cy_gpio.h **** #define CY_GPIO_DM_PULLUP                      (0x0AUL) /**< Resistive Pull-Up. Input buffer on */
 416:Generated_Source\PSoC6\pdl\drivers/peripheral/gpio/cy_gpio.h **** #define CY_GPIO_DM_PULLDOWN                    (0x0BUL) /**< Resistive Pull-Down. Input buffer on *
 417:Generated_Source\PSoC6\pdl\drivers/peripheral/gpio/cy_gpio.h **** #define CY_GPIO_DM_OD_DRIVESLOW                (0x0CUL) /**< Open Drain, Drives Low. Input buffer o
 418:Generated_Source\PSoC6\pdl\drivers/peripheral/gpio/cy_gpio.h **** #define CY_GPIO_DM_OD_DRIVESHIGH               (0x0DUL) /**< Open Drain, Drives High. Input buffer 
 419:Generated_Source\PSoC6\pdl\drivers/peripheral/gpio/cy_gpio.h **** #define CY_GPIO_DM_STRONG                      (0x0EUL) /**< Strong Drive. Input buffer on */
 420:Generated_Source\PSoC6\pdl\drivers/peripheral/gpio/cy_gpio.h **** #define CY_GPIO_DM_PULLUP_DOWN                 (0x0FUL) /**< Resistive Pull-Up/Down. Input buffer o
 421:Generated_Source\PSoC6\pdl\drivers/peripheral/gpio/cy_gpio.h **** /** \} */
 422:Generated_Source\PSoC6\pdl\drivers/peripheral/gpio/cy_gpio.h **** 
 423:Generated_Source\PSoC6\pdl\drivers/peripheral/gpio/cy_gpio.h **** /**
 424:Generated_Source\PSoC6\pdl\drivers/peripheral/gpio/cy_gpio.h **** * \defgroup group_gpio_vtrip Voltage trip mode
 425:Generated_Source\PSoC6\pdl\drivers/peripheral/gpio/cy_gpio.h **** * \{
 426:Generated_Source\PSoC6\pdl\drivers/peripheral/gpio/cy_gpio.h **** * Constants to be used for setting the voltage trip type on the pin.
 427:Generated_Source\PSoC6\pdl\drivers/peripheral/gpio/cy_gpio.h **** */
 428:Generated_Source\PSoC6\pdl\drivers/peripheral/gpio/cy_gpio.h **** #define CY_GPIO_VTRIP_CMOS                     (0x00UL) /**< Input buffer compatible with CMOS and 
 429:Generated_Source\PSoC6\pdl\drivers/peripheral/gpio/cy_gpio.h **** #define CY_GPIO_VTRIP_TTL                      (0x01UL) /**< Input buffer compatible with TTL and M
 430:Generated_Source\PSoC6\pdl\drivers/peripheral/gpio/cy_gpio.h **** /** \} */
 431:Generated_Source\PSoC6\pdl\drivers/peripheral/gpio/cy_gpio.h **** 
 432:Generated_Source\PSoC6\pdl\drivers/peripheral/gpio/cy_gpio.h **** /**
 433:Generated_Source\PSoC6\pdl\drivers/peripheral/gpio/cy_gpio.h **** * \defgroup group_gpio_slewRate Slew Rate Mode
 434:Generated_Source\PSoC6\pdl\drivers/peripheral/gpio/cy_gpio.h **** * \{
 435:Generated_Source\PSoC6\pdl\drivers/peripheral/gpio/cy_gpio.h **** * Constants to be used for setting the slew rate of the pin.
 436:Generated_Source\PSoC6\pdl\drivers/peripheral/gpio/cy_gpio.h **** */
 437:Generated_Source\PSoC6\pdl\drivers/peripheral/gpio/cy_gpio.h **** #define CY_GPIO_SLEW_FAST                      (0x00UL) /**< Fast slew rate */
 438:Generated_Source\PSoC6\pdl\drivers/peripheral/gpio/cy_gpio.h **** #define CY_GPIO_SLEW_SLOW                      (0x01UL) /**< Slow slew rate */
 439:Generated_Source\PSoC6\pdl\drivers/peripheral/gpio/cy_gpio.h **** /** \} */
 440:Generated_Source\PSoC6\pdl\drivers/peripheral/gpio/cy_gpio.h **** 
 441:Generated_Source\PSoC6\pdl\drivers/peripheral/gpio/cy_gpio.h **** /**
 442:Generated_Source\PSoC6\pdl\drivers/peripheral/gpio/cy_gpio.h **** * \defgroup group_gpio_driveStrength Pin drive strength
 443:Generated_Source\PSoC6\pdl\drivers/peripheral/gpio/cy_gpio.h **** * \{
 444:Generated_Source\PSoC6\pdl\drivers/peripheral/gpio/cy_gpio.h **** * Constants to be used for setting the drive strength of the pin.
 445:Generated_Source\PSoC6\pdl\drivers/peripheral/gpio/cy_gpio.h **** */
 446:Generated_Source\PSoC6\pdl\drivers/peripheral/gpio/cy_gpio.h **** #define CY_GPIO_DRIVE_FULL                     (0x00UL) /**< Full drive strength: Max drive current
 447:Generated_Source\PSoC6\pdl\drivers/peripheral/gpio/cy_gpio.h **** #define CY_GPIO_DRIVE_1_2                      (0x01UL) /**< 1/2 drive strength: 1/2 drive current 
 448:Generated_Source\PSoC6\pdl\drivers/peripheral/gpio/cy_gpio.h **** #define CY_GPIO_DRIVE_1_4                      (0x02UL) /**< 1/4 drive strength: 1/4 drive current 
 449:Generated_Source\PSoC6\pdl\drivers/peripheral/gpio/cy_gpio.h **** #define CY_GPIO_DRIVE_1_8                      (0x03UL) /**< 1/8 drive strength: 1/8 drive current 
 450:Generated_Source\PSoC6\pdl\drivers/peripheral/gpio/cy_gpio.h **** /** \} */
ARM GAS  C:\Users\nicpa\AppData\Local\Temp\ccPr5feD.s 			page 26


 451:Generated_Source\PSoC6\pdl\drivers/peripheral/gpio/cy_gpio.h **** 
 452:Generated_Source\PSoC6\pdl\drivers/peripheral/gpio/cy_gpio.h **** /**
 453:Generated_Source\PSoC6\pdl\drivers/peripheral/gpio/cy_gpio.h **** * \defgroup group_gpio_interruptTrigger Interrupt trigger type
 454:Generated_Source\PSoC6\pdl\drivers/peripheral/gpio/cy_gpio.h **** * \{
 455:Generated_Source\PSoC6\pdl\drivers/peripheral/gpio/cy_gpio.h **** * Constants to be used for setting the interrupt trigger type on the pin.
 456:Generated_Source\PSoC6\pdl\drivers/peripheral/gpio/cy_gpio.h **** */
 457:Generated_Source\PSoC6\pdl\drivers/peripheral/gpio/cy_gpio.h **** #define CY_GPIO_INTR_DISABLE                   (0x00UL) /**< Disable the pin interrupt generation *
 458:Generated_Source\PSoC6\pdl\drivers/peripheral/gpio/cy_gpio.h **** #define CY_GPIO_INTR_RISING                    (0x01UL) /**< Rising-Edge interrupt */
 459:Generated_Source\PSoC6\pdl\drivers/peripheral/gpio/cy_gpio.h **** #define CY_GPIO_INTR_FALLING                   (0x02UL) /**< Falling-Edge interrupt */
 460:Generated_Source\PSoC6\pdl\drivers/peripheral/gpio/cy_gpio.h **** #define CY_GPIO_INTR_BOTH                      (0x03UL) /**< Both-Edge interrupt */
 461:Generated_Source\PSoC6\pdl\drivers/peripheral/gpio/cy_gpio.h **** /** \} */
 462:Generated_Source\PSoC6\pdl\drivers/peripheral/gpio/cy_gpio.h **** 
 463:Generated_Source\PSoC6\pdl\drivers/peripheral/gpio/cy_gpio.h **** /**
 464:Generated_Source\PSoC6\pdl\drivers/peripheral/gpio/cy_gpio.h **** * \defgroup group_gpio_sioVreg SIO output buffer mode
 465:Generated_Source\PSoC6\pdl\drivers/peripheral/gpio/cy_gpio.h **** * \{
 466:Generated_Source\PSoC6\pdl\drivers/peripheral/gpio/cy_gpio.h **** * Constants to be used for setting the SIO output buffer mode on the pin.
 467:Generated_Source\PSoC6\pdl\drivers/peripheral/gpio/cy_gpio.h **** */
 468:Generated_Source\PSoC6\pdl\drivers/peripheral/gpio/cy_gpio.h **** #define CY_SIO_VREG_UNREGULATED                (0x00UL) /**< Unregulated output buffer */
 469:Generated_Source\PSoC6\pdl\drivers/peripheral/gpio/cy_gpio.h **** #define CY_SIO_VREG_REGULATED                  (0x01UL) /**< Regulated output buffer */
 470:Generated_Source\PSoC6\pdl\drivers/peripheral/gpio/cy_gpio.h **** /** \} */
 471:Generated_Source\PSoC6\pdl\drivers/peripheral/gpio/cy_gpio.h **** 
 472:Generated_Source\PSoC6\pdl\drivers/peripheral/gpio/cy_gpio.h **** /**
 473:Generated_Source\PSoC6\pdl\drivers/peripheral/gpio/cy_gpio.h **** * \defgroup group_gpio_sioIbuf SIO input buffer mode
 474:Generated_Source\PSoC6\pdl\drivers/peripheral/gpio/cy_gpio.h **** * \{
 475:Generated_Source\PSoC6\pdl\drivers/peripheral/gpio/cy_gpio.h **** * Constants to be used for setting the SIO input buffer mode on the pin.
 476:Generated_Source\PSoC6\pdl\drivers/peripheral/gpio/cy_gpio.h **** */
 477:Generated_Source\PSoC6\pdl\drivers/peripheral/gpio/cy_gpio.h **** #define CY_SIO_IBUF_SINGLEENDED                (0x00UL) /**< Single ended input buffer */
 478:Generated_Source\PSoC6\pdl\drivers/peripheral/gpio/cy_gpio.h **** #define CY_SIO_IBUF_DIFFERENTIAL               (0x01UL) /**< Differential input buffer */
 479:Generated_Source\PSoC6\pdl\drivers/peripheral/gpio/cy_gpio.h **** /** \} */
 480:Generated_Source\PSoC6\pdl\drivers/peripheral/gpio/cy_gpio.h **** 
 481:Generated_Source\PSoC6\pdl\drivers/peripheral/gpio/cy_gpio.h **** /**
 482:Generated_Source\PSoC6\pdl\drivers/peripheral/gpio/cy_gpio.h **** * \defgroup group_gpio_sioVtrip SIO input buffer trip-point
 483:Generated_Source\PSoC6\pdl\drivers/peripheral/gpio/cy_gpio.h **** * \{
 484:Generated_Source\PSoC6\pdl\drivers/peripheral/gpio/cy_gpio.h **** * Constants to be used for setting the SIO input buffer trip-point of the pin.
 485:Generated_Source\PSoC6\pdl\drivers/peripheral/gpio/cy_gpio.h **** */
 486:Generated_Source\PSoC6\pdl\drivers/peripheral/gpio/cy_gpio.h **** #define CY_SIO_VTRIP_CMOS                      (0x00UL) /**< CMOS input buffer (single-ended) */
 487:Generated_Source\PSoC6\pdl\drivers/peripheral/gpio/cy_gpio.h **** #define CY_SIO_VTRIP_TTL                       (0x01UL) /**< TTL input buffer (single-ended) */
 488:Generated_Source\PSoC6\pdl\drivers/peripheral/gpio/cy_gpio.h **** #define CY_SIO_VTRIP_0_5VDDIO_0_5VOH           (0x00UL) /**< 0.5xVddio or 0.5xVoh (differential) */
 489:Generated_Source\PSoC6\pdl\drivers/peripheral/gpio/cy_gpio.h **** #define CY_SIO_VTRIP_0_4VDDIO_1_0VREF          (0x01UL) /**< 0.4xVddio or 0.4xVoh (differential) */
 490:Generated_Source\PSoC6\pdl\drivers/peripheral/gpio/cy_gpio.h **** /** \} */
 491:Generated_Source\PSoC6\pdl\drivers/peripheral/gpio/cy_gpio.h **** 
 492:Generated_Source\PSoC6\pdl\drivers/peripheral/gpio/cy_gpio.h **** /**
 493:Generated_Source\PSoC6\pdl\drivers/peripheral/gpio/cy_gpio.h **** * \defgroup group_gpio_sioVref SIO reference voltage for input buffer trip-point
 494:Generated_Source\PSoC6\pdl\drivers/peripheral/gpio/cy_gpio.h **** * \{
 495:Generated_Source\PSoC6\pdl\drivers/peripheral/gpio/cy_gpio.h **** * Constants to be used for setting the reference voltage of SIO input buffer trip-point.
 496:Generated_Source\PSoC6\pdl\drivers/peripheral/gpio/cy_gpio.h **** */
 497:Generated_Source\PSoC6\pdl\drivers/peripheral/gpio/cy_gpio.h **** #define CY_SIO_VREF_PINREF                     (0x00UL) /**< Vref from analog pin */
 498:Generated_Source\PSoC6\pdl\drivers/peripheral/gpio/cy_gpio.h **** #define CY_SIO_VREF_1_2V                       (0x01UL) /**< Vref from internal 1.2V reference */
 499:Generated_Source\PSoC6\pdl\drivers/peripheral/gpio/cy_gpio.h **** #define CY_SIO_VREF_AMUX_A                     (0x02UL) /**< Vref from AMUXBUS_A */
 500:Generated_Source\PSoC6\pdl\drivers/peripheral/gpio/cy_gpio.h **** #define CY_SIO_VREF_AMUX_B                     (0x03UL) /**< Vref from AMUXBUS_B */
 501:Generated_Source\PSoC6\pdl\drivers/peripheral/gpio/cy_gpio.h **** /** \} */
 502:Generated_Source\PSoC6\pdl\drivers/peripheral/gpio/cy_gpio.h **** 
 503:Generated_Source\PSoC6\pdl\drivers/peripheral/gpio/cy_gpio.h **** /**
 504:Generated_Source\PSoC6\pdl\drivers/peripheral/gpio/cy_gpio.h **** * \defgroup group_gpio_sioVoh Regulated output voltage level (Voh) and input buffer trip-point of a
 505:Generated_Source\PSoC6\pdl\drivers/peripheral/gpio/cy_gpio.h **** * \{
 506:Generated_Source\PSoC6\pdl\drivers/peripheral/gpio/cy_gpio.h **** * Constants to be used for setting the Voh and input buffer trip-point of an SIO pair
 507:Generated_Source\PSoC6\pdl\drivers/peripheral/gpio/cy_gpio.h **** */
ARM GAS  C:\Users\nicpa\AppData\Local\Temp\ccPr5feD.s 			page 27


 508:Generated_Source\PSoC6\pdl\drivers/peripheral/gpio/cy_gpio.h **** #define CY_SIO_VOH_1_00                        (0x00UL) /**< Voh = 1 x Reference */
 509:Generated_Source\PSoC6\pdl\drivers/peripheral/gpio/cy_gpio.h **** #define CY_SIO_VOH_1_25                        (0x01UL) /**< Voh = 1.25 x Reference */
 510:Generated_Source\PSoC6\pdl\drivers/peripheral/gpio/cy_gpio.h **** #define CY_SIO_VOH_1_49                        (0x02UL) /**< Voh = 1.49 x Reference */
 511:Generated_Source\PSoC6\pdl\drivers/peripheral/gpio/cy_gpio.h **** #define CY_SIO_VOH_1_67                        (0x03UL) /**< Voh = 1.67 x Reference */
 512:Generated_Source\PSoC6\pdl\drivers/peripheral/gpio/cy_gpio.h **** #define CY_SIO_VOH_2_08                        (0x04UL) /**< Voh = 2.08 x Reference */
 513:Generated_Source\PSoC6\pdl\drivers/peripheral/gpio/cy_gpio.h **** #define CY_SIO_VOH_2_50                        (0x05UL) /**< Voh = 2.50 x Reference */
 514:Generated_Source\PSoC6\pdl\drivers/peripheral/gpio/cy_gpio.h **** #define CY_SIO_VOH_2_78                        (0x06UL) /**< Voh = 2.78 x Reference */
 515:Generated_Source\PSoC6\pdl\drivers/peripheral/gpio/cy_gpio.h **** #define CY_SIO_VOH_4_16                        (0x07UL) /**< Voh = 4.16 x Reference */
 516:Generated_Source\PSoC6\pdl\drivers/peripheral/gpio/cy_gpio.h **** /** \} */
 517:Generated_Source\PSoC6\pdl\drivers/peripheral/gpio/cy_gpio.h **** 
 518:Generated_Source\PSoC6\pdl\drivers/peripheral/gpio/cy_gpio.h **** /** \} group_gpio_macros */
 519:Generated_Source\PSoC6\pdl\drivers/peripheral/gpio/cy_gpio.h **** 
 520:Generated_Source\PSoC6\pdl\drivers/peripheral/gpio/cy_gpio.h **** /***************************************
 521:Generated_Source\PSoC6\pdl\drivers/peripheral/gpio/cy_gpio.h **** *        Function Prototypes
 522:Generated_Source\PSoC6\pdl\drivers/peripheral/gpio/cy_gpio.h **** ***************************************/
 523:Generated_Source\PSoC6\pdl\drivers/peripheral/gpio/cy_gpio.h **** 
 524:Generated_Source\PSoC6\pdl\drivers/peripheral/gpio/cy_gpio.h **** /**
 525:Generated_Source\PSoC6\pdl\drivers/peripheral/gpio/cy_gpio.h **** * \addtogroup group_gpio_functions
 526:Generated_Source\PSoC6\pdl\drivers/peripheral/gpio/cy_gpio.h **** * \{
 527:Generated_Source\PSoC6\pdl\drivers/peripheral/gpio/cy_gpio.h **** */
 528:Generated_Source\PSoC6\pdl\drivers/peripheral/gpio/cy_gpio.h **** 
 529:Generated_Source\PSoC6\pdl\drivers/peripheral/gpio/cy_gpio.h **** /**
 530:Generated_Source\PSoC6\pdl\drivers/peripheral/gpio/cy_gpio.h **** * \addtogroup group_gpio_functions_init
 531:Generated_Source\PSoC6\pdl\drivers/peripheral/gpio/cy_gpio.h **** * \{
 532:Generated_Source\PSoC6\pdl\drivers/peripheral/gpio/cy_gpio.h **** */
 533:Generated_Source\PSoC6\pdl\drivers/peripheral/gpio/cy_gpio.h **** 
 534:Generated_Source\PSoC6\pdl\drivers/peripheral/gpio/cy_gpio.h **** cy_en_gpio_status_t Cy_GPIO_Pin_Init(GPIO_PRT_Type* base, uint32_t pinNum, const cy_stc_gpio_pin_co
 535:Generated_Source\PSoC6\pdl\drivers/peripheral/gpio/cy_gpio.h **** cy_en_gpio_status_t Cy_GPIO_Port_Init(GPIO_PRT_Type* base, const cy_stc_gpio_prt_config_t *config);
 536:Generated_Source\PSoC6\pdl\drivers/peripheral/gpio/cy_gpio.h **** void Cy_GPIO_Pin_FastInit(GPIO_PRT_Type* base, uint32_t pinNum, uint32_t driveMode, uint32_t outVal
 537:Generated_Source\PSoC6\pdl\drivers/peripheral/gpio/cy_gpio.h **** void Cy_GPIO_Port_Deinit(GPIO_PRT_Type* base);
 538:Generated_Source\PSoC6\pdl\drivers/peripheral/gpio/cy_gpio.h **** __STATIC_INLINE void Cy_GPIO_SetHSIOM(GPIO_PRT_Type* base, uint32_t pinNum, en_hsiom_sel_t value);
 539:Generated_Source\PSoC6\pdl\drivers/peripheral/gpio/cy_gpio.h **** __STATIC_INLINE en_hsiom_sel_t Cy_GPIO_GetHSIOM(GPIO_PRT_Type* base, uint32_t pinNum);
 540:Generated_Source\PSoC6\pdl\drivers/peripheral/gpio/cy_gpio.h **** __STATIC_INLINE GPIO_PRT_Type* Cy_GPIO_PortToAddr(uint32_t portNum);
 541:Generated_Source\PSoC6\pdl\drivers/peripheral/gpio/cy_gpio.h **** 
 542:Generated_Source\PSoC6\pdl\drivers/peripheral/gpio/cy_gpio.h **** /** \} group_gpio_functions_init */
 543:Generated_Source\PSoC6\pdl\drivers/peripheral/gpio/cy_gpio.h **** 
 544:Generated_Source\PSoC6\pdl\drivers/peripheral/gpio/cy_gpio.h **** /**
 545:Generated_Source\PSoC6\pdl\drivers/peripheral/gpio/cy_gpio.h **** * \addtogroup group_gpio_functions_gpio
 546:Generated_Source\PSoC6\pdl\drivers/peripheral/gpio/cy_gpio.h **** * \{
 547:Generated_Source\PSoC6\pdl\drivers/peripheral/gpio/cy_gpio.h **** */
 548:Generated_Source\PSoC6\pdl\drivers/peripheral/gpio/cy_gpio.h **** 
 549:Generated_Source\PSoC6\pdl\drivers/peripheral/gpio/cy_gpio.h **** void Cy_GPIO_SetAmuxSplit(cy_en_amux_split_t switchCtrl, cy_en_gpio_amuxconnect_t amuxConnect, cy_e
 550:Generated_Source\PSoC6\pdl\drivers/peripheral/gpio/cy_gpio.h **** cy_en_gpio_amuxconnect_t Cy_GPIO_GetAmuxSplit(cy_en_amux_split_t switchCtrl, cy_en_gpio_amuxselect_
 551:Generated_Source\PSoC6\pdl\drivers/peripheral/gpio/cy_gpio.h **** 
 552:Generated_Source\PSoC6\pdl\drivers/peripheral/gpio/cy_gpio.h **** __STATIC_INLINE uint32_t Cy_GPIO_Read(GPIO_PRT_Type* base, uint32_t pinNum);
 553:Generated_Source\PSoC6\pdl\drivers/peripheral/gpio/cy_gpio.h **** __STATIC_INLINE void Cy_GPIO_Write(GPIO_PRT_Type* base, uint32_t pinNum, uint32_t value);
 554:Generated_Source\PSoC6\pdl\drivers/peripheral/gpio/cy_gpio.h **** __STATIC_INLINE uint32_t Cy_GPIO_ReadOut(GPIO_PRT_Type* base, uint32_t pinNum);
 555:Generated_Source\PSoC6\pdl\drivers/peripheral/gpio/cy_gpio.h **** __STATIC_INLINE void Cy_GPIO_Set(GPIO_PRT_Type* base, uint32_t pinNum);
 556:Generated_Source\PSoC6\pdl\drivers/peripheral/gpio/cy_gpio.h **** __STATIC_INLINE void Cy_GPIO_Clr(GPIO_PRT_Type* base, uint32_t pinNum);
 557:Generated_Source\PSoC6\pdl\drivers/peripheral/gpio/cy_gpio.h **** __STATIC_INLINE void Cy_GPIO_Inv(GPIO_PRT_Type* base, uint32_t pinNum);
 558:Generated_Source\PSoC6\pdl\drivers/peripheral/gpio/cy_gpio.h **** __STATIC_INLINE void Cy_GPIO_SetDrivemode(GPIO_PRT_Type* base, uint32_t pinNum, uint32_t value);
 559:Generated_Source\PSoC6\pdl\drivers/peripheral/gpio/cy_gpio.h **** __STATIC_INLINE uint32_t Cy_GPIO_GetDrivemode(GPIO_PRT_Type* base, uint32_t pinNum);
 560:Generated_Source\PSoC6\pdl\drivers/peripheral/gpio/cy_gpio.h **** __STATIC_INLINE void Cy_GPIO_SetVtrip(GPIO_PRT_Type* base, uint32_t pinNum, uint32_t value);
 561:Generated_Source\PSoC6\pdl\drivers/peripheral/gpio/cy_gpio.h **** __STATIC_INLINE uint32_t Cy_GPIO_GetVtrip(GPIO_PRT_Type* base, uint32_t pinNum);
 562:Generated_Source\PSoC6\pdl\drivers/peripheral/gpio/cy_gpio.h **** __STATIC_INLINE void Cy_GPIO_SetSlewRate(GPIO_PRT_Type* base, uint32_t pinNum, uint32_t value);
 563:Generated_Source\PSoC6\pdl\drivers/peripheral/gpio/cy_gpio.h **** __STATIC_INLINE uint32_t Cy_GPIO_GetSlewRate(GPIO_PRT_Type* base, uint32_t pinNum);
 564:Generated_Source\PSoC6\pdl\drivers/peripheral/gpio/cy_gpio.h **** __STATIC_INLINE void Cy_GPIO_SetDriveSel(GPIO_PRT_Type* base, uint32_t pinNum, uint32_t value);
ARM GAS  C:\Users\nicpa\AppData\Local\Temp\ccPr5feD.s 			page 28


 565:Generated_Source\PSoC6\pdl\drivers/peripheral/gpio/cy_gpio.h **** __STATIC_INLINE uint32_t Cy_GPIO_GetDriveSel(GPIO_PRT_Type* base, uint32_t pinNum);
 566:Generated_Source\PSoC6\pdl\drivers/peripheral/gpio/cy_gpio.h **** 
 567:Generated_Source\PSoC6\pdl\drivers/peripheral/gpio/cy_gpio.h **** /** \} group_gpio_functions_gpio */
 568:Generated_Source\PSoC6\pdl\drivers/peripheral/gpio/cy_gpio.h **** 
 569:Generated_Source\PSoC6\pdl\drivers/peripheral/gpio/cy_gpio.h **** /**
 570:Generated_Source\PSoC6\pdl\drivers/peripheral/gpio/cy_gpio.h **** * \addtogroup group_gpio_functions_sio
 571:Generated_Source\PSoC6\pdl\drivers/peripheral/gpio/cy_gpio.h **** * \{
 572:Generated_Source\PSoC6\pdl\drivers/peripheral/gpio/cy_gpio.h **** */
 573:Generated_Source\PSoC6\pdl\drivers/peripheral/gpio/cy_gpio.h **** 
 574:Generated_Source\PSoC6\pdl\drivers/peripheral/gpio/cy_gpio.h **** __STATIC_INLINE void Cy_GPIO_SetVregEn(GPIO_PRT_Type* base, uint32_t pinNum, uint32_t value);
 575:Generated_Source\PSoC6\pdl\drivers/peripheral/gpio/cy_gpio.h **** __STATIC_INLINE uint32_t Cy_GPIO_GetVregEn(GPIO_PRT_Type* base, uint32_t pinNum);
 576:Generated_Source\PSoC6\pdl\drivers/peripheral/gpio/cy_gpio.h **** __STATIC_INLINE void Cy_GPIO_SetIbufMode(GPIO_PRT_Type* base, uint32_t pinNum, uint32_t value);
 577:Generated_Source\PSoC6\pdl\drivers/peripheral/gpio/cy_gpio.h **** __STATIC_INLINE uint32_t Cy_GPIO_GetIbufMode(GPIO_PRT_Type* base, uint32_t pinNum);
 578:Generated_Source\PSoC6\pdl\drivers/peripheral/gpio/cy_gpio.h **** __STATIC_INLINE void Cy_GPIO_SetVtripSel(GPIO_PRT_Type* base, uint32_t pinNum, uint32_t value);
 579:Generated_Source\PSoC6\pdl\drivers/peripheral/gpio/cy_gpio.h **** __STATIC_INLINE uint32_t Cy_GPIO_GetVtripSel(GPIO_PRT_Type* base, uint32_t pinNum);
 580:Generated_Source\PSoC6\pdl\drivers/peripheral/gpio/cy_gpio.h **** __STATIC_INLINE void Cy_GPIO_SetVrefSel(GPIO_PRT_Type* base, uint32_t pinNum, uint32_t value);
 581:Generated_Source\PSoC6\pdl\drivers/peripheral/gpio/cy_gpio.h **** __STATIC_INLINE uint32_t Cy_GPIO_GetVrefSel(GPIO_PRT_Type* base, uint32_t pinNum);
 582:Generated_Source\PSoC6\pdl\drivers/peripheral/gpio/cy_gpio.h **** __STATIC_INLINE void Cy_GPIO_SetVohSel(GPIO_PRT_Type* base, uint32_t pinNum, uint32_t value);
 583:Generated_Source\PSoC6\pdl\drivers/peripheral/gpio/cy_gpio.h **** __STATIC_INLINE uint32_t Cy_GPIO_GetVohSel(GPIO_PRT_Type* base, uint32_t pinNum);
 584:Generated_Source\PSoC6\pdl\drivers/peripheral/gpio/cy_gpio.h **** 
 585:Generated_Source\PSoC6\pdl\drivers/peripheral/gpio/cy_gpio.h **** /** \} group_gpio_functions_sio */
 586:Generated_Source\PSoC6\pdl\drivers/peripheral/gpio/cy_gpio.h **** 
 587:Generated_Source\PSoC6\pdl\drivers/peripheral/gpio/cy_gpio.h **** /**
 588:Generated_Source\PSoC6\pdl\drivers/peripheral/gpio/cy_gpio.h **** * \addtogroup group_gpio_functions_interrupt
 589:Generated_Source\PSoC6\pdl\drivers/peripheral/gpio/cy_gpio.h **** * \{
 590:Generated_Source\PSoC6\pdl\drivers/peripheral/gpio/cy_gpio.h **** */
 591:Generated_Source\PSoC6\pdl\drivers/peripheral/gpio/cy_gpio.h **** 
 592:Generated_Source\PSoC6\pdl\drivers/peripheral/gpio/cy_gpio.h **** __STATIC_INLINE uint32_t Cy_GPIO_GetInterruptStatus(GPIO_PRT_Type* base, uint32_t pinNum);
 593:Generated_Source\PSoC6\pdl\drivers/peripheral/gpio/cy_gpio.h **** __STATIC_INLINE void Cy_GPIO_ClearInterrupt(GPIO_PRT_Type* base, uint32_t pinNum);
 594:Generated_Source\PSoC6\pdl\drivers/peripheral/gpio/cy_gpio.h **** __STATIC_INLINE void Cy_GPIO_SetInterruptMask(GPIO_PRT_Type* base, uint32_t pinNum, uint32_t value)
 595:Generated_Source\PSoC6\pdl\drivers/peripheral/gpio/cy_gpio.h **** __STATIC_INLINE uint32_t Cy_GPIO_GetInterruptMask(GPIO_PRT_Type* base, uint32_t pinNum);
 596:Generated_Source\PSoC6\pdl\drivers/peripheral/gpio/cy_gpio.h **** __STATIC_INLINE uint32_t Cy_GPIO_GetInterruptStatusMasked(GPIO_PRT_Type* base, uint32_t pinNum);
 597:Generated_Source\PSoC6\pdl\drivers/peripheral/gpio/cy_gpio.h **** __STATIC_INLINE void Cy_GPIO_SetSwInterrupt(GPIO_PRT_Type* base, uint32_t pinNum);
 598:Generated_Source\PSoC6\pdl\drivers/peripheral/gpio/cy_gpio.h **** __STATIC_INLINE void Cy_GPIO_SetInterruptEdge(GPIO_PRT_Type* base, uint32_t pinNum, uint32_t value)
 599:Generated_Source\PSoC6\pdl\drivers/peripheral/gpio/cy_gpio.h **** __STATIC_INLINE uint32_t Cy_GPIO_GetInterruptEdge(GPIO_PRT_Type* base, uint32_t pinNum);
 600:Generated_Source\PSoC6\pdl\drivers/peripheral/gpio/cy_gpio.h **** __STATIC_INLINE void Cy_GPIO_SetFilter(GPIO_PRT_Type* base, uint32_t value);
 601:Generated_Source\PSoC6\pdl\drivers/peripheral/gpio/cy_gpio.h **** __STATIC_INLINE uint32_t Cy_GPIO_GetFilter(GPIO_PRT_Type* base);
 602:Generated_Source\PSoC6\pdl\drivers/peripheral/gpio/cy_gpio.h **** 
 603:Generated_Source\PSoC6\pdl\drivers/peripheral/gpio/cy_gpio.h **** __STATIC_INLINE uint32_t Cy_GPIO_GetInterruptCause0(void);
 604:Generated_Source\PSoC6\pdl\drivers/peripheral/gpio/cy_gpio.h **** __STATIC_INLINE uint32_t Cy_GPIO_GetInterruptCause1(void);
 605:Generated_Source\PSoC6\pdl\drivers/peripheral/gpio/cy_gpio.h **** __STATIC_INLINE uint32_t Cy_GPIO_GetInterruptCause2(void);
 606:Generated_Source\PSoC6\pdl\drivers/peripheral/gpio/cy_gpio.h **** __STATIC_INLINE uint32_t Cy_GPIO_GetInterruptCause3(void);
 607:Generated_Source\PSoC6\pdl\drivers/peripheral/gpio/cy_gpio.h **** 
 608:Generated_Source\PSoC6\pdl\drivers/peripheral/gpio/cy_gpio.h **** /** \} group_gpio_functions_interrupt */
 609:Generated_Source\PSoC6\pdl\drivers/peripheral/gpio/cy_gpio.h **** 
 610:Generated_Source\PSoC6\pdl\drivers/peripheral/gpio/cy_gpio.h **** 
 611:Generated_Source\PSoC6\pdl\drivers/peripheral/gpio/cy_gpio.h **** /**
 612:Generated_Source\PSoC6\pdl\drivers/peripheral/gpio/cy_gpio.h **** * \addtogroup group_gpio_functions_init
 613:Generated_Source\PSoC6\pdl\drivers/peripheral/gpio/cy_gpio.h **** * \{
 614:Generated_Source\PSoC6\pdl\drivers/peripheral/gpio/cy_gpio.h **** */
 615:Generated_Source\PSoC6\pdl\drivers/peripheral/gpio/cy_gpio.h **** 
 616:Generated_Source\PSoC6\pdl\drivers/peripheral/gpio/cy_gpio.h **** /*******************************************************************************
 617:Generated_Source\PSoC6\pdl\drivers/peripheral/gpio/cy_gpio.h **** * Function Name: Cy_GPIO_SetHSIOM
 618:Generated_Source\PSoC6\pdl\drivers/peripheral/gpio/cy_gpio.h **** ****************************************************************************//**
 619:Generated_Source\PSoC6\pdl\drivers/peripheral/gpio/cy_gpio.h **** *
 620:Generated_Source\PSoC6\pdl\drivers/peripheral/gpio/cy_gpio.h **** * Configures the HSIOM connection to the pin.
 621:Generated_Source\PSoC6\pdl\drivers/peripheral/gpio/cy_gpio.h **** *
ARM GAS  C:\Users\nicpa\AppData\Local\Temp\ccPr5feD.s 			page 29


 622:Generated_Source\PSoC6\pdl\drivers/peripheral/gpio/cy_gpio.h **** * Connects the specified High-Speed Input Output Multiplexer (HSIOM) selection
 623:Generated_Source\PSoC6\pdl\drivers/peripheral/gpio/cy_gpio.h **** * to the pin.
 624:Generated_Source\PSoC6\pdl\drivers/peripheral/gpio/cy_gpio.h **** *
 625:Generated_Source\PSoC6\pdl\drivers/peripheral/gpio/cy_gpio.h **** * \param base
 626:Generated_Source\PSoC6\pdl\drivers/peripheral/gpio/cy_gpio.h **** * Pointer to the pin's port register base address
 627:Generated_Source\PSoC6\pdl\drivers/peripheral/gpio/cy_gpio.h **** *
 628:Generated_Source\PSoC6\pdl\drivers/peripheral/gpio/cy_gpio.h **** * \param pinNum
 629:Generated_Source\PSoC6\pdl\drivers/peripheral/gpio/cy_gpio.h **** * Position of the pin bit-field within the port register
 630:Generated_Source\PSoC6\pdl\drivers/peripheral/gpio/cy_gpio.h **** *
 631:Generated_Source\PSoC6\pdl\drivers/peripheral/gpio/cy_gpio.h **** * \param value
 632:Generated_Source\PSoC6\pdl\drivers/peripheral/gpio/cy_gpio.h **** * HSIOM input selection
 633:Generated_Source\PSoC6\pdl\drivers/peripheral/gpio/cy_gpio.h **** *
 634:Generated_Source\PSoC6\pdl\drivers/peripheral/gpio/cy_gpio.h **** * \note 
 635:Generated_Source\PSoC6\pdl\drivers/peripheral/gpio/cy_gpio.h **** * This function modifies a port register in a read-modify-write operation. It is
 636:Generated_Source\PSoC6\pdl\drivers/peripheral/gpio/cy_gpio.h **** * not thread safe as the resource is shared among multiple pins on a port.
 637:Generated_Source\PSoC6\pdl\drivers/peripheral/gpio/cy_gpio.h **** *
 638:Generated_Source\PSoC6\pdl\drivers/peripheral/gpio/cy_gpio.h **** * \funcusage
 639:Generated_Source\PSoC6\pdl\drivers/peripheral/gpio/cy_gpio.h **** * \snippet gpio/gpio_v1_10_sut_01.cydsn/main_cm4.c snippet_Cy_GPIO_SetHSIOM
 640:Generated_Source\PSoC6\pdl\drivers/peripheral/gpio/cy_gpio.h **** *
 641:Generated_Source\PSoC6\pdl\drivers/peripheral/gpio/cy_gpio.h **** *******************************************************************************/
 642:Generated_Source\PSoC6\pdl\drivers/peripheral/gpio/cy_gpio.h **** __STATIC_INLINE void Cy_GPIO_SetHSIOM(GPIO_PRT_Type* base, uint32_t pinNum, en_hsiom_sel_t value)
 643:Generated_Source\PSoC6\pdl\drivers/peripheral/gpio/cy_gpio.h **** {
 644:Generated_Source\PSoC6\pdl\drivers/peripheral/gpio/cy_gpio.h ****     uint32_t portNum;
 645:Generated_Source\PSoC6\pdl\drivers/peripheral/gpio/cy_gpio.h ****     uint32_t tempReg;
 646:Generated_Source\PSoC6\pdl\drivers/peripheral/gpio/cy_gpio.h ****     HSIOM_PRT_V1_Type* portAddrHSIOM;
 647:Generated_Source\PSoC6\pdl\drivers/peripheral/gpio/cy_gpio.h **** 
 648:Generated_Source\PSoC6\pdl\drivers/peripheral/gpio/cy_gpio.h ****     CY_ASSERT_L2(CY_GPIO_IS_PIN_VALID(pinNum));
 649:Generated_Source\PSoC6\pdl\drivers/peripheral/gpio/cy_gpio.h ****     CY_ASSERT_L2(CY_GPIO_IS_HSIOM_VALID(value));
 650:Generated_Source\PSoC6\pdl\drivers/peripheral/gpio/cy_gpio.h **** 
 651:Generated_Source\PSoC6\pdl\drivers/peripheral/gpio/cy_gpio.h ****     portNum = ((uint32_t)(base) - CY_GPIO_BASE) / GPIO_PRT_SECTION_SIZE;
 652:Generated_Source\PSoC6\pdl\drivers/peripheral/gpio/cy_gpio.h ****     portAddrHSIOM = (HSIOM_PRT_V1_Type*)(CY_HSIOM_BASE + (HSIOM_PRT_SECTION_SIZE * portNum));
 653:Generated_Source\PSoC6\pdl\drivers/peripheral/gpio/cy_gpio.h **** 
 654:Generated_Source\PSoC6\pdl\drivers/peripheral/gpio/cy_gpio.h ****     if(pinNum < CY_GPIO_PRT_HALF)
 655:Generated_Source\PSoC6\pdl\drivers/peripheral/gpio/cy_gpio.h ****     {
 656:Generated_Source\PSoC6\pdl\drivers/peripheral/gpio/cy_gpio.h ****         tempReg = HSIOM_PRT_PORT_SEL0(portAddrHSIOM) & ~(CY_GPIO_HSIOM_MASK << (pinNum << CY_GPIO_H
 657:Generated_Source\PSoC6\pdl\drivers/peripheral/gpio/cy_gpio.h ****         HSIOM_PRT_PORT_SEL0(portAddrHSIOM) = tempReg | ((value & CY_GPIO_HSIOM_MASK) << (pinNum << 
 658:Generated_Source\PSoC6\pdl\drivers/peripheral/gpio/cy_gpio.h ****     }
 659:Generated_Source\PSoC6\pdl\drivers/peripheral/gpio/cy_gpio.h ****     else
 660:Generated_Source\PSoC6\pdl\drivers/peripheral/gpio/cy_gpio.h ****     {
 661:Generated_Source\PSoC6\pdl\drivers/peripheral/gpio/cy_gpio.h ****         pinNum -= CY_GPIO_PRT_HALF;
 662:Generated_Source\PSoC6\pdl\drivers/peripheral/gpio/cy_gpio.h ****         tempReg = HSIOM_PRT_PORT_SEL1(portAddrHSIOM) & ~(CY_GPIO_HSIOM_MASK << (pinNum << CY_GPIO_H
 663:Generated_Source\PSoC6\pdl\drivers/peripheral/gpio/cy_gpio.h ****         HSIOM_PRT_PORT_SEL1(portAddrHSIOM) = tempReg | ((value & CY_GPIO_HSIOM_MASK) << (pinNum << 
 664:Generated_Source\PSoC6\pdl\drivers/peripheral/gpio/cy_gpio.h ****     }
 665:Generated_Source\PSoC6\pdl\drivers/peripheral/gpio/cy_gpio.h **** }
 666:Generated_Source\PSoC6\pdl\drivers/peripheral/gpio/cy_gpio.h **** 
 667:Generated_Source\PSoC6\pdl\drivers/peripheral/gpio/cy_gpio.h **** 
 668:Generated_Source\PSoC6\pdl\drivers/peripheral/gpio/cy_gpio.h **** /*******************************************************************************
 669:Generated_Source\PSoC6\pdl\drivers/peripheral/gpio/cy_gpio.h **** * Function Name: Cy_GPIO_GetHSIOM
 670:Generated_Source\PSoC6\pdl\drivers/peripheral/gpio/cy_gpio.h **** ****************************************************************************//**
 671:Generated_Source\PSoC6\pdl\drivers/peripheral/gpio/cy_gpio.h **** *
 672:Generated_Source\PSoC6\pdl\drivers/peripheral/gpio/cy_gpio.h **** * Returns the current HSIOM multiplexer connection to the pin.
 673:Generated_Source\PSoC6\pdl\drivers/peripheral/gpio/cy_gpio.h **** *
 674:Generated_Source\PSoC6\pdl\drivers/peripheral/gpio/cy_gpio.h **** * \param base
 675:Generated_Source\PSoC6\pdl\drivers/peripheral/gpio/cy_gpio.h **** * Pointer to the pin's port register base address
 676:Generated_Source\PSoC6\pdl\drivers/peripheral/gpio/cy_gpio.h **** *
 677:Generated_Source\PSoC6\pdl\drivers/peripheral/gpio/cy_gpio.h **** * \param pinNum
 678:Generated_Source\PSoC6\pdl\drivers/peripheral/gpio/cy_gpio.h **** * Position of the pin bit-field within the port register
ARM GAS  C:\Users\nicpa\AppData\Local\Temp\ccPr5feD.s 			page 30


 679:Generated_Source\PSoC6\pdl\drivers/peripheral/gpio/cy_gpio.h **** *
 680:Generated_Source\PSoC6\pdl\drivers/peripheral/gpio/cy_gpio.h **** * \return
 681:Generated_Source\PSoC6\pdl\drivers/peripheral/gpio/cy_gpio.h **** * HSIOM input selection
 682:Generated_Source\PSoC6\pdl\drivers/peripheral/gpio/cy_gpio.h **** *
 683:Generated_Source\PSoC6\pdl\drivers/peripheral/gpio/cy_gpio.h **** * \funcusage
 684:Generated_Source\PSoC6\pdl\drivers/peripheral/gpio/cy_gpio.h **** * \snippet gpio/gpio_v1_10_sut_01.cydsn/main_cm4.c snippet_Cy_GPIO_SetHSIOM
 685:Generated_Source\PSoC6\pdl\drivers/peripheral/gpio/cy_gpio.h **** *
 686:Generated_Source\PSoC6\pdl\drivers/peripheral/gpio/cy_gpio.h **** *******************************************************************************/
 687:Generated_Source\PSoC6\pdl\drivers/peripheral/gpio/cy_gpio.h **** __STATIC_INLINE en_hsiom_sel_t Cy_GPIO_GetHSIOM(GPIO_PRT_Type* base, uint32_t pinNum)
 688:Generated_Source\PSoC6\pdl\drivers/peripheral/gpio/cy_gpio.h **** {
 689:Generated_Source\PSoC6\pdl\drivers/peripheral/gpio/cy_gpio.h ****     uint32_t returnValue;
 690:Generated_Source\PSoC6\pdl\drivers/peripheral/gpio/cy_gpio.h ****     uint32_t portNum;
 691:Generated_Source\PSoC6\pdl\drivers/peripheral/gpio/cy_gpio.h ****     HSIOM_PRT_V1_Type* portAddrHSIOM;
 692:Generated_Source\PSoC6\pdl\drivers/peripheral/gpio/cy_gpio.h ****     
 693:Generated_Source\PSoC6\pdl\drivers/peripheral/gpio/cy_gpio.h ****     CY_ASSERT_L2(CY_GPIO_IS_PIN_VALID(pinNum));
 694:Generated_Source\PSoC6\pdl\drivers/peripheral/gpio/cy_gpio.h **** 
 695:Generated_Source\PSoC6\pdl\drivers/peripheral/gpio/cy_gpio.h ****     portNum = ((uint32_t)(base) - CY_GPIO_BASE) / GPIO_PRT_SECTION_SIZE;
 696:Generated_Source\PSoC6\pdl\drivers/peripheral/gpio/cy_gpio.h ****     portAddrHSIOM = (HSIOM_PRT_V1_Type*)(CY_HSIOM_BASE + (HSIOM_PRT_SECTION_SIZE * portNum));
 697:Generated_Source\PSoC6\pdl\drivers/peripheral/gpio/cy_gpio.h **** 
 698:Generated_Source\PSoC6\pdl\drivers/peripheral/gpio/cy_gpio.h ****     if(pinNum < CY_GPIO_PRT_HALF)
 699:Generated_Source\PSoC6\pdl\drivers/peripheral/gpio/cy_gpio.h ****     {
 700:Generated_Source\PSoC6\pdl\drivers/peripheral/gpio/cy_gpio.h ****         returnValue = (HSIOM_PRT_PORT_SEL0(portAddrHSIOM) >> (pinNum << CY_GPIO_HSIOM_OFFSET)) & CY
 701:Generated_Source\PSoC6\pdl\drivers/peripheral/gpio/cy_gpio.h ****     }
 702:Generated_Source\PSoC6\pdl\drivers/peripheral/gpio/cy_gpio.h ****     else
 703:Generated_Source\PSoC6\pdl\drivers/peripheral/gpio/cy_gpio.h ****     {
 704:Generated_Source\PSoC6\pdl\drivers/peripheral/gpio/cy_gpio.h ****         pinNum -= CY_GPIO_PRT_HALF;
 705:Generated_Source\PSoC6\pdl\drivers/peripheral/gpio/cy_gpio.h ****         returnValue = (HSIOM_PRT_PORT_SEL1(portAddrHSIOM) >> (pinNum << CY_GPIO_HSIOM_OFFSET)) & CY
 706:Generated_Source\PSoC6\pdl\drivers/peripheral/gpio/cy_gpio.h ****     }
 707:Generated_Source\PSoC6\pdl\drivers/peripheral/gpio/cy_gpio.h **** 
 708:Generated_Source\PSoC6\pdl\drivers/peripheral/gpio/cy_gpio.h ****     return (en_hsiom_sel_t)returnValue;
 709:Generated_Source\PSoC6\pdl\drivers/peripheral/gpio/cy_gpio.h **** }
 710:Generated_Source\PSoC6\pdl\drivers/peripheral/gpio/cy_gpio.h **** 
 711:Generated_Source\PSoC6\pdl\drivers/peripheral/gpio/cy_gpio.h **** 
 712:Generated_Source\PSoC6\pdl\drivers/peripheral/gpio/cy_gpio.h **** /*******************************************************************************
 713:Generated_Source\PSoC6\pdl\drivers/peripheral/gpio/cy_gpio.h **** * Function Name: Cy_GPIO_PortToAddr
 714:Generated_Source\PSoC6\pdl\drivers/peripheral/gpio/cy_gpio.h **** ****************************************************************************//**
 715:Generated_Source\PSoC6\pdl\drivers/peripheral/gpio/cy_gpio.h **** *
 716:Generated_Source\PSoC6\pdl\drivers/peripheral/gpio/cy_gpio.h **** * Retrieves the port address based on the given port number.
 717:Generated_Source\PSoC6\pdl\drivers/peripheral/gpio/cy_gpio.h **** *
 718:Generated_Source\PSoC6\pdl\drivers/peripheral/gpio/cy_gpio.h **** * This is a helper function to calculate the port base address when given a port
 719:Generated_Source\PSoC6\pdl\drivers/peripheral/gpio/cy_gpio.h **** * number. It is to be used when pin access needs to be calculated at runtime.
 720:Generated_Source\PSoC6\pdl\drivers/peripheral/gpio/cy_gpio.h **** *
 721:Generated_Source\PSoC6\pdl\drivers/peripheral/gpio/cy_gpio.h **** * \param portNum
 722:Generated_Source\PSoC6\pdl\drivers/peripheral/gpio/cy_gpio.h **** * Port number
 723:Generated_Source\PSoC6\pdl\drivers/peripheral/gpio/cy_gpio.h **** *
 724:Generated_Source\PSoC6\pdl\drivers/peripheral/gpio/cy_gpio.h **** * \return
 725:Generated_Source\PSoC6\pdl\drivers/peripheral/gpio/cy_gpio.h **** * Base address of the port register structure
 726:Generated_Source\PSoC6\pdl\drivers/peripheral/gpio/cy_gpio.h **** *
 727:Generated_Source\PSoC6\pdl\drivers/peripheral/gpio/cy_gpio.h **** * \funcusage
 728:Generated_Source\PSoC6\pdl\drivers/peripheral/gpio/cy_gpio.h **** * \snippet gpio/gpio_v1_10_sut_01.cydsn/main_cm4.c snippet_Cy_GPIO_PortToAddr
 729:Generated_Source\PSoC6\pdl\drivers/peripheral/gpio/cy_gpio.h **** *
 730:Generated_Source\PSoC6\pdl\drivers/peripheral/gpio/cy_gpio.h **** *******************************************************************************/
 731:Generated_Source\PSoC6\pdl\drivers/peripheral/gpio/cy_gpio.h **** __STATIC_INLINE GPIO_PRT_Type* Cy_GPIO_PortToAddr(uint32_t portNum)
 732:Generated_Source\PSoC6\pdl\drivers/peripheral/gpio/cy_gpio.h **** {
 733:Generated_Source\PSoC6\pdl\drivers/peripheral/gpio/cy_gpio.h ****     GPIO_PRT_Type* portBase;
 734:Generated_Source\PSoC6\pdl\drivers/peripheral/gpio/cy_gpio.h ****     
 735:Generated_Source\PSoC6\pdl\drivers/peripheral/gpio/cy_gpio.h ****     if(portNum < (uint32_t)IOSS_GPIO_GPIO_PORT_NR)
ARM GAS  C:\Users\nicpa\AppData\Local\Temp\ccPr5feD.s 			page 31


 736:Generated_Source\PSoC6\pdl\drivers/peripheral/gpio/cy_gpio.h ****     {
 737:Generated_Source\PSoC6\pdl\drivers/peripheral/gpio/cy_gpio.h ****         portBase = (GPIO_PRT_Type *)(CY_GPIO_BASE + (GPIO_PRT_SECTION_SIZE * portNum));
 738:Generated_Source\PSoC6\pdl\drivers/peripheral/gpio/cy_gpio.h ****     }
 739:Generated_Source\PSoC6\pdl\drivers/peripheral/gpio/cy_gpio.h ****     else
 740:Generated_Source\PSoC6\pdl\drivers/peripheral/gpio/cy_gpio.h ****     {
 741:Generated_Source\PSoC6\pdl\drivers/peripheral/gpio/cy_gpio.h ****         /* Error: Return default base address */
 742:Generated_Source\PSoC6\pdl\drivers/peripheral/gpio/cy_gpio.h ****         portBase = (GPIO_PRT_Type *)(CY_GPIO_BASE);
 743:Generated_Source\PSoC6\pdl\drivers/peripheral/gpio/cy_gpio.h ****     }
 744:Generated_Source\PSoC6\pdl\drivers/peripheral/gpio/cy_gpio.h **** 
 745:Generated_Source\PSoC6\pdl\drivers/peripheral/gpio/cy_gpio.h ****     return (portBase);
 746:Generated_Source\PSoC6\pdl\drivers/peripheral/gpio/cy_gpio.h **** }
 747:Generated_Source\PSoC6\pdl\drivers/peripheral/gpio/cy_gpio.h **** 
 748:Generated_Source\PSoC6\pdl\drivers/peripheral/gpio/cy_gpio.h **** /** \} group_gpio_functions_init */
 749:Generated_Source\PSoC6\pdl\drivers/peripheral/gpio/cy_gpio.h **** 
 750:Generated_Source\PSoC6\pdl\drivers/peripheral/gpio/cy_gpio.h **** /**
 751:Generated_Source\PSoC6\pdl\drivers/peripheral/gpio/cy_gpio.h **** * \addtogroup group_gpio_functions_gpio
 752:Generated_Source\PSoC6\pdl\drivers/peripheral/gpio/cy_gpio.h **** * \{
 753:Generated_Source\PSoC6\pdl\drivers/peripheral/gpio/cy_gpio.h **** */
 754:Generated_Source\PSoC6\pdl\drivers/peripheral/gpio/cy_gpio.h **** 
 755:Generated_Source\PSoC6\pdl\drivers/peripheral/gpio/cy_gpio.h **** /*******************************************************************************
 756:Generated_Source\PSoC6\pdl\drivers/peripheral/gpio/cy_gpio.h **** * Function Name: Cy_GPIO_Read
 757:Generated_Source\PSoC6\pdl\drivers/peripheral/gpio/cy_gpio.h **** ****************************************************************************//**
 758:Generated_Source\PSoC6\pdl\drivers/peripheral/gpio/cy_gpio.h **** *
 759:Generated_Source\PSoC6\pdl\drivers/peripheral/gpio/cy_gpio.h **** * Reads the current logic level on the input buffer of the pin.
 760:Generated_Source\PSoC6\pdl\drivers/peripheral/gpio/cy_gpio.h **** *
 761:Generated_Source\PSoC6\pdl\drivers/peripheral/gpio/cy_gpio.h **** * \param base
 762:Generated_Source\PSoC6\pdl\drivers/peripheral/gpio/cy_gpio.h **** * Pointer to the pin's port register base address
 763:Generated_Source\PSoC6\pdl\drivers/peripheral/gpio/cy_gpio.h **** *
 764:Generated_Source\PSoC6\pdl\drivers/peripheral/gpio/cy_gpio.h **** * \param pinNum
 765:Generated_Source\PSoC6\pdl\drivers/peripheral/gpio/cy_gpio.h **** * Position of the pin bit-field within the port register.
 766:Generated_Source\PSoC6\pdl\drivers/peripheral/gpio/cy_gpio.h **** * Bit position 8 is the routed pin through the port glitch filter.
 767:Generated_Source\PSoC6\pdl\drivers/peripheral/gpio/cy_gpio.h **** *
 768:Generated_Source\PSoC6\pdl\drivers/peripheral/gpio/cy_gpio.h **** * \return
 769:Generated_Source\PSoC6\pdl\drivers/peripheral/gpio/cy_gpio.h **** * Logic level present on the pin
 770:Generated_Source\PSoC6\pdl\drivers/peripheral/gpio/cy_gpio.h **** *
 771:Generated_Source\PSoC6\pdl\drivers/peripheral/gpio/cy_gpio.h **** * \funcusage
 772:Generated_Source\PSoC6\pdl\drivers/peripheral/gpio/cy_gpio.h **** * \snippet gpio/gpio_v1_10_sut_01.cydsn/main_cm4.c snippet_Cy_GPIO_Read
 773:Generated_Source\PSoC6\pdl\drivers/peripheral/gpio/cy_gpio.h **** *
 774:Generated_Source\PSoC6\pdl\drivers/peripheral/gpio/cy_gpio.h **** *******************************************************************************/
 775:Generated_Source\PSoC6\pdl\drivers/peripheral/gpio/cy_gpio.h **** __STATIC_INLINE uint32_t Cy_GPIO_Read(GPIO_PRT_Type* base, uint32_t pinNum)
 776:Generated_Source\PSoC6\pdl\drivers/peripheral/gpio/cy_gpio.h **** {
 777:Generated_Source\PSoC6\pdl\drivers/peripheral/gpio/cy_gpio.h ****     CY_ASSERT_L2(CY_GPIO_IS_FILTER_PIN_VALID(pinNum));
 778:Generated_Source\PSoC6\pdl\drivers/peripheral/gpio/cy_gpio.h ****     
 779:Generated_Source\PSoC6\pdl\drivers/peripheral/gpio/cy_gpio.h ****     return (GPIO_PRT_IN(base) >> (pinNum)) & CY_GPIO_IN_MASK;
 780:Generated_Source\PSoC6\pdl\drivers/peripheral/gpio/cy_gpio.h **** }
 781:Generated_Source\PSoC6\pdl\drivers/peripheral/gpio/cy_gpio.h **** 
 782:Generated_Source\PSoC6\pdl\drivers/peripheral/gpio/cy_gpio.h **** 
 783:Generated_Source\PSoC6\pdl\drivers/peripheral/gpio/cy_gpio.h **** /*******************************************************************************
 784:Generated_Source\PSoC6\pdl\drivers/peripheral/gpio/cy_gpio.h **** * Function Name: Cy_GPIO_Write
 785:Generated_Source\PSoC6\pdl\drivers/peripheral/gpio/cy_gpio.h **** ****************************************************************************//**
 786:Generated_Source\PSoC6\pdl\drivers/peripheral/gpio/cy_gpio.h **** *
 787:Generated_Source\PSoC6\pdl\drivers/peripheral/gpio/cy_gpio.h **** * Write a logic 0 or logic 1 state to the output driver.
 788:Generated_Source\PSoC6\pdl\drivers/peripheral/gpio/cy_gpio.h **** *
 789:Generated_Source\PSoC6\pdl\drivers/peripheral/gpio/cy_gpio.h **** * This function should be used only for software driven pins. It does not have
 790:Generated_Source\PSoC6\pdl\drivers/peripheral/gpio/cy_gpio.h **** * any effect on peripheral driven pins.
 791:Generated_Source\PSoC6\pdl\drivers/peripheral/gpio/cy_gpio.h **** *
 792:Generated_Source\PSoC6\pdl\drivers/peripheral/gpio/cy_gpio.h **** * \param base
ARM GAS  C:\Users\nicpa\AppData\Local\Temp\ccPr5feD.s 			page 32


 793:Generated_Source\PSoC6\pdl\drivers/peripheral/gpio/cy_gpio.h **** * Pointer to the pin's port register base address
 794:Generated_Source\PSoC6\pdl\drivers/peripheral/gpio/cy_gpio.h **** *
 795:Generated_Source\PSoC6\pdl\drivers/peripheral/gpio/cy_gpio.h **** * \param pinNum
 796:Generated_Source\PSoC6\pdl\drivers/peripheral/gpio/cy_gpio.h **** * Position of the pin bit-field within the port register
 797:Generated_Source\PSoC6\pdl\drivers/peripheral/gpio/cy_gpio.h **** *
 798:Generated_Source\PSoC6\pdl\drivers/peripheral/gpio/cy_gpio.h **** * \param value
 799:Generated_Source\PSoC6\pdl\drivers/peripheral/gpio/cy_gpio.h **** * Logic level to drive out on the pin
 800:Generated_Source\PSoC6\pdl\drivers/peripheral/gpio/cy_gpio.h **** *
 801:Generated_Source\PSoC6\pdl\drivers/peripheral/gpio/cy_gpio.h **** * \funcusage
 802:Generated_Source\PSoC6\pdl\drivers/peripheral/gpio/cy_gpio.h **** * \snippet gpio/gpio_v1_10_sut_01.cydsn/main_cm4.c snippet_Cy_GPIO_Write
 803:Generated_Source\PSoC6\pdl\drivers/peripheral/gpio/cy_gpio.h **** *
 804:Generated_Source\PSoC6\pdl\drivers/peripheral/gpio/cy_gpio.h **** *******************************************************************************/
 805:Generated_Source\PSoC6\pdl\drivers/peripheral/gpio/cy_gpio.h **** __STATIC_INLINE void Cy_GPIO_Write(GPIO_PRT_Type* base, uint32_t pinNum, uint32_t value)
 806:Generated_Source\PSoC6\pdl\drivers/peripheral/gpio/cy_gpio.h **** {
 807:Generated_Source\PSoC6\pdl\drivers/peripheral/gpio/cy_gpio.h ****     CY_ASSERT_L2(CY_GPIO_IS_PIN_VALID(pinNum));
 808:Generated_Source\PSoC6\pdl\drivers/peripheral/gpio/cy_gpio.h ****     CY_ASSERT_L2(CY_GPIO_IS_VALUE_VALID(value));
 809:Generated_Source\PSoC6\pdl\drivers/peripheral/gpio/cy_gpio.h **** 
 810:Generated_Source\PSoC6\pdl\drivers/peripheral/gpio/cy_gpio.h ****     /* Thread-safe: Directly access the pin registers instead of base->OUT */
 811:Generated_Source\PSoC6\pdl\drivers/peripheral/gpio/cy_gpio.h ****     if(0UL == value)
 812:Generated_Source\PSoC6\pdl\drivers/peripheral/gpio/cy_gpio.h ****     {
 813:Generated_Source\PSoC6\pdl\drivers/peripheral/gpio/cy_gpio.h ****         GPIO_PRT_OUT_CLR(base) = CY_GPIO_OUT_MASK << pinNum;
 814:Generated_Source\PSoC6\pdl\drivers/peripheral/gpio/cy_gpio.h ****     }
 815:Generated_Source\PSoC6\pdl\drivers/peripheral/gpio/cy_gpio.h ****     else
 816:Generated_Source\PSoC6\pdl\drivers/peripheral/gpio/cy_gpio.h ****     {
 817:Generated_Source\PSoC6\pdl\drivers/peripheral/gpio/cy_gpio.h ****         GPIO_PRT_OUT_SET(base) = CY_GPIO_OUT_MASK << pinNum;
 696              		.loc 2 817 0
 697 00e2 0822     		movs	r2, #8
 698 00e4 364B     		ldr	r3, .L29+20
 699 00e6 9A60     		str	r2, [r3, #8]
 700              	.LVL100:
 701              	.LBE23:
 702              	.LBE22:
 278:LED_task.c    ****         Cy_GPIO_Write(P0_3_PORT, P0_3_NUM, 1);
 279:LED_task.c    ****         LED_flag = false;
 703              		.loc 1 279 0
 704 00e8 0022     		movs	r2, #0
 705 00ea 304B     		ldr	r3, .L29
 706 00ec 1A70     		strb	r2, [r3]
 707              	.L25:
 280:LED_task.c    ****         
 281:LED_task.c    ****     }
 282:LED_task.c    ****     
 283:LED_task.c    **** 
 284:LED_task.c    ****     
 285:LED_task.c    ****     
 286:LED_task.c    ****     GUI_DrawRect(7,7,257,120);
 708              		.loc 1 286 0
 709 00ee 7823     		movs	r3, #120
 710 00f0 40F20112 		movw	r2, #257
 711 00f4 0721     		movs	r1, #7
 712 00f6 0846     		mov	r0, r1
 713 00f8 FFF7FEFF 		bl	GUI_DrawRect
 714              	.LVL101:
 287:LED_task.c    ****     GUI_SetFont(GUI_FONT_16B_1);
 715              		.loc 1 287 0
 716 00fc 2E48     		ldr	r0, .L29+12
 717 00fe FFF7FEFF 		bl	GUI_SetFont
ARM GAS  C:\Users\nicpa\AppData\Local\Temp\ccPr5feD.s 			page 33


 718              	.LVL102:
 288:LED_task.c    ****     GUI_SetTextAlign(GUI_TA_CENTER);
 719              		.loc 1 288 0
 720 0102 0220     		movs	r0, #2
 721 0104 FFF7FEFF 		bl	GUI_SetTextAlign
 722              	.LVL103:
 289:LED_task.c    ****     char frequence[4] = "";
 723              		.loc 1 289 0
 724 0108 0023     		movs	r3, #0
 725 010a 0293     		str	r3, [sp, #8]
 290:LED_task.c    ****     char taux_oxy[5] = "";
 726              		.loc 1 290 0
 727 010c 0093     		str	r3, [sp]
 728 010e 8DF80430 		strb	r3, [sp, #4]
 291:LED_task.c    ****     sprintf(frequence,"%d",(int)fc);
 729              		.loc 1 291 0
 730 0112 2C4C     		ldr	r4, .L29+24
 731 0114 3A46     		mov	r2, r7
 732 0116 2146     		mov	r1, r4
 733 0118 02A8     		add	r0, sp, #8
 734 011a FFF7FEFF 		bl	sprintf
 735              	.LVL104:
 292:LED_task.c    ****     sprintf(taux_oxy,"%d",(int)spo2);
 736              		.loc 1 292 0
 737 011e 4246     		mov	r2, r8
 738 0120 2146     		mov	r1, r4
 739 0122 6846     		mov	r0, sp
 740 0124 FFF7FEFF 		bl	sprintf
 741              	.LVL105:
 293:LED_task.c    ****     GUI_DispStringAt("SPO2", 190 ,130);
 742              		.loc 1 293 0
 743 0128 8222     		movs	r2, #130
 744 012a BE21     		movs	r1, #190
 745 012c 2648     		ldr	r0, .L29+28
 746 012e FFF7FEFF 		bl	GUI_DispStringAt
 747              	.LVL106:
 294:LED_task.c    ****     GUI_DispStringAt("Heart Rate",40 ,130);
 748              		.loc 1 294 0
 749 0132 8222     		movs	r2, #130
 750 0134 2821     		movs	r1, #40
 751 0136 2548     		ldr	r0, .L29+32
 752 0138 FFF7FEFF 		bl	GUI_DispStringAt
 753              	.LVL107:
 295:LED_task.c    ****     GUI_SetFont(GUI_FONT_16_1);
 754              		.loc 1 295 0
 755 013c 2448     		ldr	r0, .L29+36
 756 013e FFF7FEFF 		bl	GUI_SetFont
 757              	.LVL108:
 296:LED_task.c    ****     GUI_DispStringAt(frequence, 65, 155);
 758              		.loc 1 296 0
 759 0142 9B22     		movs	r2, #155
 760 0144 4121     		movs	r1, #65
 761 0146 02A8     		add	r0, sp, #8
 762 0148 FFF7FEFF 		bl	GUI_DispStringAt
 763              	.LVL109:
 297:LED_task.c    ****     
 298:LED_task.c    ****     
ARM GAS  C:\Users\nicpa\AppData\Local\Temp\ccPr5feD.s 			page 34


 299:LED_task.c    ****     if((fc>hrmax || fc<hrmin)&& alerte)
 764              		.loc 1 299 0
 765 014c 214B     		ldr	r3, .L29+40
 766 014e 1B68     		ldr	r3, [r3]
 767 0150 9F42     		cmp	r7, r3
 768 0152 03D8     		bhi	.L26
 769              		.loc 1 299 0 is_stmt 0 discriminator 2
 770 0154 204B     		ldr	r3, .L29+44
 771 0156 1B68     		ldr	r3, [r3]
 772 0158 9F42     		cmp	r7, r3
 773 015a 10D2     		bcs	.L27
 774              	.L26:
 775              		.loc 1 299 0 discriminator 3
 776 015c 154B     		ldr	r3, .L29+8
 777 015e 1B78     		ldrb	r3, [r3]	@ zero_extendqisi2
 778 0160 6BB1     		cbz	r3, .L27
 300:LED_task.c    ****     {
 301:LED_task.c    ****         GUI_SetFont(GUI_FONT_32B_1);        
 779              		.loc 1 301 0 is_stmt 1
 780 0162 1E48     		ldr	r0, .L29+48
 781 0164 FFF7FEFF 		bl	GUI_SetFont
 782              	.LVL110:
 302:LED_task.c    ****         GUI_DispStringAt("!!!", 25, 145);
 783              		.loc 1 302 0
 784 0168 1D4C     		ldr	r4, .L29+52
 785 016a 9122     		movs	r2, #145
 786 016c 1921     		movs	r1, #25
 787 016e 2046     		mov	r0, r4
 788 0170 FFF7FEFF 		bl	GUI_DispStringAt
 789              	.LVL111:
 303:LED_task.c    ****         GUI_DispStringAt("!!!", 90, 145);
 790              		.loc 1 303 0
 791 0174 9122     		movs	r2, #145
 792 0176 5A21     		movs	r1, #90
 793 0178 2046     		mov	r0, r4
 794 017a FFF7FEFF 		bl	GUI_DispStringAt
 795              	.LVL112:
 796              	.L27:
 304:LED_task.c    ****     }
 305:LED_task.c    ****    
 306:LED_task.c    ****     
 307:LED_task.c    ****     GUI_SetFont(GUI_FONT_16_1);
 797              		.loc 1 307 0
 798 017e 1448     		ldr	r0, .L29+36
 799 0180 FFF7FEFF 		bl	GUI_SetFont
 800              	.LVL113:
 308:LED_task.c    ****     GUI_DispStringAt(taux_oxy, 180, 155);
 801              		.loc 1 308 0
 802 0184 9B22     		movs	r2, #155
 803 0186 B421     		movs	r1, #180
 804 0188 6846     		mov	r0, sp
 805 018a FFF7FEFF 		bl	GUI_DispStringAt
 806              	.LVL114:
 309:LED_task.c    ****     GUI_DispStringAt("%",200 ,155);
 807              		.loc 1 309 0
 808 018e 9B22     		movs	r2, #155
 809 0190 C821     		movs	r1, #200
ARM GAS  C:\Users\nicpa\AppData\Local\Temp\ccPr5feD.s 			page 35


 810 0192 1448     		ldr	r0, .L29+56
 811 0194 FFF7FEFF 		bl	GUI_DispStringAt
 812              	.LVL115:
 310:LED_task.c    ****     
 311:LED_task.c    ****     UpdateDisplay(CY_EINK_FULL_2STAGE, true);
 813              		.loc 1 311 0
 814 0198 0121     		movs	r1, #1
 815 019a 0220     		movs	r0, #2
 816 019c FFF7FEFF 		bl	UpdateDisplay
 817              	.LVL116:
 312:LED_task.c    **** }
 818              		.loc 1 312 0
 819 01a0 0DF5007D 		add	sp, sp, #512
 820              		.cfi_def_cfa_offset 32
 821              		@ sp needed
 822 01a4 BDEC028B 		vldm	sp!, {d8}
 823              		.cfi_restore 80
 824              		.cfi_restore 81
 825              		.cfi_def_cfa_offset 24
 826              	.LVL117:
 827 01a8 BDE8F081 		pop	{r4, r5, r6, r7, r8, pc}
 828              	.LVL118:
 829              	.L30:
 830              		.align	2
 831              	.L29:
 832 01ac 00000000 		.word	LED_flag
 833 01b0 00001643 		.word	1125515264
 834 01b4 00000000 		.word	alerte
 835 01b8 00000000 		.word	GUI_Font16B_1
 836 01bc D0000000 		.word	.LC12
 837 01c0 00003240 		.word	1077018624
 838 01c4 7C000000 		.word	.LC7
 839 01c8 E4000000 		.word	.LC13
 840 01cc EC000000 		.word	.LC14
 841 01d0 00000000 		.word	GUI_Font16_1
 842 01d4 00000000 		.word	hrmax
 843 01d8 00000000 		.word	hrmin
 844 01dc 00000000 		.word	GUI_Font32B_1
 845 01e0 F8000000 		.word	.LC15
 846 01e4 FC000000 		.word	.LC16
 847              		.cfi_endproc
 848              	.LFE702:
 849              		.size	updateSignal, .-updateSignal
 850              		.section	.text.vINTERFACE_task,"ax",%progbits
 851              		.align	2
 852              		.global	vINTERFACE_task
 853              		.thumb
 854              		.thumb_func
 855              		.type	vINTERFACE_task, %function
 856              	vINTERFACE_task:
 857              	.LFB703:
 313:LED_task.c    **** 
 314:LED_task.c    **** 
 315:LED_task.c    **** /*******************************************************************************
 316:LED_task.c    **** * Function Name: void vINTERFACE_task(void* pvParameters)
 317:LED_task.c    **** ********************************************************************************
 318:LED_task.c    **** *
ARM GAS  C:\Users\nicpa\AppData\Local\Temp\ccPr5feD.s 			page 36


 319:LED_task.c    **** * Summary:  
 320:LED_task.c    **** * C’est une tâche qui vérifie la variable représentant la page actuelle et la variable représ
 321:LED_task.c    **** * bouton. Dépendamment de ces deux variables, elle appelle des fonctions d’affichage et peut aus
 322:LED_task.c    **** * modifier certaine variable, comment changer la page actuelle.
 323:LED_task.c    **** *
 324:LED_task.c    **** * Parameters:
 325:LED_task.c    **** * void* pvParameters
 326:LED_task.c    **** *
 327:LED_task.c    **** * Return:
 328:LED_task.c    **** *  None
 329:LED_task.c    **** *
 330:LED_task.c    **** *******************************************************************************/
 331:LED_task.c    **** 
 332:LED_task.c    **** void vINTERFACE_task(void* pvParameters){
 858              		.loc 1 332 0
 859              		.cfi_startproc
 860              		@ args = 0, pretend = 0, frame = 0
 861              		@ frame_needed = 0, uses_anonymous_args = 0
 862              	.LVL119:
 863 0000 70B5     		push	{r4, r5, r6, lr}
 864              		.cfi_def_cfa_offset 16
 865              		.cfi_offset 4, -16
 866              		.cfi_offset 5, -12
 867              		.cfi_offset 6, -8
 868              		.cfi_offset 14, -4
 869 0002 82B0     		sub	sp, sp, #8
 870              		.cfi_def_cfa_offset 24
 333:LED_task.c    ****     
 334:LED_task.c    ****     
 335:LED_task.c    ****     (void)pvParameters;
 336:LED_task.c    ****     GUI_Init();
 871              		.loc 1 336 0
 872 0004 FFF7FEFF 		bl	GUI_Init
 873              	.LVL120:
 337:LED_task.c    ****     Cy_EINK_Start(20);
 874              		.loc 1 337 0
 875 0008 1420     		movs	r0, #20
 876 000a FFF7FEFF 		bl	Cy_EINK_Start
 877              	.LVL121:
 338:LED_task.c    ****     Cy_EINK_Power(1);
 878              		.loc 1 338 0
 879 000e 0120     		movs	r0, #1
 880 0010 FFF7FEFF 		bl	Cy_EINK_Power
 881              	.LVL122:
 339:LED_task.c    ****     int8_t selection = 1;
 340:LED_task.c    ****     updateMenu(selection);
 882              		.loc 1 340 0
 883 0014 0120     		movs	r0, #1
 884 0016 FFF7FEFF 		bl	updateMenu
 885              	.LVL123:
 341:LED_task.c    **** 
 342:LED_task.c    ****     NVIC_DisableIRQ(PPG_RDY_isr_cfg.intrSrc);
 886              		.loc 1 342 0
 887 001a 794B     		ldr	r3, .L54
 888 001c B3F90030 		ldrsh	r3, [r3]
 889              	.LVL124:
 890              	.LBB24:
ARM GAS  C:\Users\nicpa\AppData\Local\Temp\ccPr5feD.s 			page 37


 891              	.LBB25:
 892              		.file 3 ".\\CMSIS\\Core\\Include/core_cm4.h"
   1:.\CMSIS\Core\Include/core_cm4.h **** /**************************************************************************//**
   2:.\CMSIS\Core\Include/core_cm4.h ****  * @file     core_cm4.h
   3:.\CMSIS\Core\Include/core_cm4.h ****  * @brief    CMSIS Cortex-M4 Core Peripheral Access Layer Header File
   4:.\CMSIS\Core\Include/core_cm4.h ****  * @version  V5.0.7
   5:.\CMSIS\Core\Include/core_cm4.h ****  * @date     28. May 2018
   6:.\CMSIS\Core\Include/core_cm4.h ****  ******************************************************************************/
   7:.\CMSIS\Core\Include/core_cm4.h **** /*
   8:.\CMSIS\Core\Include/core_cm4.h ****  * Copyright (c) 2009-2017 ARM Limited. All rights reserved.
   9:.\CMSIS\Core\Include/core_cm4.h ****  *
  10:.\CMSIS\Core\Include/core_cm4.h ****  * SPDX-License-Identifier: Apache-2.0
  11:.\CMSIS\Core\Include/core_cm4.h ****  *
  12:.\CMSIS\Core\Include/core_cm4.h ****  * Licensed under the Apache License, Version 2.0 (the License); you may
  13:.\CMSIS\Core\Include/core_cm4.h ****  * not use this file except in compliance with the License.
  14:.\CMSIS\Core\Include/core_cm4.h ****  * You may obtain a copy of the License at
  15:.\CMSIS\Core\Include/core_cm4.h ****  *
  16:.\CMSIS\Core\Include/core_cm4.h ****  * www.apache.org/licenses/LICENSE-2.0
  17:.\CMSIS\Core\Include/core_cm4.h ****  *
  18:.\CMSIS\Core\Include/core_cm4.h ****  * Unless required by applicable law or agreed to in writing, software
  19:.\CMSIS\Core\Include/core_cm4.h ****  * distributed under the License is distributed on an AS IS BASIS, WITHOUT
  20:.\CMSIS\Core\Include/core_cm4.h ****  * WARRANTIES OR CONDITIONS OF ANY KIND, either express or implied.
  21:.\CMSIS\Core\Include/core_cm4.h ****  * See the License for the specific language governing permissions and
  22:.\CMSIS\Core\Include/core_cm4.h ****  * limitations under the License.
  23:.\CMSIS\Core\Include/core_cm4.h ****  */
  24:.\CMSIS\Core\Include/core_cm4.h **** 
  25:.\CMSIS\Core\Include/core_cm4.h **** #if   defined ( __ICCARM__ )
  26:.\CMSIS\Core\Include/core_cm4.h ****   #pragma system_include         /* treat file as system include file for MISRA check */
  27:.\CMSIS\Core\Include/core_cm4.h **** #elif defined (__clang__)
  28:.\CMSIS\Core\Include/core_cm4.h ****   #pragma clang system_header   /* treat file as system include file */
  29:.\CMSIS\Core\Include/core_cm4.h **** #endif
  30:.\CMSIS\Core\Include/core_cm4.h **** 
  31:.\CMSIS\Core\Include/core_cm4.h **** #ifndef __CORE_CM4_H_GENERIC
  32:.\CMSIS\Core\Include/core_cm4.h **** #define __CORE_CM4_H_GENERIC
  33:.\CMSIS\Core\Include/core_cm4.h **** 
  34:.\CMSIS\Core\Include/core_cm4.h **** #include <stdint.h>
  35:.\CMSIS\Core\Include/core_cm4.h **** 
  36:.\CMSIS\Core\Include/core_cm4.h **** #ifdef __cplusplus
  37:.\CMSIS\Core\Include/core_cm4.h ****  extern "C" {
  38:.\CMSIS\Core\Include/core_cm4.h **** #endif
  39:.\CMSIS\Core\Include/core_cm4.h **** 
  40:.\CMSIS\Core\Include/core_cm4.h **** /**
  41:.\CMSIS\Core\Include/core_cm4.h ****   \page CMSIS_MISRA_Exceptions  MISRA-C:2004 Compliance Exceptions
  42:.\CMSIS\Core\Include/core_cm4.h ****   CMSIS violates the following MISRA-C:2004 rules:
  43:.\CMSIS\Core\Include/core_cm4.h **** 
  44:.\CMSIS\Core\Include/core_cm4.h ****    \li Required Rule 8.5, object/function definition in header file.<br>
  45:.\CMSIS\Core\Include/core_cm4.h ****      Function definitions in header files are used to allow 'inlining'.
  46:.\CMSIS\Core\Include/core_cm4.h **** 
  47:.\CMSIS\Core\Include/core_cm4.h ****    \li Required Rule 18.4, declaration of union type or object of union type: '{...}'.<br>
  48:.\CMSIS\Core\Include/core_cm4.h ****      Unions are used for effective representation of core registers.
  49:.\CMSIS\Core\Include/core_cm4.h **** 
  50:.\CMSIS\Core\Include/core_cm4.h ****    \li Advisory Rule 19.7, Function-like macro defined.<br>
  51:.\CMSIS\Core\Include/core_cm4.h ****      Function-like macros are used to allow more efficient code.
  52:.\CMSIS\Core\Include/core_cm4.h ****  */
  53:.\CMSIS\Core\Include/core_cm4.h **** 
  54:.\CMSIS\Core\Include/core_cm4.h **** 
  55:.\CMSIS\Core\Include/core_cm4.h **** /*******************************************************************************
ARM GAS  C:\Users\nicpa\AppData\Local\Temp\ccPr5feD.s 			page 38


  56:.\CMSIS\Core\Include/core_cm4.h ****  *                 CMSIS definitions
  57:.\CMSIS\Core\Include/core_cm4.h ****  ******************************************************************************/
  58:.\CMSIS\Core\Include/core_cm4.h **** /**
  59:.\CMSIS\Core\Include/core_cm4.h ****   \ingroup Cortex_M4
  60:.\CMSIS\Core\Include/core_cm4.h ****   @{
  61:.\CMSIS\Core\Include/core_cm4.h ****  */
  62:.\CMSIS\Core\Include/core_cm4.h **** 
  63:.\CMSIS\Core\Include/core_cm4.h **** #include "cmsis_version.h"
  64:.\CMSIS\Core\Include/core_cm4.h ****  
  65:.\CMSIS\Core\Include/core_cm4.h **** /* CMSIS CM4 definitions */
  66:.\CMSIS\Core\Include/core_cm4.h **** #define __CM4_CMSIS_VERSION_MAIN  (__CM_CMSIS_VERSION_MAIN)              /*!< \deprecated [31:16] C
  67:.\CMSIS\Core\Include/core_cm4.h **** #define __CM4_CMSIS_VERSION_SUB   (__CM_CMSIS_VERSION_SUB)               /*!< \deprecated [15:0]  C
  68:.\CMSIS\Core\Include/core_cm4.h **** #define __CM4_CMSIS_VERSION       ((__CM4_CMSIS_VERSION_MAIN << 16U) | \
  69:.\CMSIS\Core\Include/core_cm4.h ****                                     __CM4_CMSIS_VERSION_SUB           )  /*!< \deprecated CMSIS HAL
  70:.\CMSIS\Core\Include/core_cm4.h **** 
  71:.\CMSIS\Core\Include/core_cm4.h **** #define __CORTEX_M                (4U)                                   /*!< Cortex-M Core */
  72:.\CMSIS\Core\Include/core_cm4.h **** 
  73:.\CMSIS\Core\Include/core_cm4.h **** /** __FPU_USED indicates whether an FPU is used or not.
  74:.\CMSIS\Core\Include/core_cm4.h ****     For this, __FPU_PRESENT has to be checked prior to making use of FPU specific registers and fun
  75:.\CMSIS\Core\Include/core_cm4.h **** */
  76:.\CMSIS\Core\Include/core_cm4.h **** #if defined ( __CC_ARM )
  77:.\CMSIS\Core\Include/core_cm4.h ****   #if defined __TARGET_FPU_VFP
  78:.\CMSIS\Core\Include/core_cm4.h ****     #if defined (__FPU_PRESENT) && (__FPU_PRESENT == 1U)
  79:.\CMSIS\Core\Include/core_cm4.h ****       #define __FPU_USED       1U
  80:.\CMSIS\Core\Include/core_cm4.h ****     #else
  81:.\CMSIS\Core\Include/core_cm4.h ****       #error "Compiler generates FPU instructions for a device without an FPU (check __FPU_PRESENT)
  82:.\CMSIS\Core\Include/core_cm4.h ****       #define __FPU_USED       0U
  83:.\CMSIS\Core\Include/core_cm4.h ****     #endif
  84:.\CMSIS\Core\Include/core_cm4.h ****   #else
  85:.\CMSIS\Core\Include/core_cm4.h ****     #define __FPU_USED         0U
  86:.\CMSIS\Core\Include/core_cm4.h ****   #endif
  87:.\CMSIS\Core\Include/core_cm4.h **** 
  88:.\CMSIS\Core\Include/core_cm4.h **** #elif defined (__ARMCC_VERSION) && (__ARMCC_VERSION >= 6010050)
  89:.\CMSIS\Core\Include/core_cm4.h ****   #if defined __ARM_PCS_VFP
  90:.\CMSIS\Core\Include/core_cm4.h ****     #if defined (__FPU_PRESENT) && (__FPU_PRESENT == 1U)
  91:.\CMSIS\Core\Include/core_cm4.h ****       #define __FPU_USED       1U
  92:.\CMSIS\Core\Include/core_cm4.h ****     #else
  93:.\CMSIS\Core\Include/core_cm4.h ****       #warning "Compiler generates FPU instructions for a device without an FPU (check __FPU_PRESEN
  94:.\CMSIS\Core\Include/core_cm4.h ****       #define __FPU_USED       0U
  95:.\CMSIS\Core\Include/core_cm4.h ****     #endif
  96:.\CMSIS\Core\Include/core_cm4.h ****   #else
  97:.\CMSIS\Core\Include/core_cm4.h ****     #define __FPU_USED         0U
  98:.\CMSIS\Core\Include/core_cm4.h ****   #endif
  99:.\CMSIS\Core\Include/core_cm4.h **** 
 100:.\CMSIS\Core\Include/core_cm4.h **** #elif defined ( __GNUC__ )
 101:.\CMSIS\Core\Include/core_cm4.h ****   #if defined (__VFP_FP__) && !defined(__SOFTFP__)
 102:.\CMSIS\Core\Include/core_cm4.h ****     #if defined (__FPU_PRESENT) && (__FPU_PRESENT == 1U)
 103:.\CMSIS\Core\Include/core_cm4.h ****       #define __FPU_USED       1U
 104:.\CMSIS\Core\Include/core_cm4.h ****     #else
 105:.\CMSIS\Core\Include/core_cm4.h ****       #error "Compiler generates FPU instructions for a device without an FPU (check __FPU_PRESENT)
 106:.\CMSIS\Core\Include/core_cm4.h ****       #define __FPU_USED       0U
 107:.\CMSIS\Core\Include/core_cm4.h ****     #endif
 108:.\CMSIS\Core\Include/core_cm4.h ****   #else
 109:.\CMSIS\Core\Include/core_cm4.h ****     #define __FPU_USED         0U
 110:.\CMSIS\Core\Include/core_cm4.h ****   #endif
 111:.\CMSIS\Core\Include/core_cm4.h **** 
 112:.\CMSIS\Core\Include/core_cm4.h **** #elif defined ( __ICCARM__ )
ARM GAS  C:\Users\nicpa\AppData\Local\Temp\ccPr5feD.s 			page 39


 113:.\CMSIS\Core\Include/core_cm4.h ****   #if defined __ARMVFP__
 114:.\CMSIS\Core\Include/core_cm4.h ****     #if defined (__FPU_PRESENT) && (__FPU_PRESENT == 1U)
 115:.\CMSIS\Core\Include/core_cm4.h ****       #define __FPU_USED       1U
 116:.\CMSIS\Core\Include/core_cm4.h ****     #else
 117:.\CMSIS\Core\Include/core_cm4.h ****       #error "Compiler generates FPU instructions for a device without an FPU (check __FPU_PRESENT)
 118:.\CMSIS\Core\Include/core_cm4.h ****       #define __FPU_USED       0U
 119:.\CMSIS\Core\Include/core_cm4.h ****     #endif
 120:.\CMSIS\Core\Include/core_cm4.h ****   #else
 121:.\CMSIS\Core\Include/core_cm4.h ****     #define __FPU_USED         0U
 122:.\CMSIS\Core\Include/core_cm4.h ****   #endif
 123:.\CMSIS\Core\Include/core_cm4.h **** 
 124:.\CMSIS\Core\Include/core_cm4.h **** #elif defined ( __TI_ARM__ )
 125:.\CMSIS\Core\Include/core_cm4.h ****   #if defined __TI_VFP_SUPPORT__
 126:.\CMSIS\Core\Include/core_cm4.h ****     #if defined (__FPU_PRESENT) && (__FPU_PRESENT == 1U)
 127:.\CMSIS\Core\Include/core_cm4.h ****       #define __FPU_USED       1U
 128:.\CMSIS\Core\Include/core_cm4.h ****     #else
 129:.\CMSIS\Core\Include/core_cm4.h ****       #error "Compiler generates FPU instructions for a device without an FPU (check __FPU_PRESENT)
 130:.\CMSIS\Core\Include/core_cm4.h ****       #define __FPU_USED       0U
 131:.\CMSIS\Core\Include/core_cm4.h ****     #endif
 132:.\CMSIS\Core\Include/core_cm4.h ****   #else
 133:.\CMSIS\Core\Include/core_cm4.h ****     #define __FPU_USED         0U
 134:.\CMSIS\Core\Include/core_cm4.h ****   #endif
 135:.\CMSIS\Core\Include/core_cm4.h **** 
 136:.\CMSIS\Core\Include/core_cm4.h **** #elif defined ( __TASKING__ )
 137:.\CMSIS\Core\Include/core_cm4.h ****   #if defined __FPU_VFP__
 138:.\CMSIS\Core\Include/core_cm4.h ****     #if defined (__FPU_PRESENT) && (__FPU_PRESENT == 1U)
 139:.\CMSIS\Core\Include/core_cm4.h ****       #define __FPU_USED       1U
 140:.\CMSIS\Core\Include/core_cm4.h ****     #else
 141:.\CMSIS\Core\Include/core_cm4.h ****       #error "Compiler generates FPU instructions for a device without an FPU (check __FPU_PRESENT)
 142:.\CMSIS\Core\Include/core_cm4.h ****       #define __FPU_USED       0U
 143:.\CMSIS\Core\Include/core_cm4.h ****     #endif
 144:.\CMSIS\Core\Include/core_cm4.h ****   #else
 145:.\CMSIS\Core\Include/core_cm4.h ****     #define __FPU_USED         0U
 146:.\CMSIS\Core\Include/core_cm4.h ****   #endif
 147:.\CMSIS\Core\Include/core_cm4.h **** 
 148:.\CMSIS\Core\Include/core_cm4.h **** #elif defined ( __CSMC__ )
 149:.\CMSIS\Core\Include/core_cm4.h ****   #if ( __CSMC__ & 0x400U)
 150:.\CMSIS\Core\Include/core_cm4.h ****     #if defined (__FPU_PRESENT) && (__FPU_PRESENT == 1U)
 151:.\CMSIS\Core\Include/core_cm4.h ****       #define __FPU_USED       1U
 152:.\CMSIS\Core\Include/core_cm4.h ****     #else
 153:.\CMSIS\Core\Include/core_cm4.h ****       #error "Compiler generates FPU instructions for a device without an FPU (check __FPU_PRESENT)
 154:.\CMSIS\Core\Include/core_cm4.h ****       #define __FPU_USED       0U
 155:.\CMSIS\Core\Include/core_cm4.h ****     #endif
 156:.\CMSIS\Core\Include/core_cm4.h ****   #else
 157:.\CMSIS\Core\Include/core_cm4.h ****     #define __FPU_USED         0U
 158:.\CMSIS\Core\Include/core_cm4.h ****   #endif
 159:.\CMSIS\Core\Include/core_cm4.h **** 
 160:.\CMSIS\Core\Include/core_cm4.h **** #endif
 161:.\CMSIS\Core\Include/core_cm4.h **** 
 162:.\CMSIS\Core\Include/core_cm4.h **** #include "cmsis_compiler.h"               /* CMSIS compiler specific defines */
 163:.\CMSIS\Core\Include/core_cm4.h **** 
 164:.\CMSIS\Core\Include/core_cm4.h **** 
 165:.\CMSIS\Core\Include/core_cm4.h **** #ifdef __cplusplus
 166:.\CMSIS\Core\Include/core_cm4.h **** }
 167:.\CMSIS\Core\Include/core_cm4.h **** #endif
 168:.\CMSIS\Core\Include/core_cm4.h **** 
 169:.\CMSIS\Core\Include/core_cm4.h **** #endif /* __CORE_CM4_H_GENERIC */
ARM GAS  C:\Users\nicpa\AppData\Local\Temp\ccPr5feD.s 			page 40


 170:.\CMSIS\Core\Include/core_cm4.h **** 
 171:.\CMSIS\Core\Include/core_cm4.h **** #ifndef __CMSIS_GENERIC
 172:.\CMSIS\Core\Include/core_cm4.h **** 
 173:.\CMSIS\Core\Include/core_cm4.h **** #ifndef __CORE_CM4_H_DEPENDANT
 174:.\CMSIS\Core\Include/core_cm4.h **** #define __CORE_CM4_H_DEPENDANT
 175:.\CMSIS\Core\Include/core_cm4.h **** 
 176:.\CMSIS\Core\Include/core_cm4.h **** #ifdef __cplusplus
 177:.\CMSIS\Core\Include/core_cm4.h ****  extern "C" {
 178:.\CMSIS\Core\Include/core_cm4.h **** #endif
 179:.\CMSIS\Core\Include/core_cm4.h **** 
 180:.\CMSIS\Core\Include/core_cm4.h **** /* check device defines and use defaults */
 181:.\CMSIS\Core\Include/core_cm4.h **** #if defined __CHECK_DEVICE_DEFINES
 182:.\CMSIS\Core\Include/core_cm4.h ****   #ifndef __CM4_REV
 183:.\CMSIS\Core\Include/core_cm4.h ****     #define __CM4_REV               0x0000U
 184:.\CMSIS\Core\Include/core_cm4.h ****     #warning "__CM4_REV not defined in device header file; using default!"
 185:.\CMSIS\Core\Include/core_cm4.h ****   #endif
 186:.\CMSIS\Core\Include/core_cm4.h **** 
 187:.\CMSIS\Core\Include/core_cm4.h ****   #ifndef __FPU_PRESENT
 188:.\CMSIS\Core\Include/core_cm4.h ****     #define __FPU_PRESENT             0U
 189:.\CMSIS\Core\Include/core_cm4.h ****     #warning "__FPU_PRESENT not defined in device header file; using default!"
 190:.\CMSIS\Core\Include/core_cm4.h ****   #endif
 191:.\CMSIS\Core\Include/core_cm4.h **** 
 192:.\CMSIS\Core\Include/core_cm4.h ****   #ifndef __MPU_PRESENT
 193:.\CMSIS\Core\Include/core_cm4.h ****     #define __MPU_PRESENT             0U
 194:.\CMSIS\Core\Include/core_cm4.h ****     #warning "__MPU_PRESENT not defined in device header file; using default!"
 195:.\CMSIS\Core\Include/core_cm4.h ****   #endif
 196:.\CMSIS\Core\Include/core_cm4.h **** 
 197:.\CMSIS\Core\Include/core_cm4.h ****   #ifndef __NVIC_PRIO_BITS
 198:.\CMSIS\Core\Include/core_cm4.h ****     #define __NVIC_PRIO_BITS          3U
 199:.\CMSIS\Core\Include/core_cm4.h ****     #warning "__NVIC_PRIO_BITS not defined in device header file; using default!"
 200:.\CMSIS\Core\Include/core_cm4.h ****   #endif
 201:.\CMSIS\Core\Include/core_cm4.h **** 
 202:.\CMSIS\Core\Include/core_cm4.h ****   #ifndef __Vendor_SysTickConfig
 203:.\CMSIS\Core\Include/core_cm4.h ****     #define __Vendor_SysTickConfig    0U
 204:.\CMSIS\Core\Include/core_cm4.h ****     #warning "__Vendor_SysTickConfig not defined in device header file; using default!"
 205:.\CMSIS\Core\Include/core_cm4.h ****   #endif
 206:.\CMSIS\Core\Include/core_cm4.h **** #endif
 207:.\CMSIS\Core\Include/core_cm4.h **** 
 208:.\CMSIS\Core\Include/core_cm4.h **** /* IO definitions (access restrictions to peripheral registers) */
 209:.\CMSIS\Core\Include/core_cm4.h **** /**
 210:.\CMSIS\Core\Include/core_cm4.h ****     \defgroup CMSIS_glob_defs CMSIS Global Defines
 211:.\CMSIS\Core\Include/core_cm4.h **** 
 212:.\CMSIS\Core\Include/core_cm4.h ****     <strong>IO Type Qualifiers</strong> are used
 213:.\CMSIS\Core\Include/core_cm4.h ****     \li to specify the access to peripheral variables.
 214:.\CMSIS\Core\Include/core_cm4.h ****     \li for automatic generation of peripheral register debug information.
 215:.\CMSIS\Core\Include/core_cm4.h **** */
 216:.\CMSIS\Core\Include/core_cm4.h **** #ifdef __cplusplus
 217:.\CMSIS\Core\Include/core_cm4.h ****   #define   __I     volatile             /*!< Defines 'read only' permissions */
 218:.\CMSIS\Core\Include/core_cm4.h **** #else
 219:.\CMSIS\Core\Include/core_cm4.h ****   #define   __I     volatile const       /*!< Defines 'read only' permissions */
 220:.\CMSIS\Core\Include/core_cm4.h **** #endif
 221:.\CMSIS\Core\Include/core_cm4.h **** #define     __O     volatile             /*!< Defines 'write only' permissions */
 222:.\CMSIS\Core\Include/core_cm4.h **** #define     __IO    volatile             /*!< Defines 'read / write' permissions */
 223:.\CMSIS\Core\Include/core_cm4.h **** 
 224:.\CMSIS\Core\Include/core_cm4.h **** /* following defines should be used for structure members */
 225:.\CMSIS\Core\Include/core_cm4.h **** #define     __IM     volatile const      /*! Defines 'read only' structure member permissions */
 226:.\CMSIS\Core\Include/core_cm4.h **** #define     __OM     volatile            /*! Defines 'write only' structure member permissions */
ARM GAS  C:\Users\nicpa\AppData\Local\Temp\ccPr5feD.s 			page 41


 227:.\CMSIS\Core\Include/core_cm4.h **** #define     __IOM    volatile            /*! Defines 'read / write' structure member permissions */
 228:.\CMSIS\Core\Include/core_cm4.h **** 
 229:.\CMSIS\Core\Include/core_cm4.h **** /*@} end of group Cortex_M4 */
 230:.\CMSIS\Core\Include/core_cm4.h **** 
 231:.\CMSIS\Core\Include/core_cm4.h **** 
 232:.\CMSIS\Core\Include/core_cm4.h **** 
 233:.\CMSIS\Core\Include/core_cm4.h **** /*******************************************************************************
 234:.\CMSIS\Core\Include/core_cm4.h ****  *                 Register Abstraction
 235:.\CMSIS\Core\Include/core_cm4.h ****   Core Register contain:
 236:.\CMSIS\Core\Include/core_cm4.h ****   - Core Register
 237:.\CMSIS\Core\Include/core_cm4.h ****   - Core NVIC Register
 238:.\CMSIS\Core\Include/core_cm4.h ****   - Core SCB Register
 239:.\CMSIS\Core\Include/core_cm4.h ****   - Core SysTick Register
 240:.\CMSIS\Core\Include/core_cm4.h ****   - Core Debug Register
 241:.\CMSIS\Core\Include/core_cm4.h ****   - Core MPU Register
 242:.\CMSIS\Core\Include/core_cm4.h ****   - Core FPU Register
 243:.\CMSIS\Core\Include/core_cm4.h ****  ******************************************************************************/
 244:.\CMSIS\Core\Include/core_cm4.h **** /**
 245:.\CMSIS\Core\Include/core_cm4.h ****   \defgroup CMSIS_core_register Defines and Type Definitions
 246:.\CMSIS\Core\Include/core_cm4.h ****   \brief Type definitions and defines for Cortex-M processor based devices.
 247:.\CMSIS\Core\Include/core_cm4.h **** */
 248:.\CMSIS\Core\Include/core_cm4.h **** 
 249:.\CMSIS\Core\Include/core_cm4.h **** /**
 250:.\CMSIS\Core\Include/core_cm4.h ****   \ingroup    CMSIS_core_register
 251:.\CMSIS\Core\Include/core_cm4.h ****   \defgroup   CMSIS_CORE  Status and Control Registers
 252:.\CMSIS\Core\Include/core_cm4.h ****   \brief      Core Register type definitions.
 253:.\CMSIS\Core\Include/core_cm4.h ****   @{
 254:.\CMSIS\Core\Include/core_cm4.h ****  */
 255:.\CMSIS\Core\Include/core_cm4.h **** 
 256:.\CMSIS\Core\Include/core_cm4.h **** /**
 257:.\CMSIS\Core\Include/core_cm4.h ****   \brief  Union type to access the Application Program Status Register (APSR).
 258:.\CMSIS\Core\Include/core_cm4.h ****  */
 259:.\CMSIS\Core\Include/core_cm4.h **** typedef union
 260:.\CMSIS\Core\Include/core_cm4.h **** {
 261:.\CMSIS\Core\Include/core_cm4.h ****   struct
 262:.\CMSIS\Core\Include/core_cm4.h ****   {
 263:.\CMSIS\Core\Include/core_cm4.h ****     uint32_t _reserved0:16;              /*!< bit:  0..15  Reserved */
 264:.\CMSIS\Core\Include/core_cm4.h ****     uint32_t GE:4;                       /*!< bit: 16..19  Greater than or Equal flags */
 265:.\CMSIS\Core\Include/core_cm4.h ****     uint32_t _reserved1:7;               /*!< bit: 20..26  Reserved */
 266:.\CMSIS\Core\Include/core_cm4.h ****     uint32_t Q:1;                        /*!< bit:     27  Saturation condition flag */
 267:.\CMSIS\Core\Include/core_cm4.h ****     uint32_t V:1;                        /*!< bit:     28  Overflow condition code flag */
 268:.\CMSIS\Core\Include/core_cm4.h ****     uint32_t C:1;                        /*!< bit:     29  Carry condition code flag */
 269:.\CMSIS\Core\Include/core_cm4.h ****     uint32_t Z:1;                        /*!< bit:     30  Zero condition code flag */
 270:.\CMSIS\Core\Include/core_cm4.h ****     uint32_t N:1;                        /*!< bit:     31  Negative condition code flag */
 271:.\CMSIS\Core\Include/core_cm4.h ****   } b;                                   /*!< Structure used for bit  access */
 272:.\CMSIS\Core\Include/core_cm4.h ****   uint32_t w;                            /*!< Type      used for word access */
 273:.\CMSIS\Core\Include/core_cm4.h **** } APSR_Type;
 274:.\CMSIS\Core\Include/core_cm4.h **** 
 275:.\CMSIS\Core\Include/core_cm4.h **** /* APSR Register Definitions */
 276:.\CMSIS\Core\Include/core_cm4.h **** #define APSR_N_Pos                         31U                                            /*!< APSR
 277:.\CMSIS\Core\Include/core_cm4.h **** #define APSR_N_Msk                         (1UL << APSR_N_Pos)                            /*!< APSR
 278:.\CMSIS\Core\Include/core_cm4.h **** 
 279:.\CMSIS\Core\Include/core_cm4.h **** #define APSR_Z_Pos                         30U                                            /*!< APSR
 280:.\CMSIS\Core\Include/core_cm4.h **** #define APSR_Z_Msk                         (1UL << APSR_Z_Pos)                            /*!< APSR
 281:.\CMSIS\Core\Include/core_cm4.h **** 
 282:.\CMSIS\Core\Include/core_cm4.h **** #define APSR_C_Pos                         29U                                            /*!< APSR
 283:.\CMSIS\Core\Include/core_cm4.h **** #define APSR_C_Msk                         (1UL << APSR_C_Pos)                            /*!< APSR
ARM GAS  C:\Users\nicpa\AppData\Local\Temp\ccPr5feD.s 			page 42


 284:.\CMSIS\Core\Include/core_cm4.h **** 
 285:.\CMSIS\Core\Include/core_cm4.h **** #define APSR_V_Pos                         28U                                            /*!< APSR
 286:.\CMSIS\Core\Include/core_cm4.h **** #define APSR_V_Msk                         (1UL << APSR_V_Pos)                            /*!< APSR
 287:.\CMSIS\Core\Include/core_cm4.h **** 
 288:.\CMSIS\Core\Include/core_cm4.h **** #define APSR_Q_Pos                         27U                                            /*!< APSR
 289:.\CMSIS\Core\Include/core_cm4.h **** #define APSR_Q_Msk                         (1UL << APSR_Q_Pos)                            /*!< APSR
 290:.\CMSIS\Core\Include/core_cm4.h **** 
 291:.\CMSIS\Core\Include/core_cm4.h **** #define APSR_GE_Pos                        16U                                            /*!< APSR
 292:.\CMSIS\Core\Include/core_cm4.h **** #define APSR_GE_Msk                        (0xFUL << APSR_GE_Pos)                         /*!< APSR
 293:.\CMSIS\Core\Include/core_cm4.h **** 
 294:.\CMSIS\Core\Include/core_cm4.h **** 
 295:.\CMSIS\Core\Include/core_cm4.h **** /**
 296:.\CMSIS\Core\Include/core_cm4.h ****   \brief  Union type to access the Interrupt Program Status Register (IPSR).
 297:.\CMSIS\Core\Include/core_cm4.h ****  */
 298:.\CMSIS\Core\Include/core_cm4.h **** typedef union
 299:.\CMSIS\Core\Include/core_cm4.h **** {
 300:.\CMSIS\Core\Include/core_cm4.h ****   struct
 301:.\CMSIS\Core\Include/core_cm4.h ****   {
 302:.\CMSIS\Core\Include/core_cm4.h ****     uint32_t ISR:9;                      /*!< bit:  0.. 8  Exception number */
 303:.\CMSIS\Core\Include/core_cm4.h ****     uint32_t _reserved0:23;              /*!< bit:  9..31  Reserved */
 304:.\CMSIS\Core\Include/core_cm4.h ****   } b;                                   /*!< Structure used for bit  access */
 305:.\CMSIS\Core\Include/core_cm4.h ****   uint32_t w;                            /*!< Type      used for word access */
 306:.\CMSIS\Core\Include/core_cm4.h **** } IPSR_Type;
 307:.\CMSIS\Core\Include/core_cm4.h **** 
 308:.\CMSIS\Core\Include/core_cm4.h **** /* IPSR Register Definitions */
 309:.\CMSIS\Core\Include/core_cm4.h **** #define IPSR_ISR_Pos                        0U                                            /*!< IPSR
 310:.\CMSIS\Core\Include/core_cm4.h **** #define IPSR_ISR_Msk                       (0x1FFUL /*<< IPSR_ISR_Pos*/)                  /*!< IPSR
 311:.\CMSIS\Core\Include/core_cm4.h **** 
 312:.\CMSIS\Core\Include/core_cm4.h **** 
 313:.\CMSIS\Core\Include/core_cm4.h **** /**
 314:.\CMSIS\Core\Include/core_cm4.h ****   \brief  Union type to access the Special-Purpose Program Status Registers (xPSR).
 315:.\CMSIS\Core\Include/core_cm4.h ****  */
 316:.\CMSIS\Core\Include/core_cm4.h **** typedef union
 317:.\CMSIS\Core\Include/core_cm4.h **** {
 318:.\CMSIS\Core\Include/core_cm4.h ****   struct
 319:.\CMSIS\Core\Include/core_cm4.h ****   {
 320:.\CMSIS\Core\Include/core_cm4.h ****     uint32_t ISR:9;                      /*!< bit:  0.. 8  Exception number */
 321:.\CMSIS\Core\Include/core_cm4.h ****     uint32_t _reserved0:1;               /*!< bit:      9  Reserved */
 322:.\CMSIS\Core\Include/core_cm4.h ****     uint32_t ICI_IT_1:6;                 /*!< bit: 10..15  ICI/IT part 1 */
 323:.\CMSIS\Core\Include/core_cm4.h ****     uint32_t GE:4;                       /*!< bit: 16..19  Greater than or Equal flags */
 324:.\CMSIS\Core\Include/core_cm4.h ****     uint32_t _reserved1:4;               /*!< bit: 20..23  Reserved */
 325:.\CMSIS\Core\Include/core_cm4.h ****     uint32_t T:1;                        /*!< bit:     24  Thumb bit */
 326:.\CMSIS\Core\Include/core_cm4.h ****     uint32_t ICI_IT_2:2;                 /*!< bit: 25..26  ICI/IT part 2 */
 327:.\CMSIS\Core\Include/core_cm4.h ****     uint32_t Q:1;                        /*!< bit:     27  Saturation condition flag */
 328:.\CMSIS\Core\Include/core_cm4.h ****     uint32_t V:1;                        /*!< bit:     28  Overflow condition code flag */
 329:.\CMSIS\Core\Include/core_cm4.h ****     uint32_t C:1;                        /*!< bit:     29  Carry condition code flag */
 330:.\CMSIS\Core\Include/core_cm4.h ****     uint32_t Z:1;                        /*!< bit:     30  Zero condition code flag */
 331:.\CMSIS\Core\Include/core_cm4.h ****     uint32_t N:1;                        /*!< bit:     31  Negative condition code flag */
 332:.\CMSIS\Core\Include/core_cm4.h ****   } b;                                   /*!< Structure used for bit  access */
 333:.\CMSIS\Core\Include/core_cm4.h ****   uint32_t w;                            /*!< Type      used for word access */
 334:.\CMSIS\Core\Include/core_cm4.h **** } xPSR_Type;
 335:.\CMSIS\Core\Include/core_cm4.h **** 
 336:.\CMSIS\Core\Include/core_cm4.h **** /* xPSR Register Definitions */
 337:.\CMSIS\Core\Include/core_cm4.h **** #define xPSR_N_Pos                         31U                                            /*!< xPSR
 338:.\CMSIS\Core\Include/core_cm4.h **** #define xPSR_N_Msk                         (1UL << xPSR_N_Pos)                            /*!< xPSR
 339:.\CMSIS\Core\Include/core_cm4.h **** 
 340:.\CMSIS\Core\Include/core_cm4.h **** #define xPSR_Z_Pos                         30U                                            /*!< xPSR
ARM GAS  C:\Users\nicpa\AppData\Local\Temp\ccPr5feD.s 			page 43


 341:.\CMSIS\Core\Include/core_cm4.h **** #define xPSR_Z_Msk                         (1UL << xPSR_Z_Pos)                            /*!< xPSR
 342:.\CMSIS\Core\Include/core_cm4.h **** 
 343:.\CMSIS\Core\Include/core_cm4.h **** #define xPSR_C_Pos                         29U                                            /*!< xPSR
 344:.\CMSIS\Core\Include/core_cm4.h **** #define xPSR_C_Msk                         (1UL << xPSR_C_Pos)                            /*!< xPSR
 345:.\CMSIS\Core\Include/core_cm4.h **** 
 346:.\CMSIS\Core\Include/core_cm4.h **** #define xPSR_V_Pos                         28U                                            /*!< xPSR
 347:.\CMSIS\Core\Include/core_cm4.h **** #define xPSR_V_Msk                         (1UL << xPSR_V_Pos)                            /*!< xPSR
 348:.\CMSIS\Core\Include/core_cm4.h **** 
 349:.\CMSIS\Core\Include/core_cm4.h **** #define xPSR_Q_Pos                         27U                                            /*!< xPSR
 350:.\CMSIS\Core\Include/core_cm4.h **** #define xPSR_Q_Msk                         (1UL << xPSR_Q_Pos)                            /*!< xPSR
 351:.\CMSIS\Core\Include/core_cm4.h **** 
 352:.\CMSIS\Core\Include/core_cm4.h **** #define xPSR_ICI_IT_2_Pos                  25U                                            /*!< xPSR
 353:.\CMSIS\Core\Include/core_cm4.h **** #define xPSR_ICI_IT_2_Msk                  (3UL << xPSR_ICI_IT_2_Pos)                     /*!< xPSR
 354:.\CMSIS\Core\Include/core_cm4.h **** 
 355:.\CMSIS\Core\Include/core_cm4.h **** #define xPSR_T_Pos                         24U                                            /*!< xPSR
 356:.\CMSIS\Core\Include/core_cm4.h **** #define xPSR_T_Msk                         (1UL << xPSR_T_Pos)                            /*!< xPSR
 357:.\CMSIS\Core\Include/core_cm4.h **** 
 358:.\CMSIS\Core\Include/core_cm4.h **** #define xPSR_GE_Pos                        16U                                            /*!< xPSR
 359:.\CMSIS\Core\Include/core_cm4.h **** #define xPSR_GE_Msk                        (0xFUL << xPSR_GE_Pos)                         /*!< xPSR
 360:.\CMSIS\Core\Include/core_cm4.h **** 
 361:.\CMSIS\Core\Include/core_cm4.h **** #define xPSR_ICI_IT_1_Pos                  10U                                            /*!< xPSR
 362:.\CMSIS\Core\Include/core_cm4.h **** #define xPSR_ICI_IT_1_Msk                  (0x3FUL << xPSR_ICI_IT_1_Pos)                  /*!< xPSR
 363:.\CMSIS\Core\Include/core_cm4.h **** 
 364:.\CMSIS\Core\Include/core_cm4.h **** #define xPSR_ISR_Pos                        0U                                            /*!< xPSR
 365:.\CMSIS\Core\Include/core_cm4.h **** #define xPSR_ISR_Msk                       (0x1FFUL /*<< xPSR_ISR_Pos*/)                  /*!< xPSR
 366:.\CMSIS\Core\Include/core_cm4.h **** 
 367:.\CMSIS\Core\Include/core_cm4.h **** 
 368:.\CMSIS\Core\Include/core_cm4.h **** /**
 369:.\CMSIS\Core\Include/core_cm4.h ****   \brief  Union type to access the Control Registers (CONTROL).
 370:.\CMSIS\Core\Include/core_cm4.h ****  */
 371:.\CMSIS\Core\Include/core_cm4.h **** typedef union
 372:.\CMSIS\Core\Include/core_cm4.h **** {
 373:.\CMSIS\Core\Include/core_cm4.h ****   struct
 374:.\CMSIS\Core\Include/core_cm4.h ****   {
 375:.\CMSIS\Core\Include/core_cm4.h ****     uint32_t nPRIV:1;                    /*!< bit:      0  Execution privilege in Thread mode */
 376:.\CMSIS\Core\Include/core_cm4.h ****     uint32_t SPSEL:1;                    /*!< bit:      1  Stack to be used */
 377:.\CMSIS\Core\Include/core_cm4.h ****     uint32_t FPCA:1;                     /*!< bit:      2  FP extension active flag */
 378:.\CMSIS\Core\Include/core_cm4.h ****     uint32_t _reserved0:29;              /*!< bit:  3..31  Reserved */
 379:.\CMSIS\Core\Include/core_cm4.h ****   } b;                                   /*!< Structure used for bit  access */
 380:.\CMSIS\Core\Include/core_cm4.h ****   uint32_t w;                            /*!< Type      used for word access */
 381:.\CMSIS\Core\Include/core_cm4.h **** } CONTROL_Type;
 382:.\CMSIS\Core\Include/core_cm4.h **** 
 383:.\CMSIS\Core\Include/core_cm4.h **** /* CONTROL Register Definitions */
 384:.\CMSIS\Core\Include/core_cm4.h **** #define CONTROL_FPCA_Pos                    2U                                            /*!< CONT
 385:.\CMSIS\Core\Include/core_cm4.h **** #define CONTROL_FPCA_Msk                   (1UL << CONTROL_FPCA_Pos)                      /*!< CONT
 386:.\CMSIS\Core\Include/core_cm4.h **** 
 387:.\CMSIS\Core\Include/core_cm4.h **** #define CONTROL_SPSEL_Pos                   1U                                            /*!< CONT
 388:.\CMSIS\Core\Include/core_cm4.h **** #define CONTROL_SPSEL_Msk                  (1UL << CONTROL_SPSEL_Pos)                     /*!< CONT
 389:.\CMSIS\Core\Include/core_cm4.h **** 
 390:.\CMSIS\Core\Include/core_cm4.h **** #define CONTROL_nPRIV_Pos                   0U                                            /*!< CONT
 391:.\CMSIS\Core\Include/core_cm4.h **** #define CONTROL_nPRIV_Msk                  (1UL /*<< CONTROL_nPRIV_Pos*/)                 /*!< CONT
 392:.\CMSIS\Core\Include/core_cm4.h **** 
 393:.\CMSIS\Core\Include/core_cm4.h **** /*@} end of group CMSIS_CORE */
 394:.\CMSIS\Core\Include/core_cm4.h **** 
 395:.\CMSIS\Core\Include/core_cm4.h **** 
 396:.\CMSIS\Core\Include/core_cm4.h **** /**
 397:.\CMSIS\Core\Include/core_cm4.h ****   \ingroup    CMSIS_core_register
ARM GAS  C:\Users\nicpa\AppData\Local\Temp\ccPr5feD.s 			page 44


 398:.\CMSIS\Core\Include/core_cm4.h ****   \defgroup   CMSIS_NVIC  Nested Vectored Interrupt Controller (NVIC)
 399:.\CMSIS\Core\Include/core_cm4.h ****   \brief      Type definitions for the NVIC Registers
 400:.\CMSIS\Core\Include/core_cm4.h ****   @{
 401:.\CMSIS\Core\Include/core_cm4.h ****  */
 402:.\CMSIS\Core\Include/core_cm4.h **** 
 403:.\CMSIS\Core\Include/core_cm4.h **** /**
 404:.\CMSIS\Core\Include/core_cm4.h ****   \brief  Structure type to access the Nested Vectored Interrupt Controller (NVIC).
 405:.\CMSIS\Core\Include/core_cm4.h ****  */
 406:.\CMSIS\Core\Include/core_cm4.h **** typedef struct
 407:.\CMSIS\Core\Include/core_cm4.h **** {
 408:.\CMSIS\Core\Include/core_cm4.h ****   __IOM uint32_t ISER[8U];               /*!< Offset: 0x000 (R/W)  Interrupt Set Enable Register */
 409:.\CMSIS\Core\Include/core_cm4.h ****         uint32_t RESERVED0[24U];
 410:.\CMSIS\Core\Include/core_cm4.h ****   __IOM uint32_t ICER[8U];               /*!< Offset: 0x080 (R/W)  Interrupt Clear Enable Register 
 411:.\CMSIS\Core\Include/core_cm4.h ****         uint32_t RSERVED1[24U];
 412:.\CMSIS\Core\Include/core_cm4.h ****   __IOM uint32_t ISPR[8U];               /*!< Offset: 0x100 (R/W)  Interrupt Set Pending Register *
 413:.\CMSIS\Core\Include/core_cm4.h ****         uint32_t RESERVED2[24U];
 414:.\CMSIS\Core\Include/core_cm4.h ****   __IOM uint32_t ICPR[8U];               /*!< Offset: 0x180 (R/W)  Interrupt Clear Pending Register
 415:.\CMSIS\Core\Include/core_cm4.h ****         uint32_t RESERVED3[24U];
 416:.\CMSIS\Core\Include/core_cm4.h ****   __IOM uint32_t IABR[8U];               /*!< Offset: 0x200 (R/W)  Interrupt Active bit Register */
 417:.\CMSIS\Core\Include/core_cm4.h ****         uint32_t RESERVED4[56U];
 418:.\CMSIS\Core\Include/core_cm4.h ****   __IOM uint8_t  IP[240U];               /*!< Offset: 0x300 (R/W)  Interrupt Priority Register (8Bi
 419:.\CMSIS\Core\Include/core_cm4.h ****         uint32_t RESERVED5[644U];
 420:.\CMSIS\Core\Include/core_cm4.h ****   __OM  uint32_t STIR;                   /*!< Offset: 0xE00 ( /W)  Software Trigger Interrupt Regis
 421:.\CMSIS\Core\Include/core_cm4.h **** }  NVIC_Type;
 422:.\CMSIS\Core\Include/core_cm4.h **** 
 423:.\CMSIS\Core\Include/core_cm4.h **** /* Software Triggered Interrupt Register Definitions */
 424:.\CMSIS\Core\Include/core_cm4.h **** #define NVIC_STIR_INTID_Pos                 0U                                         /*!< STIR: I
 425:.\CMSIS\Core\Include/core_cm4.h **** #define NVIC_STIR_INTID_Msk                (0x1FFUL /*<< NVIC_STIR_INTID_Pos*/)        /*!< STIR: I
 426:.\CMSIS\Core\Include/core_cm4.h **** 
 427:.\CMSIS\Core\Include/core_cm4.h **** /*@} end of group CMSIS_NVIC */
 428:.\CMSIS\Core\Include/core_cm4.h **** 
 429:.\CMSIS\Core\Include/core_cm4.h **** 
 430:.\CMSIS\Core\Include/core_cm4.h **** /**
 431:.\CMSIS\Core\Include/core_cm4.h ****   \ingroup  CMSIS_core_register
 432:.\CMSIS\Core\Include/core_cm4.h ****   \defgroup CMSIS_SCB     System Control Block (SCB)
 433:.\CMSIS\Core\Include/core_cm4.h ****   \brief    Type definitions for the System Control Block Registers
 434:.\CMSIS\Core\Include/core_cm4.h ****   @{
 435:.\CMSIS\Core\Include/core_cm4.h ****  */
 436:.\CMSIS\Core\Include/core_cm4.h **** 
 437:.\CMSIS\Core\Include/core_cm4.h **** /**
 438:.\CMSIS\Core\Include/core_cm4.h ****   \brief  Structure type to access the System Control Block (SCB).
 439:.\CMSIS\Core\Include/core_cm4.h ****  */
 440:.\CMSIS\Core\Include/core_cm4.h **** typedef struct
 441:.\CMSIS\Core\Include/core_cm4.h **** {
 442:.\CMSIS\Core\Include/core_cm4.h ****   __IM  uint32_t CPUID;                  /*!< Offset: 0x000 (R/ )  CPUID Base Register */
 443:.\CMSIS\Core\Include/core_cm4.h ****   __IOM uint32_t ICSR;                   /*!< Offset: 0x004 (R/W)  Interrupt Control and State Regi
 444:.\CMSIS\Core\Include/core_cm4.h ****   __IOM uint32_t VTOR;                   /*!< Offset: 0x008 (R/W)  Vector Table Offset Register */
 445:.\CMSIS\Core\Include/core_cm4.h ****   __IOM uint32_t AIRCR;                  /*!< Offset: 0x00C (R/W)  Application Interrupt and Reset 
 446:.\CMSIS\Core\Include/core_cm4.h ****   __IOM uint32_t SCR;                    /*!< Offset: 0x010 (R/W)  System Control Register */
 447:.\CMSIS\Core\Include/core_cm4.h ****   __IOM uint32_t CCR;                    /*!< Offset: 0x014 (R/W)  Configuration Control Register *
 448:.\CMSIS\Core\Include/core_cm4.h ****   __IOM uint8_t  SHP[12U];               /*!< Offset: 0x018 (R/W)  System Handlers Priority Registe
 449:.\CMSIS\Core\Include/core_cm4.h ****   __IOM uint32_t SHCSR;                  /*!< Offset: 0x024 (R/W)  System Handler Control and State
 450:.\CMSIS\Core\Include/core_cm4.h ****   __IOM uint32_t CFSR;                   /*!< Offset: 0x028 (R/W)  Configurable Fault Status Regist
 451:.\CMSIS\Core\Include/core_cm4.h ****   __IOM uint32_t HFSR;                   /*!< Offset: 0x02C (R/W)  HardFault Status Register */
 452:.\CMSIS\Core\Include/core_cm4.h ****   __IOM uint32_t DFSR;                   /*!< Offset: 0x030 (R/W)  Debug Fault Status Register */
 453:.\CMSIS\Core\Include/core_cm4.h ****   __IOM uint32_t MMFAR;                  /*!< Offset: 0x034 (R/W)  MemManage Fault Address Register
 454:.\CMSIS\Core\Include/core_cm4.h ****   __IOM uint32_t BFAR;                   /*!< Offset: 0x038 (R/W)  BusFault Address Register */
ARM GAS  C:\Users\nicpa\AppData\Local\Temp\ccPr5feD.s 			page 45


 455:.\CMSIS\Core\Include/core_cm4.h ****   __IOM uint32_t AFSR;                   /*!< Offset: 0x03C (R/W)  Auxiliary Fault Status Register 
 456:.\CMSIS\Core\Include/core_cm4.h ****   __IM  uint32_t PFR[2U];                /*!< Offset: 0x040 (R/ )  Processor Feature Register */
 457:.\CMSIS\Core\Include/core_cm4.h ****   __IM  uint32_t DFR;                    /*!< Offset: 0x048 (R/ )  Debug Feature Register */
 458:.\CMSIS\Core\Include/core_cm4.h ****   __IM  uint32_t ADR;                    /*!< Offset: 0x04C (R/ )  Auxiliary Feature Register */
 459:.\CMSIS\Core\Include/core_cm4.h ****   __IM  uint32_t MMFR[4U];               /*!< Offset: 0x050 (R/ )  Memory Model Feature Register */
 460:.\CMSIS\Core\Include/core_cm4.h ****   __IM  uint32_t ISAR[5U];               /*!< Offset: 0x060 (R/ )  Instruction Set Attributes Regis
 461:.\CMSIS\Core\Include/core_cm4.h ****         uint32_t RESERVED0[5U];
 462:.\CMSIS\Core\Include/core_cm4.h ****   __IOM uint32_t CPACR;                  /*!< Offset: 0x088 (R/W)  Coprocessor Access Control Regis
 463:.\CMSIS\Core\Include/core_cm4.h **** } SCB_Type;
 464:.\CMSIS\Core\Include/core_cm4.h **** 
 465:.\CMSIS\Core\Include/core_cm4.h **** /* SCB CPUID Register Definitions */
 466:.\CMSIS\Core\Include/core_cm4.h **** #define SCB_CPUID_IMPLEMENTER_Pos          24U                                            /*!< SCB 
 467:.\CMSIS\Core\Include/core_cm4.h **** #define SCB_CPUID_IMPLEMENTER_Msk          (0xFFUL << SCB_CPUID_IMPLEMENTER_Pos)          /*!< SCB 
 468:.\CMSIS\Core\Include/core_cm4.h **** 
 469:.\CMSIS\Core\Include/core_cm4.h **** #define SCB_CPUID_VARIANT_Pos              20U                                            /*!< SCB 
 470:.\CMSIS\Core\Include/core_cm4.h **** #define SCB_CPUID_VARIANT_Msk              (0xFUL << SCB_CPUID_VARIANT_Pos)               /*!< SCB 
 471:.\CMSIS\Core\Include/core_cm4.h **** 
 472:.\CMSIS\Core\Include/core_cm4.h **** #define SCB_CPUID_ARCHITECTURE_Pos         16U                                            /*!< SCB 
 473:.\CMSIS\Core\Include/core_cm4.h **** #define SCB_CPUID_ARCHITECTURE_Msk         (0xFUL << SCB_CPUID_ARCHITECTURE_Pos)          /*!< SCB 
 474:.\CMSIS\Core\Include/core_cm4.h **** 
 475:.\CMSIS\Core\Include/core_cm4.h **** #define SCB_CPUID_PARTNO_Pos                4U                                            /*!< SCB 
 476:.\CMSIS\Core\Include/core_cm4.h **** #define SCB_CPUID_PARTNO_Msk               (0xFFFUL << SCB_CPUID_PARTNO_Pos)              /*!< SCB 
 477:.\CMSIS\Core\Include/core_cm4.h **** 
 478:.\CMSIS\Core\Include/core_cm4.h **** #define SCB_CPUID_REVISION_Pos              0U                                            /*!< SCB 
 479:.\CMSIS\Core\Include/core_cm4.h **** #define SCB_CPUID_REVISION_Msk             (0xFUL /*<< SCB_CPUID_REVISION_Pos*/)          /*!< SCB 
 480:.\CMSIS\Core\Include/core_cm4.h **** 
 481:.\CMSIS\Core\Include/core_cm4.h **** /* SCB Interrupt Control State Register Definitions */
 482:.\CMSIS\Core\Include/core_cm4.h **** #define SCB_ICSR_NMIPENDSET_Pos            31U                                            /*!< SCB 
 483:.\CMSIS\Core\Include/core_cm4.h **** #define SCB_ICSR_NMIPENDSET_Msk            (1UL << SCB_ICSR_NMIPENDSET_Pos)               /*!< SCB 
 484:.\CMSIS\Core\Include/core_cm4.h **** 
 485:.\CMSIS\Core\Include/core_cm4.h **** #define SCB_ICSR_PENDSVSET_Pos             28U                                            /*!< SCB 
 486:.\CMSIS\Core\Include/core_cm4.h **** #define SCB_ICSR_PENDSVSET_Msk             (1UL << SCB_ICSR_PENDSVSET_Pos)                /*!< SCB 
 487:.\CMSIS\Core\Include/core_cm4.h **** 
 488:.\CMSIS\Core\Include/core_cm4.h **** #define SCB_ICSR_PENDSVCLR_Pos             27U                                            /*!< SCB 
 489:.\CMSIS\Core\Include/core_cm4.h **** #define SCB_ICSR_PENDSVCLR_Msk             (1UL << SCB_ICSR_PENDSVCLR_Pos)                /*!< SCB 
 490:.\CMSIS\Core\Include/core_cm4.h **** 
 491:.\CMSIS\Core\Include/core_cm4.h **** #define SCB_ICSR_PENDSTSET_Pos             26U                                            /*!< SCB 
 492:.\CMSIS\Core\Include/core_cm4.h **** #define SCB_ICSR_PENDSTSET_Msk             (1UL << SCB_ICSR_PENDSTSET_Pos)                /*!< SCB 
 493:.\CMSIS\Core\Include/core_cm4.h **** 
 494:.\CMSIS\Core\Include/core_cm4.h **** #define SCB_ICSR_PENDSTCLR_Pos             25U                                            /*!< SCB 
 495:.\CMSIS\Core\Include/core_cm4.h **** #define SCB_ICSR_PENDSTCLR_Msk             (1UL << SCB_ICSR_PENDSTCLR_Pos)                /*!< SCB 
 496:.\CMSIS\Core\Include/core_cm4.h **** 
 497:.\CMSIS\Core\Include/core_cm4.h **** #define SCB_ICSR_ISRPREEMPT_Pos            23U                                            /*!< SCB 
 498:.\CMSIS\Core\Include/core_cm4.h **** #define SCB_ICSR_ISRPREEMPT_Msk            (1UL << SCB_ICSR_ISRPREEMPT_Pos)               /*!< SCB 
 499:.\CMSIS\Core\Include/core_cm4.h **** 
 500:.\CMSIS\Core\Include/core_cm4.h **** #define SCB_ICSR_ISRPENDING_Pos            22U                                            /*!< SCB 
 501:.\CMSIS\Core\Include/core_cm4.h **** #define SCB_ICSR_ISRPENDING_Msk            (1UL << SCB_ICSR_ISRPENDING_Pos)               /*!< SCB 
 502:.\CMSIS\Core\Include/core_cm4.h **** 
 503:.\CMSIS\Core\Include/core_cm4.h **** #define SCB_ICSR_VECTPENDING_Pos           12U                                            /*!< SCB 
 504:.\CMSIS\Core\Include/core_cm4.h **** #define SCB_ICSR_VECTPENDING_Msk           (0x1FFUL << SCB_ICSR_VECTPENDING_Pos)          /*!< SCB 
 505:.\CMSIS\Core\Include/core_cm4.h **** 
 506:.\CMSIS\Core\Include/core_cm4.h **** #define SCB_ICSR_RETTOBASE_Pos             11U                                            /*!< SCB 
 507:.\CMSIS\Core\Include/core_cm4.h **** #define SCB_ICSR_RETTOBASE_Msk             (1UL << SCB_ICSR_RETTOBASE_Pos)                /*!< SCB 
 508:.\CMSIS\Core\Include/core_cm4.h **** 
 509:.\CMSIS\Core\Include/core_cm4.h **** #define SCB_ICSR_VECTACTIVE_Pos             0U                                            /*!< SCB 
 510:.\CMSIS\Core\Include/core_cm4.h **** #define SCB_ICSR_VECTACTIVE_Msk            (0x1FFUL /*<< SCB_ICSR_VECTACTIVE_Pos*/)       /*!< SCB 
 511:.\CMSIS\Core\Include/core_cm4.h **** 
ARM GAS  C:\Users\nicpa\AppData\Local\Temp\ccPr5feD.s 			page 46


 512:.\CMSIS\Core\Include/core_cm4.h **** /* SCB Vector Table Offset Register Definitions */
 513:.\CMSIS\Core\Include/core_cm4.h **** #define SCB_VTOR_TBLOFF_Pos                 7U                                            /*!< SCB 
 514:.\CMSIS\Core\Include/core_cm4.h **** #define SCB_VTOR_TBLOFF_Msk                (0x1FFFFFFUL << SCB_VTOR_TBLOFF_Pos)           /*!< SCB 
 515:.\CMSIS\Core\Include/core_cm4.h **** 
 516:.\CMSIS\Core\Include/core_cm4.h **** /* SCB Application Interrupt and Reset Control Register Definitions */
 517:.\CMSIS\Core\Include/core_cm4.h **** #define SCB_AIRCR_VECTKEY_Pos              16U                                            /*!< SCB 
 518:.\CMSIS\Core\Include/core_cm4.h **** #define SCB_AIRCR_VECTKEY_Msk              (0xFFFFUL << SCB_AIRCR_VECTKEY_Pos)            /*!< SCB 
 519:.\CMSIS\Core\Include/core_cm4.h **** 
 520:.\CMSIS\Core\Include/core_cm4.h **** #define SCB_AIRCR_VECTKEYSTAT_Pos          16U                                            /*!< SCB 
 521:.\CMSIS\Core\Include/core_cm4.h **** #define SCB_AIRCR_VECTKEYSTAT_Msk          (0xFFFFUL << SCB_AIRCR_VECTKEYSTAT_Pos)        /*!< SCB 
 522:.\CMSIS\Core\Include/core_cm4.h **** 
 523:.\CMSIS\Core\Include/core_cm4.h **** #define SCB_AIRCR_ENDIANESS_Pos            15U                                            /*!< SCB 
 524:.\CMSIS\Core\Include/core_cm4.h **** #define SCB_AIRCR_ENDIANESS_Msk            (1UL << SCB_AIRCR_ENDIANESS_Pos)               /*!< SCB 
 525:.\CMSIS\Core\Include/core_cm4.h **** 
 526:.\CMSIS\Core\Include/core_cm4.h **** #define SCB_AIRCR_PRIGROUP_Pos              8U                                            /*!< SCB 
 527:.\CMSIS\Core\Include/core_cm4.h **** #define SCB_AIRCR_PRIGROUP_Msk             (7UL << SCB_AIRCR_PRIGROUP_Pos)                /*!< SCB 
 528:.\CMSIS\Core\Include/core_cm4.h **** 
 529:.\CMSIS\Core\Include/core_cm4.h **** #define SCB_AIRCR_SYSRESETREQ_Pos           2U                                            /*!< SCB 
 530:.\CMSIS\Core\Include/core_cm4.h **** #define SCB_AIRCR_SYSRESETREQ_Msk          (1UL << SCB_AIRCR_SYSRESETREQ_Pos)             /*!< SCB 
 531:.\CMSIS\Core\Include/core_cm4.h **** 
 532:.\CMSIS\Core\Include/core_cm4.h **** #define SCB_AIRCR_VECTCLRACTIVE_Pos         1U                                            /*!< SCB 
 533:.\CMSIS\Core\Include/core_cm4.h **** #define SCB_AIRCR_VECTCLRACTIVE_Msk        (1UL << SCB_AIRCR_VECTCLRACTIVE_Pos)           /*!< SCB 
 534:.\CMSIS\Core\Include/core_cm4.h **** 
 535:.\CMSIS\Core\Include/core_cm4.h **** #define SCB_AIRCR_VECTRESET_Pos             0U                                            /*!< SCB 
 536:.\CMSIS\Core\Include/core_cm4.h **** #define SCB_AIRCR_VECTRESET_Msk            (1UL /*<< SCB_AIRCR_VECTRESET_Pos*/)           /*!< SCB 
 537:.\CMSIS\Core\Include/core_cm4.h **** 
 538:.\CMSIS\Core\Include/core_cm4.h **** /* SCB System Control Register Definitions */
 539:.\CMSIS\Core\Include/core_cm4.h **** #define SCB_SCR_SEVONPEND_Pos               4U                                            /*!< SCB 
 540:.\CMSIS\Core\Include/core_cm4.h **** #define SCB_SCR_SEVONPEND_Msk              (1UL << SCB_SCR_SEVONPEND_Pos)                 /*!< SCB 
 541:.\CMSIS\Core\Include/core_cm4.h **** 
 542:.\CMSIS\Core\Include/core_cm4.h **** #define SCB_SCR_SLEEPDEEP_Pos               2U                                            /*!< SCB 
 543:.\CMSIS\Core\Include/core_cm4.h **** #define SCB_SCR_SLEEPDEEP_Msk              (1UL << SCB_SCR_SLEEPDEEP_Pos)                 /*!< SCB 
 544:.\CMSIS\Core\Include/core_cm4.h **** 
 545:.\CMSIS\Core\Include/core_cm4.h **** #define SCB_SCR_SLEEPONEXIT_Pos             1U                                            /*!< SCB 
 546:.\CMSIS\Core\Include/core_cm4.h **** #define SCB_SCR_SLEEPONEXIT_Msk            (1UL << SCB_SCR_SLEEPONEXIT_Pos)               /*!< SCB 
 547:.\CMSIS\Core\Include/core_cm4.h **** 
 548:.\CMSIS\Core\Include/core_cm4.h **** /* SCB Configuration Control Register Definitions */
 549:.\CMSIS\Core\Include/core_cm4.h **** #define SCB_CCR_STKALIGN_Pos                9U                                            /*!< SCB 
 550:.\CMSIS\Core\Include/core_cm4.h **** #define SCB_CCR_STKALIGN_Msk               (1UL << SCB_CCR_STKALIGN_Pos)                  /*!< SCB 
 551:.\CMSIS\Core\Include/core_cm4.h **** 
 552:.\CMSIS\Core\Include/core_cm4.h **** #define SCB_CCR_BFHFNMIGN_Pos               8U                                            /*!< SCB 
 553:.\CMSIS\Core\Include/core_cm4.h **** #define SCB_CCR_BFHFNMIGN_Msk              (1UL << SCB_CCR_BFHFNMIGN_Pos)                 /*!< SCB 
 554:.\CMSIS\Core\Include/core_cm4.h **** 
 555:.\CMSIS\Core\Include/core_cm4.h **** #define SCB_CCR_DIV_0_TRP_Pos               4U                                            /*!< SCB 
 556:.\CMSIS\Core\Include/core_cm4.h **** #define SCB_CCR_DIV_0_TRP_Msk              (1UL << SCB_CCR_DIV_0_TRP_Pos)                 /*!< SCB 
 557:.\CMSIS\Core\Include/core_cm4.h **** 
 558:.\CMSIS\Core\Include/core_cm4.h **** #define SCB_CCR_UNALIGN_TRP_Pos             3U                                            /*!< SCB 
 559:.\CMSIS\Core\Include/core_cm4.h **** #define SCB_CCR_UNALIGN_TRP_Msk            (1UL << SCB_CCR_UNALIGN_TRP_Pos)               /*!< SCB 
 560:.\CMSIS\Core\Include/core_cm4.h **** 
 561:.\CMSIS\Core\Include/core_cm4.h **** #define SCB_CCR_USERSETMPEND_Pos            1U                                            /*!< SCB 
 562:.\CMSIS\Core\Include/core_cm4.h **** #define SCB_CCR_USERSETMPEND_Msk           (1UL << SCB_CCR_USERSETMPEND_Pos)              /*!< SCB 
 563:.\CMSIS\Core\Include/core_cm4.h **** 
 564:.\CMSIS\Core\Include/core_cm4.h **** #define SCB_CCR_NONBASETHRDENA_Pos          0U                                            /*!< SCB 
 565:.\CMSIS\Core\Include/core_cm4.h **** #define SCB_CCR_NONBASETHRDENA_Msk         (1UL /*<< SCB_CCR_NONBASETHRDENA_Pos*/)        /*!< SCB 
 566:.\CMSIS\Core\Include/core_cm4.h **** 
 567:.\CMSIS\Core\Include/core_cm4.h **** /* SCB System Handler Control and State Register Definitions */
 568:.\CMSIS\Core\Include/core_cm4.h **** #define SCB_SHCSR_USGFAULTENA_Pos          18U                                            /*!< SCB 
ARM GAS  C:\Users\nicpa\AppData\Local\Temp\ccPr5feD.s 			page 47


 569:.\CMSIS\Core\Include/core_cm4.h **** #define SCB_SHCSR_USGFAULTENA_Msk          (1UL << SCB_SHCSR_USGFAULTENA_Pos)             /*!< SCB 
 570:.\CMSIS\Core\Include/core_cm4.h **** 
 571:.\CMSIS\Core\Include/core_cm4.h **** #define SCB_SHCSR_BUSFAULTENA_Pos          17U                                            /*!< SCB 
 572:.\CMSIS\Core\Include/core_cm4.h **** #define SCB_SHCSR_BUSFAULTENA_Msk          (1UL << SCB_SHCSR_BUSFAULTENA_Pos)             /*!< SCB 
 573:.\CMSIS\Core\Include/core_cm4.h **** 
 574:.\CMSIS\Core\Include/core_cm4.h **** #define SCB_SHCSR_MEMFAULTENA_Pos          16U                                            /*!< SCB 
 575:.\CMSIS\Core\Include/core_cm4.h **** #define SCB_SHCSR_MEMFAULTENA_Msk          (1UL << SCB_SHCSR_MEMFAULTENA_Pos)             /*!< SCB 
 576:.\CMSIS\Core\Include/core_cm4.h **** 
 577:.\CMSIS\Core\Include/core_cm4.h **** #define SCB_SHCSR_SVCALLPENDED_Pos         15U                                            /*!< SCB 
 578:.\CMSIS\Core\Include/core_cm4.h **** #define SCB_SHCSR_SVCALLPENDED_Msk         (1UL << SCB_SHCSR_SVCALLPENDED_Pos)            /*!< SCB 
 579:.\CMSIS\Core\Include/core_cm4.h **** 
 580:.\CMSIS\Core\Include/core_cm4.h **** #define SCB_SHCSR_BUSFAULTPENDED_Pos       14U                                            /*!< SCB 
 581:.\CMSIS\Core\Include/core_cm4.h **** #define SCB_SHCSR_BUSFAULTPENDED_Msk       (1UL << SCB_SHCSR_BUSFAULTPENDED_Pos)          /*!< SCB 
 582:.\CMSIS\Core\Include/core_cm4.h **** 
 583:.\CMSIS\Core\Include/core_cm4.h **** #define SCB_SHCSR_MEMFAULTPENDED_Pos       13U                                            /*!< SCB 
 584:.\CMSIS\Core\Include/core_cm4.h **** #define SCB_SHCSR_MEMFAULTPENDED_Msk       (1UL << SCB_SHCSR_MEMFAULTPENDED_Pos)          /*!< SCB 
 585:.\CMSIS\Core\Include/core_cm4.h **** 
 586:.\CMSIS\Core\Include/core_cm4.h **** #define SCB_SHCSR_USGFAULTPENDED_Pos       12U                                            /*!< SCB 
 587:.\CMSIS\Core\Include/core_cm4.h **** #define SCB_SHCSR_USGFAULTPENDED_Msk       (1UL << SCB_SHCSR_USGFAULTPENDED_Pos)          /*!< SCB 
 588:.\CMSIS\Core\Include/core_cm4.h **** 
 589:.\CMSIS\Core\Include/core_cm4.h **** #define SCB_SHCSR_SYSTICKACT_Pos           11U                                            /*!< SCB 
 590:.\CMSIS\Core\Include/core_cm4.h **** #define SCB_SHCSR_SYSTICKACT_Msk           (1UL << SCB_SHCSR_SYSTICKACT_Pos)              /*!< SCB 
 591:.\CMSIS\Core\Include/core_cm4.h **** 
 592:.\CMSIS\Core\Include/core_cm4.h **** #define SCB_SHCSR_PENDSVACT_Pos            10U                                            /*!< SCB 
 593:.\CMSIS\Core\Include/core_cm4.h **** #define SCB_SHCSR_PENDSVACT_Msk            (1UL << SCB_SHCSR_PENDSVACT_Pos)               /*!< SCB 
 594:.\CMSIS\Core\Include/core_cm4.h **** 
 595:.\CMSIS\Core\Include/core_cm4.h **** #define SCB_SHCSR_MONITORACT_Pos            8U                                            /*!< SCB 
 596:.\CMSIS\Core\Include/core_cm4.h **** #define SCB_SHCSR_MONITORACT_Msk           (1UL << SCB_SHCSR_MONITORACT_Pos)              /*!< SCB 
 597:.\CMSIS\Core\Include/core_cm4.h **** 
 598:.\CMSIS\Core\Include/core_cm4.h **** #define SCB_SHCSR_SVCALLACT_Pos             7U                                            /*!< SCB 
 599:.\CMSIS\Core\Include/core_cm4.h **** #define SCB_SHCSR_SVCALLACT_Msk            (1UL << SCB_SHCSR_SVCALLACT_Pos)               /*!< SCB 
 600:.\CMSIS\Core\Include/core_cm4.h **** 
 601:.\CMSIS\Core\Include/core_cm4.h **** #define SCB_SHCSR_USGFAULTACT_Pos           3U                                            /*!< SCB 
 602:.\CMSIS\Core\Include/core_cm4.h **** #define SCB_SHCSR_USGFAULTACT_Msk          (1UL << SCB_SHCSR_USGFAULTACT_Pos)             /*!< SCB 
 603:.\CMSIS\Core\Include/core_cm4.h **** 
 604:.\CMSIS\Core\Include/core_cm4.h **** #define SCB_SHCSR_BUSFAULTACT_Pos           1U                                            /*!< SCB 
 605:.\CMSIS\Core\Include/core_cm4.h **** #define SCB_SHCSR_BUSFAULTACT_Msk          (1UL << SCB_SHCSR_BUSFAULTACT_Pos)             /*!< SCB 
 606:.\CMSIS\Core\Include/core_cm4.h **** 
 607:.\CMSIS\Core\Include/core_cm4.h **** #define SCB_SHCSR_MEMFAULTACT_Pos           0U                                            /*!< SCB 
 608:.\CMSIS\Core\Include/core_cm4.h **** #define SCB_SHCSR_MEMFAULTACT_Msk          (1UL /*<< SCB_SHCSR_MEMFAULTACT_Pos*/)         /*!< SCB 
 609:.\CMSIS\Core\Include/core_cm4.h **** 
 610:.\CMSIS\Core\Include/core_cm4.h **** /* SCB Configurable Fault Status Register Definitions */
 611:.\CMSIS\Core\Include/core_cm4.h **** #define SCB_CFSR_USGFAULTSR_Pos            16U                                            /*!< SCB 
 612:.\CMSIS\Core\Include/core_cm4.h **** #define SCB_CFSR_USGFAULTSR_Msk            (0xFFFFUL << SCB_CFSR_USGFAULTSR_Pos)          /*!< SCB 
 613:.\CMSIS\Core\Include/core_cm4.h **** 
 614:.\CMSIS\Core\Include/core_cm4.h **** #define SCB_CFSR_BUSFAULTSR_Pos             8U                                            /*!< SCB 
 615:.\CMSIS\Core\Include/core_cm4.h **** #define SCB_CFSR_BUSFAULTSR_Msk            (0xFFUL << SCB_CFSR_BUSFAULTSR_Pos)            /*!< SCB 
 616:.\CMSIS\Core\Include/core_cm4.h **** 
 617:.\CMSIS\Core\Include/core_cm4.h **** #define SCB_CFSR_MEMFAULTSR_Pos             0U                                            /*!< SCB 
 618:.\CMSIS\Core\Include/core_cm4.h **** #define SCB_CFSR_MEMFAULTSR_Msk            (0xFFUL /*<< SCB_CFSR_MEMFAULTSR_Pos*/)        /*!< SCB 
 619:.\CMSIS\Core\Include/core_cm4.h **** 
 620:.\CMSIS\Core\Include/core_cm4.h **** /* MemManage Fault Status Register (part of SCB Configurable Fault Status Register) */
 621:.\CMSIS\Core\Include/core_cm4.h **** #define SCB_CFSR_MMARVALID_Pos             (SCB_SHCSR_MEMFAULTACT_Pos + 7U)               /*!< SCB 
 622:.\CMSIS\Core\Include/core_cm4.h **** #define SCB_CFSR_MMARVALID_Msk             (1UL << SCB_CFSR_MMARVALID_Pos)                /*!< SCB 
 623:.\CMSIS\Core\Include/core_cm4.h **** 
 624:.\CMSIS\Core\Include/core_cm4.h **** #define SCB_CFSR_MLSPERR_Pos               (SCB_SHCSR_MEMFAULTACT_Pos + 5U)               /*!< SCB 
 625:.\CMSIS\Core\Include/core_cm4.h **** #define SCB_CFSR_MLSPERR_Msk               (1UL << SCB_CFSR_MLSPERR_Pos)                  /*!< SCB 
ARM GAS  C:\Users\nicpa\AppData\Local\Temp\ccPr5feD.s 			page 48


 626:.\CMSIS\Core\Include/core_cm4.h **** 
 627:.\CMSIS\Core\Include/core_cm4.h **** #define SCB_CFSR_MSTKERR_Pos               (SCB_SHCSR_MEMFAULTACT_Pos + 4U)               /*!< SCB 
 628:.\CMSIS\Core\Include/core_cm4.h **** #define SCB_CFSR_MSTKERR_Msk               (1UL << SCB_CFSR_MSTKERR_Pos)                  /*!< SCB 
 629:.\CMSIS\Core\Include/core_cm4.h **** 
 630:.\CMSIS\Core\Include/core_cm4.h **** #define SCB_CFSR_MUNSTKERR_Pos             (SCB_SHCSR_MEMFAULTACT_Pos + 3U)               /*!< SCB 
 631:.\CMSIS\Core\Include/core_cm4.h **** #define SCB_CFSR_MUNSTKERR_Msk             (1UL << SCB_CFSR_MUNSTKERR_Pos)                /*!< SCB 
 632:.\CMSIS\Core\Include/core_cm4.h **** 
 633:.\CMSIS\Core\Include/core_cm4.h **** #define SCB_CFSR_DACCVIOL_Pos              (SCB_SHCSR_MEMFAULTACT_Pos + 1U)               /*!< SCB 
 634:.\CMSIS\Core\Include/core_cm4.h **** #define SCB_CFSR_DACCVIOL_Msk              (1UL << SCB_CFSR_DACCVIOL_Pos)                 /*!< SCB 
 635:.\CMSIS\Core\Include/core_cm4.h **** 
 636:.\CMSIS\Core\Include/core_cm4.h **** #define SCB_CFSR_IACCVIOL_Pos              (SCB_SHCSR_MEMFAULTACT_Pos + 0U)               /*!< SCB 
 637:.\CMSIS\Core\Include/core_cm4.h **** #define SCB_CFSR_IACCVIOL_Msk              (1UL /*<< SCB_CFSR_IACCVIOL_Pos*/)             /*!< SCB 
 638:.\CMSIS\Core\Include/core_cm4.h **** 
 639:.\CMSIS\Core\Include/core_cm4.h **** /* BusFault Status Register (part of SCB Configurable Fault Status Register) */
 640:.\CMSIS\Core\Include/core_cm4.h **** #define SCB_CFSR_BFARVALID_Pos            (SCB_CFSR_BUSFAULTSR_Pos + 7U)                  /*!< SCB 
 641:.\CMSIS\Core\Include/core_cm4.h **** #define SCB_CFSR_BFARVALID_Msk            (1UL << SCB_CFSR_BFARVALID_Pos)                 /*!< SCB 
 642:.\CMSIS\Core\Include/core_cm4.h **** 
 643:.\CMSIS\Core\Include/core_cm4.h **** #define SCB_CFSR_LSPERR_Pos               (SCB_CFSR_BUSFAULTSR_Pos + 5U)                  /*!< SCB 
 644:.\CMSIS\Core\Include/core_cm4.h **** #define SCB_CFSR_LSPERR_Msk               (1UL << SCB_CFSR_LSPERR_Pos)                    /*!< SCB 
 645:.\CMSIS\Core\Include/core_cm4.h **** 
 646:.\CMSIS\Core\Include/core_cm4.h **** #define SCB_CFSR_STKERR_Pos               (SCB_CFSR_BUSFAULTSR_Pos + 4U)                  /*!< SCB 
 647:.\CMSIS\Core\Include/core_cm4.h **** #define SCB_CFSR_STKERR_Msk               (1UL << SCB_CFSR_STKERR_Pos)                    /*!< SCB 
 648:.\CMSIS\Core\Include/core_cm4.h **** 
 649:.\CMSIS\Core\Include/core_cm4.h **** #define SCB_CFSR_UNSTKERR_Pos             (SCB_CFSR_BUSFAULTSR_Pos + 3U)                  /*!< SCB 
 650:.\CMSIS\Core\Include/core_cm4.h **** #define SCB_CFSR_UNSTKERR_Msk             (1UL << SCB_CFSR_UNSTKERR_Pos)                  /*!< SCB 
 651:.\CMSIS\Core\Include/core_cm4.h **** 
 652:.\CMSIS\Core\Include/core_cm4.h **** #define SCB_CFSR_IMPRECISERR_Pos          (SCB_CFSR_BUSFAULTSR_Pos + 2U)                  /*!< SCB 
 653:.\CMSIS\Core\Include/core_cm4.h **** #define SCB_CFSR_IMPRECISERR_Msk          (1UL << SCB_CFSR_IMPRECISERR_Pos)               /*!< SCB 
 654:.\CMSIS\Core\Include/core_cm4.h **** 
 655:.\CMSIS\Core\Include/core_cm4.h **** #define SCB_CFSR_PRECISERR_Pos            (SCB_CFSR_BUSFAULTSR_Pos + 1U)                  /*!< SCB 
 656:.\CMSIS\Core\Include/core_cm4.h **** #define SCB_CFSR_PRECISERR_Msk            (1UL << SCB_CFSR_PRECISERR_Pos)                 /*!< SCB 
 657:.\CMSIS\Core\Include/core_cm4.h **** 
 658:.\CMSIS\Core\Include/core_cm4.h **** #define SCB_CFSR_IBUSERR_Pos              (SCB_CFSR_BUSFAULTSR_Pos + 0U)                  /*!< SCB 
 659:.\CMSIS\Core\Include/core_cm4.h **** #define SCB_CFSR_IBUSERR_Msk              (1UL << SCB_CFSR_IBUSERR_Pos)                   /*!< SCB 
 660:.\CMSIS\Core\Include/core_cm4.h **** 
 661:.\CMSIS\Core\Include/core_cm4.h **** /* UsageFault Status Register (part of SCB Configurable Fault Status Register) */
 662:.\CMSIS\Core\Include/core_cm4.h **** #define SCB_CFSR_DIVBYZERO_Pos            (SCB_CFSR_USGFAULTSR_Pos + 9U)                  /*!< SCB 
 663:.\CMSIS\Core\Include/core_cm4.h **** #define SCB_CFSR_DIVBYZERO_Msk            (1UL << SCB_CFSR_DIVBYZERO_Pos)                 /*!< SCB 
 664:.\CMSIS\Core\Include/core_cm4.h **** 
 665:.\CMSIS\Core\Include/core_cm4.h **** #define SCB_CFSR_UNALIGNED_Pos            (SCB_CFSR_USGFAULTSR_Pos + 8U)                  /*!< SCB 
 666:.\CMSIS\Core\Include/core_cm4.h **** #define SCB_CFSR_UNALIGNED_Msk            (1UL << SCB_CFSR_UNALIGNED_Pos)                 /*!< SCB 
 667:.\CMSIS\Core\Include/core_cm4.h **** 
 668:.\CMSIS\Core\Include/core_cm4.h **** #define SCB_CFSR_NOCP_Pos                 (SCB_CFSR_USGFAULTSR_Pos + 3U)                  /*!< SCB 
 669:.\CMSIS\Core\Include/core_cm4.h **** #define SCB_CFSR_NOCP_Msk                 (1UL << SCB_CFSR_NOCP_Pos)                      /*!< SCB 
 670:.\CMSIS\Core\Include/core_cm4.h **** 
 671:.\CMSIS\Core\Include/core_cm4.h **** #define SCB_CFSR_INVPC_Pos                (SCB_CFSR_USGFAULTSR_Pos + 2U)                  /*!< SCB 
 672:.\CMSIS\Core\Include/core_cm4.h **** #define SCB_CFSR_INVPC_Msk                (1UL << SCB_CFSR_INVPC_Pos)                     /*!< SCB 
 673:.\CMSIS\Core\Include/core_cm4.h **** 
 674:.\CMSIS\Core\Include/core_cm4.h **** #define SCB_CFSR_INVSTATE_Pos             (SCB_CFSR_USGFAULTSR_Pos + 1U)                  /*!< SCB 
 675:.\CMSIS\Core\Include/core_cm4.h **** #define SCB_CFSR_INVSTATE_Msk             (1UL << SCB_CFSR_INVSTATE_Pos)                  /*!< SCB 
 676:.\CMSIS\Core\Include/core_cm4.h **** 
 677:.\CMSIS\Core\Include/core_cm4.h **** #define SCB_CFSR_UNDEFINSTR_Pos           (SCB_CFSR_USGFAULTSR_Pos + 0U)                  /*!< SCB 
 678:.\CMSIS\Core\Include/core_cm4.h **** #define SCB_CFSR_UNDEFINSTR_Msk           (1UL << SCB_CFSR_UNDEFINSTR_Pos)                /*!< SCB 
 679:.\CMSIS\Core\Include/core_cm4.h **** 
 680:.\CMSIS\Core\Include/core_cm4.h **** /* SCB Hard Fault Status Register Definitions */
 681:.\CMSIS\Core\Include/core_cm4.h **** #define SCB_HFSR_DEBUGEVT_Pos              31U                                            /*!< SCB 
 682:.\CMSIS\Core\Include/core_cm4.h **** #define SCB_HFSR_DEBUGEVT_Msk              (1UL << SCB_HFSR_DEBUGEVT_Pos)                 /*!< SCB 
ARM GAS  C:\Users\nicpa\AppData\Local\Temp\ccPr5feD.s 			page 49


 683:.\CMSIS\Core\Include/core_cm4.h **** 
 684:.\CMSIS\Core\Include/core_cm4.h **** #define SCB_HFSR_FORCED_Pos                30U                                            /*!< SCB 
 685:.\CMSIS\Core\Include/core_cm4.h **** #define SCB_HFSR_FORCED_Msk                (1UL << SCB_HFSR_FORCED_Pos)                   /*!< SCB 
 686:.\CMSIS\Core\Include/core_cm4.h **** 
 687:.\CMSIS\Core\Include/core_cm4.h **** #define SCB_HFSR_VECTTBL_Pos                1U                                            /*!< SCB 
 688:.\CMSIS\Core\Include/core_cm4.h **** #define SCB_HFSR_VECTTBL_Msk               (1UL << SCB_HFSR_VECTTBL_Pos)                  /*!< SCB 
 689:.\CMSIS\Core\Include/core_cm4.h **** 
 690:.\CMSIS\Core\Include/core_cm4.h **** /* SCB Debug Fault Status Register Definitions */
 691:.\CMSIS\Core\Include/core_cm4.h **** #define SCB_DFSR_EXTERNAL_Pos               4U                                            /*!< SCB 
 692:.\CMSIS\Core\Include/core_cm4.h **** #define SCB_DFSR_EXTERNAL_Msk              (1UL << SCB_DFSR_EXTERNAL_Pos)                 /*!< SCB 
 693:.\CMSIS\Core\Include/core_cm4.h **** 
 694:.\CMSIS\Core\Include/core_cm4.h **** #define SCB_DFSR_VCATCH_Pos                 3U                                            /*!< SCB 
 695:.\CMSIS\Core\Include/core_cm4.h **** #define SCB_DFSR_VCATCH_Msk                (1UL << SCB_DFSR_VCATCH_Pos)                   /*!< SCB 
 696:.\CMSIS\Core\Include/core_cm4.h **** 
 697:.\CMSIS\Core\Include/core_cm4.h **** #define SCB_DFSR_DWTTRAP_Pos                2U                                            /*!< SCB 
 698:.\CMSIS\Core\Include/core_cm4.h **** #define SCB_DFSR_DWTTRAP_Msk               (1UL << SCB_DFSR_DWTTRAP_Pos)                  /*!< SCB 
 699:.\CMSIS\Core\Include/core_cm4.h **** 
 700:.\CMSIS\Core\Include/core_cm4.h **** #define SCB_DFSR_BKPT_Pos                   1U                                            /*!< SCB 
 701:.\CMSIS\Core\Include/core_cm4.h **** #define SCB_DFSR_BKPT_Msk                  (1UL << SCB_DFSR_BKPT_Pos)                     /*!< SCB 
 702:.\CMSIS\Core\Include/core_cm4.h **** 
 703:.\CMSIS\Core\Include/core_cm4.h **** #define SCB_DFSR_HALTED_Pos                 0U                                            /*!< SCB 
 704:.\CMSIS\Core\Include/core_cm4.h **** #define SCB_DFSR_HALTED_Msk                (1UL /*<< SCB_DFSR_HALTED_Pos*/)               /*!< SCB 
 705:.\CMSIS\Core\Include/core_cm4.h **** 
 706:.\CMSIS\Core\Include/core_cm4.h **** /*@} end of group CMSIS_SCB */
 707:.\CMSIS\Core\Include/core_cm4.h **** 
 708:.\CMSIS\Core\Include/core_cm4.h **** 
 709:.\CMSIS\Core\Include/core_cm4.h **** /**
 710:.\CMSIS\Core\Include/core_cm4.h ****   \ingroup  CMSIS_core_register
 711:.\CMSIS\Core\Include/core_cm4.h ****   \defgroup CMSIS_SCnSCB System Controls not in SCB (SCnSCB)
 712:.\CMSIS\Core\Include/core_cm4.h ****   \brief    Type definitions for the System Control and ID Register not in the SCB
 713:.\CMSIS\Core\Include/core_cm4.h ****   @{
 714:.\CMSIS\Core\Include/core_cm4.h ****  */
 715:.\CMSIS\Core\Include/core_cm4.h **** 
 716:.\CMSIS\Core\Include/core_cm4.h **** /**
 717:.\CMSIS\Core\Include/core_cm4.h ****   \brief  Structure type to access the System Control and ID Register not in the SCB.
 718:.\CMSIS\Core\Include/core_cm4.h ****  */
 719:.\CMSIS\Core\Include/core_cm4.h **** typedef struct
 720:.\CMSIS\Core\Include/core_cm4.h **** {
 721:.\CMSIS\Core\Include/core_cm4.h ****         uint32_t RESERVED0[1U];
 722:.\CMSIS\Core\Include/core_cm4.h ****   __IM  uint32_t ICTR;                   /*!< Offset: 0x004 (R/ )  Interrupt Controller Type Regist
 723:.\CMSIS\Core\Include/core_cm4.h ****   __IOM uint32_t ACTLR;                  /*!< Offset: 0x008 (R/W)  Auxiliary Control Register */
 724:.\CMSIS\Core\Include/core_cm4.h **** } SCnSCB_Type;
 725:.\CMSIS\Core\Include/core_cm4.h **** 
 726:.\CMSIS\Core\Include/core_cm4.h **** /* Interrupt Controller Type Register Definitions */
 727:.\CMSIS\Core\Include/core_cm4.h **** #define SCnSCB_ICTR_INTLINESNUM_Pos         0U                                         /*!< ICTR: I
 728:.\CMSIS\Core\Include/core_cm4.h **** #define SCnSCB_ICTR_INTLINESNUM_Msk        (0xFUL /*<< SCnSCB_ICTR_INTLINESNUM_Pos*/)  /*!< ICTR: I
 729:.\CMSIS\Core\Include/core_cm4.h **** 
 730:.\CMSIS\Core\Include/core_cm4.h **** /* Auxiliary Control Register Definitions */
 731:.\CMSIS\Core\Include/core_cm4.h **** #define SCnSCB_ACTLR_DISOOFP_Pos            9U                                         /*!< ACTLR: 
 732:.\CMSIS\Core\Include/core_cm4.h **** #define SCnSCB_ACTLR_DISOOFP_Msk           (1UL << SCnSCB_ACTLR_DISOOFP_Pos)           /*!< ACTLR: 
 733:.\CMSIS\Core\Include/core_cm4.h **** 
 734:.\CMSIS\Core\Include/core_cm4.h **** #define SCnSCB_ACTLR_DISFPCA_Pos            8U                                         /*!< ACTLR: 
 735:.\CMSIS\Core\Include/core_cm4.h **** #define SCnSCB_ACTLR_DISFPCA_Msk           (1UL << SCnSCB_ACTLR_DISFPCA_Pos)           /*!< ACTLR: 
 736:.\CMSIS\Core\Include/core_cm4.h **** 
 737:.\CMSIS\Core\Include/core_cm4.h **** #define SCnSCB_ACTLR_DISFOLD_Pos            2U                                         /*!< ACTLR: 
 738:.\CMSIS\Core\Include/core_cm4.h **** #define SCnSCB_ACTLR_DISFOLD_Msk           (1UL << SCnSCB_ACTLR_DISFOLD_Pos)           /*!< ACTLR: 
 739:.\CMSIS\Core\Include/core_cm4.h **** 
ARM GAS  C:\Users\nicpa\AppData\Local\Temp\ccPr5feD.s 			page 50


 740:.\CMSIS\Core\Include/core_cm4.h **** #define SCnSCB_ACTLR_DISDEFWBUF_Pos         1U                                         /*!< ACTLR: 
 741:.\CMSIS\Core\Include/core_cm4.h **** #define SCnSCB_ACTLR_DISDEFWBUF_Msk        (1UL << SCnSCB_ACTLR_DISDEFWBUF_Pos)        /*!< ACTLR: 
 742:.\CMSIS\Core\Include/core_cm4.h **** 
 743:.\CMSIS\Core\Include/core_cm4.h **** #define SCnSCB_ACTLR_DISMCYCINT_Pos         0U                                         /*!< ACTLR: 
 744:.\CMSIS\Core\Include/core_cm4.h **** #define SCnSCB_ACTLR_DISMCYCINT_Msk        (1UL /*<< SCnSCB_ACTLR_DISMCYCINT_Pos*/)    /*!< ACTLR: 
 745:.\CMSIS\Core\Include/core_cm4.h **** 
 746:.\CMSIS\Core\Include/core_cm4.h **** /*@} end of group CMSIS_SCnotSCB */
 747:.\CMSIS\Core\Include/core_cm4.h **** 
 748:.\CMSIS\Core\Include/core_cm4.h **** 
 749:.\CMSIS\Core\Include/core_cm4.h **** /**
 750:.\CMSIS\Core\Include/core_cm4.h ****   \ingroup  CMSIS_core_register
 751:.\CMSIS\Core\Include/core_cm4.h ****   \defgroup CMSIS_SysTick     System Tick Timer (SysTick)
 752:.\CMSIS\Core\Include/core_cm4.h ****   \brief    Type definitions for the System Timer Registers.
 753:.\CMSIS\Core\Include/core_cm4.h ****   @{
 754:.\CMSIS\Core\Include/core_cm4.h ****  */
 755:.\CMSIS\Core\Include/core_cm4.h **** 
 756:.\CMSIS\Core\Include/core_cm4.h **** /**
 757:.\CMSIS\Core\Include/core_cm4.h ****   \brief  Structure type to access the System Timer (SysTick).
 758:.\CMSIS\Core\Include/core_cm4.h ****  */
 759:.\CMSIS\Core\Include/core_cm4.h **** typedef struct
 760:.\CMSIS\Core\Include/core_cm4.h **** {
 761:.\CMSIS\Core\Include/core_cm4.h ****   __IOM uint32_t CTRL;                   /*!< Offset: 0x000 (R/W)  SysTick Control and Status Regis
 762:.\CMSIS\Core\Include/core_cm4.h ****   __IOM uint32_t LOAD;                   /*!< Offset: 0x004 (R/W)  SysTick Reload Value Register */
 763:.\CMSIS\Core\Include/core_cm4.h ****   __IOM uint32_t VAL;                    /*!< Offset: 0x008 (R/W)  SysTick Current Value Register *
 764:.\CMSIS\Core\Include/core_cm4.h ****   __IM  uint32_t CALIB;                  /*!< Offset: 0x00C (R/ )  SysTick Calibration Register */
 765:.\CMSIS\Core\Include/core_cm4.h **** } SysTick_Type;
 766:.\CMSIS\Core\Include/core_cm4.h **** 
 767:.\CMSIS\Core\Include/core_cm4.h **** /* SysTick Control / Status Register Definitions */
 768:.\CMSIS\Core\Include/core_cm4.h **** #define SysTick_CTRL_COUNTFLAG_Pos         16U                                            /*!< SysT
 769:.\CMSIS\Core\Include/core_cm4.h **** #define SysTick_CTRL_COUNTFLAG_Msk         (1UL << SysTick_CTRL_COUNTFLAG_Pos)            /*!< SysT
 770:.\CMSIS\Core\Include/core_cm4.h **** 
 771:.\CMSIS\Core\Include/core_cm4.h **** #define SysTick_CTRL_CLKSOURCE_Pos          2U                                            /*!< SysT
 772:.\CMSIS\Core\Include/core_cm4.h **** #define SysTick_CTRL_CLKSOURCE_Msk         (1UL << SysTick_CTRL_CLKSOURCE_Pos)            /*!< SysT
 773:.\CMSIS\Core\Include/core_cm4.h **** 
 774:.\CMSIS\Core\Include/core_cm4.h **** #define SysTick_CTRL_TICKINT_Pos            1U                                            /*!< SysT
 775:.\CMSIS\Core\Include/core_cm4.h **** #define SysTick_CTRL_TICKINT_Msk           (1UL << SysTick_CTRL_TICKINT_Pos)              /*!< SysT
 776:.\CMSIS\Core\Include/core_cm4.h **** 
 777:.\CMSIS\Core\Include/core_cm4.h **** #define SysTick_CTRL_ENABLE_Pos             0U                                            /*!< SysT
 778:.\CMSIS\Core\Include/core_cm4.h **** #define SysTick_CTRL_ENABLE_Msk            (1UL /*<< SysTick_CTRL_ENABLE_Pos*/)           /*!< SysT
 779:.\CMSIS\Core\Include/core_cm4.h **** 
 780:.\CMSIS\Core\Include/core_cm4.h **** /* SysTick Reload Register Definitions */
 781:.\CMSIS\Core\Include/core_cm4.h **** #define SysTick_LOAD_RELOAD_Pos             0U                                            /*!< SysT
 782:.\CMSIS\Core\Include/core_cm4.h **** #define SysTick_LOAD_RELOAD_Msk            (0xFFFFFFUL /*<< SysTick_LOAD_RELOAD_Pos*/)    /*!< SysT
 783:.\CMSIS\Core\Include/core_cm4.h **** 
 784:.\CMSIS\Core\Include/core_cm4.h **** /* SysTick Current Register Definitions */
 785:.\CMSIS\Core\Include/core_cm4.h **** #define SysTick_VAL_CURRENT_Pos             0U                                            /*!< SysT
 786:.\CMSIS\Core\Include/core_cm4.h **** #define SysTick_VAL_CURRENT_Msk            (0xFFFFFFUL /*<< SysTick_VAL_CURRENT_Pos*/)    /*!< SysT
 787:.\CMSIS\Core\Include/core_cm4.h **** 
 788:.\CMSIS\Core\Include/core_cm4.h **** /* SysTick Calibration Register Definitions */
 789:.\CMSIS\Core\Include/core_cm4.h **** #define SysTick_CALIB_NOREF_Pos            31U                                            /*!< SysT
 790:.\CMSIS\Core\Include/core_cm4.h **** #define SysTick_CALIB_NOREF_Msk            (1UL << SysTick_CALIB_NOREF_Pos)               /*!< SysT
 791:.\CMSIS\Core\Include/core_cm4.h **** 
 792:.\CMSIS\Core\Include/core_cm4.h **** #define SysTick_CALIB_SKEW_Pos             30U                                            /*!< SysT
 793:.\CMSIS\Core\Include/core_cm4.h **** #define SysTick_CALIB_SKEW_Msk             (1UL << SysTick_CALIB_SKEW_Pos)                /*!< SysT
 794:.\CMSIS\Core\Include/core_cm4.h **** 
 795:.\CMSIS\Core\Include/core_cm4.h **** #define SysTick_CALIB_TENMS_Pos             0U                                            /*!< SysT
 796:.\CMSIS\Core\Include/core_cm4.h **** #define SysTick_CALIB_TENMS_Msk            (0xFFFFFFUL /*<< SysTick_CALIB_TENMS_Pos*/)    /*!< SysT
ARM GAS  C:\Users\nicpa\AppData\Local\Temp\ccPr5feD.s 			page 51


 797:.\CMSIS\Core\Include/core_cm4.h **** 
 798:.\CMSIS\Core\Include/core_cm4.h **** /*@} end of group CMSIS_SysTick */
 799:.\CMSIS\Core\Include/core_cm4.h **** 
 800:.\CMSIS\Core\Include/core_cm4.h **** 
 801:.\CMSIS\Core\Include/core_cm4.h **** /**
 802:.\CMSIS\Core\Include/core_cm4.h ****   \ingroup  CMSIS_core_register
 803:.\CMSIS\Core\Include/core_cm4.h ****   \defgroup CMSIS_ITM     Instrumentation Trace Macrocell (ITM)
 804:.\CMSIS\Core\Include/core_cm4.h ****   \brief    Type definitions for the Instrumentation Trace Macrocell (ITM)
 805:.\CMSIS\Core\Include/core_cm4.h ****   @{
 806:.\CMSIS\Core\Include/core_cm4.h ****  */
 807:.\CMSIS\Core\Include/core_cm4.h **** 
 808:.\CMSIS\Core\Include/core_cm4.h **** /**
 809:.\CMSIS\Core\Include/core_cm4.h ****   \brief  Structure type to access the Instrumentation Trace Macrocell Register (ITM).
 810:.\CMSIS\Core\Include/core_cm4.h ****  */
 811:.\CMSIS\Core\Include/core_cm4.h **** typedef struct
 812:.\CMSIS\Core\Include/core_cm4.h **** {
 813:.\CMSIS\Core\Include/core_cm4.h ****   __OM  union
 814:.\CMSIS\Core\Include/core_cm4.h ****   {
 815:.\CMSIS\Core\Include/core_cm4.h ****     __OM  uint8_t    u8;                 /*!< Offset: 0x000 ( /W)  ITM Stimulus Port 8-bit */
 816:.\CMSIS\Core\Include/core_cm4.h ****     __OM  uint16_t   u16;                /*!< Offset: 0x000 ( /W)  ITM Stimulus Port 16-bit */
 817:.\CMSIS\Core\Include/core_cm4.h ****     __OM  uint32_t   u32;                /*!< Offset: 0x000 ( /W)  ITM Stimulus Port 32-bit */
 818:.\CMSIS\Core\Include/core_cm4.h ****   }  PORT [32U];                         /*!< Offset: 0x000 ( /W)  ITM Stimulus Port Registers */
 819:.\CMSIS\Core\Include/core_cm4.h ****         uint32_t RESERVED0[864U];
 820:.\CMSIS\Core\Include/core_cm4.h ****   __IOM uint32_t TER;                    /*!< Offset: 0xE00 (R/W)  ITM Trace Enable Register */
 821:.\CMSIS\Core\Include/core_cm4.h ****         uint32_t RESERVED1[15U];
 822:.\CMSIS\Core\Include/core_cm4.h ****   __IOM uint32_t TPR;                    /*!< Offset: 0xE40 (R/W)  ITM Trace Privilege Register */
 823:.\CMSIS\Core\Include/core_cm4.h ****         uint32_t RESERVED2[15U];
 824:.\CMSIS\Core\Include/core_cm4.h ****   __IOM uint32_t TCR;                    /*!< Offset: 0xE80 (R/W)  ITM Trace Control Register */
 825:.\CMSIS\Core\Include/core_cm4.h ****         uint32_t RESERVED3[29U];
 826:.\CMSIS\Core\Include/core_cm4.h ****   __OM  uint32_t IWR;                    /*!< Offset: 0xEF8 ( /W)  ITM Integration Write Register *
 827:.\CMSIS\Core\Include/core_cm4.h ****   __IM  uint32_t IRR;                    /*!< Offset: 0xEFC (R/ )  ITM Integration Read Register */
 828:.\CMSIS\Core\Include/core_cm4.h ****   __IOM uint32_t IMCR;                   /*!< Offset: 0xF00 (R/W)  ITM Integration Mode Control Reg
 829:.\CMSIS\Core\Include/core_cm4.h ****         uint32_t RESERVED4[43U];
 830:.\CMSIS\Core\Include/core_cm4.h ****   __OM  uint32_t LAR;                    /*!< Offset: 0xFB0 ( /W)  ITM Lock Access Register */
 831:.\CMSIS\Core\Include/core_cm4.h ****   __IM  uint32_t LSR;                    /*!< Offset: 0xFB4 (R/ )  ITM Lock Status Register */
 832:.\CMSIS\Core\Include/core_cm4.h ****         uint32_t RESERVED5[6U];
 833:.\CMSIS\Core\Include/core_cm4.h ****   __IM  uint32_t PID4;                   /*!< Offset: 0xFD0 (R/ )  ITM Peripheral Identification Re
 834:.\CMSIS\Core\Include/core_cm4.h ****   __IM  uint32_t PID5;                   /*!< Offset: 0xFD4 (R/ )  ITM Peripheral Identification Re
 835:.\CMSIS\Core\Include/core_cm4.h ****   __IM  uint32_t PID6;                   /*!< Offset: 0xFD8 (R/ )  ITM Peripheral Identification Re
 836:.\CMSIS\Core\Include/core_cm4.h ****   __IM  uint32_t PID7;                   /*!< Offset: 0xFDC (R/ )  ITM Peripheral Identification Re
 837:.\CMSIS\Core\Include/core_cm4.h ****   __IM  uint32_t PID0;                   /*!< Offset: 0xFE0 (R/ )  ITM Peripheral Identification Re
 838:.\CMSIS\Core\Include/core_cm4.h ****   __IM  uint32_t PID1;                   /*!< Offset: 0xFE4 (R/ )  ITM Peripheral Identification Re
 839:.\CMSIS\Core\Include/core_cm4.h ****   __IM  uint32_t PID2;                   /*!< Offset: 0xFE8 (R/ )  ITM Peripheral Identification Re
 840:.\CMSIS\Core\Include/core_cm4.h ****   __IM  uint32_t PID3;                   /*!< Offset: 0xFEC (R/ )  ITM Peripheral Identification Re
 841:.\CMSIS\Core\Include/core_cm4.h ****   __IM  uint32_t CID0;                   /*!< Offset: 0xFF0 (R/ )  ITM Component  Identification Re
 842:.\CMSIS\Core\Include/core_cm4.h ****   __IM  uint32_t CID1;                   /*!< Offset: 0xFF4 (R/ )  ITM Component  Identification Re
 843:.\CMSIS\Core\Include/core_cm4.h ****   __IM  uint32_t CID2;                   /*!< Offset: 0xFF8 (R/ )  ITM Component  Identification Re
 844:.\CMSIS\Core\Include/core_cm4.h ****   __IM  uint32_t CID3;                   /*!< Offset: 0xFFC (R/ )  ITM Component  Identification Re
 845:.\CMSIS\Core\Include/core_cm4.h **** } ITM_Type;
 846:.\CMSIS\Core\Include/core_cm4.h **** 
 847:.\CMSIS\Core\Include/core_cm4.h **** /* ITM Trace Privilege Register Definitions */
 848:.\CMSIS\Core\Include/core_cm4.h **** #define ITM_TPR_PRIVMASK_Pos                0U                                            /*!< ITM 
 849:.\CMSIS\Core\Include/core_cm4.h **** #define ITM_TPR_PRIVMASK_Msk               (0xFFFFFFFFUL /*<< ITM_TPR_PRIVMASK_Pos*/)     /*!< ITM 
 850:.\CMSIS\Core\Include/core_cm4.h **** 
 851:.\CMSIS\Core\Include/core_cm4.h **** /* ITM Trace Control Register Definitions */
 852:.\CMSIS\Core\Include/core_cm4.h **** #define ITM_TCR_BUSY_Pos                   23U                                            /*!< ITM 
 853:.\CMSIS\Core\Include/core_cm4.h **** #define ITM_TCR_BUSY_Msk                   (1UL << ITM_TCR_BUSY_Pos)                      /*!< ITM 
ARM GAS  C:\Users\nicpa\AppData\Local\Temp\ccPr5feD.s 			page 52


 854:.\CMSIS\Core\Include/core_cm4.h **** 
 855:.\CMSIS\Core\Include/core_cm4.h **** #define ITM_TCR_TraceBusID_Pos             16U                                            /*!< ITM 
 856:.\CMSIS\Core\Include/core_cm4.h **** #define ITM_TCR_TraceBusID_Msk             (0x7FUL << ITM_TCR_TraceBusID_Pos)             /*!< ITM 
 857:.\CMSIS\Core\Include/core_cm4.h **** 
 858:.\CMSIS\Core\Include/core_cm4.h **** #define ITM_TCR_GTSFREQ_Pos                10U                                            /*!< ITM 
 859:.\CMSIS\Core\Include/core_cm4.h **** #define ITM_TCR_GTSFREQ_Msk                (3UL << ITM_TCR_GTSFREQ_Pos)                   /*!< ITM 
 860:.\CMSIS\Core\Include/core_cm4.h **** 
 861:.\CMSIS\Core\Include/core_cm4.h **** #define ITM_TCR_TSPrescale_Pos              8U                                            /*!< ITM 
 862:.\CMSIS\Core\Include/core_cm4.h **** #define ITM_TCR_TSPrescale_Msk             (3UL << ITM_TCR_TSPrescale_Pos)                /*!< ITM 
 863:.\CMSIS\Core\Include/core_cm4.h **** 
 864:.\CMSIS\Core\Include/core_cm4.h **** #define ITM_TCR_SWOENA_Pos                  4U                                            /*!< ITM 
 865:.\CMSIS\Core\Include/core_cm4.h **** #define ITM_TCR_SWOENA_Msk                 (1UL << ITM_TCR_SWOENA_Pos)                    /*!< ITM 
 866:.\CMSIS\Core\Include/core_cm4.h **** 
 867:.\CMSIS\Core\Include/core_cm4.h **** #define ITM_TCR_DWTENA_Pos                  3U                                            /*!< ITM 
 868:.\CMSIS\Core\Include/core_cm4.h **** #define ITM_TCR_DWTENA_Msk                 (1UL << ITM_TCR_DWTENA_Pos)                    /*!< ITM 
 869:.\CMSIS\Core\Include/core_cm4.h **** 
 870:.\CMSIS\Core\Include/core_cm4.h **** #define ITM_TCR_SYNCENA_Pos                 2U                                            /*!< ITM 
 871:.\CMSIS\Core\Include/core_cm4.h **** #define ITM_TCR_SYNCENA_Msk                (1UL << ITM_TCR_SYNCENA_Pos)                   /*!< ITM 
 872:.\CMSIS\Core\Include/core_cm4.h **** 
 873:.\CMSIS\Core\Include/core_cm4.h **** #define ITM_TCR_TSENA_Pos                   1U                                            /*!< ITM 
 874:.\CMSIS\Core\Include/core_cm4.h **** #define ITM_TCR_TSENA_Msk                  (1UL << ITM_TCR_TSENA_Pos)                     /*!< ITM 
 875:.\CMSIS\Core\Include/core_cm4.h **** 
 876:.\CMSIS\Core\Include/core_cm4.h **** #define ITM_TCR_ITMENA_Pos                  0U                                            /*!< ITM 
 877:.\CMSIS\Core\Include/core_cm4.h **** #define ITM_TCR_ITMENA_Msk                 (1UL /*<< ITM_TCR_ITMENA_Pos*/)                /*!< ITM 
 878:.\CMSIS\Core\Include/core_cm4.h **** 
 879:.\CMSIS\Core\Include/core_cm4.h **** /* ITM Integration Write Register Definitions */
 880:.\CMSIS\Core\Include/core_cm4.h **** #define ITM_IWR_ATVALIDM_Pos                0U                                            /*!< ITM 
 881:.\CMSIS\Core\Include/core_cm4.h **** #define ITM_IWR_ATVALIDM_Msk               (1UL /*<< ITM_IWR_ATVALIDM_Pos*/)              /*!< ITM 
 882:.\CMSIS\Core\Include/core_cm4.h **** 
 883:.\CMSIS\Core\Include/core_cm4.h **** /* ITM Integration Read Register Definitions */
 884:.\CMSIS\Core\Include/core_cm4.h **** #define ITM_IRR_ATREADYM_Pos                0U                                            /*!< ITM 
 885:.\CMSIS\Core\Include/core_cm4.h **** #define ITM_IRR_ATREADYM_Msk               (1UL /*<< ITM_IRR_ATREADYM_Pos*/)              /*!< ITM 
 886:.\CMSIS\Core\Include/core_cm4.h **** 
 887:.\CMSIS\Core\Include/core_cm4.h **** /* ITM Integration Mode Control Register Definitions */
 888:.\CMSIS\Core\Include/core_cm4.h **** #define ITM_IMCR_INTEGRATION_Pos            0U                                            /*!< ITM 
 889:.\CMSIS\Core\Include/core_cm4.h **** #define ITM_IMCR_INTEGRATION_Msk           (1UL /*<< ITM_IMCR_INTEGRATION_Pos*/)          /*!< ITM 
 890:.\CMSIS\Core\Include/core_cm4.h **** 
 891:.\CMSIS\Core\Include/core_cm4.h **** /* ITM Lock Status Register Definitions */
 892:.\CMSIS\Core\Include/core_cm4.h **** #define ITM_LSR_ByteAcc_Pos                 2U                                            /*!< ITM 
 893:.\CMSIS\Core\Include/core_cm4.h **** #define ITM_LSR_ByteAcc_Msk                (1UL << ITM_LSR_ByteAcc_Pos)                   /*!< ITM 
 894:.\CMSIS\Core\Include/core_cm4.h **** 
 895:.\CMSIS\Core\Include/core_cm4.h **** #define ITM_LSR_Access_Pos                  1U                                            /*!< ITM 
 896:.\CMSIS\Core\Include/core_cm4.h **** #define ITM_LSR_Access_Msk                 (1UL << ITM_LSR_Access_Pos)                    /*!< ITM 
 897:.\CMSIS\Core\Include/core_cm4.h **** 
 898:.\CMSIS\Core\Include/core_cm4.h **** #define ITM_LSR_Present_Pos                 0U                                            /*!< ITM 
 899:.\CMSIS\Core\Include/core_cm4.h **** #define ITM_LSR_Present_Msk                (1UL /*<< ITM_LSR_Present_Pos*/)               /*!< ITM 
 900:.\CMSIS\Core\Include/core_cm4.h **** 
 901:.\CMSIS\Core\Include/core_cm4.h **** /*@}*/ /* end of group CMSIS_ITM */
 902:.\CMSIS\Core\Include/core_cm4.h **** 
 903:.\CMSIS\Core\Include/core_cm4.h **** 
 904:.\CMSIS\Core\Include/core_cm4.h **** /**
 905:.\CMSIS\Core\Include/core_cm4.h ****   \ingroup  CMSIS_core_register
 906:.\CMSIS\Core\Include/core_cm4.h ****   \defgroup CMSIS_DWT     Data Watchpoint and Trace (DWT)
 907:.\CMSIS\Core\Include/core_cm4.h ****   \brief    Type definitions for the Data Watchpoint and Trace (DWT)
 908:.\CMSIS\Core\Include/core_cm4.h ****   @{
 909:.\CMSIS\Core\Include/core_cm4.h ****  */
 910:.\CMSIS\Core\Include/core_cm4.h **** 
ARM GAS  C:\Users\nicpa\AppData\Local\Temp\ccPr5feD.s 			page 53


 911:.\CMSIS\Core\Include/core_cm4.h **** /**
 912:.\CMSIS\Core\Include/core_cm4.h ****   \brief  Structure type to access the Data Watchpoint and Trace Register (DWT).
 913:.\CMSIS\Core\Include/core_cm4.h ****  */
 914:.\CMSIS\Core\Include/core_cm4.h **** typedef struct
 915:.\CMSIS\Core\Include/core_cm4.h **** {
 916:.\CMSIS\Core\Include/core_cm4.h ****   __IOM uint32_t CTRL;                   /*!< Offset: 0x000 (R/W)  Control Register */
 917:.\CMSIS\Core\Include/core_cm4.h ****   __IOM uint32_t CYCCNT;                 /*!< Offset: 0x004 (R/W)  Cycle Count Register */
 918:.\CMSIS\Core\Include/core_cm4.h ****   __IOM uint32_t CPICNT;                 /*!< Offset: 0x008 (R/W)  CPI Count Register */
 919:.\CMSIS\Core\Include/core_cm4.h ****   __IOM uint32_t EXCCNT;                 /*!< Offset: 0x00C (R/W)  Exception Overhead Count Registe
 920:.\CMSIS\Core\Include/core_cm4.h ****   __IOM uint32_t SLEEPCNT;               /*!< Offset: 0x010 (R/W)  Sleep Count Register */
 921:.\CMSIS\Core\Include/core_cm4.h ****   __IOM uint32_t LSUCNT;                 /*!< Offset: 0x014 (R/W)  LSU Count Register */
 922:.\CMSIS\Core\Include/core_cm4.h ****   __IOM uint32_t FOLDCNT;                /*!< Offset: 0x018 (R/W)  Folded-instruction Count Registe
 923:.\CMSIS\Core\Include/core_cm4.h ****   __IM  uint32_t PCSR;                   /*!< Offset: 0x01C (R/ )  Program Counter Sample Register 
 924:.\CMSIS\Core\Include/core_cm4.h ****   __IOM uint32_t COMP0;                  /*!< Offset: 0x020 (R/W)  Comparator Register 0 */
 925:.\CMSIS\Core\Include/core_cm4.h ****   __IOM uint32_t MASK0;                  /*!< Offset: 0x024 (R/W)  Mask Register 0 */
 926:.\CMSIS\Core\Include/core_cm4.h ****   __IOM uint32_t FUNCTION0;              /*!< Offset: 0x028 (R/W)  Function Register 0 */
 927:.\CMSIS\Core\Include/core_cm4.h ****         uint32_t RESERVED0[1U];
 928:.\CMSIS\Core\Include/core_cm4.h ****   __IOM uint32_t COMP1;                  /*!< Offset: 0x030 (R/W)  Comparator Register 1 */
 929:.\CMSIS\Core\Include/core_cm4.h ****   __IOM uint32_t MASK1;                  /*!< Offset: 0x034 (R/W)  Mask Register 1 */
 930:.\CMSIS\Core\Include/core_cm4.h ****   __IOM uint32_t FUNCTION1;              /*!< Offset: 0x038 (R/W)  Function Register 1 */
 931:.\CMSIS\Core\Include/core_cm4.h ****         uint32_t RESERVED1[1U];
 932:.\CMSIS\Core\Include/core_cm4.h ****   __IOM uint32_t COMP2;                  /*!< Offset: 0x040 (R/W)  Comparator Register 2 */
 933:.\CMSIS\Core\Include/core_cm4.h ****   __IOM uint32_t MASK2;                  /*!< Offset: 0x044 (R/W)  Mask Register 2 */
 934:.\CMSIS\Core\Include/core_cm4.h ****   __IOM uint32_t FUNCTION2;              /*!< Offset: 0x048 (R/W)  Function Register 2 */
 935:.\CMSIS\Core\Include/core_cm4.h ****         uint32_t RESERVED2[1U];
 936:.\CMSIS\Core\Include/core_cm4.h ****   __IOM uint32_t COMP3;                  /*!< Offset: 0x050 (R/W)  Comparator Register 3 */
 937:.\CMSIS\Core\Include/core_cm4.h ****   __IOM uint32_t MASK3;                  /*!< Offset: 0x054 (R/W)  Mask Register 3 */
 938:.\CMSIS\Core\Include/core_cm4.h ****   __IOM uint32_t FUNCTION3;              /*!< Offset: 0x058 (R/W)  Function Register 3 */
 939:.\CMSIS\Core\Include/core_cm4.h **** } DWT_Type;
 940:.\CMSIS\Core\Include/core_cm4.h **** 
 941:.\CMSIS\Core\Include/core_cm4.h **** /* DWT Control Register Definitions */
 942:.\CMSIS\Core\Include/core_cm4.h **** #define DWT_CTRL_NUMCOMP_Pos               28U                                         /*!< DWT CTR
 943:.\CMSIS\Core\Include/core_cm4.h **** #define DWT_CTRL_NUMCOMP_Msk               (0xFUL << DWT_CTRL_NUMCOMP_Pos)             /*!< DWT CTR
 944:.\CMSIS\Core\Include/core_cm4.h **** 
 945:.\CMSIS\Core\Include/core_cm4.h **** #define DWT_CTRL_NOTRCPKT_Pos              27U                                         /*!< DWT CTR
 946:.\CMSIS\Core\Include/core_cm4.h **** #define DWT_CTRL_NOTRCPKT_Msk              (0x1UL << DWT_CTRL_NOTRCPKT_Pos)            /*!< DWT CTR
 947:.\CMSIS\Core\Include/core_cm4.h **** 
 948:.\CMSIS\Core\Include/core_cm4.h **** #define DWT_CTRL_NOEXTTRIG_Pos             26U                                         /*!< DWT CTR
 949:.\CMSIS\Core\Include/core_cm4.h **** #define DWT_CTRL_NOEXTTRIG_Msk             (0x1UL << DWT_CTRL_NOEXTTRIG_Pos)           /*!< DWT CTR
 950:.\CMSIS\Core\Include/core_cm4.h **** 
 951:.\CMSIS\Core\Include/core_cm4.h **** #define DWT_CTRL_NOCYCCNT_Pos              25U                                         /*!< DWT CTR
 952:.\CMSIS\Core\Include/core_cm4.h **** #define DWT_CTRL_NOCYCCNT_Msk              (0x1UL << DWT_CTRL_NOCYCCNT_Pos)            /*!< DWT CTR
 953:.\CMSIS\Core\Include/core_cm4.h **** 
 954:.\CMSIS\Core\Include/core_cm4.h **** #define DWT_CTRL_NOPRFCNT_Pos              24U                                         /*!< DWT CTR
 955:.\CMSIS\Core\Include/core_cm4.h **** #define DWT_CTRL_NOPRFCNT_Msk              (0x1UL << DWT_CTRL_NOPRFCNT_Pos)            /*!< DWT CTR
 956:.\CMSIS\Core\Include/core_cm4.h **** 
 957:.\CMSIS\Core\Include/core_cm4.h **** #define DWT_CTRL_CYCEVTENA_Pos             22U                                         /*!< DWT CTR
 958:.\CMSIS\Core\Include/core_cm4.h **** #define DWT_CTRL_CYCEVTENA_Msk             (0x1UL << DWT_CTRL_CYCEVTENA_Pos)           /*!< DWT CTR
 959:.\CMSIS\Core\Include/core_cm4.h **** 
 960:.\CMSIS\Core\Include/core_cm4.h **** #define DWT_CTRL_FOLDEVTENA_Pos            21U                                         /*!< DWT CTR
 961:.\CMSIS\Core\Include/core_cm4.h **** #define DWT_CTRL_FOLDEVTENA_Msk            (0x1UL << DWT_CTRL_FOLDEVTENA_Pos)          /*!< DWT CTR
 962:.\CMSIS\Core\Include/core_cm4.h **** 
 963:.\CMSIS\Core\Include/core_cm4.h **** #define DWT_CTRL_LSUEVTENA_Pos             20U                                         /*!< DWT CTR
 964:.\CMSIS\Core\Include/core_cm4.h **** #define DWT_CTRL_LSUEVTENA_Msk             (0x1UL << DWT_CTRL_LSUEVTENA_Pos)           /*!< DWT CTR
 965:.\CMSIS\Core\Include/core_cm4.h **** 
 966:.\CMSIS\Core\Include/core_cm4.h **** #define DWT_CTRL_SLEEPEVTENA_Pos           19U                                         /*!< DWT CTR
 967:.\CMSIS\Core\Include/core_cm4.h **** #define DWT_CTRL_SLEEPEVTENA_Msk           (0x1UL << DWT_CTRL_SLEEPEVTENA_Pos)         /*!< DWT CTR
ARM GAS  C:\Users\nicpa\AppData\Local\Temp\ccPr5feD.s 			page 54


 968:.\CMSIS\Core\Include/core_cm4.h **** 
 969:.\CMSIS\Core\Include/core_cm4.h **** #define DWT_CTRL_EXCEVTENA_Pos             18U                                         /*!< DWT CTR
 970:.\CMSIS\Core\Include/core_cm4.h **** #define DWT_CTRL_EXCEVTENA_Msk             (0x1UL << DWT_CTRL_EXCEVTENA_Pos)           /*!< DWT CTR
 971:.\CMSIS\Core\Include/core_cm4.h **** 
 972:.\CMSIS\Core\Include/core_cm4.h **** #define DWT_CTRL_CPIEVTENA_Pos             17U                                         /*!< DWT CTR
 973:.\CMSIS\Core\Include/core_cm4.h **** #define DWT_CTRL_CPIEVTENA_Msk             (0x1UL << DWT_CTRL_CPIEVTENA_Pos)           /*!< DWT CTR
 974:.\CMSIS\Core\Include/core_cm4.h **** 
 975:.\CMSIS\Core\Include/core_cm4.h **** #define DWT_CTRL_EXCTRCENA_Pos             16U                                         /*!< DWT CTR
 976:.\CMSIS\Core\Include/core_cm4.h **** #define DWT_CTRL_EXCTRCENA_Msk             (0x1UL << DWT_CTRL_EXCTRCENA_Pos)           /*!< DWT CTR
 977:.\CMSIS\Core\Include/core_cm4.h **** 
 978:.\CMSIS\Core\Include/core_cm4.h **** #define DWT_CTRL_PCSAMPLENA_Pos            12U                                         /*!< DWT CTR
 979:.\CMSIS\Core\Include/core_cm4.h **** #define DWT_CTRL_PCSAMPLENA_Msk            (0x1UL << DWT_CTRL_PCSAMPLENA_Pos)          /*!< DWT CTR
 980:.\CMSIS\Core\Include/core_cm4.h **** 
 981:.\CMSIS\Core\Include/core_cm4.h **** #define DWT_CTRL_SYNCTAP_Pos               10U                                         /*!< DWT CTR
 982:.\CMSIS\Core\Include/core_cm4.h **** #define DWT_CTRL_SYNCTAP_Msk               (0x3UL << DWT_CTRL_SYNCTAP_Pos)             /*!< DWT CTR
 983:.\CMSIS\Core\Include/core_cm4.h **** 
 984:.\CMSIS\Core\Include/core_cm4.h **** #define DWT_CTRL_CYCTAP_Pos                 9U                                         /*!< DWT CTR
 985:.\CMSIS\Core\Include/core_cm4.h **** #define DWT_CTRL_CYCTAP_Msk                (0x1UL << DWT_CTRL_CYCTAP_Pos)              /*!< DWT CTR
 986:.\CMSIS\Core\Include/core_cm4.h **** 
 987:.\CMSIS\Core\Include/core_cm4.h **** #define DWT_CTRL_POSTINIT_Pos               5U                                         /*!< DWT CTR
 988:.\CMSIS\Core\Include/core_cm4.h **** #define DWT_CTRL_POSTINIT_Msk              (0xFUL << DWT_CTRL_POSTINIT_Pos)            /*!< DWT CTR
 989:.\CMSIS\Core\Include/core_cm4.h **** 
 990:.\CMSIS\Core\Include/core_cm4.h **** #define DWT_CTRL_POSTPRESET_Pos             1U                                         /*!< DWT CTR
 991:.\CMSIS\Core\Include/core_cm4.h **** #define DWT_CTRL_POSTPRESET_Msk            (0xFUL << DWT_CTRL_POSTPRESET_Pos)          /*!< DWT CTR
 992:.\CMSIS\Core\Include/core_cm4.h **** 
 993:.\CMSIS\Core\Include/core_cm4.h **** #define DWT_CTRL_CYCCNTENA_Pos              0U                                         /*!< DWT CTR
 994:.\CMSIS\Core\Include/core_cm4.h **** #define DWT_CTRL_CYCCNTENA_Msk             (0x1UL /*<< DWT_CTRL_CYCCNTENA_Pos*/)       /*!< DWT CTR
 995:.\CMSIS\Core\Include/core_cm4.h **** 
 996:.\CMSIS\Core\Include/core_cm4.h **** /* DWT CPI Count Register Definitions */
 997:.\CMSIS\Core\Include/core_cm4.h **** #define DWT_CPICNT_CPICNT_Pos               0U                                         /*!< DWT CPI
 998:.\CMSIS\Core\Include/core_cm4.h **** #define DWT_CPICNT_CPICNT_Msk              (0xFFUL /*<< DWT_CPICNT_CPICNT_Pos*/)       /*!< DWT CPI
 999:.\CMSIS\Core\Include/core_cm4.h **** 
1000:.\CMSIS\Core\Include/core_cm4.h **** /* DWT Exception Overhead Count Register Definitions */
1001:.\CMSIS\Core\Include/core_cm4.h **** #define DWT_EXCCNT_EXCCNT_Pos               0U                                         /*!< DWT EXC
1002:.\CMSIS\Core\Include/core_cm4.h **** #define DWT_EXCCNT_EXCCNT_Msk              (0xFFUL /*<< DWT_EXCCNT_EXCCNT_Pos*/)       /*!< DWT EXC
1003:.\CMSIS\Core\Include/core_cm4.h **** 
1004:.\CMSIS\Core\Include/core_cm4.h **** /* DWT Sleep Count Register Definitions */
1005:.\CMSIS\Core\Include/core_cm4.h **** #define DWT_SLEEPCNT_SLEEPCNT_Pos           0U                                         /*!< DWT SLE
1006:.\CMSIS\Core\Include/core_cm4.h **** #define DWT_SLEEPCNT_SLEEPCNT_Msk          (0xFFUL /*<< DWT_SLEEPCNT_SLEEPCNT_Pos*/)   /*!< DWT SLE
1007:.\CMSIS\Core\Include/core_cm4.h **** 
1008:.\CMSIS\Core\Include/core_cm4.h **** /* DWT LSU Count Register Definitions */
1009:.\CMSIS\Core\Include/core_cm4.h **** #define DWT_LSUCNT_LSUCNT_Pos               0U                                         /*!< DWT LSU
1010:.\CMSIS\Core\Include/core_cm4.h **** #define DWT_LSUCNT_LSUCNT_Msk              (0xFFUL /*<< DWT_LSUCNT_LSUCNT_Pos*/)       /*!< DWT LSU
1011:.\CMSIS\Core\Include/core_cm4.h **** 
1012:.\CMSIS\Core\Include/core_cm4.h **** /* DWT Folded-instruction Count Register Definitions */
1013:.\CMSIS\Core\Include/core_cm4.h **** #define DWT_FOLDCNT_FOLDCNT_Pos             0U                                         /*!< DWT FOL
1014:.\CMSIS\Core\Include/core_cm4.h **** #define DWT_FOLDCNT_FOLDCNT_Msk            (0xFFUL /*<< DWT_FOLDCNT_FOLDCNT_Pos*/)     /*!< DWT FOL
1015:.\CMSIS\Core\Include/core_cm4.h **** 
1016:.\CMSIS\Core\Include/core_cm4.h **** /* DWT Comparator Mask Register Definitions */
1017:.\CMSIS\Core\Include/core_cm4.h **** #define DWT_MASK_MASK_Pos                   0U                                         /*!< DWT MAS
1018:.\CMSIS\Core\Include/core_cm4.h **** #define DWT_MASK_MASK_Msk                  (0x1FUL /*<< DWT_MASK_MASK_Pos*/)           /*!< DWT MAS
1019:.\CMSIS\Core\Include/core_cm4.h **** 
1020:.\CMSIS\Core\Include/core_cm4.h **** /* DWT Comparator Function Register Definitions */
1021:.\CMSIS\Core\Include/core_cm4.h **** #define DWT_FUNCTION_MATCHED_Pos           24U                                         /*!< DWT FUN
1022:.\CMSIS\Core\Include/core_cm4.h **** #define DWT_FUNCTION_MATCHED_Msk           (0x1UL << DWT_FUNCTION_MATCHED_Pos)         /*!< DWT FUN
1023:.\CMSIS\Core\Include/core_cm4.h **** 
1024:.\CMSIS\Core\Include/core_cm4.h **** #define DWT_FUNCTION_DATAVADDR1_Pos        16U                                         /*!< DWT FUN
ARM GAS  C:\Users\nicpa\AppData\Local\Temp\ccPr5feD.s 			page 55


1025:.\CMSIS\Core\Include/core_cm4.h **** #define DWT_FUNCTION_DATAVADDR1_Msk        (0xFUL << DWT_FUNCTION_DATAVADDR1_Pos)      /*!< DWT FUN
1026:.\CMSIS\Core\Include/core_cm4.h **** 
1027:.\CMSIS\Core\Include/core_cm4.h **** #define DWT_FUNCTION_DATAVADDR0_Pos        12U                                         /*!< DWT FUN
1028:.\CMSIS\Core\Include/core_cm4.h **** #define DWT_FUNCTION_DATAVADDR0_Msk        (0xFUL << DWT_FUNCTION_DATAVADDR0_Pos)      /*!< DWT FUN
1029:.\CMSIS\Core\Include/core_cm4.h **** 
1030:.\CMSIS\Core\Include/core_cm4.h **** #define DWT_FUNCTION_DATAVSIZE_Pos         10U                                         /*!< DWT FUN
1031:.\CMSIS\Core\Include/core_cm4.h **** #define DWT_FUNCTION_DATAVSIZE_Msk         (0x3UL << DWT_FUNCTION_DATAVSIZE_Pos)       /*!< DWT FUN
1032:.\CMSIS\Core\Include/core_cm4.h **** 
1033:.\CMSIS\Core\Include/core_cm4.h **** #define DWT_FUNCTION_LNK1ENA_Pos            9U                                         /*!< DWT FUN
1034:.\CMSIS\Core\Include/core_cm4.h **** #define DWT_FUNCTION_LNK1ENA_Msk           (0x1UL << DWT_FUNCTION_LNK1ENA_Pos)         /*!< DWT FUN
1035:.\CMSIS\Core\Include/core_cm4.h **** 
1036:.\CMSIS\Core\Include/core_cm4.h **** #define DWT_FUNCTION_DATAVMATCH_Pos         8U                                         /*!< DWT FUN
1037:.\CMSIS\Core\Include/core_cm4.h **** #define DWT_FUNCTION_DATAVMATCH_Msk        (0x1UL << DWT_FUNCTION_DATAVMATCH_Pos)      /*!< DWT FUN
1038:.\CMSIS\Core\Include/core_cm4.h **** 
1039:.\CMSIS\Core\Include/core_cm4.h **** #define DWT_FUNCTION_CYCMATCH_Pos           7U                                         /*!< DWT FUN
1040:.\CMSIS\Core\Include/core_cm4.h **** #define DWT_FUNCTION_CYCMATCH_Msk          (0x1UL << DWT_FUNCTION_CYCMATCH_Pos)        /*!< DWT FUN
1041:.\CMSIS\Core\Include/core_cm4.h **** 
1042:.\CMSIS\Core\Include/core_cm4.h **** #define DWT_FUNCTION_EMITRANGE_Pos          5U                                         /*!< DWT FUN
1043:.\CMSIS\Core\Include/core_cm4.h **** #define DWT_FUNCTION_EMITRANGE_Msk         (0x1UL << DWT_FUNCTION_EMITRANGE_Pos)       /*!< DWT FUN
1044:.\CMSIS\Core\Include/core_cm4.h **** 
1045:.\CMSIS\Core\Include/core_cm4.h **** #define DWT_FUNCTION_FUNCTION_Pos           0U                                         /*!< DWT FUN
1046:.\CMSIS\Core\Include/core_cm4.h **** #define DWT_FUNCTION_FUNCTION_Msk          (0xFUL /*<< DWT_FUNCTION_FUNCTION_Pos*/)    /*!< DWT FUN
1047:.\CMSIS\Core\Include/core_cm4.h **** 
1048:.\CMSIS\Core\Include/core_cm4.h **** /*@}*/ /* end of group CMSIS_DWT */
1049:.\CMSIS\Core\Include/core_cm4.h **** 
1050:.\CMSIS\Core\Include/core_cm4.h **** 
1051:.\CMSIS\Core\Include/core_cm4.h **** /**
1052:.\CMSIS\Core\Include/core_cm4.h ****   \ingroup  CMSIS_core_register
1053:.\CMSIS\Core\Include/core_cm4.h ****   \defgroup CMSIS_TPI     Trace Port Interface (TPI)
1054:.\CMSIS\Core\Include/core_cm4.h ****   \brief    Type definitions for the Trace Port Interface (TPI)
1055:.\CMSIS\Core\Include/core_cm4.h ****   @{
1056:.\CMSIS\Core\Include/core_cm4.h ****  */
1057:.\CMSIS\Core\Include/core_cm4.h **** 
1058:.\CMSIS\Core\Include/core_cm4.h **** /**
1059:.\CMSIS\Core\Include/core_cm4.h ****   \brief  Structure type to access the Trace Port Interface Register (TPI).
1060:.\CMSIS\Core\Include/core_cm4.h ****  */
1061:.\CMSIS\Core\Include/core_cm4.h **** typedef struct
1062:.\CMSIS\Core\Include/core_cm4.h **** {
1063:.\CMSIS\Core\Include/core_cm4.h ****   __IOM uint32_t SSPSR;                  /*!< Offset: 0x000 (R/ )  Supported Parallel Port Size Reg
1064:.\CMSIS\Core\Include/core_cm4.h ****   __IOM uint32_t CSPSR;                  /*!< Offset: 0x004 (R/W)  Current Parallel Port Size Regis
1065:.\CMSIS\Core\Include/core_cm4.h ****         uint32_t RESERVED0[2U];
1066:.\CMSIS\Core\Include/core_cm4.h ****   __IOM uint32_t ACPR;                   /*!< Offset: 0x010 (R/W)  Asynchronous Clock Prescaler Reg
1067:.\CMSIS\Core\Include/core_cm4.h ****         uint32_t RESERVED1[55U];
1068:.\CMSIS\Core\Include/core_cm4.h ****   __IOM uint32_t SPPR;                   /*!< Offset: 0x0F0 (R/W)  Selected Pin Protocol Register *
1069:.\CMSIS\Core\Include/core_cm4.h ****         uint32_t RESERVED2[131U];
1070:.\CMSIS\Core\Include/core_cm4.h ****   __IM  uint32_t FFSR;                   /*!< Offset: 0x300 (R/ )  Formatter and Flush Status Regis
1071:.\CMSIS\Core\Include/core_cm4.h ****   __IOM uint32_t FFCR;                   /*!< Offset: 0x304 (R/W)  Formatter and Flush Control Regi
1072:.\CMSIS\Core\Include/core_cm4.h ****   __IM  uint32_t FSCR;                   /*!< Offset: 0x308 (R/ )  Formatter Synchronization Counte
1073:.\CMSIS\Core\Include/core_cm4.h ****         uint32_t RESERVED3[759U];
1074:.\CMSIS\Core\Include/core_cm4.h ****   __IM  uint32_t TRIGGER;                /*!< Offset: 0xEE8 (R/ )  TRIGGER */
1075:.\CMSIS\Core\Include/core_cm4.h ****   __IM  uint32_t FIFO0;                  /*!< Offset: 0xEEC (R/ )  Integration ETM Data */
1076:.\CMSIS\Core\Include/core_cm4.h ****   __IM  uint32_t ITATBCTR2;              /*!< Offset: 0xEF0 (R/ )  ITATBCTR2 */
1077:.\CMSIS\Core\Include/core_cm4.h ****         uint32_t RESERVED4[1U];
1078:.\CMSIS\Core\Include/core_cm4.h ****   __IM  uint32_t ITATBCTR0;              /*!< Offset: 0xEF8 (R/ )  ITATBCTR0 */
1079:.\CMSIS\Core\Include/core_cm4.h ****   __IM  uint32_t FIFO1;                  /*!< Offset: 0xEFC (R/ )  Integration ITM Data */
1080:.\CMSIS\Core\Include/core_cm4.h ****   __IOM uint32_t ITCTRL;                 /*!< Offset: 0xF00 (R/W)  Integration Mode Control */
1081:.\CMSIS\Core\Include/core_cm4.h ****         uint32_t RESERVED5[39U];
ARM GAS  C:\Users\nicpa\AppData\Local\Temp\ccPr5feD.s 			page 56


1082:.\CMSIS\Core\Include/core_cm4.h ****   __IOM uint32_t CLAIMSET;               /*!< Offset: 0xFA0 (R/W)  Claim tag set */
1083:.\CMSIS\Core\Include/core_cm4.h ****   __IOM uint32_t CLAIMCLR;               /*!< Offset: 0xFA4 (R/W)  Claim tag clear */
1084:.\CMSIS\Core\Include/core_cm4.h ****         uint32_t RESERVED7[8U];
1085:.\CMSIS\Core\Include/core_cm4.h ****   __IM  uint32_t DEVID;                  /*!< Offset: 0xFC8 (R/ )  TPIU_DEVID */
1086:.\CMSIS\Core\Include/core_cm4.h ****   __IM  uint32_t DEVTYPE;                /*!< Offset: 0xFCC (R/ )  TPIU_DEVTYPE */
1087:.\CMSIS\Core\Include/core_cm4.h **** } TPI_Type;
1088:.\CMSIS\Core\Include/core_cm4.h **** 
1089:.\CMSIS\Core\Include/core_cm4.h **** /* TPI Asynchronous Clock Prescaler Register Definitions */
