ARM GAS  C:\Users\nicpa\AppData\Local\Temp\ccawORUH.s 			page 1


   1              		.syntax unified
   2              		.cpu cortex-m4
   3              		.eabi_attribute 27, 1
   4              		.fpu fpv4-sp-d16
   5              		.eabi_attribute 20, 1
   6              		.eabi_attribute 21, 1
   7              		.eabi_attribute 23, 3
   8              		.eabi_attribute 24, 1
   9              		.eabi_attribute 25, 1
  10              		.eabi_attribute 26, 1
  11              		.eabi_attribute 30, 1
  12              		.eabi_attribute 34, 1
  13              		.eabi_attribute 18, 4
  14              		.thumb
  15              		.syntax unified
  16              		.file	"MAX30102_functions.c"
  17              		.text
  18              	.Ltext0:
  19              		.cfi_sections	.debug_frame
  20              		.section	.text.read_register_MAX,"ax",%progbits
  21              		.align	2
  22              		.global	read_register_MAX
  23              		.thumb
  24              		.thumb_func
  25              		.type	read_register_MAX, %function
  26              	read_register_MAX:
  27              	.LFB625:
  28              		.file 1 "MAX30102_functions.c"
   1:MAX30102_functions.c **** /* ========================================
   2:MAX30102_functions.c ****  *
   3:MAX30102_functions.c ****  * Copyright YOUR COMPANY, THE YEAR
   4:MAX30102_functions.c ****  * All Rights Reserved
   5:MAX30102_functions.c ****  * UNPUBLISHED, LICENSED SOFTWARE.
   6:MAX30102_functions.c ****  *
   7:MAX30102_functions.c ****  * CONFIDENTIAL AND PROPRIETARY INFORMATION
   8:MAX30102_functions.c ****  * WHICH IS THE PROPERTY OF your company.
   9:MAX30102_functions.c ****  *
  10:MAX30102_functions.c ****  * ========================================
  11:MAX30102_functions.c **** */
  12:MAX30102_functions.c **** #include "MAX30102_functions.h"
  13:MAX30102_functions.c **** 
  14:MAX30102_functions.c **** //Fonctions i2c
  15:MAX30102_functions.c **** bool MAX_Init(void)
  16:MAX30102_functions.c **** {
  17:MAX30102_functions.c ****     if (!write_register_MAX(0x09, 0x40))
  18:MAX30102_functions.c ****         return false;
  19:MAX30102_functions.c ****     if (!write_register_MAX(0x09, 0x03))
  20:MAX30102_functions.c ****         return false;
  21:MAX30102_functions.c ****     if (!write_register_MAX(0x0A, 0x67))
  22:MAX30102_functions.c ****         return false;
  23:MAX30102_functions.c ****     if (!write_register_MAX(0x02, 0xE0))
  24:MAX30102_functions.c ****         return false;
  25:MAX30102_functions.c ****     if (!write_register_MAX(0x0C, 0x30))
  26:MAX30102_functions.c ****         return false;
  27:MAX30102_functions.c ****     if (!write_register_MAX(0x0D, 0x30))
  28:MAX30102_functions.c ****         return false;
  29:MAX30102_functions.c ****     
ARM GAS  C:\Users\nicpa\AppData\Local\Temp\ccawORUH.s 			page 2


  30:MAX30102_functions.c ****     Cy_SysInt_Init(&PPG_RDY_isr_cfg, PPG_RDY_handler);
  31:MAX30102_functions.c ****     NVIC_ClearPendingIRQ(PPG_RDY_isr_cfg.intrSrc);
  32:MAX30102_functions.c ****     NVIC_EnableIRQ(PPG_RDY_isr_cfg.intrSrc);
  33:MAX30102_functions.c ****     
  34:MAX30102_functions.c ****     
  35:MAX30102_functions.c ****     return true;
  36:MAX30102_functions.c **** }
  37:MAX30102_functions.c **** 
  38:MAX30102_functions.c **** 
  39:MAX30102_functions.c **** 
  40:MAX30102_functions.c **** int received_data()
  41:MAX30102_functions.c **** {
  42:MAX30102_functions.c ****     return (read_register_MAX(0x00) & 0x040);
  43:MAX30102_functions.c **** }
  44:MAX30102_functions.c **** 
  45:MAX30102_functions.c **** uint8 read_register_MAX(uint8 baseAddress)
  46:MAX30102_functions.c **** {
  29              		.loc 1 46 0
  30              		.cfi_startproc
  31              		@ args = 0, pretend = 0, frame = 8
  32              		@ frame_needed = 0, uses_anonymous_args = 0
  33              	.LVL0:
  34 0000 70B5     		push	{r4, r5, r6, lr}
  35              		.cfi_def_cfa_offset 16
  36              		.cfi_offset 4, -16
  37              		.cfi_offset 5, -12
  38              		.cfi_offset 6, -8
  39              		.cfi_offset 14, -4
  40 0002 84B0     		sub	sp, sp, #16
  41              		.cfi_def_cfa_offset 32
  42 0004 0646     		mov	r6, r0
  43              	.LVL1:
  44              	.LBB46:
  45              	.LBB47:
  46              		.file 2 "Generated_Source\\PSoC6/I2C_MAX.h"
   1:Generated_Source\PSoC6/I2C_MAX.h **** /***************************************************************************//**
   2:Generated_Source\PSoC6/I2C_MAX.h **** * \file I2C_MAX.c
   3:Generated_Source\PSoC6/I2C_MAX.h **** * \version 2.0
   4:Generated_Source\PSoC6/I2C_MAX.h **** *
   5:Generated_Source\PSoC6/I2C_MAX.h **** *  This file provides constants and parameter values for the I2C component.
   6:Generated_Source\PSoC6/I2C_MAX.h **** *
   7:Generated_Source\PSoC6/I2C_MAX.h **** ********************************************************************************
   8:Generated_Source\PSoC6/I2C_MAX.h **** * \copyright
   9:Generated_Source\PSoC6/I2C_MAX.h **** * Copyright 2016-2017, Cypress Semiconductor Corporation. All rights reserved.
  10:Generated_Source\PSoC6/I2C_MAX.h **** * You may use this file only in accordance with the license, terms, conditions,
  11:Generated_Source\PSoC6/I2C_MAX.h **** * disclaimers, and limitations in the end user license agreement accompanying
  12:Generated_Source\PSoC6/I2C_MAX.h **** * the software package with which this file was provided.
  13:Generated_Source\PSoC6/I2C_MAX.h **** *******************************************************************************/
  14:Generated_Source\PSoC6/I2C_MAX.h **** 
  15:Generated_Source\PSoC6/I2C_MAX.h **** #if !defined(I2C_MAX_CY_SCB_I2C_PDL_H)
  16:Generated_Source\PSoC6/I2C_MAX.h **** #define I2C_MAX_CY_SCB_I2C_PDL_H
  17:Generated_Source\PSoC6/I2C_MAX.h **** 
  18:Generated_Source\PSoC6/I2C_MAX.h **** #include "cyfitter.h"
  19:Generated_Source\PSoC6/I2C_MAX.h **** #include "scb/cy_scb_i2c.h"
  20:Generated_Source\PSoC6/I2C_MAX.h **** 
  21:Generated_Source\PSoC6/I2C_MAX.h **** #if defined(__cplusplus)
  22:Generated_Source\PSoC6/I2C_MAX.h **** extern "C" {
ARM GAS  C:\Users\nicpa\AppData\Local\Temp\ccawORUH.s 			page 3


  23:Generated_Source\PSoC6/I2C_MAX.h **** #endif
  24:Generated_Source\PSoC6/I2C_MAX.h **** 
  25:Generated_Source\PSoC6/I2C_MAX.h **** /***************************************
  26:Generated_Source\PSoC6/I2C_MAX.h **** *   Initial Parameter Constants
  27:Generated_Source\PSoC6/I2C_MAX.h **** ****************************************/
  28:Generated_Source\PSoC6/I2C_MAX.h **** 
  29:Generated_Source\PSoC6/I2C_MAX.h **** #define I2C_MAX_MODE               (0x2U)
  30:Generated_Source\PSoC6/I2C_MAX.h **** #define I2C_MAX_MODE_SLAVE_MASK    (0x1U)
  31:Generated_Source\PSoC6/I2C_MAX.h **** #define I2C_MAX_MODE_MASTER_MASK   (0x2U)
  32:Generated_Source\PSoC6/I2C_MAX.h **** 
  33:Generated_Source\PSoC6/I2C_MAX.h **** #define I2C_MAX_ENABLE_SLAVE       (0UL != (I2C_MAX_MODE & I2C_MAX_MODE_SLAVE_MASK))
  34:Generated_Source\PSoC6/I2C_MAX.h **** #define I2C_MAX_ENABLE_MASTER      (0UL != (I2C_MAX_MODE & I2C_MAX_MODE_MASTER_MASK))
  35:Generated_Source\PSoC6/I2C_MAX.h **** #define I2C_MAX_MANUAL_SCL_CONTROL (0U)
  36:Generated_Source\PSoC6/I2C_MAX.h **** 
  37:Generated_Source\PSoC6/I2C_MAX.h **** 
  38:Generated_Source\PSoC6/I2C_MAX.h **** /***************************************
  39:Generated_Source\PSoC6/I2C_MAX.h **** *        Function Prototypes
  40:Generated_Source\PSoC6/I2C_MAX.h **** ***************************************/
  41:Generated_Source\PSoC6/I2C_MAX.h **** /**
  42:Generated_Source\PSoC6/I2C_MAX.h **** * \addtogroup group_general
  43:Generated_Source\PSoC6/I2C_MAX.h **** * @{
  44:Generated_Source\PSoC6/I2C_MAX.h **** */
  45:Generated_Source\PSoC6/I2C_MAX.h **** /* Component only APIs. */
  46:Generated_Source\PSoC6/I2C_MAX.h **** void I2C_MAX_Start(void);
  47:Generated_Source\PSoC6/I2C_MAX.h **** 
  48:Generated_Source\PSoC6/I2C_MAX.h **** /* Basic functions. */
  49:Generated_Source\PSoC6/I2C_MAX.h **** __STATIC_INLINE cy_en_scb_i2c_status_t I2C_MAX_Init(cy_stc_scb_i2c_config_t const *config);
  50:Generated_Source\PSoC6/I2C_MAX.h **** __STATIC_INLINE void I2C_MAX_DeInit (void);
  51:Generated_Source\PSoC6/I2C_MAX.h **** __STATIC_INLINE void I2C_MAX_Enable (void);
  52:Generated_Source\PSoC6/I2C_MAX.h **** __STATIC_INLINE void I2C_MAX_Disable(void);
  53:Generated_Source\PSoC6/I2C_MAX.h **** 
  54:Generated_Source\PSoC6/I2C_MAX.h **** /* Data rate configuration functions. */
  55:Generated_Source\PSoC6/I2C_MAX.h **** __STATIC_INLINE uint32_t I2C_MAX_SetDataRate(uint32_t dataRateHz, uint32_t scbClockHz);
  56:Generated_Source\PSoC6/I2C_MAX.h **** __STATIC_INLINE uint32_t I2C_MAX_GetDataRate(uint32_t scbClockHz);
  57:Generated_Source\PSoC6/I2C_MAX.h **** 
  58:Generated_Source\PSoC6/I2C_MAX.h **** /* Register callbacks. */
  59:Generated_Source\PSoC6/I2C_MAX.h **** __STATIC_INLINE void I2C_MAX_RegisterEventCallback(cy_cb_scb_i2c_handle_events_t callback);
  60:Generated_Source\PSoC6/I2C_MAX.h **** #if (I2C_MAX_ENABLE_SLAVE)
  61:Generated_Source\PSoC6/I2C_MAX.h **** __STATIC_INLINE void I2C_MAX_RegisterAddrCallback (cy_cb_scb_i2c_handle_addr_t callback);
  62:Generated_Source\PSoC6/I2C_MAX.h **** #endif /* (I2C_MAX_ENABLE_SLAVE) */
  63:Generated_Source\PSoC6/I2C_MAX.h **** 
  64:Generated_Source\PSoC6/I2C_MAX.h **** /* Configuration functions. */
  65:Generated_Source\PSoC6/I2C_MAX.h **** #if (I2C_MAX_ENABLE_SLAVE)
  66:Generated_Source\PSoC6/I2C_MAX.h **** __STATIC_INLINE void     I2C_MAX_SlaveSetAddress(uint8_t addr);
  67:Generated_Source\PSoC6/I2C_MAX.h **** __STATIC_INLINE uint32_t I2C_MAX_SlaveGetAddress(void);
  68:Generated_Source\PSoC6/I2C_MAX.h **** __STATIC_INLINE void     I2C_MAX_SlaveSetAddressMask(uint8_t addrMask);
  69:Generated_Source\PSoC6/I2C_MAX.h **** __STATIC_INLINE uint32_t I2C_MAX_SlaveGetAddressMask(void);
  70:Generated_Source\PSoC6/I2C_MAX.h **** #endif /* (I2C_MAX_ENABLE_SLAVE) */
  71:Generated_Source\PSoC6/I2C_MAX.h **** 
  72:Generated_Source\PSoC6/I2C_MAX.h **** #if (I2C_MAX_ENABLE_MASTER)
  73:Generated_Source\PSoC6/I2C_MAX.h **** __STATIC_INLINE void I2C_MAX_MasterSetLowPhaseDutyCycle (uint32_t clockCycles);
  74:Generated_Source\PSoC6/I2C_MAX.h **** __STATIC_INLINE void I2C_MAX_MasterSetHighPhaseDutyCycle(uint32_t clockCycles);
  75:Generated_Source\PSoC6/I2C_MAX.h **** #endif /* (I2C_MAX_ENABLE_MASTER) */
  76:Generated_Source\PSoC6/I2C_MAX.h **** 
  77:Generated_Source\PSoC6/I2C_MAX.h **** /* Bus status. */
  78:Generated_Source\PSoC6/I2C_MAX.h **** __STATIC_INLINE bool     I2C_MAX_IsBusBusy(void);
  79:Generated_Source\PSoC6/I2C_MAX.h **** 
ARM GAS  C:\Users\nicpa\AppData\Local\Temp\ccawORUH.s 			page 4


  80:Generated_Source\PSoC6/I2C_MAX.h **** /* Slave functions. */
  81:Generated_Source\PSoC6/I2C_MAX.h **** #if (I2C_MAX_ENABLE_SLAVE)
  82:Generated_Source\PSoC6/I2C_MAX.h **** __STATIC_INLINE uint32_t I2C_MAX_SlaveGetStatus(void);
  83:Generated_Source\PSoC6/I2C_MAX.h **** 
  84:Generated_Source\PSoC6/I2C_MAX.h **** __STATIC_INLINE void     I2C_MAX_SlaveConfigReadBuf(uint8_t *buffer, uint32_t size);
  85:Generated_Source\PSoC6/I2C_MAX.h **** __STATIC_INLINE void     I2C_MAX_SlaveAbortRead(void);
  86:Generated_Source\PSoC6/I2C_MAX.h **** __STATIC_INLINE uint32_t I2C_MAX_SlaveGetReadTransferCount(void);
  87:Generated_Source\PSoC6/I2C_MAX.h **** __STATIC_INLINE uint32_t I2C_MAX_SlaveClearReadStatus(void);
  88:Generated_Source\PSoC6/I2C_MAX.h **** 
  89:Generated_Source\PSoC6/I2C_MAX.h **** __STATIC_INLINE void     I2C_MAX_SlaveConfigWriteBuf(uint8_t *buffer, uint32_t size);
  90:Generated_Source\PSoC6/I2C_MAX.h **** __STATIC_INLINE void     I2C_MAX_SlaveAbortWrite(void);
  91:Generated_Source\PSoC6/I2C_MAX.h **** __STATIC_INLINE uint32_t I2C_MAX_SlaveGetWriteTransferCount(void);
  92:Generated_Source\PSoC6/I2C_MAX.h **** __STATIC_INLINE uint32_t I2C_MAX_SlaveClearWriteStatus(void);
  93:Generated_Source\PSoC6/I2C_MAX.h **** #endif /* (I2C_MAX_ENABLE_SLAVE) */
  94:Generated_Source\PSoC6/I2C_MAX.h **** 
  95:Generated_Source\PSoC6/I2C_MAX.h **** /* Master interrupt processing functions. */
  96:Generated_Source\PSoC6/I2C_MAX.h **** #if (I2C_MAX_ENABLE_MASTER)
  97:Generated_Source\PSoC6/I2C_MAX.h **** __STATIC_INLINE uint32_t I2C_MAX_MasterGetStatus(void);
  98:Generated_Source\PSoC6/I2C_MAX.h **** 
  99:Generated_Source\PSoC6/I2C_MAX.h **** __STATIC_INLINE cy_en_scb_i2c_status_t I2C_MAX_MasterRead(cy_stc_scb_i2c_master_xfer_config_t *xfer
 100:Generated_Source\PSoC6/I2C_MAX.h **** __STATIC_INLINE void I2C_MAX_MasterAbortRead(void);
 101:Generated_Source\PSoC6/I2C_MAX.h **** __STATIC_INLINE cy_en_scb_i2c_status_t I2C_MAX_MasterWrite(cy_stc_scb_i2c_master_xfer_config_t *xfe
 102:Generated_Source\PSoC6/I2C_MAX.h **** __STATIC_INLINE void I2C_MAX_MasterAbortWrite(void);
 103:Generated_Source\PSoC6/I2C_MAX.h **** __STATIC_INLINE uint32_t I2C_MAX_MasterGetTransferCount(void);
 104:Generated_Source\PSoC6/I2C_MAX.h **** 
 105:Generated_Source\PSoC6/I2C_MAX.h **** /* Master manual processing functions. */
 106:Generated_Source\PSoC6/I2C_MAX.h **** __STATIC_INLINE cy_en_scb_i2c_status_t I2C_MAX_MasterSendStart(uint32_t address, cy_en_scb_i2c_dire
 107:Generated_Source\PSoC6/I2C_MAX.h **** __STATIC_INLINE cy_en_scb_i2c_status_t I2C_MAX_MasterSendReStart(uint32_t address, cy_en_scb_i2c_di
 108:Generated_Source\PSoC6/I2C_MAX.h **** __STATIC_INLINE cy_en_scb_i2c_status_t I2C_MAX_MasterSendStop(uint32_t timeoutMs);
 109:Generated_Source\PSoC6/I2C_MAX.h **** __STATIC_INLINE cy_en_scb_i2c_status_t I2C_MAX_MasterReadByte(cy_en_scb_i2c_command_t ackNack, uint
 110:Generated_Source\PSoC6/I2C_MAX.h **** __STATIC_INLINE cy_en_scb_i2c_status_t I2C_MAX_MasterWriteByte(uint8_t byte, uint32_t timeoutMs);
 111:Generated_Source\PSoC6/I2C_MAX.h **** #endif /* (I2C_MAX_ENABLE_MASTER) */
 112:Generated_Source\PSoC6/I2C_MAX.h **** 
 113:Generated_Source\PSoC6/I2C_MAX.h **** /* Interrupt handler. */
 114:Generated_Source\PSoC6/I2C_MAX.h **** __STATIC_INLINE void I2C_MAX_Interrupt(void);
 115:Generated_Source\PSoC6/I2C_MAX.h **** /** @} group_general */
 116:Generated_Source\PSoC6/I2C_MAX.h **** 
 117:Generated_Source\PSoC6/I2C_MAX.h **** 
 118:Generated_Source\PSoC6/I2C_MAX.h **** /***************************************
 119:Generated_Source\PSoC6/I2C_MAX.h **** *    Variables with External Linkage
 120:Generated_Source\PSoC6/I2C_MAX.h **** ***************************************/
 121:Generated_Source\PSoC6/I2C_MAX.h **** /**
 122:Generated_Source\PSoC6/I2C_MAX.h **** * \addtogroup group_globals
 123:Generated_Source\PSoC6/I2C_MAX.h **** * @{
 124:Generated_Source\PSoC6/I2C_MAX.h **** */
 125:Generated_Source\PSoC6/I2C_MAX.h **** extern uint8_t I2C_MAX_initVar;
 126:Generated_Source\PSoC6/I2C_MAX.h **** extern cy_stc_scb_i2c_config_t const I2C_MAX_config;
 127:Generated_Source\PSoC6/I2C_MAX.h **** extern cy_stc_scb_i2c_context_t I2C_MAX_context;
 128:Generated_Source\PSoC6/I2C_MAX.h **** /** @} group_globals */
 129:Generated_Source\PSoC6/I2C_MAX.h **** 
 130:Generated_Source\PSoC6/I2C_MAX.h **** 
 131:Generated_Source\PSoC6/I2C_MAX.h **** /***************************************
 132:Generated_Source\PSoC6/I2C_MAX.h **** *         Preprocessor Macros
 133:Generated_Source\PSoC6/I2C_MAX.h **** ***************************************/
 134:Generated_Source\PSoC6/I2C_MAX.h **** /**
 135:Generated_Source\PSoC6/I2C_MAX.h **** * \addtogroup group_macros
 136:Generated_Source\PSoC6/I2C_MAX.h **** * @{
ARM GAS  C:\Users\nicpa\AppData\Local\Temp\ccawORUH.s 			page 5


 137:Generated_Source\PSoC6/I2C_MAX.h **** */
 138:Generated_Source\PSoC6/I2C_MAX.h **** /** The pointer to the base address of the SCB instance */
 139:Generated_Source\PSoC6/I2C_MAX.h **** #define I2C_MAX_HW     ((CySCB_Type *) I2C_MAX_SCB__HW)
 140:Generated_Source\PSoC6/I2C_MAX.h **** 
 141:Generated_Source\PSoC6/I2C_MAX.h **** /** The desired data rate in Hz */
 142:Generated_Source\PSoC6/I2C_MAX.h **** #define I2C_MAX_DATA_RATE_HZ      (100000U)
 143:Generated_Source\PSoC6/I2C_MAX.h **** 
 144:Generated_Source\PSoC6/I2C_MAX.h **** /** The frequency of the clock used by the Component in Hz */
 145:Generated_Source\PSoC6/I2C_MAX.h **** #define I2C_MAX_CLK_FREQ_HZ       (1538461U)
 146:Generated_Source\PSoC6/I2C_MAX.h **** 
 147:Generated_Source\PSoC6/I2C_MAX.h **** /** The number of Component clocks used by the master to generate the SCL
 148:Generated_Source\PSoC6/I2C_MAX.h **** * low phase. This number is calculated by GUI based on the selected data rate.
 149:Generated_Source\PSoC6/I2C_MAX.h **** */
 150:Generated_Source\PSoC6/I2C_MAX.h **** #define I2C_MAX_LOW_PHASE_DUTY_CYCLE   (8U)
 151:Generated_Source\PSoC6/I2C_MAX.h **** 
 152:Generated_Source\PSoC6/I2C_MAX.h **** /** The number of Component clocks used by the master to generate the SCL
 153:Generated_Source\PSoC6/I2C_MAX.h **** * high phase. This number is calculated by GUI based on the selected data rate.
 154:Generated_Source\PSoC6/I2C_MAX.h **** */
 155:Generated_Source\PSoC6/I2C_MAX.h **** #define I2C_MAX_HIGH_PHASE_DUTY_CYCLE  (8U)
 156:Generated_Source\PSoC6/I2C_MAX.h **** /** @} group_macros */
 157:Generated_Source\PSoC6/I2C_MAX.h **** 
 158:Generated_Source\PSoC6/I2C_MAX.h **** 
 159:Generated_Source\PSoC6/I2C_MAX.h **** /***************************************
 160:Generated_Source\PSoC6/I2C_MAX.h **** *    In-line Function Implementation
 161:Generated_Source\PSoC6/I2C_MAX.h **** ***************************************/
 162:Generated_Source\PSoC6/I2C_MAX.h **** 
 163:Generated_Source\PSoC6/I2C_MAX.h **** /*******************************************************************************
 164:Generated_Source\PSoC6/I2C_MAX.h **** * Function Name: I2C_MAX_Init
 165:Generated_Source\PSoC6/I2C_MAX.h **** ****************************************************************************//**
 166:Generated_Source\PSoC6/I2C_MAX.h **** *
 167:Generated_Source\PSoC6/I2C_MAX.h **** * Invokes the Cy_SCB_I2C_Init() PDL driver function.
 168:Generated_Source\PSoC6/I2C_MAX.h **** *
 169:Generated_Source\PSoC6/I2C_MAX.h **** *******************************************************************************/
 170:Generated_Source\PSoC6/I2C_MAX.h **** __STATIC_INLINE cy_en_scb_i2c_status_t I2C_MAX_Init(cy_stc_scb_i2c_config_t const *config)
 171:Generated_Source\PSoC6/I2C_MAX.h **** {
 172:Generated_Source\PSoC6/I2C_MAX.h ****     return Cy_SCB_I2C_Init(I2C_MAX_HW, config, &I2C_MAX_context);
 173:Generated_Source\PSoC6/I2C_MAX.h **** }
 174:Generated_Source\PSoC6/I2C_MAX.h **** 
 175:Generated_Source\PSoC6/I2C_MAX.h **** 
 176:Generated_Source\PSoC6/I2C_MAX.h **** /*******************************************************************************
 177:Generated_Source\PSoC6/I2C_MAX.h **** *  Function Name: I2C_MAX_DeInit
 178:Generated_Source\PSoC6/I2C_MAX.h **** ****************************************************************************//**
 179:Generated_Source\PSoC6/I2C_MAX.h **** *
 180:Generated_Source\PSoC6/I2C_MAX.h **** * Invokes the Cy_SCB_I2C_DeInit() PDL driver function.
 181:Generated_Source\PSoC6/I2C_MAX.h **** *
 182:Generated_Source\PSoC6/I2C_MAX.h **** *******************************************************************************/
 183:Generated_Source\PSoC6/I2C_MAX.h **** __STATIC_INLINE void I2C_MAX_DeInit(void)
 184:Generated_Source\PSoC6/I2C_MAX.h **** {
 185:Generated_Source\PSoC6/I2C_MAX.h ****     Cy_SCB_I2C_DeInit(I2C_MAX_HW);
 186:Generated_Source\PSoC6/I2C_MAX.h **** }
 187:Generated_Source\PSoC6/I2C_MAX.h **** 
 188:Generated_Source\PSoC6/I2C_MAX.h **** 
 189:Generated_Source\PSoC6/I2C_MAX.h **** /*******************************************************************************
 190:Generated_Source\PSoC6/I2C_MAX.h **** * Function Name: I2C_MAX_Enable
 191:Generated_Source\PSoC6/I2C_MAX.h **** ****************************************************************************//**
 192:Generated_Source\PSoC6/I2C_MAX.h **** *
 193:Generated_Source\PSoC6/I2C_MAX.h **** * Invokes the Cy_SCB_I2C_Enable() PDL driver function.
ARM GAS  C:\Users\nicpa\AppData\Local\Temp\ccawORUH.s 			page 6


 194:Generated_Source\PSoC6/I2C_MAX.h **** *
 195:Generated_Source\PSoC6/I2C_MAX.h **** *******************************************************************************/
 196:Generated_Source\PSoC6/I2C_MAX.h **** __STATIC_INLINE void I2C_MAX_Enable(void)
 197:Generated_Source\PSoC6/I2C_MAX.h **** {
 198:Generated_Source\PSoC6/I2C_MAX.h ****     Cy_SCB_I2C_Enable(I2C_MAX_HW);
 199:Generated_Source\PSoC6/I2C_MAX.h **** }
 200:Generated_Source\PSoC6/I2C_MAX.h **** 
 201:Generated_Source\PSoC6/I2C_MAX.h **** 
 202:Generated_Source\PSoC6/I2C_MAX.h **** /*******************************************************************************
 203:Generated_Source\PSoC6/I2C_MAX.h **** * Function Name: I2C_MAX_Disable
 204:Generated_Source\PSoC6/I2C_MAX.h **** ****************************************************************************//**
 205:Generated_Source\PSoC6/I2C_MAX.h **** *
 206:Generated_Source\PSoC6/I2C_MAX.h **** * Invokes the Cy_SCB_I2C_Disable() PDL driver function.
 207:Generated_Source\PSoC6/I2C_MAX.h **** *
 208:Generated_Source\PSoC6/I2C_MAX.h **** *******************************************************************************/
 209:Generated_Source\PSoC6/I2C_MAX.h **** __STATIC_INLINE void I2C_MAX_Disable(void)
 210:Generated_Source\PSoC6/I2C_MAX.h **** {
 211:Generated_Source\PSoC6/I2C_MAX.h ****     Cy_SCB_I2C_Disable(I2C_MAX_HW, &I2C_MAX_context);
 212:Generated_Source\PSoC6/I2C_MAX.h **** }
 213:Generated_Source\PSoC6/I2C_MAX.h **** 
 214:Generated_Source\PSoC6/I2C_MAX.h **** 
 215:Generated_Source\PSoC6/I2C_MAX.h **** /*******************************************************************************
 216:Generated_Source\PSoC6/I2C_MAX.h **** * Function Name: I2C_MAX_SetDataRate
 217:Generated_Source\PSoC6/I2C_MAX.h **** ****************************************************************************//**
 218:Generated_Source\PSoC6/I2C_MAX.h **** *
 219:Generated_Source\PSoC6/I2C_MAX.h **** * Invokes the Cy_SCB_I2C_SetDataRate() PDL driver function.
 220:Generated_Source\PSoC6/I2C_MAX.h **** *
 221:Generated_Source\PSoC6/I2C_MAX.h **** *******************************************************************************/
 222:Generated_Source\PSoC6/I2C_MAX.h **** __STATIC_INLINE uint32_t I2C_MAX_SetDataRate(uint32_t dataRateHz, uint32_t scbClockHz)
 223:Generated_Source\PSoC6/I2C_MAX.h **** {
 224:Generated_Source\PSoC6/I2C_MAX.h ****     return Cy_SCB_I2C_SetDataRate(I2C_MAX_HW, dataRateHz, scbClockHz);
 225:Generated_Source\PSoC6/I2C_MAX.h **** }
 226:Generated_Source\PSoC6/I2C_MAX.h **** 
 227:Generated_Source\PSoC6/I2C_MAX.h **** 
 228:Generated_Source\PSoC6/I2C_MAX.h **** /*******************************************************************************
 229:Generated_Source\PSoC6/I2C_MAX.h **** * Function Name: I2C_MAX_GetDataRate
 230:Generated_Source\PSoC6/I2C_MAX.h **** ****************************************************************************//**
 231:Generated_Source\PSoC6/I2C_MAX.h **** *
 232:Generated_Source\PSoC6/I2C_MAX.h **** * Invokes the Cy_SCB_I2C_GetDataRate() PDL driver function.
 233:Generated_Source\PSoC6/I2C_MAX.h **** *
 234:Generated_Source\PSoC6/I2C_MAX.h **** *******************************************************************************/
 235:Generated_Source\PSoC6/I2C_MAX.h **** __STATIC_INLINE uint32_t I2C_MAX_GetDataRate(uint32_t scbClockHz)
 236:Generated_Source\PSoC6/I2C_MAX.h **** {
 237:Generated_Source\PSoC6/I2C_MAX.h ****     return Cy_SCB_I2C_GetDataRate(I2C_MAX_HW, scbClockHz);
 238:Generated_Source\PSoC6/I2C_MAX.h **** }
 239:Generated_Source\PSoC6/I2C_MAX.h **** 
 240:Generated_Source\PSoC6/I2C_MAX.h **** 
 241:Generated_Source\PSoC6/I2C_MAX.h **** /*******************************************************************************
 242:Generated_Source\PSoC6/I2C_MAX.h **** * Function Name: I2C_MAX_RegisterEventCallback
 243:Generated_Source\PSoC6/I2C_MAX.h **** ****************************************************************************//**
 244:Generated_Source\PSoC6/I2C_MAX.h **** *
 245:Generated_Source\PSoC6/I2C_MAX.h **** * Invokes the Cy_SCB_I2C_RegisterEventCallback() PDL driver function.
 246:Generated_Source\PSoC6/I2C_MAX.h **** *
 247:Generated_Source\PSoC6/I2C_MAX.h **** *******************************************************************************/
 248:Generated_Source\PSoC6/I2C_MAX.h **** __STATIC_INLINE void I2C_MAX_RegisterEventCallback(cy_cb_scb_i2c_handle_events_t callback)
 249:Generated_Source\PSoC6/I2C_MAX.h **** {
 250:Generated_Source\PSoC6/I2C_MAX.h ****     Cy_SCB_I2C_RegisterEventCallback(I2C_MAX_HW, callback, &I2C_MAX_context);
ARM GAS  C:\Users\nicpa\AppData\Local\Temp\ccawORUH.s 			page 7


 251:Generated_Source\PSoC6/I2C_MAX.h **** }
 252:Generated_Source\PSoC6/I2C_MAX.h **** 
 253:Generated_Source\PSoC6/I2C_MAX.h **** 
 254:Generated_Source\PSoC6/I2C_MAX.h **** #if (I2C_MAX_ENABLE_SLAVE)
 255:Generated_Source\PSoC6/I2C_MAX.h **** /*******************************************************************************
 256:Generated_Source\PSoC6/I2C_MAX.h **** * Function Name: I2C_MAX_RegisterAddrCallback
 257:Generated_Source\PSoC6/I2C_MAX.h **** ****************************************************************************//**
 258:Generated_Source\PSoC6/I2C_MAX.h **** *
 259:Generated_Source\PSoC6/I2C_MAX.h **** * Invokes the Cy_SCB_I2C_RegisterAddrCallback() PDL driver function.
 260:Generated_Source\PSoC6/I2C_MAX.h **** *
 261:Generated_Source\PSoC6/I2C_MAX.h **** *******************************************************************************/
 262:Generated_Source\PSoC6/I2C_MAX.h **** __STATIC_INLINE void I2C_MAX_RegisterAddrCallback(cy_cb_scb_i2c_handle_addr_t callback)
 263:Generated_Source\PSoC6/I2C_MAX.h **** {
 264:Generated_Source\PSoC6/I2C_MAX.h ****     Cy_SCB_I2C_RegisterAddrCallback(I2C_MAX_HW, callback, &I2C_MAX_context);
 265:Generated_Source\PSoC6/I2C_MAX.h **** }
 266:Generated_Source\PSoC6/I2C_MAX.h **** #endif /* (I2C_MAX_ENABLE_SLAVE) */
 267:Generated_Source\PSoC6/I2C_MAX.h **** 
 268:Generated_Source\PSoC6/I2C_MAX.h **** 
 269:Generated_Source\PSoC6/I2C_MAX.h **** /*******************************************************************************
 270:Generated_Source\PSoC6/I2C_MAX.h **** * Function Name: I2C_MAX_IsBusBusy
 271:Generated_Source\PSoC6/I2C_MAX.h **** ****************************************************************************//**
 272:Generated_Source\PSoC6/I2C_MAX.h **** *
 273:Generated_Source\PSoC6/I2C_MAX.h **** * Invokes the Cy_SCB_I2C_IsBusBusy() PDL driver function.
 274:Generated_Source\PSoC6/I2C_MAX.h **** *
 275:Generated_Source\PSoC6/I2C_MAX.h **** *******************************************************************************/
 276:Generated_Source\PSoC6/I2C_MAX.h **** __STATIC_INLINE bool I2C_MAX_IsBusBusy(void)
 277:Generated_Source\PSoC6/I2C_MAX.h **** {
 278:Generated_Source\PSoC6/I2C_MAX.h ****     return Cy_SCB_I2C_IsBusBusy(I2C_MAX_HW);
 279:Generated_Source\PSoC6/I2C_MAX.h **** }
 280:Generated_Source\PSoC6/I2C_MAX.h **** 
 281:Generated_Source\PSoC6/I2C_MAX.h **** 
 282:Generated_Source\PSoC6/I2C_MAX.h **** #if (I2C_MAX_ENABLE_SLAVE)
 283:Generated_Source\PSoC6/I2C_MAX.h **** /*******************************************************************************
 284:Generated_Source\PSoC6/I2C_MAX.h **** * Function Name: I2C_MAX_SlaveSetAddress
 285:Generated_Source\PSoC6/I2C_MAX.h **** ****************************************************************************//**
 286:Generated_Source\PSoC6/I2C_MAX.h **** *
 287:Generated_Source\PSoC6/I2C_MAX.h **** * Invokes the Cy_SCB_I2C_SlaveGetAddress() PDL driver function.
 288:Generated_Source\PSoC6/I2C_MAX.h **** *
 289:Generated_Source\PSoC6/I2C_MAX.h **** *******************************************************************************/
 290:Generated_Source\PSoC6/I2C_MAX.h **** __STATIC_INLINE void I2C_MAX_SlaveSetAddress(uint8_t addr)
 291:Generated_Source\PSoC6/I2C_MAX.h **** {
 292:Generated_Source\PSoC6/I2C_MAX.h ****     Cy_SCB_I2C_SlaveSetAddress(I2C_MAX_HW, addr);
 293:Generated_Source\PSoC6/I2C_MAX.h **** }
 294:Generated_Source\PSoC6/I2C_MAX.h **** 
 295:Generated_Source\PSoC6/I2C_MAX.h **** 
 296:Generated_Source\PSoC6/I2C_MAX.h **** /*******************************************************************************
 297:Generated_Source\PSoC6/I2C_MAX.h **** * Function Name: I2C_MAX_SlaveGetAddress
 298:Generated_Source\PSoC6/I2C_MAX.h **** ****************************************************************************//**
 299:Generated_Source\PSoC6/I2C_MAX.h **** *
 300:Generated_Source\PSoC6/I2C_MAX.h **** * Invokes the Cy_SCB_I2C_SlaveGetAddress() PDL driver function.
 301:Generated_Source\PSoC6/I2C_MAX.h **** *
 302:Generated_Source\PSoC6/I2C_MAX.h **** *******************************************************************************/
 303:Generated_Source\PSoC6/I2C_MAX.h **** __STATIC_INLINE uint32_t I2C_MAX_SlaveGetAddress(void)
 304:Generated_Source\PSoC6/I2C_MAX.h **** {
 305:Generated_Source\PSoC6/I2C_MAX.h ****     return Cy_SCB_I2C_SlaveGetAddress(I2C_MAX_HW);
 306:Generated_Source\PSoC6/I2C_MAX.h **** }
 307:Generated_Source\PSoC6/I2C_MAX.h **** 
ARM GAS  C:\Users\nicpa\AppData\Local\Temp\ccawORUH.s 			page 8


 308:Generated_Source\PSoC6/I2C_MAX.h **** 
 309:Generated_Source\PSoC6/I2C_MAX.h **** /*******************************************************************************
 310:Generated_Source\PSoC6/I2C_MAX.h **** * Function Name: I2C_MAX_SlaveSetAddressMask
 311:Generated_Source\PSoC6/I2C_MAX.h **** ****************************************************************************//**
 312:Generated_Source\PSoC6/I2C_MAX.h **** *
 313:Generated_Source\PSoC6/I2C_MAX.h **** * Invokes the Cy_SCB_I2C_SlaveSetAddressMask() PDL driver function.
 314:Generated_Source\PSoC6/I2C_MAX.h **** *
 315:Generated_Source\PSoC6/I2C_MAX.h **** *******************************************************************************/
 316:Generated_Source\PSoC6/I2C_MAX.h **** __STATIC_INLINE void I2C_MAX_SlaveSetAddressMask(uint8_t addrMask)
 317:Generated_Source\PSoC6/I2C_MAX.h **** {
 318:Generated_Source\PSoC6/I2C_MAX.h ****     Cy_SCB_I2C_SlaveSetAddressMask(I2C_MAX_HW, addrMask);
 319:Generated_Source\PSoC6/I2C_MAX.h **** }
 320:Generated_Source\PSoC6/I2C_MAX.h **** 
 321:Generated_Source\PSoC6/I2C_MAX.h **** 
 322:Generated_Source\PSoC6/I2C_MAX.h **** /*******************************************************************************
 323:Generated_Source\PSoC6/I2C_MAX.h **** * Function Name: I2C_MAX_SlaveGetAddressMask
 324:Generated_Source\PSoC6/I2C_MAX.h **** ****************************************************************************//**
 325:Generated_Source\PSoC6/I2C_MAX.h **** *
 326:Generated_Source\PSoC6/I2C_MAX.h **** * Invokes the Cy_SCB_I2C_SlaveGetAddressMask() PDL driver function.
 327:Generated_Source\PSoC6/I2C_MAX.h **** *
 328:Generated_Source\PSoC6/I2C_MAX.h **** *******************************************************************************/
 329:Generated_Source\PSoC6/I2C_MAX.h **** __STATIC_INLINE uint32_t I2C_MAX_SlaveGetAddressMask(void)
 330:Generated_Source\PSoC6/I2C_MAX.h **** {
 331:Generated_Source\PSoC6/I2C_MAX.h ****     return Cy_SCB_I2C_SlaveGetAddressMask(I2C_MAX_HW);
 332:Generated_Source\PSoC6/I2C_MAX.h **** }
 333:Generated_Source\PSoC6/I2C_MAX.h **** #endif /* (I2C_MAX_ENABLE_SLAVE) */
 334:Generated_Source\PSoC6/I2C_MAX.h **** 
 335:Generated_Source\PSoC6/I2C_MAX.h **** #if (I2C_MAX_ENABLE_MASTER)
 336:Generated_Source\PSoC6/I2C_MAX.h **** /*******************************************************************************
 337:Generated_Source\PSoC6/I2C_MAX.h **** * Function Name: I2C_MAX_MasterSetLowPhaseDutyCycle
 338:Generated_Source\PSoC6/I2C_MAX.h **** ****************************************************************************//**
 339:Generated_Source\PSoC6/I2C_MAX.h **** *
 340:Generated_Source\PSoC6/I2C_MAX.h **** * Invokes the Cy_SCB_I2C_MasterSetLowPhaseDutyCycle() PDL driver function.
 341:Generated_Source\PSoC6/I2C_MAX.h **** *
 342:Generated_Source\PSoC6/I2C_MAX.h **** *******************************************************************************/
 343:Generated_Source\PSoC6/I2C_MAX.h **** __STATIC_INLINE void I2C_MAX_MasterSetLowPhaseDutyCycle(uint32_t clockCycles)
 344:Generated_Source\PSoC6/I2C_MAX.h **** {
 345:Generated_Source\PSoC6/I2C_MAX.h ****     Cy_SCB_I2C_MasterSetLowPhaseDutyCycle(I2C_MAX_HW, clockCycles);
 346:Generated_Source\PSoC6/I2C_MAX.h **** }
 347:Generated_Source\PSoC6/I2C_MAX.h **** 
 348:Generated_Source\PSoC6/I2C_MAX.h **** 
 349:Generated_Source\PSoC6/I2C_MAX.h **** /*******************************************************************************
 350:Generated_Source\PSoC6/I2C_MAX.h **** * Function Name: I2C_MAX_MasterSetHighPhaseDutyCycle
 351:Generated_Source\PSoC6/I2C_MAX.h **** ****************************************************************************//**
 352:Generated_Source\PSoC6/I2C_MAX.h **** *
 353:Generated_Source\PSoC6/I2C_MAX.h **** * Invokes the Cy_SCB_I2C_MasterSetHighPhaseDutyCycle() PDL driver function.
 354:Generated_Source\PSoC6/I2C_MAX.h **** *
 355:Generated_Source\PSoC6/I2C_MAX.h **** *******************************************************************************/
 356:Generated_Source\PSoC6/I2C_MAX.h **** __STATIC_INLINE void I2C_MAX_MasterSetHighPhaseDutyCycle(uint32_t clockCycles)
 357:Generated_Source\PSoC6/I2C_MAX.h **** {
 358:Generated_Source\PSoC6/I2C_MAX.h ****     Cy_SCB_I2C_MasterSetHighPhaseDutyCycle(I2C_MAX_HW, clockCycles);
 359:Generated_Source\PSoC6/I2C_MAX.h **** }
 360:Generated_Source\PSoC6/I2C_MAX.h **** #endif /* (I2C_MAX_ENABLE_MASTER) */
 361:Generated_Source\PSoC6/I2C_MAX.h **** 
 362:Generated_Source\PSoC6/I2C_MAX.h **** 
 363:Generated_Source\PSoC6/I2C_MAX.h **** #if (I2C_MAX_ENABLE_SLAVE)
 364:Generated_Source\PSoC6/I2C_MAX.h **** /*******************************************************************************
ARM GAS  C:\Users\nicpa\AppData\Local\Temp\ccawORUH.s 			page 9


 365:Generated_Source\PSoC6/I2C_MAX.h **** * Function Name: I2C_MAX_SlaveGetStatus
 366:Generated_Source\PSoC6/I2C_MAX.h **** ****************************************************************************//**
 367:Generated_Source\PSoC6/I2C_MAX.h **** *
 368:Generated_Source\PSoC6/I2C_MAX.h **** * Invokes the Cy_SCB_I2C_SlaveGetStatus() PDL driver function.
 369:Generated_Source\PSoC6/I2C_MAX.h **** *
 370:Generated_Source\PSoC6/I2C_MAX.h **** *******************************************************************************/
 371:Generated_Source\PSoC6/I2C_MAX.h **** __STATIC_INLINE uint32_t I2C_MAX_SlaveGetStatus(void)
 372:Generated_Source\PSoC6/I2C_MAX.h **** {
 373:Generated_Source\PSoC6/I2C_MAX.h ****     return Cy_SCB_I2C_SlaveGetStatus(I2C_MAX_HW, &I2C_MAX_context);
 374:Generated_Source\PSoC6/I2C_MAX.h **** }
 375:Generated_Source\PSoC6/I2C_MAX.h **** 
 376:Generated_Source\PSoC6/I2C_MAX.h **** 
 377:Generated_Source\PSoC6/I2C_MAX.h **** /*******************************************************************************
 378:Generated_Source\PSoC6/I2C_MAX.h **** * Function Name: I2C_MAX_SlaveConfigReadBuf
 379:Generated_Source\PSoC6/I2C_MAX.h **** ****************************************************************************//**
 380:Generated_Source\PSoC6/I2C_MAX.h **** *
 381:Generated_Source\PSoC6/I2C_MAX.h **** * Invokes the Cy_SCB_I2C_SlaveConfigReadBuf() PDL driver function.
 382:Generated_Source\PSoC6/I2C_MAX.h **** *
 383:Generated_Source\PSoC6/I2C_MAX.h **** *******************************************************************************/
 384:Generated_Source\PSoC6/I2C_MAX.h **** __STATIC_INLINE void I2C_MAX_SlaveConfigReadBuf(uint8_t *buffer, uint32_t size)
 385:Generated_Source\PSoC6/I2C_MAX.h **** {
 386:Generated_Source\PSoC6/I2C_MAX.h ****     Cy_SCB_I2C_SlaveConfigReadBuf(I2C_MAX_HW, buffer, size, &I2C_MAX_context);
 387:Generated_Source\PSoC6/I2C_MAX.h **** }
 388:Generated_Source\PSoC6/I2C_MAX.h **** 
 389:Generated_Source\PSoC6/I2C_MAX.h **** 
 390:Generated_Source\PSoC6/I2C_MAX.h **** /*******************************************************************************
 391:Generated_Source\PSoC6/I2C_MAX.h **** * Function Name: I2C_MAX_SlaveAbortRead
 392:Generated_Source\PSoC6/I2C_MAX.h **** ****************************************************************************//**
 393:Generated_Source\PSoC6/I2C_MAX.h **** *
 394:Generated_Source\PSoC6/I2C_MAX.h **** * Invokes the Cy_SCB_I2C_SlaveAbortRead() PDL driver function.
 395:Generated_Source\PSoC6/I2C_MAX.h **** *
 396:Generated_Source\PSoC6/I2C_MAX.h **** *******************************************************************************/
 397:Generated_Source\PSoC6/I2C_MAX.h **** __STATIC_INLINE void I2C_MAX_SlaveAbortRead(void)
 398:Generated_Source\PSoC6/I2C_MAX.h **** {
 399:Generated_Source\PSoC6/I2C_MAX.h ****     Cy_SCB_I2C_SlaveAbortRead(I2C_MAX_HW, &I2C_MAX_context);
 400:Generated_Source\PSoC6/I2C_MAX.h **** }
 401:Generated_Source\PSoC6/I2C_MAX.h **** 
 402:Generated_Source\PSoC6/I2C_MAX.h **** 
 403:Generated_Source\PSoC6/I2C_MAX.h **** /*******************************************************************************
 404:Generated_Source\PSoC6/I2C_MAX.h **** * Function Name: I2C_MAX_SlaveGetReadTransferCount
 405:Generated_Source\PSoC6/I2C_MAX.h **** ****************************************************************************//**
 406:Generated_Source\PSoC6/I2C_MAX.h **** *
 407:Generated_Source\PSoC6/I2C_MAX.h **** * Invokes the Cy_SCB_I2C_SlaveGetReadTransferCount() PDL driver function.
 408:Generated_Source\PSoC6/I2C_MAX.h **** *
 409:Generated_Source\PSoC6/I2C_MAX.h **** *******************************************************************************/
 410:Generated_Source\PSoC6/I2C_MAX.h **** __STATIC_INLINE uint32_t I2C_MAX_SlaveGetReadTransferCount(void)
 411:Generated_Source\PSoC6/I2C_MAX.h **** {
 412:Generated_Source\PSoC6/I2C_MAX.h ****     return Cy_SCB_I2C_SlaveGetReadTransferCount(I2C_MAX_HW, &I2C_MAX_context);
 413:Generated_Source\PSoC6/I2C_MAX.h **** }
 414:Generated_Source\PSoC6/I2C_MAX.h **** 
 415:Generated_Source\PSoC6/I2C_MAX.h **** 
 416:Generated_Source\PSoC6/I2C_MAX.h **** /*******************************************************************************
 417:Generated_Source\PSoC6/I2C_MAX.h **** * Function Name: I2C_MAX_SlaveClearReadStatus
 418:Generated_Source\PSoC6/I2C_MAX.h **** ****************************************************************************//**
 419:Generated_Source\PSoC6/I2C_MAX.h **** *
 420:Generated_Source\PSoC6/I2C_MAX.h **** * Invokes the Cy_SCB_I2C_SlaveClearReadStatus() PDL driver function.
 421:Generated_Source\PSoC6/I2C_MAX.h **** *
ARM GAS  C:\Users\nicpa\AppData\Local\Temp\ccawORUH.s 			page 10


 422:Generated_Source\PSoC6/I2C_MAX.h **** *******************************************************************************/
 423:Generated_Source\PSoC6/I2C_MAX.h **** __STATIC_INLINE uint32_t I2C_MAX_SlaveClearReadStatus(void)
 424:Generated_Source\PSoC6/I2C_MAX.h **** {
 425:Generated_Source\PSoC6/I2C_MAX.h ****     return Cy_SCB_I2C_SlaveClearReadStatus(I2C_MAX_HW, &I2C_MAX_context);
 426:Generated_Source\PSoC6/I2C_MAX.h **** }
 427:Generated_Source\PSoC6/I2C_MAX.h **** 
 428:Generated_Source\PSoC6/I2C_MAX.h **** 
 429:Generated_Source\PSoC6/I2C_MAX.h **** /*******************************************************************************
 430:Generated_Source\PSoC6/I2C_MAX.h **** * Function Name: I2C_MAX_SlaveConfigWriteBuf
 431:Generated_Source\PSoC6/I2C_MAX.h **** ****************************************************************************//**
 432:Generated_Source\PSoC6/I2C_MAX.h **** *
 433:Generated_Source\PSoC6/I2C_MAX.h **** * Invokes the Cy_SCB_I2C_SlaveConfigWriteBuf() PDL driver function.
 434:Generated_Source\PSoC6/I2C_MAX.h **** *
 435:Generated_Source\PSoC6/I2C_MAX.h **** *******************************************************************************/
 436:Generated_Source\PSoC6/I2C_MAX.h **** __STATIC_INLINE void I2C_MAX_SlaveConfigWriteBuf(uint8_t *buffer, uint32_t size)
 437:Generated_Source\PSoC6/I2C_MAX.h **** {
 438:Generated_Source\PSoC6/I2C_MAX.h ****     Cy_SCB_I2C_SlaveConfigWriteBuf(I2C_MAX_HW, buffer, size, &I2C_MAX_context);
 439:Generated_Source\PSoC6/I2C_MAX.h **** }
 440:Generated_Source\PSoC6/I2C_MAX.h **** 
 441:Generated_Source\PSoC6/I2C_MAX.h **** 
 442:Generated_Source\PSoC6/I2C_MAX.h **** /*******************************************************************************
 443:Generated_Source\PSoC6/I2C_MAX.h **** * Function Name: I2C_MAX_SlaveAbortWrite
 444:Generated_Source\PSoC6/I2C_MAX.h **** ****************************************************************************//**
 445:Generated_Source\PSoC6/I2C_MAX.h **** *
 446:Generated_Source\PSoC6/I2C_MAX.h **** * Invokes the Cy_SCB_I2C_SlaveAbortWrite() PDL driver function.
 447:Generated_Source\PSoC6/I2C_MAX.h **** *
 448:Generated_Source\PSoC6/I2C_MAX.h **** *******************************************************************************/
 449:Generated_Source\PSoC6/I2C_MAX.h **** __STATIC_INLINE void I2C_MAX_SlaveAbortWrite(void)
 450:Generated_Source\PSoC6/I2C_MAX.h **** {
 451:Generated_Source\PSoC6/I2C_MAX.h ****     Cy_SCB_I2C_SlaveAbortWrite(I2C_MAX_HW, &I2C_MAX_context);
 452:Generated_Source\PSoC6/I2C_MAX.h **** }
 453:Generated_Source\PSoC6/I2C_MAX.h **** 
 454:Generated_Source\PSoC6/I2C_MAX.h **** 
 455:Generated_Source\PSoC6/I2C_MAX.h **** /*******************************************************************************
 456:Generated_Source\PSoC6/I2C_MAX.h **** * Function Name: I2C_MAX_SlaveGetWriteTransferCount
 457:Generated_Source\PSoC6/I2C_MAX.h **** ****************************************************************************//**
 458:Generated_Source\PSoC6/I2C_MAX.h **** *
 459:Generated_Source\PSoC6/I2C_MAX.h **** * Invokes the Cy_SCB_I2C_SlaveGetWriteTransferCount() PDL driver function.
 460:Generated_Source\PSoC6/I2C_MAX.h **** *
 461:Generated_Source\PSoC6/I2C_MAX.h **** *******************************************************************************/
 462:Generated_Source\PSoC6/I2C_MAX.h **** __STATIC_INLINE uint32_t I2C_MAX_SlaveGetWriteTransferCount(void)
 463:Generated_Source\PSoC6/I2C_MAX.h **** {
 464:Generated_Source\PSoC6/I2C_MAX.h ****     return Cy_SCB_I2C_SlaveGetWriteTransferCount(I2C_MAX_HW, &I2C_MAX_context);
 465:Generated_Source\PSoC6/I2C_MAX.h **** }
 466:Generated_Source\PSoC6/I2C_MAX.h **** 
 467:Generated_Source\PSoC6/I2C_MAX.h **** 
 468:Generated_Source\PSoC6/I2C_MAX.h **** /*******************************************************************************
 469:Generated_Source\PSoC6/I2C_MAX.h **** * Function Name: I2C_MAX_SlaveClearWriteStatus
 470:Generated_Source\PSoC6/I2C_MAX.h **** ****************************************************************************//**
 471:Generated_Source\PSoC6/I2C_MAX.h **** *
 472:Generated_Source\PSoC6/I2C_MAX.h **** * Invokes the Cy_SCB_I2C_SlaveClearWriteStatus() PDL driver function.
 473:Generated_Source\PSoC6/I2C_MAX.h **** *
 474:Generated_Source\PSoC6/I2C_MAX.h **** *******************************************************************************/
 475:Generated_Source\PSoC6/I2C_MAX.h **** __STATIC_INLINE uint32_t I2C_MAX_SlaveClearWriteStatus(void)
 476:Generated_Source\PSoC6/I2C_MAX.h **** {
 477:Generated_Source\PSoC6/I2C_MAX.h ****     return Cy_SCB_I2C_SlaveClearWriteStatus(I2C_MAX_HW, &I2C_MAX_context);
 478:Generated_Source\PSoC6/I2C_MAX.h **** }
ARM GAS  C:\Users\nicpa\AppData\Local\Temp\ccawORUH.s 			page 11


 479:Generated_Source\PSoC6/I2C_MAX.h **** #endif /* (I2C_MAX_ENABLE_SLAVE) */
 480:Generated_Source\PSoC6/I2C_MAX.h **** 
 481:Generated_Source\PSoC6/I2C_MAX.h **** 
 482:Generated_Source\PSoC6/I2C_MAX.h **** #if (I2C_MAX_ENABLE_MASTER)
 483:Generated_Source\PSoC6/I2C_MAX.h **** /*******************************************************************************
 484:Generated_Source\PSoC6/I2C_MAX.h **** * Function Name: I2C_MAX_MasterGetStatus
 485:Generated_Source\PSoC6/I2C_MAX.h **** ****************************************************************************//**
 486:Generated_Source\PSoC6/I2C_MAX.h **** *
 487:Generated_Source\PSoC6/I2C_MAX.h **** * Invokes the Cy_SCB_I2C_MasterGetStatus() PDL driver function.
 488:Generated_Source\PSoC6/I2C_MAX.h **** *
 489:Generated_Source\PSoC6/I2C_MAX.h **** *******************************************************************************/
 490:Generated_Source\PSoC6/I2C_MAX.h **** __STATIC_INLINE uint32_t I2C_MAX_MasterGetStatus(void)
 491:Generated_Source\PSoC6/I2C_MAX.h **** {
 492:Generated_Source\PSoC6/I2C_MAX.h ****     return Cy_SCB_I2C_MasterGetStatus(I2C_MAX_HW, &I2C_MAX_context);
 493:Generated_Source\PSoC6/I2C_MAX.h **** }
 494:Generated_Source\PSoC6/I2C_MAX.h **** 
 495:Generated_Source\PSoC6/I2C_MAX.h **** 
 496:Generated_Source\PSoC6/I2C_MAX.h **** /*******************************************************************************
 497:Generated_Source\PSoC6/I2C_MAX.h **** * Function Name: I2C_MAX_MasterRead
 498:Generated_Source\PSoC6/I2C_MAX.h **** ****************************************************************************//**
 499:Generated_Source\PSoC6/I2C_MAX.h **** *
 500:Generated_Source\PSoC6/I2C_MAX.h **** * Invokes the Cy_SCB_I2C_MasterRead() PDL driver function.
 501:Generated_Source\PSoC6/I2C_MAX.h **** *
 502:Generated_Source\PSoC6/I2C_MAX.h **** *******************************************************************************/
 503:Generated_Source\PSoC6/I2C_MAX.h **** __STATIC_INLINE cy_en_scb_i2c_status_t I2C_MAX_MasterRead(cy_stc_scb_i2c_master_xfer_config_t *xfer
 504:Generated_Source\PSoC6/I2C_MAX.h **** {
 505:Generated_Source\PSoC6/I2C_MAX.h ****     return Cy_SCB_I2C_MasterRead(I2C_MAX_HW, xferConfig, &I2C_MAX_context);
 506:Generated_Source\PSoC6/I2C_MAX.h **** }
 507:Generated_Source\PSoC6/I2C_MAX.h **** 
 508:Generated_Source\PSoC6/I2C_MAX.h **** 
 509:Generated_Source\PSoC6/I2C_MAX.h **** /*******************************************************************************
 510:Generated_Source\PSoC6/I2C_MAX.h **** * Function Name: I2C_MAX_MasterAbortRead
 511:Generated_Source\PSoC6/I2C_MAX.h **** ****************************************************************************//**
 512:Generated_Source\PSoC6/I2C_MAX.h **** *
 513:Generated_Source\PSoC6/I2C_MAX.h **** * Invokes the Cy_SCB_I2C_MasterAbortRead() PDL driver function.
 514:Generated_Source\PSoC6/I2C_MAX.h **** *
 515:Generated_Source\PSoC6/I2C_MAX.h **** ******************************************************************************/
 516:Generated_Source\PSoC6/I2C_MAX.h **** __STATIC_INLINE void I2C_MAX_MasterAbortRead(void)
 517:Generated_Source\PSoC6/I2C_MAX.h **** {
 518:Generated_Source\PSoC6/I2C_MAX.h ****     Cy_SCB_I2C_MasterAbortRead(I2C_MAX_HW, &I2C_MAX_context);
 519:Generated_Source\PSoC6/I2C_MAX.h **** }
 520:Generated_Source\PSoC6/I2C_MAX.h **** 
 521:Generated_Source\PSoC6/I2C_MAX.h **** 
 522:Generated_Source\PSoC6/I2C_MAX.h **** /*******************************************************************************
 523:Generated_Source\PSoC6/I2C_MAX.h **** * Function Name: I2C_MAX_MasterWrite
 524:Generated_Source\PSoC6/I2C_MAX.h **** ****************************************************************************//**
 525:Generated_Source\PSoC6/I2C_MAX.h **** *
 526:Generated_Source\PSoC6/I2C_MAX.h **** * Invokes the Cy_SCB_I2C_MasterWrite() PDL driver function.
 527:Generated_Source\PSoC6/I2C_MAX.h **** *
 528:Generated_Source\PSoC6/I2C_MAX.h **** *******************************************************************************/
 529:Generated_Source\PSoC6/I2C_MAX.h **** __STATIC_INLINE cy_en_scb_i2c_status_t I2C_MAX_MasterWrite(cy_stc_scb_i2c_master_xfer_config_t *xfe
 530:Generated_Source\PSoC6/I2C_MAX.h **** {
 531:Generated_Source\PSoC6/I2C_MAX.h ****     return Cy_SCB_I2C_MasterWrite(I2C_MAX_HW, xferConfig, &I2C_MAX_context);
 532:Generated_Source\PSoC6/I2C_MAX.h **** }
 533:Generated_Source\PSoC6/I2C_MAX.h **** 
 534:Generated_Source\PSoC6/I2C_MAX.h **** 
 535:Generated_Source\PSoC6/I2C_MAX.h **** /*******************************************************************************
ARM GAS  C:\Users\nicpa\AppData\Local\Temp\ccawORUH.s 			page 12


 536:Generated_Source\PSoC6/I2C_MAX.h **** * Function Name: I2C_MAX_MasterAbortWrite
 537:Generated_Source\PSoC6/I2C_MAX.h **** ****************************************************************************//**
 538:Generated_Source\PSoC6/I2C_MAX.h **** *
 539:Generated_Source\PSoC6/I2C_MAX.h **** * Invokes the Cy_SCB_I2C_MasterAbortWrite() PDL driver function.
 540:Generated_Source\PSoC6/I2C_MAX.h **** *
 541:Generated_Source\PSoC6/I2C_MAX.h **** *******************************************************************************/
 542:Generated_Source\PSoC6/I2C_MAX.h **** __STATIC_INLINE void I2C_MAX_MasterAbortWrite(void)
 543:Generated_Source\PSoC6/I2C_MAX.h **** {
 544:Generated_Source\PSoC6/I2C_MAX.h ****     Cy_SCB_I2C_MasterAbortWrite(I2C_MAX_HW, &I2C_MAX_context);
 545:Generated_Source\PSoC6/I2C_MAX.h **** }
 546:Generated_Source\PSoC6/I2C_MAX.h **** 
 547:Generated_Source\PSoC6/I2C_MAX.h **** 
 548:Generated_Source\PSoC6/I2C_MAX.h **** /*******************************************************************************
 549:Generated_Source\PSoC6/I2C_MAX.h **** * Function Name: I2C_MAX_MasterGetTransferCount
 550:Generated_Source\PSoC6/I2C_MAX.h **** ****************************************************************************//**
 551:Generated_Source\PSoC6/I2C_MAX.h **** *
 552:Generated_Source\PSoC6/I2C_MAX.h **** * Invokes the Cy_SCB_I2C_MasterGetTransferCount() PDL driver function.
 553:Generated_Source\PSoC6/I2C_MAX.h **** *
 554:Generated_Source\PSoC6/I2C_MAX.h **** *******************************************************************************/
 555:Generated_Source\PSoC6/I2C_MAX.h **** __STATIC_INLINE uint32_t I2C_MAX_MasterGetTransferCount(void)
 556:Generated_Source\PSoC6/I2C_MAX.h **** {
 557:Generated_Source\PSoC6/I2C_MAX.h ****     return Cy_SCB_I2C_MasterGetTransferCount(I2C_MAX_HW, &I2C_MAX_context);
 558:Generated_Source\PSoC6/I2C_MAX.h **** }
 559:Generated_Source\PSoC6/I2C_MAX.h **** 
 560:Generated_Source\PSoC6/I2C_MAX.h **** 
 561:Generated_Source\PSoC6/I2C_MAX.h **** /*******************************************************************************
 562:Generated_Source\PSoC6/I2C_MAX.h **** * Function Name: I2C_MAX_MasterSendStart
 563:Generated_Source\PSoC6/I2C_MAX.h **** ****************************************************************************//**
 564:Generated_Source\PSoC6/I2C_MAX.h **** *
 565:Generated_Source\PSoC6/I2C_MAX.h **** * Invokes the Cy_SCB_I2C_MasterSendStart() PDL driver function.
 566:Generated_Source\PSoC6/I2C_MAX.h **** *
 567:Generated_Source\PSoC6/I2C_MAX.h **** *******************************************************************************/
 568:Generated_Source\PSoC6/I2C_MAX.h **** __STATIC_INLINE cy_en_scb_i2c_status_t I2C_MAX_MasterSendStart(uint32_t address, cy_en_scb_i2c_dire
 569:Generated_Source\PSoC6/I2C_MAX.h **** {
 570:Generated_Source\PSoC6/I2C_MAX.h ****     return Cy_SCB_I2C_MasterSendStart(I2C_MAX_HW, address, bitRnW, timeoutMs, &I2C_MAX_context);
  47              		.loc 2 570 0
  48 0006 144C     		ldr	r4, .L3
  49 0008 144D     		ldr	r5, .L3+4
  50 000a 0095     		str	r5, [sp]
  51 000c 6423     		movs	r3, #100
  52 000e 0022     		movs	r2, #0
  53 0010 5721     		movs	r1, #87
  54 0012 2046     		mov	r0, r4
  55              	.LVL2:
  56 0014 FFF7FEFF 		bl	Cy_SCB_I2C_MasterSendStart
  57              	.LVL3:
  58              	.LBE47:
  59              	.LBE46:
  60              	.LBB48:
  61              	.LBB49:
 571:Generated_Source\PSoC6/I2C_MAX.h **** }
 572:Generated_Source\PSoC6/I2C_MAX.h **** 
 573:Generated_Source\PSoC6/I2C_MAX.h **** 
 574:Generated_Source\PSoC6/I2C_MAX.h **** /*******************************************************************************
 575:Generated_Source\PSoC6/I2C_MAX.h **** * Function Name: I2C_MAX_MasterSendReStart
 576:Generated_Source\PSoC6/I2C_MAX.h **** ****************************************************************************//**
 577:Generated_Source\PSoC6/I2C_MAX.h **** *
ARM GAS  C:\Users\nicpa\AppData\Local\Temp\ccawORUH.s 			page 13


 578:Generated_Source\PSoC6/I2C_MAX.h **** * Invokes the Cy_SCB_I2C_MasterSendReStart() PDL driver function.
 579:Generated_Source\PSoC6/I2C_MAX.h **** *
 580:Generated_Source\PSoC6/I2C_MAX.h **** *******************************************************************************/
 581:Generated_Source\PSoC6/I2C_MAX.h **** __STATIC_INLINE cy_en_scb_i2c_status_t I2C_MAX_MasterSendReStart(uint32_t address, cy_en_scb_i2c_di
 582:Generated_Source\PSoC6/I2C_MAX.h **** {
 583:Generated_Source\PSoC6/I2C_MAX.h ****     return Cy_SCB_I2C_MasterSendReStart(I2C_MAX_HW, address, bitRnW, timeoutMs, &I2C_MAX_context);
 584:Generated_Source\PSoC6/I2C_MAX.h **** }
 585:Generated_Source\PSoC6/I2C_MAX.h **** 
 586:Generated_Source\PSoC6/I2C_MAX.h **** 
 587:Generated_Source\PSoC6/I2C_MAX.h **** /*******************************************************************************
 588:Generated_Source\PSoC6/I2C_MAX.h **** * Function Name: I2C_MAX_MasterSendStop
 589:Generated_Source\PSoC6/I2C_MAX.h **** ****************************************************************************//**
 590:Generated_Source\PSoC6/I2C_MAX.h **** *
 591:Generated_Source\PSoC6/I2C_MAX.h **** * Invokes the Cy_SCB_I2C_MasterSendStop() PDL driver function.
 592:Generated_Source\PSoC6/I2C_MAX.h **** *
 593:Generated_Source\PSoC6/I2C_MAX.h **** *******************************************************************************/
 594:Generated_Source\PSoC6/I2C_MAX.h **** __STATIC_INLINE cy_en_scb_i2c_status_t I2C_MAX_MasterSendStop(uint32_t timeoutMs)
 595:Generated_Source\PSoC6/I2C_MAX.h **** {
 596:Generated_Source\PSoC6/I2C_MAX.h ****     return Cy_SCB_I2C_MasterSendStop(I2C_MAX_HW, timeoutMs, &I2C_MAX_context);
 597:Generated_Source\PSoC6/I2C_MAX.h **** }
 598:Generated_Source\PSoC6/I2C_MAX.h **** 
 599:Generated_Source\PSoC6/I2C_MAX.h **** 
 600:Generated_Source\PSoC6/I2C_MAX.h **** /*******************************************************************************
 601:Generated_Source\PSoC6/I2C_MAX.h **** * Function Name: I2C_MAX_MasterReadByte
 602:Generated_Source\PSoC6/I2C_MAX.h **** ****************************************************************************//**
 603:Generated_Source\PSoC6/I2C_MAX.h **** *
 604:Generated_Source\PSoC6/I2C_MAX.h **** * Invokes the Cy_SCB_I2C_MasterReadByte() PDL driver function.
 605:Generated_Source\PSoC6/I2C_MAX.h **** *
 606:Generated_Source\PSoC6/I2C_MAX.h **** *******************************************************************************/
 607:Generated_Source\PSoC6/I2C_MAX.h **** __STATIC_INLINE cy_en_scb_i2c_status_t I2C_MAX_MasterReadByte(cy_en_scb_i2c_command_t ackNack, uint
 608:Generated_Source\PSoC6/I2C_MAX.h **** {
 609:Generated_Source\PSoC6/I2C_MAX.h ****     return Cy_SCB_I2C_MasterReadByte(I2C_MAX_HW, ackNack, byte, timeoutMs, &I2C_MAX_context);
 610:Generated_Source\PSoC6/I2C_MAX.h **** }
 611:Generated_Source\PSoC6/I2C_MAX.h **** 
 612:Generated_Source\PSoC6/I2C_MAX.h **** 
 613:Generated_Source\PSoC6/I2C_MAX.h **** /*******************************************************************************
 614:Generated_Source\PSoC6/I2C_MAX.h **** * Function Name: I2C_MAX_MasterWriteByte
 615:Generated_Source\PSoC6/I2C_MAX.h **** ****************************************************************************//**
 616:Generated_Source\PSoC6/I2C_MAX.h **** *
 617:Generated_Source\PSoC6/I2C_MAX.h **** * Invokes the Cy_SCB_I2C_MasterWriteByte() PDL driver function.
 618:Generated_Source\PSoC6/I2C_MAX.h **** *
 619:Generated_Source\PSoC6/I2C_MAX.h **** *******************************************************************************/
 620:Generated_Source\PSoC6/I2C_MAX.h **** __STATIC_INLINE cy_en_scb_i2c_status_t I2C_MAX_MasterWriteByte(uint8_t byte, uint32_t timeoutMs)
 621:Generated_Source\PSoC6/I2C_MAX.h **** {
 622:Generated_Source\PSoC6/I2C_MAX.h ****     return Cy_SCB_I2C_MasterWriteByte(I2C_MAX_HW, byte, timeoutMs, &I2C_MAX_context);
  62              		.loc 2 622 0
  63 0018 2B46     		mov	r3, r5
  64 001a 6422     		movs	r2, #100
  65 001c 3146     		mov	r1, r6
  66 001e 2046     		mov	r0, r4
  67 0020 FFF7FEFF 		bl	Cy_SCB_I2C_MasterWriteByte
  68              	.LVL4:
  69              	.LBE49:
  70              	.LBE48:
  71              	.LBB50:
  72              	.LBB51:
 583:Generated_Source\PSoC6/I2C_MAX.h **** }
ARM GAS  C:\Users\nicpa\AppData\Local\Temp\ccawORUH.s 			page 14


  73              		.loc 2 583 0
  74 0024 0095     		str	r5, [sp]
  75 0026 6423     		movs	r3, #100
  76 0028 0122     		movs	r2, #1
  77 002a 5721     		movs	r1, #87
  78 002c 2046     		mov	r0, r4
  79 002e FFF7FEFF 		bl	Cy_SCB_I2C_MasterSendReStart
  80              	.LVL5:
  81              	.LBE51:
  82              	.LBE50:
  47:MAX30102_functions.c ****     I2C_MAX_MasterSendStart(MAX_ADDR,CY_SCB_I2C_WRITE_XFER,100);
  48:MAX30102_functions.c ****     I2C_MAX_MasterWriteByte(baseAddress,100);  
  49:MAX30102_functions.c ****     I2C_MAX_MasterSendReStart(MAX_ADDR,CY_SCB_I2C_READ_XFER,100);
  50:MAX30102_functions.c ****     uint8_t registerValueMAX =0;
  83              		.loc 1 50 0
  84 0032 0021     		movs	r1, #0
  85 0034 04AA     		add	r2, sp, #16
  86 0036 02F8011D 		strb	r1, [r2, #-1]!
  87              	.LVL6:
  88              	.LBB52:
  89              	.LBB53:
 609:Generated_Source\PSoC6/I2C_MAX.h **** }
  90              		.loc 2 609 0
  91 003a 0095     		str	r5, [sp]
  92 003c 6423     		movs	r3, #100
  93 003e 2046     		mov	r0, r4
  94 0040 FFF7FEFF 		bl	Cy_SCB_I2C_MasterReadByte
  95              	.LVL7:
  96              	.LBE53:
  97              	.LBE52:
  98              	.LBB54:
  99              	.LBB55:
 596:Generated_Source\PSoC6/I2C_MAX.h **** }
 100              		.loc 2 596 0
 101 0044 2A46     		mov	r2, r5
 102 0046 6421     		movs	r1, #100
 103 0048 2046     		mov	r0, r4
 104 004a FFF7FEFF 		bl	Cy_SCB_I2C_MasterSendStop
 105              	.LVL8:
 106              	.LBE55:
 107              	.LBE54:
  51:MAX30102_functions.c ****     I2C_MAX_MasterReadByte(CY_SCB_I2C_MASTER_DATA_NAK,(uint8_t*)&registerValueMAX,100);
  52:MAX30102_functions.c ****     I2C_MAX_MasterSendStop(100);  
  53:MAX30102_functions.c ****     return registerValueMAX;
  54:MAX30102_functions.c **** }
 108              		.loc 1 54 0
 109 004e 9DF80F00 		ldrb	r0, [sp, #15]	@ zero_extendqisi2
 110 0052 04B0     		add	sp, sp, #16
 111              		.cfi_def_cfa_offset 16
 112              		@ sp needed
 113 0054 70BD     		pop	{r4, r5, r6, pc}
 114              	.L4:
 115 0056 00BF     		.align	2
 116              	.L3:
 117 0058 00006340 		.word	1080229888
 118 005c 00000000 		.word	I2C_MAX_context
 119              		.cfi_endproc
ARM GAS  C:\Users\nicpa\AppData\Local\Temp\ccawORUH.s 			page 15


 120              	.LFE625:
 121              		.size	read_register_MAX, .-read_register_MAX
 122              		.section	.text.received_data,"ax",%progbits
 123              		.align	2
 124              		.global	received_data
 125              		.thumb
 126              		.thumb_func
 127              		.type	received_data, %function
 128              	received_data:
 129              	.LFB624:
  41:MAX30102_functions.c ****     return (read_register_MAX(0x00) & 0x040);
 130              		.loc 1 41 0
 131              		.cfi_startproc
 132              		@ args = 0, pretend = 0, frame = 0
 133              		@ frame_needed = 0, uses_anonymous_args = 0
 134 0000 08B5     		push	{r3, lr}
 135              		.cfi_def_cfa_offset 8
 136              		.cfi_offset 3, -8
 137              		.cfi_offset 14, -4
  42:MAX30102_functions.c **** }
 138              		.loc 1 42 0
 139 0002 0020     		movs	r0, #0
 140 0004 FFF7FEFF 		bl	read_register_MAX
 141              	.LVL9:
  43:MAX30102_functions.c **** 
 142              		.loc 1 43 0
 143 0008 00F04000 		and	r0, r0, #64
 144 000c 08BD     		pop	{r3, pc}
 145              		.cfi_endproc
 146              	.LFE624:
 147              		.size	received_data, .-received_data
 148 000e 00BF     		.section	.text.write_register_MAX,"ax",%progbits
 149              		.align	2
 150              		.global	write_register_MAX
 151              		.thumb
 152              		.thumb_func
 153              		.type	write_register_MAX, %function
 154              	write_register_MAX:
 155              	.LFB626:
  55:MAX30102_functions.c **** bool write_register_MAX(uint8_t baseAddress, uint8_t data)
  56:MAX30102_functions.c **** { 
 156              		.loc 1 56 0
 157              		.cfi_startproc
 158              		@ args = 0, pretend = 0, frame = 0
 159              		@ frame_needed = 0, uses_anonymous_args = 0
 160              	.LVL10:
 161 0000 F0B5     		push	{r4, r5, r6, r7, lr}
 162              		.cfi_def_cfa_offset 20
 163              		.cfi_offset 4, -20
 164              		.cfi_offset 5, -16
 165              		.cfi_offset 6, -12
 166              		.cfi_offset 7, -8
 167              		.cfi_offset 14, -4
 168 0002 83B0     		sub	sp, sp, #12
 169              		.cfi_def_cfa_offset 32
 170 0004 0746     		mov	r7, r0
 171 0006 0E46     		mov	r6, r1
ARM GAS  C:\Users\nicpa\AppData\Local\Temp\ccawORUH.s 			page 16


 172              	.LVL11:
 173              	.LBB56:
 174              	.LBB57:
 570:Generated_Source\PSoC6/I2C_MAX.h **** }
 175              		.loc 2 570 0
 176 0008 0E4C     		ldr	r4, .L9
 177 000a 0F4D     		ldr	r5, .L9+4
 178 000c 0095     		str	r5, [sp]
 179 000e 6423     		movs	r3, #100
 180 0010 0022     		movs	r2, #0
 181 0012 5721     		movs	r1, #87
 182              	.LVL12:
 183 0014 2046     		mov	r0, r4
 184              	.LVL13:
 185 0016 FFF7FEFF 		bl	Cy_SCB_I2C_MasterSendStart
 186              	.LVL14:
 187              	.LBE57:
 188              	.LBE56:
 189              	.LBB58:
 190              	.LBB59:
 191              		.loc 2 622 0
 192 001a 2B46     		mov	r3, r5
 193 001c 6422     		movs	r2, #100
 194 001e 3946     		mov	r1, r7
 195 0020 2046     		mov	r0, r4
 196 0022 FFF7FEFF 		bl	Cy_SCB_I2C_MasterWriteByte
 197              	.LVL15:
 198              	.LBE59:
 199              	.LBE58:
 200              	.LBB60:
 201              	.LBB61:
 202 0026 2B46     		mov	r3, r5
 203 0028 6422     		movs	r2, #100
 204 002a 3146     		mov	r1, r6
 205 002c 2046     		mov	r0, r4
 206 002e FFF7FEFF 		bl	Cy_SCB_I2C_MasterWriteByte
 207              	.LVL16:
 208              	.LBE61:
 209              	.LBE60:
 210              	.LBB62:
 211              	.LBB63:
 596:Generated_Source\PSoC6/I2C_MAX.h **** }
 212              		.loc 2 596 0
 213 0032 2A46     		mov	r2, r5
 214 0034 6421     		movs	r1, #100
 215 0036 2046     		mov	r0, r4
 216 0038 FFF7FEFF 		bl	Cy_SCB_I2C_MasterSendStop
 217              	.LVL17:
 218              	.LBE63:
 219              	.LBE62:
  57:MAX30102_functions.c ****     I2C_MAX_MasterSendStart(MAX_ADDR,CY_SCB_I2C_WRITE_XFER,100);
  58:MAX30102_functions.c ****     I2C_MAX_MasterWriteByte(baseAddress,100);        
  59:MAX30102_functions.c ****     I2C_MAX_MasterWriteByte(data,100);         
  60:MAX30102_functions.c ****     I2C_MAX_MasterSendStop(100);
  61:MAX30102_functions.c ****     return true;
  62:MAX30102_functions.c **** }
 220              		.loc 1 62 0
ARM GAS  C:\Users\nicpa\AppData\Local\Temp\ccawORUH.s 			page 17


 221 003c 0120     		movs	r0, #1
 222 003e 03B0     		add	sp, sp, #12
 223              		.cfi_def_cfa_offset 20
 224              		@ sp needed
 225 0040 F0BD     		pop	{r4, r5, r6, r7, pc}
 226              	.L10:
 227 0042 00BF     		.align	2
 228              	.L9:
 229 0044 00006340 		.word	1080229888
 230 0048 00000000 		.word	I2C_MAX_context
 231              		.cfi_endproc
 232              	.LFE626:
 233              		.size	write_register_MAX, .-write_register_MAX
 234              		.section	.text.MAX_Init,"ax",%progbits
 235              		.align	2
 236              		.global	MAX_Init
 237              		.thumb
 238              		.thumb_func
 239              		.type	MAX_Init, %function
 240              	MAX_Init:
 241              	.LFB623:
  16:MAX30102_functions.c ****     if (!write_register_MAX(0x09, 0x40))
 242              		.loc 1 16 0
 243              		.cfi_startproc
 244              		@ args = 0, pretend = 0, frame = 0
 245              		@ frame_needed = 0, uses_anonymous_args = 0
 246 0000 38B5     		push	{r3, r4, r5, lr}
 247              		.cfi_def_cfa_offset 16
 248              		.cfi_offset 3, -16
 249              		.cfi_offset 4, -12
 250              		.cfi_offset 5, -8
 251              		.cfi_offset 14, -4
  17:MAX30102_functions.c ****         return false;
 252              		.loc 1 17 0
 253 0002 4021     		movs	r1, #64
 254 0004 0920     		movs	r0, #9
 255 0006 FFF7FEFF 		bl	write_register_MAX
 256              	.LVL18:
 257 000a 0446     		mov	r4, r0
 258 000c D0B3     		cbz	r0, .L12
  19:MAX30102_functions.c ****         return false;
 259              		.loc 1 19 0
 260 000e 0321     		movs	r1, #3
 261 0010 0920     		movs	r0, #9
 262 0012 FFF7FEFF 		bl	write_register_MAX
 263              	.LVL19:
 264 0016 0446     		mov	r4, r0
 265 0018 A0B3     		cbz	r0, .L12
  21:MAX30102_functions.c ****         return false;
 266              		.loc 1 21 0
 267 001a 6721     		movs	r1, #103
 268 001c 0A20     		movs	r0, #10
 269 001e FFF7FEFF 		bl	write_register_MAX
 270              	.LVL20:
 271 0022 0446     		mov	r4, r0
 272 0024 70B3     		cbz	r0, .L12
  23:MAX30102_functions.c ****         return false;
ARM GAS  C:\Users\nicpa\AppData\Local\Temp\ccawORUH.s 			page 18


 273              		.loc 1 23 0
 274 0026 E021     		movs	r1, #224
 275 0028 0220     		movs	r0, #2
 276 002a FFF7FEFF 		bl	write_register_MAX
 277              	.LVL21:
 278 002e 0446     		mov	r4, r0
 279 0030 40B3     		cbz	r0, .L12
  25:MAX30102_functions.c ****         return false;
 280              		.loc 1 25 0
 281 0032 3021     		movs	r1, #48
 282 0034 0C20     		movs	r0, #12
 283 0036 FFF7FEFF 		bl	write_register_MAX
 284              	.LVL22:
 285 003a 0446     		mov	r4, r0
 286 003c 10B3     		cbz	r0, .L12
  27:MAX30102_functions.c ****         return false;
 287              		.loc 1 27 0
 288 003e 3021     		movs	r1, #48
 289 0040 0D20     		movs	r0, #13
 290 0042 FFF7FEFF 		bl	write_register_MAX
 291              	.LVL23:
 292 0046 0446     		mov	r4, r0
 293 0048 E0B1     		cbz	r0, .L12
  30:MAX30102_functions.c ****     NVIC_ClearPendingIRQ(PPG_RDY_isr_cfg.intrSrc);
 294              		.loc 1 30 0
 295 004a 0F4D     		ldr	r5, .L15
 296 004c 0F49     		ldr	r1, .L15+4
 297 004e 2846     		mov	r0, r5
 298 0050 FFF7FEFF 		bl	Cy_SysInt_Init
 299              	.LVL24:
  31:MAX30102_functions.c ****     NVIC_EnableIRQ(PPG_RDY_isr_cfg.intrSrc);
 300              		.loc 1 31 0
 301 0054 B5F90030 		ldrsh	r3, [r5]
 302              	.LVL25:
 303              	.LBB64:
 304              	.LBB65:
 305              		.file 3 ".\\CMSIS\\Core\\Include/core_cm4.h"
   1:.\CMSIS\Core\Include/core_cm4.h **** /**************************************************************************//**
   2:.\CMSIS\Core\Include/core_cm4.h ****  * @file     core_cm4.h
   3:.\CMSIS\Core\Include/core_cm4.h ****  * @brief    CMSIS Cortex-M4 Core Peripheral Access Layer Header File
   4:.\CMSIS\Core\Include/core_cm4.h ****  * @version  V5.0.7
   5:.\CMSIS\Core\Include/core_cm4.h ****  * @date     28. May 2018
   6:.\CMSIS\Core\Include/core_cm4.h ****  ******************************************************************************/
   7:.\CMSIS\Core\Include/core_cm4.h **** /*
   8:.\CMSIS\Core\Include/core_cm4.h ****  * Copyright (c) 2009-2017 ARM Limited. All rights reserved.
   9:.\CMSIS\Core\Include/core_cm4.h ****  *
  10:.\CMSIS\Core\Include/core_cm4.h ****  * SPDX-License-Identifier: Apache-2.0
  11:.\CMSIS\Core\Include/core_cm4.h ****  *
  12:.\CMSIS\Core\Include/core_cm4.h ****  * Licensed under the Apache License, Version 2.0 (the License); you may
  13:.\CMSIS\Core\Include/core_cm4.h ****  * not use this file except in compliance with the License.
  14:.\CMSIS\Core\Include/core_cm4.h ****  * You may obtain a copy of the License at
  15:.\CMSIS\Core\Include/core_cm4.h ****  *
  16:.\CMSIS\Core\Include/core_cm4.h ****  * www.apache.org/licenses/LICENSE-2.0
  17:.\CMSIS\Core\Include/core_cm4.h ****  *
  18:.\CMSIS\Core\Include/core_cm4.h ****  * Unless required by applicable law or agreed to in writing, software
  19:.\CMSIS\Core\Include/core_cm4.h ****  * distributed under the License is distributed on an AS IS BASIS, WITHOUT
  20:.\CMSIS\Core\Include/core_cm4.h ****  * WARRANTIES OR CONDITIONS OF ANY KIND, either express or implied.
ARM GAS  C:\Users\nicpa\AppData\Local\Temp\ccawORUH.s 			page 19


  21:.\CMSIS\Core\Include/core_cm4.h ****  * See the License for the specific language governing permissions and
  22:.\CMSIS\Core\Include/core_cm4.h ****  * limitations under the License.
  23:.\CMSIS\Core\Include/core_cm4.h ****  */
  24:.\CMSIS\Core\Include/core_cm4.h **** 
  25:.\CMSIS\Core\Include/core_cm4.h **** #if   defined ( __ICCARM__ )
  26:.\CMSIS\Core\Include/core_cm4.h ****   #pragma system_include         /* treat file as system include file for MISRA check */
  27:.\CMSIS\Core\Include/core_cm4.h **** #elif defined (__clang__)
  28:.\CMSIS\Core\Include/core_cm4.h ****   #pragma clang system_header   /* treat file as system include file */
  29:.\CMSIS\Core\Include/core_cm4.h **** #endif
  30:.\CMSIS\Core\Include/core_cm4.h **** 
  31:.\CMSIS\Core\Include/core_cm4.h **** #ifndef __CORE_CM4_H_GENERIC
  32:.\CMSIS\Core\Include/core_cm4.h **** #define __CORE_CM4_H_GENERIC
  33:.\CMSIS\Core\Include/core_cm4.h **** 
  34:.\CMSIS\Core\Include/core_cm4.h **** #include <stdint.h>
  35:.\CMSIS\Core\Include/core_cm4.h **** 
  36:.\CMSIS\Core\Include/core_cm4.h **** #ifdef __cplusplus
  37:.\CMSIS\Core\Include/core_cm4.h ****  extern "C" {
  38:.\CMSIS\Core\Include/core_cm4.h **** #endif
  39:.\CMSIS\Core\Include/core_cm4.h **** 
  40:.\CMSIS\Core\Include/core_cm4.h **** /**
  41:.\CMSIS\Core\Include/core_cm4.h ****   \page CMSIS_MISRA_Exceptions  MISRA-C:2004 Compliance Exceptions
  42:.\CMSIS\Core\Include/core_cm4.h ****   CMSIS violates the following MISRA-C:2004 rules:
  43:.\CMSIS\Core\Include/core_cm4.h **** 
  44:.\CMSIS\Core\Include/core_cm4.h ****    \li Required Rule 8.5, object/function definition in header file.<br>
  45:.\CMSIS\Core\Include/core_cm4.h ****      Function definitions in header files are used to allow 'inlining'.
  46:.\CMSIS\Core\Include/core_cm4.h **** 
  47:.\CMSIS\Core\Include/core_cm4.h ****    \li Required Rule 18.4, declaration of union type or object of union type: '{...}'.<br>
  48:.\CMSIS\Core\Include/core_cm4.h ****      Unions are used for effective representation of core registers.
  49:.\CMSIS\Core\Include/core_cm4.h **** 
  50:.\CMSIS\Core\Include/core_cm4.h ****    \li Advisory Rule 19.7, Function-like macro defined.<br>
  51:.\CMSIS\Core\Include/core_cm4.h ****      Function-like macros are used to allow more efficient code.
  52:.\CMSIS\Core\Include/core_cm4.h ****  */
  53:.\CMSIS\Core\Include/core_cm4.h **** 
  54:.\CMSIS\Core\Include/core_cm4.h **** 
  55:.\CMSIS\Core\Include/core_cm4.h **** /*******************************************************************************
  56:.\CMSIS\Core\Include/core_cm4.h ****  *                 CMSIS definitions
  57:.\CMSIS\Core\Include/core_cm4.h ****  ******************************************************************************/
  58:.\CMSIS\Core\Include/core_cm4.h **** /**
  59:.\CMSIS\Core\Include/core_cm4.h ****   \ingroup Cortex_M4
  60:.\CMSIS\Core\Include/core_cm4.h ****   @{
  61:.\CMSIS\Core\Include/core_cm4.h ****  */
  62:.\CMSIS\Core\Include/core_cm4.h **** 
  63:.\CMSIS\Core\Include/core_cm4.h **** #include "cmsis_version.h"
  64:.\CMSIS\Core\Include/core_cm4.h ****  
  65:.\CMSIS\Core\Include/core_cm4.h **** /* CMSIS CM4 definitions */
  66:.\CMSIS\Core\Include/core_cm4.h **** #define __CM4_CMSIS_VERSION_MAIN  (__CM_CMSIS_VERSION_MAIN)              /*!< \deprecated [31:16] C
  67:.\CMSIS\Core\Include/core_cm4.h **** #define __CM4_CMSIS_VERSION_SUB   (__CM_CMSIS_VERSION_SUB)               /*!< \deprecated [15:0]  C
  68:.\CMSIS\Core\Include/core_cm4.h **** #define __CM4_CMSIS_VERSION       ((__CM4_CMSIS_VERSION_MAIN << 16U) | \
  69:.\CMSIS\Core\Include/core_cm4.h ****                                     __CM4_CMSIS_VERSION_SUB           )  /*!< \deprecated CMSIS HAL
  70:.\CMSIS\Core\Include/core_cm4.h **** 
  71:.\CMSIS\Core\Include/core_cm4.h **** #define __CORTEX_M                (4U)                                   /*!< Cortex-M Core */
  72:.\CMSIS\Core\Include/core_cm4.h **** 
  73:.\CMSIS\Core\Include/core_cm4.h **** /** __FPU_USED indicates whether an FPU is used or not.
  74:.\CMSIS\Core\Include/core_cm4.h ****     For this, __FPU_PRESENT has to be checked prior to making use of FPU specific registers and fun
  75:.\CMSIS\Core\Include/core_cm4.h **** */
  76:.\CMSIS\Core\Include/core_cm4.h **** #if defined ( __CC_ARM )
  77:.\CMSIS\Core\Include/core_cm4.h ****   #if defined __TARGET_FPU_VFP
ARM GAS  C:\Users\nicpa\AppData\Local\Temp\ccawORUH.s 			page 20


  78:.\CMSIS\Core\Include/core_cm4.h ****     #if defined (__FPU_PRESENT) && (__FPU_PRESENT == 1U)
  79:.\CMSIS\Core\Include/core_cm4.h ****       #define __FPU_USED       1U
  80:.\CMSIS\Core\Include/core_cm4.h ****     #else
  81:.\CMSIS\Core\Include/core_cm4.h ****       #error "Compiler generates FPU instructions for a device without an FPU (check __FPU_PRESENT)
  82:.\CMSIS\Core\Include/core_cm4.h ****       #define __FPU_USED       0U
  83:.\CMSIS\Core\Include/core_cm4.h ****     #endif
  84:.\CMSIS\Core\Include/core_cm4.h ****   #else
  85:.\CMSIS\Core\Include/core_cm4.h ****     #define __FPU_USED         0U
  86:.\CMSIS\Core\Include/core_cm4.h ****   #endif
  87:.\CMSIS\Core\Include/core_cm4.h **** 
  88:.\CMSIS\Core\Include/core_cm4.h **** #elif defined (__ARMCC_VERSION) && (__ARMCC_VERSION >= 6010050)
  89:.\CMSIS\Core\Include/core_cm4.h ****   #if defined __ARM_PCS_VFP
  90:.\CMSIS\Core\Include/core_cm4.h ****     #if defined (__FPU_PRESENT) && (__FPU_PRESENT == 1U)
  91:.\CMSIS\Core\Include/core_cm4.h ****       #define __FPU_USED       1U
  92:.\CMSIS\Core\Include/core_cm4.h ****     #else
  93:.\CMSIS\Core\Include/core_cm4.h ****       #warning "Compiler generates FPU instructions for a device without an FPU (check __FPU_PRESEN
  94:.\CMSIS\Core\Include/core_cm4.h ****       #define __FPU_USED       0U
  95:.\CMSIS\Core\Include/core_cm4.h ****     #endif
  96:.\CMSIS\Core\Include/core_cm4.h ****   #else
  97:.\CMSIS\Core\Include/core_cm4.h ****     #define __FPU_USED         0U
  98:.\CMSIS\Core\Include/core_cm4.h ****   #endif
  99:.\CMSIS\Core\Include/core_cm4.h **** 
 100:.\CMSIS\Core\Include/core_cm4.h **** #elif defined ( __GNUC__ )
 101:.\CMSIS\Core\Include/core_cm4.h ****   #if defined (__VFP_FP__) && !defined(__SOFTFP__)
 102:.\CMSIS\Core\Include/core_cm4.h ****     #if defined (__FPU_PRESENT) && (__FPU_PRESENT == 1U)
 103:.\CMSIS\Core\Include/core_cm4.h ****       #define __FPU_USED       1U
 104:.\CMSIS\Core\Include/core_cm4.h ****     #else
 105:.\CMSIS\Core\Include/core_cm4.h ****       #error "Compiler generates FPU instructions for a device without an FPU (check __FPU_PRESENT)
 106:.\CMSIS\Core\Include/core_cm4.h ****       #define __FPU_USED       0U
 107:.\CMSIS\Core\Include/core_cm4.h ****     #endif
 108:.\CMSIS\Core\Include/core_cm4.h ****   #else
 109:.\CMSIS\Core\Include/core_cm4.h ****     #define __FPU_USED         0U
 110:.\CMSIS\Core\Include/core_cm4.h ****   #endif
 111:.\CMSIS\Core\Include/core_cm4.h **** 
 112:.\CMSIS\Core\Include/core_cm4.h **** #elif defined ( __ICCARM__ )
 113:.\CMSIS\Core\Include/core_cm4.h ****   #if defined __ARMVFP__
 114:.\CMSIS\Core\Include/core_cm4.h ****     #if defined (__FPU_PRESENT) && (__FPU_PRESENT == 1U)
 115:.\CMSIS\Core\Include/core_cm4.h ****       #define __FPU_USED       1U
 116:.\CMSIS\Core\Include/core_cm4.h ****     #else
 117:.\CMSIS\Core\Include/core_cm4.h ****       #error "Compiler generates FPU instructions for a device without an FPU (check __FPU_PRESENT)
 118:.\CMSIS\Core\Include/core_cm4.h ****       #define __FPU_USED       0U
 119:.\CMSIS\Core\Include/core_cm4.h ****     #endif
 120:.\CMSIS\Core\Include/core_cm4.h ****   #else
 121:.\CMSIS\Core\Include/core_cm4.h ****     #define __FPU_USED         0U
 122:.\CMSIS\Core\Include/core_cm4.h ****   #endif
 123:.\CMSIS\Core\Include/core_cm4.h **** 
 124:.\CMSIS\Core\Include/core_cm4.h **** #elif defined ( __TI_ARM__ )
 125:.\CMSIS\Core\Include/core_cm4.h ****   #if defined __TI_VFP_SUPPORT__
 126:.\CMSIS\Core\Include/core_cm4.h ****     #if defined (__FPU_PRESENT) && (__FPU_PRESENT == 1U)
 127:.\CMSIS\Core\Include/core_cm4.h ****       #define __FPU_USED       1U
 128:.\CMSIS\Core\Include/core_cm4.h ****     #else
 129:.\CMSIS\Core\Include/core_cm4.h ****       #error "Compiler generates FPU instructions for a device without an FPU (check __FPU_PRESENT)
 130:.\CMSIS\Core\Include/core_cm4.h ****       #define __FPU_USED       0U
 131:.\CMSIS\Core\Include/core_cm4.h ****     #endif
 132:.\CMSIS\Core\Include/core_cm4.h ****   #else
 133:.\CMSIS\Core\Include/core_cm4.h ****     #define __FPU_USED         0U
 134:.\CMSIS\Core\Include/core_cm4.h ****   #endif
ARM GAS  C:\Users\nicpa\AppData\Local\Temp\ccawORUH.s 			page 21


 135:.\CMSIS\Core\Include/core_cm4.h **** 
 136:.\CMSIS\Core\Include/core_cm4.h **** #elif defined ( __TASKING__ )
 137:.\CMSIS\Core\Include/core_cm4.h ****   #if defined __FPU_VFP__
 138:.\CMSIS\Core\Include/core_cm4.h ****     #if defined (__FPU_PRESENT) && (__FPU_PRESENT == 1U)
 139:.\CMSIS\Core\Include/core_cm4.h ****       #define __FPU_USED       1U
 140:.\CMSIS\Core\Include/core_cm4.h ****     #else
 141:.\CMSIS\Core\Include/core_cm4.h ****       #error "Compiler generates FPU instructions for a device without an FPU (check __FPU_PRESENT)
 142:.\CMSIS\Core\Include/core_cm4.h ****       #define __FPU_USED       0U
 143:.\CMSIS\Core\Include/core_cm4.h ****     #endif
 144:.\CMSIS\Core\Include/core_cm4.h ****   #else
 145:.\CMSIS\Core\Include/core_cm4.h ****     #define __FPU_USED         0U
 146:.\CMSIS\Core\Include/core_cm4.h ****   #endif
 147:.\CMSIS\Core\Include/core_cm4.h **** 
 148:.\CMSIS\Core\Include/core_cm4.h **** #elif defined ( __CSMC__ )
 149:.\CMSIS\Core\Include/core_cm4.h ****   #if ( __CSMC__ & 0x400U)
 150:.\CMSIS\Core\Include/core_cm4.h ****     #if defined (__FPU_PRESENT) && (__FPU_PRESENT == 1U)
 151:.\CMSIS\Core\Include/core_cm4.h ****       #define __FPU_USED       1U
 152:.\CMSIS\Core\Include/core_cm4.h ****     #else
 153:.\CMSIS\Core\Include/core_cm4.h ****       #error "Compiler generates FPU instructions for a device without an FPU (check __FPU_PRESENT)
 154:.\CMSIS\Core\Include/core_cm4.h ****       #define __FPU_USED       0U
 155:.\CMSIS\Core\Include/core_cm4.h ****     #endif
 156:.\CMSIS\Core\Include/core_cm4.h ****   #else
 157:.\CMSIS\Core\Include/core_cm4.h ****     #define __FPU_USED         0U
 158:.\CMSIS\Core\Include/core_cm4.h ****   #endif
 159:.\CMSIS\Core\Include/core_cm4.h **** 
 160:.\CMSIS\Core\Include/core_cm4.h **** #endif
 161:.\CMSIS\Core\Include/core_cm4.h **** 
 162:.\CMSIS\Core\Include/core_cm4.h **** #include "cmsis_compiler.h"               /* CMSIS compiler specific defines */
 163:.\CMSIS\Core\Include/core_cm4.h **** 
 164:.\CMSIS\Core\Include/core_cm4.h **** 
 165:.\CMSIS\Core\Include/core_cm4.h **** #ifdef __cplusplus
 166:.\CMSIS\Core\Include/core_cm4.h **** }
 167:.\CMSIS\Core\Include/core_cm4.h **** #endif
 168:.\CMSIS\Core\Include/core_cm4.h **** 
 169:.\CMSIS\Core\Include/core_cm4.h **** #endif /* __CORE_CM4_H_GENERIC */
 170:.\CMSIS\Core\Include/core_cm4.h **** 
 171:.\CMSIS\Core\Include/core_cm4.h **** #ifndef __CMSIS_GENERIC
 172:.\CMSIS\Core\Include/core_cm4.h **** 
 173:.\CMSIS\Core\Include/core_cm4.h **** #ifndef __CORE_CM4_H_DEPENDANT
 174:.\CMSIS\Core\Include/core_cm4.h **** #define __CORE_CM4_H_DEPENDANT
 175:.\CMSIS\Core\Include/core_cm4.h **** 
 176:.\CMSIS\Core\Include/core_cm4.h **** #ifdef __cplusplus
 177:.\CMSIS\Core\Include/core_cm4.h ****  extern "C" {
 178:.\CMSIS\Core\Include/core_cm4.h **** #endif
 179:.\CMSIS\Core\Include/core_cm4.h **** 
 180:.\CMSIS\Core\Include/core_cm4.h **** /* check device defines and use defaults */
 181:.\CMSIS\Core\Include/core_cm4.h **** #if defined __CHECK_DEVICE_DEFINES
 182:.\CMSIS\Core\Include/core_cm4.h ****   #ifndef __CM4_REV
 183:.\CMSIS\Core\Include/core_cm4.h ****     #define __CM4_REV               0x0000U
 184:.\CMSIS\Core\Include/core_cm4.h ****     #warning "__CM4_REV not defined in device header file; using default!"
 185:.\CMSIS\Core\Include/core_cm4.h ****   #endif
 186:.\CMSIS\Core\Include/core_cm4.h **** 
 187:.\CMSIS\Core\Include/core_cm4.h ****   #ifndef __FPU_PRESENT
 188:.\CMSIS\Core\Include/core_cm4.h ****     #define __FPU_PRESENT             0U
 189:.\CMSIS\Core\Include/core_cm4.h ****     #warning "__FPU_PRESENT not defined in device header file; using default!"
 190:.\CMSIS\Core\Include/core_cm4.h ****   #endif
 191:.\CMSIS\Core\Include/core_cm4.h **** 
ARM GAS  C:\Users\nicpa\AppData\Local\Temp\ccawORUH.s 			page 22


 192:.\CMSIS\Core\Include/core_cm4.h ****   #ifndef __MPU_PRESENT
 193:.\CMSIS\Core\Include/core_cm4.h ****     #define __MPU_PRESENT             0U
 194:.\CMSIS\Core\Include/core_cm4.h ****     #warning "__MPU_PRESENT not defined in device header file; using default!"
 195:.\CMSIS\Core\Include/core_cm4.h ****   #endif
 196:.\CMSIS\Core\Include/core_cm4.h **** 
 197:.\CMSIS\Core\Include/core_cm4.h ****   #ifndef __NVIC_PRIO_BITS
 198:.\CMSIS\Core\Include/core_cm4.h ****     #define __NVIC_PRIO_BITS          3U
 199:.\CMSIS\Core\Include/core_cm4.h ****     #warning "__NVIC_PRIO_BITS not defined in device header file; using default!"
 200:.\CMSIS\Core\Include/core_cm4.h ****   #endif
 201:.\CMSIS\Core\Include/core_cm4.h **** 
 202:.\CMSIS\Core\Include/core_cm4.h ****   #ifndef __Vendor_SysTickConfig
 203:.\CMSIS\Core\Include/core_cm4.h ****     #define __Vendor_SysTickConfig    0U
 204:.\CMSIS\Core\Include/core_cm4.h ****     #warning "__Vendor_SysTickConfig not defined in device header file; using default!"
 205:.\CMSIS\Core\Include/core_cm4.h ****   #endif
 206:.\CMSIS\Core\Include/core_cm4.h **** #endif
 207:.\CMSIS\Core\Include/core_cm4.h **** 
 208:.\CMSIS\Core\Include/core_cm4.h **** /* IO definitions (access restrictions to peripheral registers) */
 209:.\CMSIS\Core\Include/core_cm4.h **** /**
 210:.\CMSIS\Core\Include/core_cm4.h ****     \defgroup CMSIS_glob_defs CMSIS Global Defines
 211:.\CMSIS\Core\Include/core_cm4.h **** 
 212:.\CMSIS\Core\Include/core_cm4.h ****     <strong>IO Type Qualifiers</strong> are used
 213:.\CMSIS\Core\Include/core_cm4.h ****     \li to specify the access to peripheral variables.
 214:.\CMSIS\Core\Include/core_cm4.h ****     \li for automatic generation of peripheral register debug information.
 215:.\CMSIS\Core\Include/core_cm4.h **** */
 216:.\CMSIS\Core\Include/core_cm4.h **** #ifdef __cplusplus
 217:.\CMSIS\Core\Include/core_cm4.h ****   #define   __I     volatile             /*!< Defines 'read only' permissions */
 218:.\CMSIS\Core\Include/core_cm4.h **** #else
 219:.\CMSIS\Core\Include/core_cm4.h ****   #define   __I     volatile const       /*!< Defines 'read only' permissions */
 220:.\CMSIS\Core\Include/core_cm4.h **** #endif
 221:.\CMSIS\Core\Include/core_cm4.h **** #define     __O     volatile             /*!< Defines 'write only' permissions */
 222:.\CMSIS\Core\Include/core_cm4.h **** #define     __IO    volatile             /*!< Defines 'read / write' permissions */
 223:.\CMSIS\Core\Include/core_cm4.h **** 
 224:.\CMSIS\Core\Include/core_cm4.h **** /* following defines should be used for structure members */
 225:.\CMSIS\Core\Include/core_cm4.h **** #define     __IM     volatile const      /*! Defines 'read only' structure member permissions */
 226:.\CMSIS\Core\Include/core_cm4.h **** #define     __OM     volatile            /*! Defines 'write only' structure member permissions */
 227:.\CMSIS\Core\Include/core_cm4.h **** #define     __IOM    volatile            /*! Defines 'read / write' structure member permissions */
 228:.\CMSIS\Core\Include/core_cm4.h **** 
 229:.\CMSIS\Core\Include/core_cm4.h **** /*@} end of group Cortex_M4 */
 230:.\CMSIS\Core\Include/core_cm4.h **** 
 231:.\CMSIS\Core\Include/core_cm4.h **** 
 232:.\CMSIS\Core\Include/core_cm4.h **** 
 233:.\CMSIS\Core\Include/core_cm4.h **** /*******************************************************************************
 234:.\CMSIS\Core\Include/core_cm4.h ****  *                 Register Abstraction
 235:.\CMSIS\Core\Include/core_cm4.h ****   Core Register contain:
 236:.\CMSIS\Core\Include/core_cm4.h ****   - Core Register
 237:.\CMSIS\Core\Include/core_cm4.h ****   - Core NVIC Register
 238:.\CMSIS\Core\Include/core_cm4.h ****   - Core SCB Register
 239:.\CMSIS\Core\Include/core_cm4.h ****   - Core SysTick Register
 240:.\CMSIS\Core\Include/core_cm4.h ****   - Core Debug Register
 241:.\CMSIS\Core\Include/core_cm4.h ****   - Core MPU Register
 242:.\CMSIS\Core\Include/core_cm4.h ****   - Core FPU Register
 243:.\CMSIS\Core\Include/core_cm4.h ****  ******************************************************************************/
 244:.\CMSIS\Core\Include/core_cm4.h **** /**
 245:.\CMSIS\Core\Include/core_cm4.h ****   \defgroup CMSIS_core_register Defines and Type Definitions
 246:.\CMSIS\Core\Include/core_cm4.h ****   \brief Type definitions and defines for Cortex-M processor based devices.
 247:.\CMSIS\Core\Include/core_cm4.h **** */
 248:.\CMSIS\Core\Include/core_cm4.h **** 
ARM GAS  C:\Users\nicpa\AppData\Local\Temp\ccawORUH.s 			page 23


 249:.\CMSIS\Core\Include/core_cm4.h **** /**
 250:.\CMSIS\Core\Include/core_cm4.h ****   \ingroup    CMSIS_core_register
 251:.\CMSIS\Core\Include/core_cm4.h ****   \defgroup   CMSIS_CORE  Status and Control Registers
 252:.\CMSIS\Core\Include/core_cm4.h ****   \brief      Core Register type definitions.
 253:.\CMSIS\Core\Include/core_cm4.h ****   @{
 254:.\CMSIS\Core\Include/core_cm4.h ****  */
 255:.\CMSIS\Core\Include/core_cm4.h **** 
 256:.\CMSIS\Core\Include/core_cm4.h **** /**
 257:.\CMSIS\Core\Include/core_cm4.h ****   \brief  Union type to access the Application Program Status Register (APSR).
 258:.\CMSIS\Core\Include/core_cm4.h ****  */
 259:.\CMSIS\Core\Include/core_cm4.h **** typedef union
 260:.\CMSIS\Core\Include/core_cm4.h **** {
 261:.\CMSIS\Core\Include/core_cm4.h ****   struct
 262:.\CMSIS\Core\Include/core_cm4.h ****   {
 263:.\CMSIS\Core\Include/core_cm4.h ****     uint32_t _reserved0:16;              /*!< bit:  0..15  Reserved */
 264:.\CMSIS\Core\Include/core_cm4.h ****     uint32_t GE:4;                       /*!< bit: 16..19  Greater than or Equal flags */
 265:.\CMSIS\Core\Include/core_cm4.h ****     uint32_t _reserved1:7;               /*!< bit: 20..26  Reserved */
 266:.\CMSIS\Core\Include/core_cm4.h ****     uint32_t Q:1;                        /*!< bit:     27  Saturation condition flag */
 267:.\CMSIS\Core\Include/core_cm4.h ****     uint32_t V:1;                        /*!< bit:     28  Overflow condition code flag */
 268:.\CMSIS\Core\Include/core_cm4.h ****     uint32_t C:1;                        /*!< bit:     29  Carry condition code flag */
 269:.\CMSIS\Core\Include/core_cm4.h ****     uint32_t Z:1;                        /*!< bit:     30  Zero condition code flag */
 270:.\CMSIS\Core\Include/core_cm4.h ****     uint32_t N:1;                        /*!< bit:     31  Negative condition code flag */
 271:.\CMSIS\Core\Include/core_cm4.h ****   } b;                                   /*!< Structure used for bit  access */
 272:.\CMSIS\Core\Include/core_cm4.h ****   uint32_t w;                            /*!< Type      used for word access */
 273:.\CMSIS\Core\Include/core_cm4.h **** } APSR_Type;
 274:.\CMSIS\Core\Include/core_cm4.h **** 
 275:.\CMSIS\Core\Include/core_cm4.h **** /* APSR Register Definitions */
 276:.\CMSIS\Core\Include/core_cm4.h **** #define APSR_N_Pos                         31U                                            /*!< APSR
 277:.\CMSIS\Core\Include/core_cm4.h **** #define APSR_N_Msk                         (1UL << APSR_N_Pos)                            /*!< APSR
 278:.\CMSIS\Core\Include/core_cm4.h **** 
 279:.\CMSIS\Core\Include/core_cm4.h **** #define APSR_Z_Pos                         30U                                            /*!< APSR
 280:.\CMSIS\Core\Include/core_cm4.h **** #define APSR_Z_Msk                         (1UL << APSR_Z_Pos)                            /*!< APSR
 281:.\CMSIS\Core\Include/core_cm4.h **** 
 282:.\CMSIS\Core\Include/core_cm4.h **** #define APSR_C_Pos                         29U                                            /*!< APSR
 283:.\CMSIS\Core\Include/core_cm4.h **** #define APSR_C_Msk                         (1UL << APSR_C_Pos)                            /*!< APSR
 284:.\CMSIS\Core\Include/core_cm4.h **** 
 285:.\CMSIS\Core\Include/core_cm4.h **** #define APSR_V_Pos                         28U                                            /*!< APSR
 286:.\CMSIS\Core\Include/core_cm4.h **** #define APSR_V_Msk                         (1UL << APSR_V_Pos)                            /*!< APSR
 287:.\CMSIS\Core\Include/core_cm4.h **** 
 288:.\CMSIS\Core\Include/core_cm4.h **** #define APSR_Q_Pos                         27U                                            /*!< APSR
 289:.\CMSIS\Core\Include/core_cm4.h **** #define APSR_Q_Msk                         (1UL << APSR_Q_Pos)                            /*!< APSR
 290:.\CMSIS\Core\Include/core_cm4.h **** 
 291:.\CMSIS\Core\Include/core_cm4.h **** #define APSR_GE_Pos                        16U                                            /*!< APSR
 292:.\CMSIS\Core\Include/core_cm4.h **** #define APSR_GE_Msk                        (0xFUL << APSR_GE_Pos)                         /*!< APSR
 293:.\CMSIS\Core\Include/core_cm4.h **** 
 294:.\CMSIS\Core\Include/core_cm4.h **** 
 295:.\CMSIS\Core\Include/core_cm4.h **** /**
 296:.\CMSIS\Core\Include/core_cm4.h ****   \brief  Union type to access the Interrupt Program Status Register (IPSR).
 297:.\CMSIS\Core\Include/core_cm4.h ****  */
 298:.\CMSIS\Core\Include/core_cm4.h **** typedef union
 299:.\CMSIS\Core\Include/core_cm4.h **** {
 300:.\CMSIS\Core\Include/core_cm4.h ****   struct
 301:.\CMSIS\Core\Include/core_cm4.h ****   {
 302:.\CMSIS\Core\Include/core_cm4.h ****     uint32_t ISR:9;                      /*!< bit:  0.. 8  Exception number */
 303:.\CMSIS\Core\Include/core_cm4.h ****     uint32_t _reserved0:23;              /*!< bit:  9..31  Reserved */
 304:.\CMSIS\Core\Include/core_cm4.h ****   } b;                                   /*!< Structure used for bit  access */
 305:.\CMSIS\Core\Include/core_cm4.h ****   uint32_t w;                            /*!< Type      used for word access */
ARM GAS  C:\Users\nicpa\AppData\Local\Temp\ccawORUH.s 			page 24


 306:.\CMSIS\Core\Include/core_cm4.h **** } IPSR_Type;
 307:.\CMSIS\Core\Include/core_cm4.h **** 
 308:.\CMSIS\Core\Include/core_cm4.h **** /* IPSR Register Definitions */
 309:.\CMSIS\Core\Include/core_cm4.h **** #define IPSR_ISR_Pos                        0U                                            /*!< IPSR
 310:.\CMSIS\Core\Include/core_cm4.h **** #define IPSR_ISR_Msk                       (0x1FFUL /*<< IPSR_ISR_Pos*/)                  /*!< IPSR
 311:.\CMSIS\Core\Include/core_cm4.h **** 
 312:.\CMSIS\Core\Include/core_cm4.h **** 
 313:.\CMSIS\Core\Include/core_cm4.h **** /**
 314:.\CMSIS\Core\Include/core_cm4.h ****   \brief  Union type to access the Special-Purpose Program Status Registers (xPSR).
 315:.\CMSIS\Core\Include/core_cm4.h ****  */
 316:.\CMSIS\Core\Include/core_cm4.h **** typedef union
 317:.\CMSIS\Core\Include/core_cm4.h **** {
 318:.\CMSIS\Core\Include/core_cm4.h ****   struct
 319:.\CMSIS\Core\Include/core_cm4.h ****   {
 320:.\CMSIS\Core\Include/core_cm4.h ****     uint32_t ISR:9;                      /*!< bit:  0.. 8  Exception number */
 321:.\CMSIS\Core\Include/core_cm4.h ****     uint32_t _reserved0:1;               /*!< bit:      9  Reserved */
 322:.\CMSIS\Core\Include/core_cm4.h ****     uint32_t ICI_IT_1:6;                 /*!< bit: 10..15  ICI/IT part 1 */
 323:.\CMSIS\Core\Include/core_cm4.h ****     uint32_t GE:4;                       /*!< bit: 16..19  Greater than or Equal flags */
 324:.\CMSIS\Core\Include/core_cm4.h ****     uint32_t _reserved1:4;               /*!< bit: 20..23  Reserved */
 325:.\CMSIS\Core\Include/core_cm4.h ****     uint32_t T:1;                        /*!< bit:     24  Thumb bit */
 326:.\CMSIS\Core\Include/core_cm4.h ****     uint32_t ICI_IT_2:2;                 /*!< bit: 25..26  ICI/IT part 2 */
 327:.\CMSIS\Core\Include/core_cm4.h ****     uint32_t Q:1;                        /*!< bit:     27  Saturation condition flag */
 328:.\CMSIS\Core\Include/core_cm4.h ****     uint32_t V:1;                        /*!< bit:     28  Overflow condition code flag */
 329:.\CMSIS\Core\Include/core_cm4.h ****     uint32_t C:1;                        /*!< bit:     29  Carry condition code flag */
 330:.\CMSIS\Core\Include/core_cm4.h ****     uint32_t Z:1;                        /*!< bit:     30  Zero condition code flag */
 331:.\CMSIS\Core\Include/core_cm4.h ****     uint32_t N:1;                        /*!< bit:     31  Negative condition code flag */
 332:.\CMSIS\Core\Include/core_cm4.h ****   } b;                                   /*!< Structure used for bit  access */
 333:.\CMSIS\Core\Include/core_cm4.h ****   uint32_t w;                            /*!< Type      used for word access */
 334:.\CMSIS\Core\Include/core_cm4.h **** } xPSR_Type;
 335:.\CMSIS\Core\Include/core_cm4.h **** 
 336:.\CMSIS\Core\Include/core_cm4.h **** /* xPSR Register Definitions */
 337:.\CMSIS\Core\Include/core_cm4.h **** #define xPSR_N_Pos                         31U                                            /*!< xPSR
 338:.\CMSIS\Core\Include/core_cm4.h **** #define xPSR_N_Msk                         (1UL << xPSR_N_Pos)                            /*!< xPSR
 339:.\CMSIS\Core\Include/core_cm4.h **** 
 340:.\CMSIS\Core\Include/core_cm4.h **** #define xPSR_Z_Pos                         30U                                            /*!< xPSR
 341:.\CMSIS\Core\Include/core_cm4.h **** #define xPSR_Z_Msk                         (1UL << xPSR_Z_Pos)                            /*!< xPSR
 342:.\CMSIS\Core\Include/core_cm4.h **** 
 343:.\CMSIS\Core\Include/core_cm4.h **** #define xPSR_C_Pos                         29U                                            /*!< xPSR
 344:.\CMSIS\Core\Include/core_cm4.h **** #define xPSR_C_Msk                         (1UL << xPSR_C_Pos)                            /*!< xPSR
 345:.\CMSIS\Core\Include/core_cm4.h **** 
 346:.\CMSIS\Core\Include/core_cm4.h **** #define xPSR_V_Pos                         28U                                            /*!< xPSR
 347:.\CMSIS\Core\Include/core_cm4.h **** #define xPSR_V_Msk                         (1UL << xPSR_V_Pos)                            /*!< xPSR
 348:.\CMSIS\Core\Include/core_cm4.h **** 
 349:.\CMSIS\Core\Include/core_cm4.h **** #define xPSR_Q_Pos                         27U                                            /*!< xPSR
 350:.\CMSIS\Core\Include/core_cm4.h **** #define xPSR_Q_Msk                         (1UL << xPSR_Q_Pos)                            /*!< xPSR
 351:.\CMSIS\Core\Include/core_cm4.h **** 
 352:.\CMSIS\Core\Include/core_cm4.h **** #define xPSR_ICI_IT_2_Pos                  25U                                            /*!< xPSR
 353:.\CMSIS\Core\Include/core_cm4.h **** #define xPSR_ICI_IT_2_Msk                  (3UL << xPSR_ICI_IT_2_Pos)                     /*!< xPSR
 354:.\CMSIS\Core\Include/core_cm4.h **** 
 355:.\CMSIS\Core\Include/core_cm4.h **** #define xPSR_T_Pos                         24U                                            /*!< xPSR
 356:.\CMSIS\Core\Include/core_cm4.h **** #define xPSR_T_Msk                         (1UL << xPSR_T_Pos)                            /*!< xPSR
 357:.\CMSIS\Core\Include/core_cm4.h **** 
 358:.\CMSIS\Core\Include/core_cm4.h **** #define xPSR_GE_Pos                        16U                                            /*!< xPSR
 359:.\CMSIS\Core\Include/core_cm4.h **** #define xPSR_GE_Msk                        (0xFUL << xPSR_GE_Pos)                         /*!< xPSR
 360:.\CMSIS\Core\Include/core_cm4.h **** 
 361:.\CMSIS\Core\Include/core_cm4.h **** #define xPSR_ICI_IT_1_Pos                  10U                                            /*!< xPSR
 362:.\CMSIS\Core\Include/core_cm4.h **** #define xPSR_ICI_IT_1_Msk                  (0x3FUL << xPSR_ICI_IT_1_Pos)                  /*!< xPSR
ARM GAS  C:\Users\nicpa\AppData\Local\Temp\ccawORUH.s 			page 25


 363:.\CMSIS\Core\Include/core_cm4.h **** 
 364:.\CMSIS\Core\Include/core_cm4.h **** #define xPSR_ISR_Pos                        0U                                            /*!< xPSR
 365:.\CMSIS\Core\Include/core_cm4.h **** #define xPSR_ISR_Msk                       (0x1FFUL /*<< xPSR_ISR_Pos*/)                  /*!< xPSR
 366:.\CMSIS\Core\Include/core_cm4.h **** 
 367:.\CMSIS\Core\Include/core_cm4.h **** 
 368:.\CMSIS\Core\Include/core_cm4.h **** /**
 369:.\CMSIS\Core\Include/core_cm4.h ****   \brief  Union type to access the Control Registers (CONTROL).
 370:.\CMSIS\Core\Include/core_cm4.h ****  */
 371:.\CMSIS\Core\Include/core_cm4.h **** typedef union
 372:.\CMSIS\Core\Include/core_cm4.h **** {
 373:.\CMSIS\Core\Include/core_cm4.h ****   struct
 374:.\CMSIS\Core\Include/core_cm4.h ****   {
 375:.\CMSIS\Core\Include/core_cm4.h ****     uint32_t nPRIV:1;                    /*!< bit:      0  Execution privilege in Thread mode */
 376:.\CMSIS\Core\Include/core_cm4.h ****     uint32_t SPSEL:1;                    /*!< bit:      1  Stack to be used */
 377:.\CMSIS\Core\Include/core_cm4.h ****     uint32_t FPCA:1;                     /*!< bit:      2  FP extension active flag */
 378:.\CMSIS\Core\Include/core_cm4.h ****     uint32_t _reserved0:29;              /*!< bit:  3..31  Reserved */
 379:.\CMSIS\Core\Include/core_cm4.h ****   } b;                                   /*!< Structure used for bit  access */
 380:.\CMSIS\Core\Include/core_cm4.h ****   uint32_t w;                            /*!< Type      used for word access */
 381:.\CMSIS\Core\Include/core_cm4.h **** } CONTROL_Type;
 382:.\CMSIS\Core\Include/core_cm4.h **** 
 383:.\CMSIS\Core\Include/core_cm4.h **** /* CONTROL Register Definitions */
 384:.\CMSIS\Core\Include/core_cm4.h **** #define CONTROL_FPCA_Pos                    2U                                            /*!< CONT
 385:.\CMSIS\Core\Include/core_cm4.h **** #define CONTROL_FPCA_Msk                   (1UL << CONTROL_FPCA_Pos)                      /*!< CONT
 386:.\CMSIS\Core\Include/core_cm4.h **** 
 387:.\CMSIS\Core\Include/core_cm4.h **** #define CONTROL_SPSEL_Pos                   1U                                            /*!< CONT
 388:.\CMSIS\Core\Include/core_cm4.h **** #define CONTROL_SPSEL_Msk                  (1UL << CONTROL_SPSEL_Pos)                     /*!< CONT
 389:.\CMSIS\Core\Include/core_cm4.h **** 
 390:.\CMSIS\Core\Include/core_cm4.h **** #define CONTROL_nPRIV_Pos                   0U                                            /*!< CONT
 391:.\CMSIS\Core\Include/core_cm4.h **** #define CONTROL_nPRIV_Msk                  (1UL /*<< CONTROL_nPRIV_Pos*/)                 /*!< CONT
 392:.\CMSIS\Core\Include/core_cm4.h **** 
 393:.\CMSIS\Core\Include/core_cm4.h **** /*@} end of group CMSIS_CORE */
 394:.\CMSIS\Core\Include/core_cm4.h **** 
 395:.\CMSIS\Core\Include/core_cm4.h **** 
 396:.\CMSIS\Core\Include/core_cm4.h **** /**
 397:.\CMSIS\Core\Include/core_cm4.h ****   \ingroup    CMSIS_core_register
 398:.\CMSIS\Core\Include/core_cm4.h ****   \defgroup   CMSIS_NVIC  Nested Vectored Interrupt Controller (NVIC)
 399:.\CMSIS\Core\Include/core_cm4.h ****   \brief      Type definitions for the NVIC Registers
 400:.\CMSIS\Core\Include/core_cm4.h ****   @{
 401:.\CMSIS\Core\Include/core_cm4.h ****  */
 402:.\CMSIS\Core\Include/core_cm4.h **** 
 403:.\CMSIS\Core\Include/core_cm4.h **** /**
 404:.\CMSIS\Core\Include/core_cm4.h ****   \brief  Structure type to access the Nested Vectored Interrupt Controller (NVIC).
 405:.\CMSIS\Core\Include/core_cm4.h ****  */
 406:.\CMSIS\Core\Include/core_cm4.h **** typedef struct
 407:.\CMSIS\Core\Include/core_cm4.h **** {
 408:.\CMSIS\Core\Include/core_cm4.h ****   __IOM uint32_t ISER[8U];               /*!< Offset: 0x000 (R/W)  Interrupt Set Enable Register */
 409:.\CMSIS\Core\Include/core_cm4.h ****         uint32_t RESERVED0[24U];
 410:.\CMSIS\Core\Include/core_cm4.h ****   __IOM uint32_t ICER[8U];               /*!< Offset: 0x080 (R/W)  Interrupt Clear Enable Register 
 411:.\CMSIS\Core\Include/core_cm4.h ****         uint32_t RSERVED1[24U];
 412:.\CMSIS\Core\Include/core_cm4.h ****   __IOM uint32_t ISPR[8U];               /*!< Offset: 0x100 (R/W)  Interrupt Set Pending Register *
 413:.\CMSIS\Core\Include/core_cm4.h ****         uint32_t RESERVED2[24U];
 414:.\CMSIS\Core\Include/core_cm4.h ****   __IOM uint32_t ICPR[8U];               /*!< Offset: 0x180 (R/W)  Interrupt Clear Pending Register
 415:.\CMSIS\Core\Include/core_cm4.h ****         uint32_t RESERVED3[24U];
 416:.\CMSIS\Core\Include/core_cm4.h ****   __IOM uint32_t IABR[8U];               /*!< Offset: 0x200 (R/W)  Interrupt Active bit Register */
 417:.\CMSIS\Core\Include/core_cm4.h ****         uint32_t RESERVED4[56U];
 418:.\CMSIS\Core\Include/core_cm4.h ****   __IOM uint8_t  IP[240U];               /*!< Offset: 0x300 (R/W)  Interrupt Priority Register (8Bi
 419:.\CMSIS\Core\Include/core_cm4.h ****         uint32_t RESERVED5[644U];
ARM GAS  C:\Users\nicpa\AppData\Local\Temp\ccawORUH.s 			page 26


 420:.\CMSIS\Core\Include/core_cm4.h ****   __OM  uint32_t STIR;                   /*!< Offset: 0xE00 ( /W)  Software Trigger Interrupt Regis
 421:.\CMSIS\Core\Include/core_cm4.h **** }  NVIC_Type;
 422:.\CMSIS\Core\Include/core_cm4.h **** 
 423:.\CMSIS\Core\Include/core_cm4.h **** /* Software Triggered Interrupt Register Definitions */
 424:.\CMSIS\Core\Include/core_cm4.h **** #define NVIC_STIR_INTID_Pos                 0U                                         /*!< STIR: I
 425:.\CMSIS\Core\Include/core_cm4.h **** #define NVIC_STIR_INTID_Msk                (0x1FFUL /*<< NVIC_STIR_INTID_Pos*/)        /*!< STIR: I
 426:.\CMSIS\Core\Include/core_cm4.h **** 
 427:.\CMSIS\Core\Include/core_cm4.h **** /*@} end of group CMSIS_NVIC */
 428:.\CMSIS\Core\Include/core_cm4.h **** 
 429:.\CMSIS\Core\Include/core_cm4.h **** 
 430:.\CMSIS\Core\Include/core_cm4.h **** /**
 431:.\CMSIS\Core\Include/core_cm4.h ****   \ingroup  CMSIS_core_register
 432:.\CMSIS\Core\Include/core_cm4.h ****   \defgroup CMSIS_SCB     System Control Block (SCB)
 433:.\CMSIS\Core\Include/core_cm4.h ****   \brief    Type definitions for the System Control Block Registers
 434:.\CMSIS\Core\Include/core_cm4.h ****   @{
 435:.\CMSIS\Core\Include/core_cm4.h ****  */
 436:.\CMSIS\Core\Include/core_cm4.h **** 
 437:.\CMSIS\Core\Include/core_cm4.h **** /**
 438:.\CMSIS\Core\Include/core_cm4.h ****   \brief  Structure type to access the System Control Block (SCB).
 439:.\CMSIS\Core\Include/core_cm4.h ****  */
 440:.\CMSIS\Core\Include/core_cm4.h **** typedef struct
 441:.\CMSIS\Core\Include/core_cm4.h **** {
 442:.\CMSIS\Core\Include/core_cm4.h ****   __IM  uint32_t CPUID;                  /*!< Offset: 0x000 (R/ )  CPUID Base Register */
 443:.\CMSIS\Core\Include/core_cm4.h ****   __IOM uint32_t ICSR;                   /*!< Offset: 0x004 (R/W)  Interrupt Control and State Regi
 444:.\CMSIS\Core\Include/core_cm4.h ****   __IOM uint32_t VTOR;                   /*!< Offset: 0x008 (R/W)  Vector Table Offset Register */
 445:.\CMSIS\Core\Include/core_cm4.h ****   __IOM uint32_t AIRCR;                  /*!< Offset: 0x00C (R/W)  Application Interrupt and Reset 
 446:.\CMSIS\Core\Include/core_cm4.h ****   __IOM uint32_t SCR;                    /*!< Offset: 0x010 (R/W)  System Control Register */
 447:.\CMSIS\Core\Include/core_cm4.h ****   __IOM uint32_t CCR;                    /*!< Offset: 0x014 (R/W)  Configuration Control Register *
 448:.\CMSIS\Core\Include/core_cm4.h ****   __IOM uint8_t  SHP[12U];               /*!< Offset: 0x018 (R/W)  System Handlers Priority Registe
 449:.\CMSIS\Core\Include/core_cm4.h ****   __IOM uint32_t SHCSR;                  /*!< Offset: 0x024 (R/W)  System Handler Control and State
 450:.\CMSIS\Core\Include/core_cm4.h ****   __IOM uint32_t CFSR;                   /*!< Offset: 0x028 (R/W)  Configurable Fault Status Regist
 451:.\CMSIS\Core\Include/core_cm4.h ****   __IOM uint32_t HFSR;                   /*!< Offset: 0x02C (R/W)  HardFault Status Register */
 452:.\CMSIS\Core\Include/core_cm4.h ****   __IOM uint32_t DFSR;                   /*!< Offset: 0x030 (R/W)  Debug Fault Status Register */
 453:.\CMSIS\Core\Include/core_cm4.h ****   __IOM uint32_t MMFAR;                  /*!< Offset: 0x034 (R/W)  MemManage Fault Address Register
 454:.\CMSIS\Core\Include/core_cm4.h ****   __IOM uint32_t BFAR;                   /*!< Offset: 0x038 (R/W)  BusFault Address Register */
 455:.\CMSIS\Core\Include/core_cm4.h ****   __IOM uint32_t AFSR;                   /*!< Offset: 0x03C (R/W)  Auxiliary Fault Status Register 
 456:.\CMSIS\Core\Include/core_cm4.h ****   __IM  uint32_t PFR[2U];                /*!< Offset: 0x040 (R/ )  Processor Feature Register */
 457:.\CMSIS\Core\Include/core_cm4.h ****   __IM  uint32_t DFR;                    /*!< Offset: 0x048 (R/ )  Debug Feature Register */
 458:.\CMSIS\Core\Include/core_cm4.h ****   __IM  uint32_t ADR;                    /*!< Offset: 0x04C (R/ )  Auxiliary Feature Register */
 459:.\CMSIS\Core\Include/core_cm4.h ****   __IM  uint32_t MMFR[4U];               /*!< Offset: 0x050 (R/ )  Memory Model Feature Register */
 460:.\CMSIS\Core\Include/core_cm4.h ****   __IM  uint32_t ISAR[5U];               /*!< Offset: 0x060 (R/ )  Instruction Set Attributes Regis
 461:.\CMSIS\Core\Include/core_cm4.h ****         uint32_t RESERVED0[5U];
 462:.\CMSIS\Core\Include/core_cm4.h ****   __IOM uint32_t CPACR;                  /*!< Offset: 0x088 (R/W)  Coprocessor Access Control Regis
 463:.\CMSIS\Core\Include/core_cm4.h **** } SCB_Type;
 464:.\CMSIS\Core\Include/core_cm4.h **** 
 465:.\CMSIS\Core\Include/core_cm4.h **** /* SCB CPUID Register Definitions */
 466:.\CMSIS\Core\Include/core_cm4.h **** #define SCB_CPUID_IMPLEMENTER_Pos          24U                                            /*!< SCB 
 467:.\CMSIS\Core\Include/core_cm4.h **** #define SCB_CPUID_IMPLEMENTER_Msk          (0xFFUL << SCB_CPUID_IMPLEMENTER_Pos)          /*!< SCB 
 468:.\CMSIS\Core\Include/core_cm4.h **** 
 469:.\CMSIS\Core\Include/core_cm4.h **** #define SCB_CPUID_VARIANT_Pos              20U                                            /*!< SCB 
 470:.\CMSIS\Core\Include/core_cm4.h **** #define SCB_CPUID_VARIANT_Msk              (0xFUL << SCB_CPUID_VARIANT_Pos)               /*!< SCB 
 471:.\CMSIS\Core\Include/core_cm4.h **** 
 472:.\CMSIS\Core\Include/core_cm4.h **** #define SCB_CPUID_ARCHITECTURE_Pos         16U                                            /*!< SCB 
 473:.\CMSIS\Core\Include/core_cm4.h **** #define SCB_CPUID_ARCHITECTURE_Msk         (0xFUL << SCB_CPUID_ARCHITECTURE_Pos)          /*!< SCB 
 474:.\CMSIS\Core\Include/core_cm4.h **** 
 475:.\CMSIS\Core\Include/core_cm4.h **** #define SCB_CPUID_PARTNO_Pos                4U                                            /*!< SCB 
 476:.\CMSIS\Core\Include/core_cm4.h **** #define SCB_CPUID_PARTNO_Msk               (0xFFFUL << SCB_CPUID_PARTNO_Pos)              /*!< SCB 
ARM GAS  C:\Users\nicpa\AppData\Local\Temp\ccawORUH.s 			page 27


 477:.\CMSIS\Core\Include/core_cm4.h **** 
 478:.\CMSIS\Core\Include/core_cm4.h **** #define SCB_CPUID_REVISION_Pos              0U                                            /*!< SCB 
 479:.\CMSIS\Core\Include/core_cm4.h **** #define SCB_CPUID_REVISION_Msk             (0xFUL /*<< SCB_CPUID_REVISION_Pos*/)          /*!< SCB 
 480:.\CMSIS\Core\Include/core_cm4.h **** 
 481:.\CMSIS\Core\Include/core_cm4.h **** /* SCB Interrupt Control State Register Definitions */
 482:.\CMSIS\Core\Include/core_cm4.h **** #define SCB_ICSR_NMIPENDSET_Pos            31U                                            /*!< SCB 
 483:.\CMSIS\Core\Include/core_cm4.h **** #define SCB_ICSR_NMIPENDSET_Msk            (1UL << SCB_ICSR_NMIPENDSET_Pos)               /*!< SCB 
 484:.\CMSIS\Core\Include/core_cm4.h **** 
 485:.\CMSIS\Core\Include/core_cm4.h **** #define SCB_ICSR_PENDSVSET_Pos             28U                                            /*!< SCB 
 486:.\CMSIS\Core\Include/core_cm4.h **** #define SCB_ICSR_PENDSVSET_Msk             (1UL << SCB_ICSR_PENDSVSET_Pos)                /*!< SCB 
 487:.\CMSIS\Core\Include/core_cm4.h **** 
 488:.\CMSIS\Core\Include/core_cm4.h **** #define SCB_ICSR_PENDSVCLR_Pos             27U                                            /*!< SCB 
 489:.\CMSIS\Core\Include/core_cm4.h **** #define SCB_ICSR_PENDSVCLR_Msk             (1UL << SCB_ICSR_PENDSVCLR_Pos)                /*!< SCB 
 490:.\CMSIS\Core\Include/core_cm4.h **** 
 491:.\CMSIS\Core\Include/core_cm4.h **** #define SCB_ICSR_PENDSTSET_Pos             26U                                            /*!< SCB 
 492:.\CMSIS\Core\Include/core_cm4.h **** #define SCB_ICSR_PENDSTSET_Msk             (1UL << SCB_ICSR_PENDSTSET_Pos)                /*!< SCB 
 493:.\CMSIS\Core\Include/core_cm4.h **** 
 494:.\CMSIS\Core\Include/core_cm4.h **** #define SCB_ICSR_PENDSTCLR_Pos             25U                                            /*!< SCB 
 495:.\CMSIS\Core\Include/core_cm4.h **** #define SCB_ICSR_PENDSTCLR_Msk             (1UL << SCB_ICSR_PENDSTCLR_Pos)                /*!< SCB 
 496:.\CMSIS\Core\Include/core_cm4.h **** 
 497:.\CMSIS\Core\Include/core_cm4.h **** #define SCB_ICSR_ISRPREEMPT_Pos            23U                                            /*!< SCB 
 498:.\CMSIS\Core\Include/core_cm4.h **** #define SCB_ICSR_ISRPREEMPT_Msk            (1UL << SCB_ICSR_ISRPREEMPT_Pos)               /*!< SCB 
 499:.\CMSIS\Core\Include/core_cm4.h **** 
 500:.\CMSIS\Core\Include/core_cm4.h **** #define SCB_ICSR_ISRPENDING_Pos            22U                                            /*!< SCB 
 501:.\CMSIS\Core\Include/core_cm4.h **** #define SCB_ICSR_ISRPENDING_Msk            (1UL << SCB_ICSR_ISRPENDING_Pos)               /*!< SCB 
 502:.\CMSIS\Core\Include/core_cm4.h **** 
 503:.\CMSIS\Core\Include/core_cm4.h **** #define SCB_ICSR_VECTPENDING_Pos           12U                                            /*!< SCB 
 504:.\CMSIS\Core\Include/core_cm4.h **** #define SCB_ICSR_VECTPENDING_Msk           (0x1FFUL << SCB_ICSR_VECTPENDING_Pos)          /*!< SCB 
 505:.\CMSIS\Core\Include/core_cm4.h **** 
 506:.\CMSIS\Core\Include/core_cm4.h **** #define SCB_ICSR_RETTOBASE_Pos             11U                                            /*!< SCB 
 507:.\CMSIS\Core\Include/core_cm4.h **** #define SCB_ICSR_RETTOBASE_Msk             (1UL << SCB_ICSR_RETTOBASE_Pos)                /*!< SCB 
 508:.\CMSIS\Core\Include/core_cm4.h **** 
 509:.\CMSIS\Core\Include/core_cm4.h **** #define SCB_ICSR_VECTACTIVE_Pos             0U                                            /*!< SCB 
 510:.\CMSIS\Core\Include/core_cm4.h **** #define SCB_ICSR_VECTACTIVE_Msk            (0x1FFUL /*<< SCB_ICSR_VECTACTIVE_Pos*/)       /*!< SCB 
 511:.\CMSIS\Core\Include/core_cm4.h **** 
 512:.\CMSIS\Core\Include/core_cm4.h **** /* SCB Vector Table Offset Register Definitions */
 513:.\CMSIS\Core\Include/core_cm4.h **** #define SCB_VTOR_TBLOFF_Pos                 7U                                            /*!< SCB 
 514:.\CMSIS\Core\Include/core_cm4.h **** #define SCB_VTOR_TBLOFF_Msk                (0x1FFFFFFUL << SCB_VTOR_TBLOFF_Pos)           /*!< SCB 
 515:.\CMSIS\Core\Include/core_cm4.h **** 
 516:.\CMSIS\Core\Include/core_cm4.h **** /* SCB Application Interrupt and Reset Control Register Definitions */
 517:.\CMSIS\Core\Include/core_cm4.h **** #define SCB_AIRCR_VECTKEY_Pos              16U                                            /*!< SCB 
 518:.\CMSIS\Core\Include/core_cm4.h **** #define SCB_AIRCR_VECTKEY_Msk              (0xFFFFUL << SCB_AIRCR_VECTKEY_Pos)            /*!< SCB 
 519:.\CMSIS\Core\Include/core_cm4.h **** 
 520:.\CMSIS\Core\Include/core_cm4.h **** #define SCB_AIRCR_VECTKEYSTAT_Pos          16U                                            /*!< SCB 
 521:.\CMSIS\Core\Include/core_cm4.h **** #define SCB_AIRCR_VECTKEYSTAT_Msk          (0xFFFFUL << SCB_AIRCR_VECTKEYSTAT_Pos)        /*!< SCB 
 522:.\CMSIS\Core\Include/core_cm4.h **** 
 523:.\CMSIS\Core\Include/core_cm4.h **** #define SCB_AIRCR_ENDIANESS_Pos            15U                                            /*!< SCB 
 524:.\CMSIS\Core\Include/core_cm4.h **** #define SCB_AIRCR_ENDIANESS_Msk            (1UL << SCB_AIRCR_ENDIANESS_Pos)               /*!< SCB 
 525:.\CMSIS\Core\Include/core_cm4.h **** 
 526:.\CMSIS\Core\Include/core_cm4.h **** #define SCB_AIRCR_PRIGROUP_Pos              8U                                            /*!< SCB 
 527:.\CMSIS\Core\Include/core_cm4.h **** #define SCB_AIRCR_PRIGROUP_Msk             (7UL << SCB_AIRCR_PRIGROUP_Pos)                /*!< SCB 
 528:.\CMSIS\Core\Include/core_cm4.h **** 
 529:.\CMSIS\Core\Include/core_cm4.h **** #define SCB_AIRCR_SYSRESETREQ_Pos           2U                                            /*!< SCB 
 530:.\CMSIS\Core\Include/core_cm4.h **** #define SCB_AIRCR_SYSRESETREQ_Msk          (1UL << SCB_AIRCR_SYSRESETREQ_Pos)             /*!< SCB 
 531:.\CMSIS\Core\Include/core_cm4.h **** 
 532:.\CMSIS\Core\Include/core_cm4.h **** #define SCB_AIRCR_VECTCLRACTIVE_Pos         1U                                            /*!< SCB 
 533:.\CMSIS\Core\Include/core_cm4.h **** #define SCB_AIRCR_VECTCLRACTIVE_Msk        (1UL << SCB_AIRCR_VECTCLRACTIVE_Pos)           /*!< SCB 
ARM GAS  C:\Users\nicpa\AppData\Local\Temp\ccawORUH.s 			page 28


 534:.\CMSIS\Core\Include/core_cm4.h **** 
 535:.\CMSIS\Core\Include/core_cm4.h **** #define SCB_AIRCR_VECTRESET_Pos             0U                                            /*!< SCB 
 536:.\CMSIS\Core\Include/core_cm4.h **** #define SCB_AIRCR_VECTRESET_Msk            (1UL /*<< SCB_AIRCR_VECTRESET_Pos*/)           /*!< SCB 
 537:.\CMSIS\Core\Include/core_cm4.h **** 
 538:.\CMSIS\Core\Include/core_cm4.h **** /* SCB System Control Register Definitions */
 539:.\CMSIS\Core\Include/core_cm4.h **** #define SCB_SCR_SEVONPEND_Pos               4U                                            /*!< SCB 
 540:.\CMSIS\Core\Include/core_cm4.h **** #define SCB_SCR_SEVONPEND_Msk              (1UL << SCB_SCR_SEVONPEND_Pos)                 /*!< SCB 
 541:.\CMSIS\Core\Include/core_cm4.h **** 
 542:.\CMSIS\Core\Include/core_cm4.h **** #define SCB_SCR_SLEEPDEEP_Pos               2U                                            /*!< SCB 
 543:.\CMSIS\Core\Include/core_cm4.h **** #define SCB_SCR_SLEEPDEEP_Msk              (1UL << SCB_SCR_SLEEPDEEP_Pos)                 /*!< SCB 
 544:.\CMSIS\Core\Include/core_cm4.h **** 
 545:.\CMSIS\Core\Include/core_cm4.h **** #define SCB_SCR_SLEEPONEXIT_Pos             1U                                            /*!< SCB 
 546:.\CMSIS\Core\Include/core_cm4.h **** #define SCB_SCR_SLEEPONEXIT_Msk            (1UL << SCB_SCR_SLEEPONEXIT_Pos)               /*!< SCB 
 547:.\CMSIS\Core\Include/core_cm4.h **** 
 548:.\CMSIS\Core\Include/core_cm4.h **** /* SCB Configuration Control Register Definitions */
 549:.\CMSIS\Core\Include/core_cm4.h **** #define SCB_CCR_STKALIGN_Pos                9U                                            /*!< SCB 
 550:.\CMSIS\Core\Include/core_cm4.h **** #define SCB_CCR_STKALIGN_Msk               (1UL << SCB_CCR_STKALIGN_Pos)                  /*!< SCB 
 551:.\CMSIS\Core\Include/core_cm4.h **** 
 552:.\CMSIS\Core\Include/core_cm4.h **** #define SCB_CCR_BFHFNMIGN_Pos               8U                                            /*!< SCB 
 553:.\CMSIS\Core\Include/core_cm4.h **** #define SCB_CCR_BFHFNMIGN_Msk              (1UL << SCB_CCR_BFHFNMIGN_Pos)                 /*!< SCB 
 554:.\CMSIS\Core\Include/core_cm4.h **** 
 555:.\CMSIS\Core\Include/core_cm4.h **** #define SCB_CCR_DIV_0_TRP_Pos               4U                                            /*!< SCB 
 556:.\CMSIS\Core\Include/core_cm4.h **** #define SCB_CCR_DIV_0_TRP_Msk              (1UL << SCB_CCR_DIV_0_TRP_Pos)                 /*!< SCB 
 557:.\CMSIS\Core\Include/core_cm4.h **** 
 558:.\CMSIS\Core\Include/core_cm4.h **** #define SCB_CCR_UNALIGN_TRP_Pos             3U                                            /*!< SCB 
 559:.\CMSIS\Core\Include/core_cm4.h **** #define SCB_CCR_UNALIGN_TRP_Msk            (1UL << SCB_CCR_UNALIGN_TRP_Pos)               /*!< SCB 
 560:.\CMSIS\Core\Include/core_cm4.h **** 
 561:.\CMSIS\Core\Include/core_cm4.h **** #define SCB_CCR_USERSETMPEND_Pos            1U                                            /*!< SCB 
 562:.\CMSIS\Core\Include/core_cm4.h **** #define SCB_CCR_USERSETMPEND_Msk           (1UL << SCB_CCR_USERSETMPEND_Pos)              /*!< SCB 
 563:.\CMSIS\Core\Include/core_cm4.h **** 
 564:.\CMSIS\Core\Include/core_cm4.h **** #define SCB_CCR_NONBASETHRDENA_Pos          0U                                            /*!< SCB 
 565:.\CMSIS\Core\Include/core_cm4.h **** #define SCB_CCR_NONBASETHRDENA_Msk         (1UL /*<< SCB_CCR_NONBASETHRDENA_Pos*/)        /*!< SCB 
 566:.\CMSIS\Core\Include/core_cm4.h **** 
 567:.\CMSIS\Core\Include/core_cm4.h **** /* SCB System Handler Control and State Register Definitions */
 568:.\CMSIS\Core\Include/core_cm4.h **** #define SCB_SHCSR_USGFAULTENA_Pos          18U                                            /*!< SCB 
 569:.\CMSIS\Core\Include/core_cm4.h **** #define SCB_SHCSR_USGFAULTENA_Msk          (1UL << SCB_SHCSR_USGFAULTENA_Pos)             /*!< SCB 
 570:.\CMSIS\Core\Include/core_cm4.h **** 
 571:.\CMSIS\Core\Include/core_cm4.h **** #define SCB_SHCSR_BUSFAULTENA_Pos          17U                                            /*!< SCB 
 572:.\CMSIS\Core\Include/core_cm4.h **** #define SCB_SHCSR_BUSFAULTENA_Msk          (1UL << SCB_SHCSR_BUSFAULTENA_Pos)             /*!< SCB 
 573:.\CMSIS\Core\Include/core_cm4.h **** 
 574:.\CMSIS\Core\Include/core_cm4.h **** #define SCB_SHCSR_MEMFAULTENA_Pos          16U                                            /*!< SCB 
 575:.\CMSIS\Core\Include/core_cm4.h **** #define SCB_SHCSR_MEMFAULTENA_Msk          (1UL << SCB_SHCSR_MEMFAULTENA_Pos)             /*!< SCB 
 576:.\CMSIS\Core\Include/core_cm4.h **** 
 577:.\CMSIS\Core\Include/core_cm4.h **** #define SCB_SHCSR_SVCALLPENDED_Pos         15U                                            /*!< SCB 
 578:.\CMSIS\Core\Include/core_cm4.h **** #define SCB_SHCSR_SVCALLPENDED_Msk         (1UL << SCB_SHCSR_SVCALLPENDED_Pos)            /*!< SCB 
 579:.\CMSIS\Core\Include/core_cm4.h **** 
 580:.\CMSIS\Core\Include/core_cm4.h **** #define SCB_SHCSR_BUSFAULTPENDED_Pos       14U                                            /*!< SCB 
 581:.\CMSIS\Core\Include/core_cm4.h **** #define SCB_SHCSR_BUSFAULTPENDED_Msk       (1UL << SCB_SHCSR_BUSFAULTPENDED_Pos)          /*!< SCB 
 582:.\CMSIS\Core\Include/core_cm4.h **** 
 583:.\CMSIS\Core\Include/core_cm4.h **** #define SCB_SHCSR_MEMFAULTPENDED_Pos       13U                                            /*!< SCB 
 584:.\CMSIS\Core\Include/core_cm4.h **** #define SCB_SHCSR_MEMFAULTPENDED_Msk       (1UL << SCB_SHCSR_MEMFAULTPENDED_Pos)          /*!< SCB 
 585:.\CMSIS\Core\Include/core_cm4.h **** 
 586:.\CMSIS\Core\Include/core_cm4.h **** #define SCB_SHCSR_USGFAULTPENDED_Pos       12U                                            /*!< SCB 
 587:.\CMSIS\Core\Include/core_cm4.h **** #define SCB_SHCSR_USGFAULTPENDED_Msk       (1UL << SCB_SHCSR_USGFAULTPENDED_Pos)          /*!< SCB 
 588:.\CMSIS\Core\Include/core_cm4.h **** 
 589:.\CMSIS\Core\Include/core_cm4.h **** #define SCB_SHCSR_SYSTICKACT_Pos           11U                                            /*!< SCB 
 590:.\CMSIS\Core\Include/core_cm4.h **** #define SCB_SHCSR_SYSTICKACT_Msk           (1UL << SCB_SHCSR_SYSTICKACT_Pos)              /*!< SCB 
ARM GAS  C:\Users\nicpa\AppData\Local\Temp\ccawORUH.s 			page 29


 591:.\CMSIS\Core\Include/core_cm4.h **** 
 592:.\CMSIS\Core\Include/core_cm4.h **** #define SCB_SHCSR_PENDSVACT_Pos            10U                                            /*!< SCB 
 593:.\CMSIS\Core\Include/core_cm4.h **** #define SCB_SHCSR_PENDSVACT_Msk            (1UL << SCB_SHCSR_PENDSVACT_Pos)               /*!< SCB 
 594:.\CMSIS\Core\Include/core_cm4.h **** 
 595:.\CMSIS\Core\Include/core_cm4.h **** #define SCB_SHCSR_MONITORACT_Pos            8U                                            /*!< SCB 
 596:.\CMSIS\Core\Include/core_cm4.h **** #define SCB_SHCSR_MONITORACT_Msk           (1UL << SCB_SHCSR_MONITORACT_Pos)              /*!< SCB 
 597:.\CMSIS\Core\Include/core_cm4.h **** 
 598:.\CMSIS\Core\Include/core_cm4.h **** #define SCB_SHCSR_SVCALLACT_Pos             7U                                            /*!< SCB 
 599:.\CMSIS\Core\Include/core_cm4.h **** #define SCB_SHCSR_SVCALLACT_Msk            (1UL << SCB_SHCSR_SVCALLACT_Pos)               /*!< SCB 
 600:.\CMSIS\Core\Include/core_cm4.h **** 
 601:.\CMSIS\Core\Include/core_cm4.h **** #define SCB_SHCSR_USGFAULTACT_Pos           3U                                            /*!< SCB 
 602:.\CMSIS\Core\Include/core_cm4.h **** #define SCB_SHCSR_USGFAULTACT_Msk          (1UL << SCB_SHCSR_USGFAULTACT_Pos)             /*!< SCB 
 603:.\CMSIS\Core\Include/core_cm4.h **** 
 604:.\CMSIS\Core\Include/core_cm4.h **** #define SCB_SHCSR_BUSFAULTACT_Pos           1U                                            /*!< SCB 
 605:.\CMSIS\Core\Include/core_cm4.h **** #define SCB_SHCSR_BUSFAULTACT_Msk          (1UL << SCB_SHCSR_BUSFAULTACT_Pos)             /*!< SCB 
 606:.\CMSIS\Core\Include/core_cm4.h **** 
 607:.\CMSIS\Core\Include/core_cm4.h **** #define SCB_SHCSR_MEMFAULTACT_Pos           0U                                            /*!< SCB 
 608:.\CMSIS\Core\Include/core_cm4.h **** #define SCB_SHCSR_MEMFAULTACT_Msk          (1UL /*<< SCB_SHCSR_MEMFAULTACT_Pos*/)         /*!< SCB 
 609:.\CMSIS\Core\Include/core_cm4.h **** 
 610:.\CMSIS\Core\Include/core_cm4.h **** /* SCB Configurable Fault Status Register Definitions */
 611:.\CMSIS\Core\Include/core_cm4.h **** #define SCB_CFSR_USGFAULTSR_Pos            16U                                            /*!< SCB 
 612:.\CMSIS\Core\Include/core_cm4.h **** #define SCB_CFSR_USGFAULTSR_Msk            (0xFFFFUL << SCB_CFSR_USGFAULTSR_Pos)          /*!< SCB 
 613:.\CMSIS\Core\Include/core_cm4.h **** 
 614:.\CMSIS\Core\Include/core_cm4.h **** #define SCB_CFSR_BUSFAULTSR_Pos             8U                                            /*!< SCB 
 615:.\CMSIS\Core\Include/core_cm4.h **** #define SCB_CFSR_BUSFAULTSR_Msk            (0xFFUL << SCB_CFSR_BUSFAULTSR_Pos)            /*!< SCB 
 616:.\CMSIS\Core\Include/core_cm4.h **** 
 617:.\CMSIS\Core\Include/core_cm4.h **** #define SCB_CFSR_MEMFAULTSR_Pos             0U                                            /*!< SCB 
 618:.\CMSIS\Core\Include/core_cm4.h **** #define SCB_CFSR_MEMFAULTSR_Msk            (0xFFUL /*<< SCB_CFSR_MEMFAULTSR_Pos*/)        /*!< SCB 
 619:.\CMSIS\Core\Include/core_cm4.h **** 
 620:.\CMSIS\Core\Include/core_cm4.h **** /* MemManage Fault Status Register (part of SCB Configurable Fault Status Register) */
 621:.\CMSIS\Core\Include/core_cm4.h **** #define SCB_CFSR_MMARVALID_Pos             (SCB_SHCSR_MEMFAULTACT_Pos + 7U)               /*!< SCB 
 622:.\CMSIS\Core\Include/core_cm4.h **** #define SCB_CFSR_MMARVALID_Msk             (1UL << SCB_CFSR_MMARVALID_Pos)                /*!< SCB 
 623:.\CMSIS\Core\Include/core_cm4.h **** 
 624:.\CMSIS\Core\Include/core_cm4.h **** #define SCB_CFSR_MLSPERR_Pos               (SCB_SHCSR_MEMFAULTACT_Pos + 5U)               /*!< SCB 
 625:.\CMSIS\Core\Include/core_cm4.h **** #define SCB_CFSR_MLSPERR_Msk               (1UL << SCB_CFSR_MLSPERR_Pos)                  /*!< SCB 
 626:.\CMSIS\Core\Include/core_cm4.h **** 
 627:.\CMSIS\Core\Include/core_cm4.h **** #define SCB_CFSR_MSTKERR_Pos               (SCB_SHCSR_MEMFAULTACT_Pos + 4U)               /*!< SCB 
 628:.\CMSIS\Core\Include/core_cm4.h **** #define SCB_CFSR_MSTKERR_Msk               (1UL << SCB_CFSR_MSTKERR_Pos)                  /*!< SCB 
 629:.\CMSIS\Core\Include/core_cm4.h **** 
 630:.\CMSIS\Core\Include/core_cm4.h **** #define SCB_CFSR_MUNSTKERR_Pos             (SCB_SHCSR_MEMFAULTACT_Pos + 3U)               /*!< SCB 
 631:.\CMSIS\Core\Include/core_cm4.h **** #define SCB_CFSR_MUNSTKERR_Msk             (1UL << SCB_CFSR_MUNSTKERR_Pos)                /*!< SCB 
 632:.\CMSIS\Core\Include/core_cm4.h **** 
 633:.\CMSIS\Core\Include/core_cm4.h **** #define SCB_CFSR_DACCVIOL_Pos              (SCB_SHCSR_MEMFAULTACT_Pos + 1U)               /*!< SCB 
 634:.\CMSIS\Core\Include/core_cm4.h **** #define SCB_CFSR_DACCVIOL_Msk              (1UL << SCB_CFSR_DACCVIOL_Pos)                 /*!< SCB 
 635:.\CMSIS\Core\Include/core_cm4.h **** 
 636:.\CMSIS\Core\Include/core_cm4.h **** #define SCB_CFSR_IACCVIOL_Pos              (SCB_SHCSR_MEMFAULTACT_Pos + 0U)               /*!< SCB 
 637:.\CMSIS\Core\Include/core_cm4.h **** #define SCB_CFSR_IACCVIOL_Msk              (1UL /*<< SCB_CFSR_IACCVIOL_Pos*/)             /*!< SCB 
 638:.\CMSIS\Core\Include/core_cm4.h **** 
 639:.\CMSIS\Core\Include/core_cm4.h **** /* BusFault Status Register (part of SCB Configurable Fault Status Register) */
 640:.\CMSIS\Core\Include/core_cm4.h **** #define SCB_CFSR_BFARVALID_Pos            (SCB_CFSR_BUSFAULTSR_Pos + 7U)                  /*!< SCB 
 641:.\CMSIS\Core\Include/core_cm4.h **** #define SCB_CFSR_BFARVALID_Msk            (1UL << SCB_CFSR_BFARVALID_Pos)                 /*!< SCB 
 642:.\CMSIS\Core\Include/core_cm4.h **** 
 643:.\CMSIS\Core\Include/core_cm4.h **** #define SCB_CFSR_LSPERR_Pos               (SCB_CFSR_BUSFAULTSR_Pos + 5U)                  /*!< SCB 
 644:.\CMSIS\Core\Include/core_cm4.h **** #define SCB_CFSR_LSPERR_Msk               (1UL << SCB_CFSR_LSPERR_Pos)                    /*!< SCB 
 645:.\CMSIS\Core\Include/core_cm4.h **** 
 646:.\CMSIS\Core\Include/core_cm4.h **** #define SCB_CFSR_STKERR_Pos               (SCB_CFSR_BUSFAULTSR_Pos + 4U)                  /*!< SCB 
 647:.\CMSIS\Core\Include/core_cm4.h **** #define SCB_CFSR_STKERR_Msk               (1UL << SCB_CFSR_STKERR_Pos)                    /*!< SCB 
ARM GAS  C:\Users\nicpa\AppData\Local\Temp\ccawORUH.s 			page 30


 648:.\CMSIS\Core\Include/core_cm4.h **** 
 649:.\CMSIS\Core\Include/core_cm4.h **** #define SCB_CFSR_UNSTKERR_Pos             (SCB_CFSR_BUSFAULTSR_Pos + 3U)                  /*!< SCB 
 650:.\CMSIS\Core\Include/core_cm4.h **** #define SCB_CFSR_UNSTKERR_Msk             (1UL << SCB_CFSR_UNSTKERR_Pos)                  /*!< SCB 
 651:.\CMSIS\Core\Include/core_cm4.h **** 
 652:.\CMSIS\Core\Include/core_cm4.h **** #define SCB_CFSR_IMPRECISERR_Pos          (SCB_CFSR_BUSFAULTSR_Pos + 2U)                  /*!< SCB 
 653:.\CMSIS\Core\Include/core_cm4.h **** #define SCB_CFSR_IMPRECISERR_Msk          (1UL << SCB_CFSR_IMPRECISERR_Pos)               /*!< SCB 
 654:.\CMSIS\Core\Include/core_cm4.h **** 
 655:.\CMSIS\Core\Include/core_cm4.h **** #define SCB_CFSR_PRECISERR_Pos            (SCB_CFSR_BUSFAULTSR_Pos + 1U)                  /*!< SCB 
 656:.\CMSIS\Core\Include/core_cm4.h **** #define SCB_CFSR_PRECISERR_Msk            (1UL << SCB_CFSR_PRECISERR_Pos)                 /*!< SCB 
 657:.\CMSIS\Core\Include/core_cm4.h **** 
 658:.\CMSIS\Core\Include/core_cm4.h **** #define SCB_CFSR_IBUSERR_Pos              (SCB_CFSR_BUSFAULTSR_Pos + 0U)                  /*!< SCB 
 659:.\CMSIS\Core\Include/core_cm4.h **** #define SCB_CFSR_IBUSERR_Msk              (1UL << SCB_CFSR_IBUSERR_Pos)                   /*!< SCB 
 660:.\CMSIS\Core\Include/core_cm4.h **** 
 661:.\CMSIS\Core\Include/core_cm4.h **** /* UsageFault Status Register (part of SCB Configurable Fault Status Register) */
 662:.\CMSIS\Core\Include/core_cm4.h **** #define SCB_CFSR_DIVBYZERO_Pos            (SCB_CFSR_USGFAULTSR_Pos + 9U)                  /*!< SCB 
 663:.\CMSIS\Core\Include/core_cm4.h **** #define SCB_CFSR_DIVBYZERO_Msk            (1UL << SCB_CFSR_DIVBYZERO_Pos)                 /*!< SCB 
 664:.\CMSIS\Core\Include/core_cm4.h **** 
 665:.\CMSIS\Core\Include/core_cm4.h **** #define SCB_CFSR_UNALIGNED_Pos            (SCB_CFSR_USGFAULTSR_Pos + 8U)                  /*!< SCB 
 666:.\CMSIS\Core\Include/core_cm4.h **** #define SCB_CFSR_UNALIGNED_Msk            (1UL << SCB_CFSR_UNALIGNED_Pos)                 /*!< SCB 
 667:.\CMSIS\Core\Include/core_cm4.h **** 
 668:.\CMSIS\Core\Include/core_cm4.h **** #define SCB_CFSR_NOCP_Pos                 (SCB_CFSR_USGFAULTSR_Pos + 3U)                  /*!< SCB 
 669:.\CMSIS\Core\Include/core_cm4.h **** #define SCB_CFSR_NOCP_Msk                 (1UL << SCB_CFSR_NOCP_Pos)                      /*!< SCB 
 670:.\CMSIS\Core\Include/core_cm4.h **** 
 671:.\CMSIS\Core\Include/core_cm4.h **** #define SCB_CFSR_INVPC_Pos                (SCB_CFSR_USGFAULTSR_Pos + 2U)                  /*!< SCB 
 672:.\CMSIS\Core\Include/core_cm4.h **** #define SCB_CFSR_INVPC_Msk                (1UL << SCB_CFSR_INVPC_Pos)                     /*!< SCB 
 673:.\CMSIS\Core\Include/core_cm4.h **** 
 674:.\CMSIS\Core\Include/core_cm4.h **** #define SCB_CFSR_INVSTATE_Pos             (SCB_CFSR_USGFAULTSR_Pos + 1U)                  /*!< SCB 
 675:.\CMSIS\Core\Include/core_cm4.h **** #define SCB_CFSR_INVSTATE_Msk             (1UL << SCB_CFSR_INVSTATE_Pos)                  /*!< SCB 
 676:.\CMSIS\Core\Include/core_cm4.h **** 
 677:.\CMSIS\Core\Include/core_cm4.h **** #define SCB_CFSR_UNDEFINSTR_Pos           (SCB_CFSR_USGFAULTSR_Pos + 0U)                  /*!< SCB 
 678:.\CMSIS\Core\Include/core_cm4.h **** #define SCB_CFSR_UNDEFINSTR_Msk           (1UL << SCB_CFSR_UNDEFINSTR_Pos)                /*!< SCB 
 679:.\CMSIS\Core\Include/core_cm4.h **** 
 680:.\CMSIS\Core\Include/core_cm4.h **** /* SCB Hard Fault Status Register Definitions */
 681:.\CMSIS\Core\Include/core_cm4.h **** #define SCB_HFSR_DEBUGEVT_Pos              31U                                            /*!< SCB 
 682:.\CMSIS\Core\Include/core_cm4.h **** #define SCB_HFSR_DEBUGEVT_Msk              (1UL << SCB_HFSR_DEBUGEVT_Pos)                 /*!< SCB 
 683:.\CMSIS\Core\Include/core_cm4.h **** 
 684:.\CMSIS\Core\Include/core_cm4.h **** #define SCB_HFSR_FORCED_Pos                30U                                            /*!< SCB 
 685:.\CMSIS\Core\Include/core_cm4.h **** #define SCB_HFSR_FORCED_Msk                (1UL << SCB_HFSR_FORCED_Pos)                   /*!< SCB 
 686:.\CMSIS\Core\Include/core_cm4.h **** 
 687:.\CMSIS\Core\Include/core_cm4.h **** #define SCB_HFSR_VECTTBL_Pos                1U                                            /*!< SCB 
 688:.\CMSIS\Core\Include/core_cm4.h **** #define SCB_HFSR_VECTTBL_Msk               (1UL << SCB_HFSR_VECTTBL_Pos)                  /*!< SCB 
 689:.\CMSIS\Core\Include/core_cm4.h **** 
 690:.\CMSIS\Core\Include/core_cm4.h **** /* SCB Debug Fault Status Register Definitions */
 691:.\CMSIS\Core\Include/core_cm4.h **** #define SCB_DFSR_EXTERNAL_Pos               4U                                            /*!< SCB 
 692:.\CMSIS\Core\Include/core_cm4.h **** #define SCB_DFSR_EXTERNAL_Msk              (1UL << SCB_DFSR_EXTERNAL_Pos)                 /*!< SCB 
 693:.\CMSIS\Core\Include/core_cm4.h **** 
 694:.\CMSIS\Core\Include/core_cm4.h **** #define SCB_DFSR_VCATCH_Pos                 3U                                            /*!< SCB 
 695:.\CMSIS\Core\Include/core_cm4.h **** #define SCB_DFSR_VCATCH_Msk                (1UL << SCB_DFSR_VCATCH_Pos)                   /*!< SCB 
 696:.\CMSIS\Core\Include/core_cm4.h **** 
 697:.\CMSIS\Core\Include/core_cm4.h **** #define SCB_DFSR_DWTTRAP_Pos                2U                                            /*!< SCB 
 698:.\CMSIS\Core\Include/core_cm4.h **** #define SCB_DFSR_DWTTRAP_Msk               (1UL << SCB_DFSR_DWTTRAP_Pos)                  /*!< SCB 
 699:.\CMSIS\Core\Include/core_cm4.h **** 
 700:.\CMSIS\Core\Include/core_cm4.h **** #define SCB_DFSR_BKPT_Pos                   1U                                            /*!< SCB 
 701:.\CMSIS\Core\Include/core_cm4.h **** #define SCB_DFSR_BKPT_Msk                  (1UL << SCB_DFSR_BKPT_Pos)                     /*!< SCB 
 702:.\CMSIS\Core\Include/core_cm4.h **** 
 703:.\CMSIS\Core\Include/core_cm4.h **** #define SCB_DFSR_HALTED_Pos                 0U                                            /*!< SCB 
 704:.\CMSIS\Core\Include/core_cm4.h **** #define SCB_DFSR_HALTED_Msk                (1UL /*<< SCB_DFSR_HALTED_Pos*/)               /*!< SCB 
ARM GAS  C:\Users\nicpa\AppData\Local\Temp\ccawORUH.s 			page 31


 705:.\CMSIS\Core\Include/core_cm4.h **** 
 706:.\CMSIS\Core\Include/core_cm4.h **** /*@} end of group CMSIS_SCB */
 707:.\CMSIS\Core\Include/core_cm4.h **** 
 708:.\CMSIS\Core\Include/core_cm4.h **** 
 709:.\CMSIS\Core\Include/core_cm4.h **** /**
 710:.\CMSIS\Core\Include/core_cm4.h ****   \ingroup  CMSIS_core_register
 711:.\CMSIS\Core\Include/core_cm4.h ****   \defgroup CMSIS_SCnSCB System Controls not in SCB (SCnSCB)
 712:.\CMSIS\Core\Include/core_cm4.h ****   \brief    Type definitions for the System Control and ID Register not in the SCB
 713:.\CMSIS\Core\Include/core_cm4.h ****   @{
 714:.\CMSIS\Core\Include/core_cm4.h ****  */
 715:.\CMSIS\Core\Include/core_cm4.h **** 
 716:.\CMSIS\Core\Include/core_cm4.h **** /**
 717:.\CMSIS\Core\Include/core_cm4.h ****   \brief  Structure type to access the System Control and ID Register not in the SCB.
 718:.\CMSIS\Core\Include/core_cm4.h ****  */
 719:.\CMSIS\Core\Include/core_cm4.h **** typedef struct
 720:.\CMSIS\Core\Include/core_cm4.h **** {
 721:.\CMSIS\Core\Include/core_cm4.h ****         uint32_t RESERVED0[1U];
 722:.\CMSIS\Core\Include/core_cm4.h ****   __IM  uint32_t ICTR;                   /*!< Offset: 0x004 (R/ )  Interrupt Controller Type Regist
 723:.\CMSIS\Core\Include/core_cm4.h ****   __IOM uint32_t ACTLR;                  /*!< Offset: 0x008 (R/W)  Auxiliary Control Register */
 724:.\CMSIS\Core\Include/core_cm4.h **** } SCnSCB_Type;
 725:.\CMSIS\Core\Include/core_cm4.h **** 
 726:.\CMSIS\Core\Include/core_cm4.h **** /* Interrupt Controller Type Register Definitions */
 727:.\CMSIS\Core\Include/core_cm4.h **** #define SCnSCB_ICTR_INTLINESNUM_Pos         0U                                         /*!< ICTR: I
 728:.\CMSIS\Core\Include/core_cm4.h **** #define SCnSCB_ICTR_INTLINESNUM_Msk        (0xFUL /*<< SCnSCB_ICTR_INTLINESNUM_Pos*/)  /*!< ICTR: I
 729:.\CMSIS\Core\Include/core_cm4.h **** 
 730:.\CMSIS\Core\Include/core_cm4.h **** /* Auxiliary Control Register Definitions */
 731:.\CMSIS\Core\Include/core_cm4.h **** #define SCnSCB_ACTLR_DISOOFP_Pos            9U                                         /*!< ACTLR: 
 732:.\CMSIS\Core\Include/core_cm4.h **** #define SCnSCB_ACTLR_DISOOFP_Msk           (1UL << SCnSCB_ACTLR_DISOOFP_Pos)           /*!< ACTLR: 
 733:.\CMSIS\Core\Include/core_cm4.h **** 
 734:.\CMSIS\Core\Include/core_cm4.h **** #define SCnSCB_ACTLR_DISFPCA_Pos            8U                                         /*!< ACTLR: 
 735:.\CMSIS\Core\Include/core_cm4.h **** #define SCnSCB_ACTLR_DISFPCA_Msk           (1UL << SCnSCB_ACTLR_DISFPCA_Pos)           /*!< ACTLR: 
 736:.\CMSIS\Core\Include/core_cm4.h **** 
 737:.\CMSIS\Core\Include/core_cm4.h **** #define SCnSCB_ACTLR_DISFOLD_Pos            2U                                         /*!< ACTLR: 
 738:.\CMSIS\Core\Include/core_cm4.h **** #define SCnSCB_ACTLR_DISFOLD_Msk           (1UL << SCnSCB_ACTLR_DISFOLD_Pos)           /*!< ACTLR: 
 739:.\CMSIS\Core\Include/core_cm4.h **** 
 740:.\CMSIS\Core\Include/core_cm4.h **** #define SCnSCB_ACTLR_DISDEFWBUF_Pos         1U                                         /*!< ACTLR: 
 741:.\CMSIS\Core\Include/core_cm4.h **** #define SCnSCB_ACTLR_DISDEFWBUF_Msk        (1UL << SCnSCB_ACTLR_DISDEFWBUF_Pos)        /*!< ACTLR: 
 742:.\CMSIS\Core\Include/core_cm4.h **** 
 743:.\CMSIS\Core\Include/core_cm4.h **** #define SCnSCB_ACTLR_DISMCYCINT_Pos         0U                                         /*!< ACTLR: 
 744:.\CMSIS\Core\Include/core_cm4.h **** #define SCnSCB_ACTLR_DISMCYCINT_Msk        (1UL /*<< SCnSCB_ACTLR_DISMCYCINT_Pos*/)    /*!< ACTLR: 
 745:.\CMSIS\Core\Include/core_cm4.h **** 
 746:.\CMSIS\Core\Include/core_cm4.h **** /*@} end of group CMSIS_SCnotSCB */
 747:.\CMSIS\Core\Include/core_cm4.h **** 
 748:.\CMSIS\Core\Include/core_cm4.h **** 
 749:.\CMSIS\Core\Include/core_cm4.h **** /**
 750:.\CMSIS\Core\Include/core_cm4.h ****   \ingroup  CMSIS_core_register
 751:.\CMSIS\Core\Include/core_cm4.h ****   \defgroup CMSIS_SysTick     System Tick Timer (SysTick)
 752:.\CMSIS\Core\Include/core_cm4.h ****   \brief    Type definitions for the System Timer Registers.
 753:.\CMSIS\Core\Include/core_cm4.h ****   @{
 754:.\CMSIS\Core\Include/core_cm4.h ****  */
 755:.\CMSIS\Core\Include/core_cm4.h **** 
 756:.\CMSIS\Core\Include/core_cm4.h **** /**
 757:.\CMSIS\Core\Include/core_cm4.h ****   \brief  Structure type to access the System Timer (SysTick).
 758:.\CMSIS\Core\Include/core_cm4.h ****  */
 759:.\CMSIS\Core\Include/core_cm4.h **** typedef struct
 760:.\CMSIS\Core\Include/core_cm4.h **** {
 761:.\CMSIS\Core\Include/core_cm4.h ****   __IOM uint32_t CTRL;                   /*!< Offset: 0x000 (R/W)  SysTick Control and Status Regis
ARM GAS  C:\Users\nicpa\AppData\Local\Temp\ccawORUH.s 			page 32


 762:.\CMSIS\Core\Include/core_cm4.h ****   __IOM uint32_t LOAD;                   /*!< Offset: 0x004 (R/W)  SysTick Reload Value Register */
 763:.\CMSIS\Core\Include/core_cm4.h ****   __IOM uint32_t VAL;                    /*!< Offset: 0x008 (R/W)  SysTick Current Value Register *
 764:.\CMSIS\Core\Include/core_cm4.h ****   __IM  uint32_t CALIB;                  /*!< Offset: 0x00C (R/ )  SysTick Calibration Register */
 765:.\CMSIS\Core\Include/core_cm4.h **** } SysTick_Type;
 766:.\CMSIS\Core\Include/core_cm4.h **** 
 767:.\CMSIS\Core\Include/core_cm4.h **** /* SysTick Control / Status Register Definitions */
 768:.\CMSIS\Core\Include/core_cm4.h **** #define SysTick_CTRL_COUNTFLAG_Pos         16U                                            /*!< SysT
 769:.\CMSIS\Core\Include/core_cm4.h **** #define SysTick_CTRL_COUNTFLAG_Msk         (1UL << SysTick_CTRL_COUNTFLAG_Pos)            /*!< SysT
 770:.\CMSIS\Core\Include/core_cm4.h **** 
 771:.\CMSIS\Core\Include/core_cm4.h **** #define SysTick_CTRL_CLKSOURCE_Pos          2U                                            /*!< SysT
 772:.\CMSIS\Core\Include/core_cm4.h **** #define SysTick_CTRL_CLKSOURCE_Msk         (1UL << SysTick_CTRL_CLKSOURCE_Pos)            /*!< SysT
 773:.\CMSIS\Core\Include/core_cm4.h **** 
 774:.\CMSIS\Core\Include/core_cm4.h **** #define SysTick_CTRL_TICKINT_Pos            1U                                            /*!< SysT
 775:.\CMSIS\Core\Include/core_cm4.h **** #define SysTick_CTRL_TICKINT_Msk           (1UL << SysTick_CTRL_TICKINT_Pos)              /*!< SysT
 776:.\CMSIS\Core\Include/core_cm4.h **** 
 777:.\CMSIS\Core\Include/core_cm4.h **** #define SysTick_CTRL_ENABLE_Pos             0U                                            /*!< SysT
 778:.\CMSIS\Core\Include/core_cm4.h **** #define SysTick_CTRL_ENABLE_Msk            (1UL /*<< SysTick_CTRL_ENABLE_Pos*/)           /*!< SysT
 779:.\CMSIS\Core\Include/core_cm4.h **** 
 780:.\CMSIS\Core\Include/core_cm4.h **** /* SysTick Reload Register Definitions */
 781:.\CMSIS\Core\Include/core_cm4.h **** #define SysTick_LOAD_RELOAD_Pos             0U                                            /*!< SysT
 782:.\CMSIS\Core\Include/core_cm4.h **** #define SysTick_LOAD_RELOAD_Msk            (0xFFFFFFUL /*<< SysTick_LOAD_RELOAD_Pos*/)    /*!< SysT
 783:.\CMSIS\Core\Include/core_cm4.h **** 
 784:.\CMSIS\Core\Include/core_cm4.h **** /* SysTick Current Register Definitions */
 785:.\CMSIS\Core\Include/core_cm4.h **** #define SysTick_VAL_CURRENT_Pos             0U                                            /*!< SysT
 786:.\CMSIS\Core\Include/core_cm4.h **** #define SysTick_VAL_CURRENT_Msk            (0xFFFFFFUL /*<< SysTick_VAL_CURRENT_Pos*/)    /*!< SysT
 787:.\CMSIS\Core\Include/core_cm4.h **** 
 788:.\CMSIS\Core\Include/core_cm4.h **** /* SysTick Calibration Register Definitions */
 789:.\CMSIS\Core\Include/core_cm4.h **** #define SysTick_CALIB_NOREF_Pos            31U                                            /*!< SysT
 790:.\CMSIS\Core\Include/core_cm4.h **** #define SysTick_CALIB_NOREF_Msk            (1UL << SysTick_CALIB_NOREF_Pos)               /*!< SysT
 791:.\CMSIS\Core\Include/core_cm4.h **** 
 792:.\CMSIS\Core\Include/core_cm4.h **** #define SysTick_CALIB_SKEW_Pos             30U                                            /*!< SysT
 793:.\CMSIS\Core\Include/core_cm4.h **** #define SysTick_CALIB_SKEW_Msk             (1UL << SysTick_CALIB_SKEW_Pos)                /*!< SysT
 794:.\CMSIS\Core\Include/core_cm4.h **** 
 795:.\CMSIS\Core\Include/core_cm4.h **** #define SysTick_CALIB_TENMS_Pos             0U                                            /*!< SysT
 796:.\CMSIS\Core\Include/core_cm4.h **** #define SysTick_CALIB_TENMS_Msk            (0xFFFFFFUL /*<< SysTick_CALIB_TENMS_Pos*/)    /*!< SysT
 797:.\CMSIS\Core\Include/core_cm4.h **** 
 798:.\CMSIS\Core\Include/core_cm4.h **** /*@} end of group CMSIS_SysTick */
 799:.\CMSIS\Core\Include/core_cm4.h **** 
 800:.\CMSIS\Core\Include/core_cm4.h **** 
 801:.\CMSIS\Core\Include/core_cm4.h **** /**
 802:.\CMSIS\Core\Include/core_cm4.h ****   \ingroup  CMSIS_core_register
 803:.\CMSIS\Core\Include/core_cm4.h ****   \defgroup CMSIS_ITM     Instrumentation Trace Macrocell (ITM)
 804:.\CMSIS\Core\Include/core_cm4.h ****   \brief    Type definitions for the Instrumentation Trace Macrocell (ITM)
 805:.\CMSIS\Core\Include/core_cm4.h ****   @{
 806:.\CMSIS\Core\Include/core_cm4.h ****  */
 807:.\CMSIS\Core\Include/core_cm4.h **** 
 808:.\CMSIS\Core\Include/core_cm4.h **** /**
 809:.\CMSIS\Core\Include/core_cm4.h ****   \brief  Structure type to access the Instrumentation Trace Macrocell Register (ITM).
 810:.\CMSIS\Core\Include/core_cm4.h ****  */
 811:.\CMSIS\Core\Include/core_cm4.h **** typedef struct
 812:.\CMSIS\Core\Include/core_cm4.h **** {
 813:.\CMSIS\Core\Include/core_cm4.h ****   __OM  union
 814:.\CMSIS\Core\Include/core_cm4.h ****   {
 815:.\CMSIS\Core\Include/core_cm4.h ****     __OM  uint8_t    u8;                 /*!< Offset: 0x000 ( /W)  ITM Stimulus Port 8-bit */
 816:.\CMSIS\Core\Include/core_cm4.h ****     __OM  uint16_t   u16;                /*!< Offset: 0x000 ( /W)  ITM Stimulus Port 16-bit */
 817:.\CMSIS\Core\Include/core_cm4.h ****     __OM  uint32_t   u32;                /*!< Offset: 0x000 ( /W)  ITM Stimulus Port 32-bit */
 818:.\CMSIS\Core\Include/core_cm4.h ****   }  PORT [32U];                         /*!< Offset: 0x000 ( /W)  ITM Stimulus Port Registers */
ARM GAS  C:\Users\nicpa\AppData\Local\Temp\ccawORUH.s 			page 33


 819:.\CMSIS\Core\Include/core_cm4.h ****         uint32_t RESERVED0[864U];
 820:.\CMSIS\Core\Include/core_cm4.h ****   __IOM uint32_t TER;                    /*!< Offset: 0xE00 (R/W)  ITM Trace Enable Register */
 821:.\CMSIS\Core\Include/core_cm4.h ****         uint32_t RESERVED1[15U];
 822:.\CMSIS\Core\Include/core_cm4.h ****   __IOM uint32_t TPR;                    /*!< Offset: 0xE40 (R/W)  ITM Trace Privilege Register */
 823:.\CMSIS\Core\Include/core_cm4.h ****         uint32_t RESERVED2[15U];
 824:.\CMSIS\Core\Include/core_cm4.h ****   __IOM uint32_t TCR;                    /*!< Offset: 0xE80 (R/W)  ITM Trace Control Register */
 825:.\CMSIS\Core\Include/core_cm4.h ****         uint32_t RESERVED3[29U];
 826:.\CMSIS\Core\Include/core_cm4.h ****   __OM  uint32_t IWR;                    /*!< Offset: 0xEF8 ( /W)  ITM Integration Write Register *
 827:.\CMSIS\Core\Include/core_cm4.h ****   __IM  uint32_t IRR;                    /*!< Offset: 0xEFC (R/ )  ITM Integration Read Register */
 828:.\CMSIS\Core\Include/core_cm4.h ****   __IOM uint32_t IMCR;                   /*!< Offset: 0xF00 (R/W)  ITM Integration Mode Control Reg
 829:.\CMSIS\Core\Include/core_cm4.h ****         uint32_t RESERVED4[43U];
 830:.\CMSIS\Core\Include/core_cm4.h ****   __OM  uint32_t LAR;                    /*!< Offset: 0xFB0 ( /W)  ITM Lock Access Register */
 831:.\CMSIS\Core\Include/core_cm4.h ****   __IM  uint32_t LSR;                    /*!< Offset: 0xFB4 (R/ )  ITM Lock Status Register */
 832:.\CMSIS\Core\Include/core_cm4.h ****         uint32_t RESERVED5[6U];
 833:.\CMSIS\Core\Include/core_cm4.h ****   __IM  uint32_t PID4;                   /*!< Offset: 0xFD0 (R/ )  ITM Peripheral Identification Re
 834:.\CMSIS\Core\Include/core_cm4.h ****   __IM  uint32_t PID5;                   /*!< Offset: 0xFD4 (R/ )  ITM Peripheral Identification Re
 835:.\CMSIS\Core\Include/core_cm4.h ****   __IM  uint32_t PID6;                   /*!< Offset: 0xFD8 (R/ )  ITM Peripheral Identification Re
 836:.\CMSIS\Core\Include/core_cm4.h ****   __IM  uint32_t PID7;                   /*!< Offset: 0xFDC (R/ )  ITM Peripheral Identification Re
 837:.\CMSIS\Core\Include/core_cm4.h ****   __IM  uint32_t PID0;                   /*!< Offset: 0xFE0 (R/ )  ITM Peripheral Identification Re
 838:.\CMSIS\Core\Include/core_cm4.h ****   __IM  uint32_t PID1;                   /*!< Offset: 0xFE4 (R/ )  ITM Peripheral Identification Re
 839:.\CMSIS\Core\Include/core_cm4.h ****   __IM  uint32_t PID2;                   /*!< Offset: 0xFE8 (R/ )  ITM Peripheral Identification Re
 840:.\CMSIS\Core\Include/core_cm4.h ****   __IM  uint32_t PID3;                   /*!< Offset: 0xFEC (R/ )  ITM Peripheral Identification Re
 841:.\CMSIS\Core\Include/core_cm4.h ****   __IM  uint32_t CID0;                   /*!< Offset: 0xFF0 (R/ )  ITM Component  Identification Re
 842:.\CMSIS\Core\Include/core_cm4.h ****   __IM  uint32_t CID1;                   /*!< Offset: 0xFF4 (R/ )  ITM Component  Identification Re
 843:.\CMSIS\Core\Include/core_cm4.h ****   __IM  uint32_t CID2;                   /*!< Offset: 0xFF8 (R/ )  ITM Component  Identification Re
 844:.\CMSIS\Core\Include/core_cm4.h ****   __IM  uint32_t CID3;                   /*!< Offset: 0xFFC (R/ )  ITM Component  Identification Re
 845:.\CMSIS\Core\Include/core_cm4.h **** } ITM_Type;
 846:.\CMSIS\Core\Include/core_cm4.h **** 
 847:.\CMSIS\Core\Include/core_cm4.h **** /* ITM Trace Privilege Register Definitions */
 848:.\CMSIS\Core\Include/core_cm4.h **** #define ITM_TPR_PRIVMASK_Pos                0U                                            /*!< ITM 
 849:.\CMSIS\Core\Include/core_cm4.h **** #define ITM_TPR_PRIVMASK_Msk               (0xFFFFFFFFUL /*<< ITM_TPR_PRIVMASK_Pos*/)     /*!< ITM 
 850:.\CMSIS\Core\Include/core_cm4.h **** 
 851:.\CMSIS\Core\Include/core_cm4.h **** /* ITM Trace Control Register Definitions */
 852:.\CMSIS\Core\Include/core_cm4.h **** #define ITM_TCR_BUSY_Pos                   23U                                            /*!< ITM 
 853:.\CMSIS\Core\Include/core_cm4.h **** #define ITM_TCR_BUSY_Msk                   (1UL << ITM_TCR_BUSY_Pos)                      /*!< ITM 
 854:.\CMSIS\Core\Include/core_cm4.h **** 
 855:.\CMSIS\Core\Include/core_cm4.h **** #define ITM_TCR_TraceBusID_Pos             16U                                            /*!< ITM 
 856:.\CMSIS\Core\Include/core_cm4.h **** #define ITM_TCR_TraceBusID_Msk             (0x7FUL << ITM_TCR_TraceBusID_Pos)             /*!< ITM 
 857:.\CMSIS\Core\Include/core_cm4.h **** 
 858:.\CMSIS\Core\Include/core_cm4.h **** #define ITM_TCR_GTSFREQ_Pos                10U                                            /*!< ITM 
 859:.\CMSIS\Core\Include/core_cm4.h **** #define ITM_TCR_GTSFREQ_Msk                (3UL << ITM_TCR_GTSFREQ_Pos)                   /*!< ITM 
 860:.\CMSIS\Core\Include/core_cm4.h **** 
 861:.\CMSIS\Core\Include/core_cm4.h **** #define ITM_TCR_TSPrescale_Pos              8U                                            /*!< ITM 
 862:.\CMSIS\Core\Include/core_cm4.h **** #define ITM_TCR_TSPrescale_Msk             (3UL << ITM_TCR_TSPrescale_Pos)                /*!< ITM 
 863:.\CMSIS\Core\Include/core_cm4.h **** 
 864:.\CMSIS\Core\Include/core_cm4.h **** #define ITM_TCR_SWOENA_Pos                  4U                                            /*!< ITM 
 865:.\CMSIS\Core\Include/core_cm4.h **** #define ITM_TCR_SWOENA_Msk                 (1UL << ITM_TCR_SWOENA_Pos)                    /*!< ITM 
 866:.\CMSIS\Core\Include/core_cm4.h **** 
 867:.\CMSIS\Core\Include/core_cm4.h **** #define ITM_TCR_DWTENA_Pos                  3U                                            /*!< ITM 
 868:.\CMSIS\Core\Include/core_cm4.h **** #define ITM_TCR_DWTENA_Msk                 (1UL << ITM_TCR_DWTENA_Pos)                    /*!< ITM 
 869:.\CMSIS\Core\Include/core_cm4.h **** 
 870:.\CMSIS\Core\Include/core_cm4.h **** #define ITM_TCR_SYNCENA_Pos                 2U                                            /*!< ITM 
 871:.\CMSIS\Core\Include/core_cm4.h **** #define ITM_TCR_SYNCENA_Msk                (1UL << ITM_TCR_SYNCENA_Pos)                   /*!< ITM 
 872:.\CMSIS\Core\Include/core_cm4.h **** 
 873:.\CMSIS\Core\Include/core_cm4.h **** #define ITM_TCR_TSENA_Pos                   1U                                            /*!< ITM 
 874:.\CMSIS\Core\Include/core_cm4.h **** #define ITM_TCR_TSENA_Msk                  (1UL << ITM_TCR_TSENA_Pos)                     /*!< ITM 
 875:.\CMSIS\Core\Include/core_cm4.h **** 
ARM GAS  C:\Users\nicpa\AppData\Local\Temp\ccawORUH.s 			page 34


 876:.\CMSIS\Core\Include/core_cm4.h **** #define ITM_TCR_ITMENA_Pos                  0U                                            /*!< ITM 
 877:.\CMSIS\Core\Include/core_cm4.h **** #define ITM_TCR_ITMENA_Msk                 (1UL /*<< ITM_TCR_ITMENA_Pos*/)                /*!< ITM 
 878:.\CMSIS\Core\Include/core_cm4.h **** 
 879:.\CMSIS\Core\Include/core_cm4.h **** /* ITM Integration Write Register Definitions */
 880:.\CMSIS\Core\Include/core_cm4.h **** #define ITM_IWR_ATVALIDM_Pos                0U                                            /*!< ITM 
 881:.\CMSIS\Core\Include/core_cm4.h **** #define ITM_IWR_ATVALIDM_Msk               (1UL /*<< ITM_IWR_ATVALIDM_Pos*/)              /*!< ITM 
 882:.\CMSIS\Core\Include/core_cm4.h **** 
 883:.\CMSIS\Core\Include/core_cm4.h **** /* ITM Integration Read Register Definitions */
 884:.\CMSIS\Core\Include/core_cm4.h **** #define ITM_IRR_ATREADYM_Pos                0U                                            /*!< ITM 
 885:.\CMSIS\Core\Include/core_cm4.h **** #define ITM_IRR_ATREADYM_Msk               (1UL /*<< ITM_IRR_ATREADYM_Pos*/)              /*!< ITM 
 886:.\CMSIS\Core\Include/core_cm4.h **** 
 887:.\CMSIS\Core\Include/core_cm4.h **** /* ITM Integration Mode Control Register Definitions */
 888:.\CMSIS\Core\Include/core_cm4.h **** #define ITM_IMCR_INTEGRATION_Pos            0U                                            /*!< ITM 
 889:.\CMSIS\Core\Include/core_cm4.h **** #define ITM_IMCR_INTEGRATION_Msk           (1UL /*<< ITM_IMCR_INTEGRATION_Pos*/)          /*!< ITM 
 890:.\CMSIS\Core\Include/core_cm4.h **** 
 891:.\CMSIS\Core\Include/core_cm4.h **** /* ITM Lock Status Register Definitions */
 892:.\CMSIS\Core\Include/core_cm4.h **** #define ITM_LSR_ByteAcc_Pos                 2U                                            /*!< ITM 
 893:.\CMSIS\Core\Include/core_cm4.h **** #define ITM_LSR_ByteAcc_Msk                (1UL << ITM_LSR_ByteAcc_Pos)                   /*!< ITM 
 894:.\CMSIS\Core\Include/core_cm4.h **** 
 895:.\CMSIS\Core\Include/core_cm4.h **** #define ITM_LSR_Access_Pos                  1U                                            /*!< ITM 
 896:.\CMSIS\Core\Include/core_cm4.h **** #define ITM_LSR_Access_Msk                 (1UL << ITM_LSR_Access_Pos)                    /*!< ITM 
 897:.\CMSIS\Core\Include/core_cm4.h **** 
 898:.\CMSIS\Core\Include/core_cm4.h **** #define ITM_LSR_Present_Pos                 0U                                            /*!< ITM 
 899:.\CMSIS\Core\Include/core_cm4.h **** #define ITM_LSR_Present_Msk                (1UL /*<< ITM_LSR_Present_Pos*/)               /*!< ITM 
 900:.\CMSIS\Core\Include/core_cm4.h **** 
 901:.\CMSIS\Core\Include/core_cm4.h **** /*@}*/ /* end of group CMSIS_ITM */
 902:.\CMSIS\Core\Include/core_cm4.h **** 
 903:.\CMSIS\Core\Include/core_cm4.h **** 
 904:.\CMSIS\Core\Include/core_cm4.h **** /**
 905:.\CMSIS\Core\Include/core_cm4.h ****   \ingroup  CMSIS_core_register
 906:.\CMSIS\Core\Include/core_cm4.h ****   \defgroup CMSIS_DWT     Data Watchpoint and Trace (DWT)
 907:.\CMSIS\Core\Include/core_cm4.h ****   \brief    Type definitions for the Data Watchpoint and Trace (DWT)
 908:.\CMSIS\Core\Include/core_cm4.h ****   @{
 909:.\CMSIS\Core\Include/core_cm4.h ****  */
 910:.\CMSIS\Core\Include/core_cm4.h **** 
 911:.\CMSIS\Core\Include/core_cm4.h **** /**
 912:.\CMSIS\Core\Include/core_cm4.h ****   \brief  Structure type to access the Data Watchpoint and Trace Register (DWT).
 913:.\CMSIS\Core\Include/core_cm4.h ****  */
 914:.\CMSIS\Core\Include/core_cm4.h **** typedef struct
 915:.\CMSIS\Core\Include/core_cm4.h **** {
 916:.\CMSIS\Core\Include/core_cm4.h ****   __IOM uint32_t CTRL;                   /*!< Offset: 0x000 (R/W)  Control Register */
 917:.\CMSIS\Core\Include/core_cm4.h ****   __IOM uint32_t CYCCNT;                 /*!< Offset: 0x004 (R/W)  Cycle Count Register */
 918:.\CMSIS\Core\Include/core_cm4.h ****   __IOM uint32_t CPICNT;                 /*!< Offset: 0x008 (R/W)  CPI Count Register */
 919:.\CMSIS\Core\Include/core_cm4.h ****   __IOM uint32_t EXCCNT;                 /*!< Offset: 0x00C (R/W)  Exception Overhead Count Registe
 920:.\CMSIS\Core\Include/core_cm4.h ****   __IOM uint32_t SLEEPCNT;               /*!< Offset: 0x010 (R/W)  Sleep Count Register */
 921:.\CMSIS\Core\Include/core_cm4.h ****   __IOM uint32_t LSUCNT;                 /*!< Offset: 0x014 (R/W)  LSU Count Register */
 922:.\CMSIS\Core\Include/core_cm4.h ****   __IOM uint32_t FOLDCNT;                /*!< Offset: 0x018 (R/W)  Folded-instruction Count Registe
 923:.\CMSIS\Core\Include/core_cm4.h ****   __IM  uint32_t PCSR;                   /*!< Offset: 0x01C (R/ )  Program Counter Sample Register 
 924:.\CMSIS\Core\Include/core_cm4.h ****   __IOM uint32_t COMP0;                  /*!< Offset: 0x020 (R/W)  Comparator Register 0 */
 925:.\CMSIS\Core\Include/core_cm4.h ****   __IOM uint32_t MASK0;                  /*!< Offset: 0x024 (R/W)  Mask Register 0 */
 926:.\CMSIS\Core\Include/core_cm4.h ****   __IOM uint32_t FUNCTION0;              /*!< Offset: 0x028 (R/W)  Function Register 0 */
 927:.\CMSIS\Core\Include/core_cm4.h ****         uint32_t RESERVED0[1U];
 928:.\CMSIS\Core\Include/core_cm4.h ****   __IOM uint32_t COMP1;                  /*!< Offset: 0x030 (R/W)  Comparator Register 1 */
 929:.\CMSIS\Core\Include/core_cm4.h ****   __IOM uint32_t MASK1;                  /*!< Offset: 0x034 (R/W)  Mask Register 1 */
 930:.\CMSIS\Core\Include/core_cm4.h ****   __IOM uint32_t FUNCTION1;              /*!< Offset: 0x038 (R/W)  Function Register 1 */
 931:.\CMSIS\Core\Include/core_cm4.h ****         uint32_t RESERVED1[1U];
 932:.\CMSIS\Core\Include/core_cm4.h ****   __IOM uint32_t COMP2;                  /*!< Offset: 0x040 (R/W)  Comparator Register 2 */
ARM GAS  C:\Users\nicpa\AppData\Local\Temp\ccawORUH.s 			page 35


 933:.\CMSIS\Core\Include/core_cm4.h ****   __IOM uint32_t MASK2;                  /*!< Offset: 0x044 (R/W)  Mask Register 2 */
 934:.\CMSIS\Core\Include/core_cm4.h ****   __IOM uint32_t FUNCTION2;              /*!< Offset: 0x048 (R/W)  Function Register 2 */
 935:.\CMSIS\Core\Include/core_cm4.h ****         uint32_t RESERVED2[1U];
 936:.\CMSIS\Core\Include/core_cm4.h ****   __IOM uint32_t COMP3;                  /*!< Offset: 0x050 (R/W)  Comparator Register 3 */
 937:.\CMSIS\Core\Include/core_cm4.h ****   __IOM uint32_t MASK3;                  /*!< Offset: 0x054 (R/W)  Mask Register 3 */
 938:.\CMSIS\Core\Include/core_cm4.h ****   __IOM uint32_t FUNCTION3;              /*!< Offset: 0x058 (R/W)  Function Register 3 */
 939:.\CMSIS\Core\Include/core_cm4.h **** } DWT_Type;
 940:.\CMSIS\Core\Include/core_cm4.h **** 
 941:.\CMSIS\Core\Include/core_cm4.h **** /* DWT Control Register Definitions */
 942:.\CMSIS\Core\Include/core_cm4.h **** #define DWT_CTRL_NUMCOMP_Pos               28U                                         /*!< DWT CTR
 943:.\CMSIS\Core\Include/core_cm4.h **** #define DWT_CTRL_NUMCOMP_Msk               (0xFUL << DWT_CTRL_NUMCOMP_Pos)             /*!< DWT CTR
 944:.\CMSIS\Core\Include/core_cm4.h **** 
 945:.\CMSIS\Core\Include/core_cm4.h **** #define DWT_CTRL_NOTRCPKT_Pos              27U                                         /*!< DWT CTR
 946:.\CMSIS\Core\Include/core_cm4.h **** #define DWT_CTRL_NOTRCPKT_Msk              (0x1UL << DWT_CTRL_NOTRCPKT_Pos)            /*!< DWT CTR
 947:.\CMSIS\Core\Include/core_cm4.h **** 
 948:.\CMSIS\Core\Include/core_cm4.h **** #define DWT_CTRL_NOEXTTRIG_Pos             26U                                         /*!< DWT CTR
 949:.\CMSIS\Core\Include/core_cm4.h **** #define DWT_CTRL_NOEXTTRIG_Msk             (0x1UL << DWT_CTRL_NOEXTTRIG_Pos)           /*!< DWT CTR
 950:.\CMSIS\Core\Include/core_cm4.h **** 
 951:.\CMSIS\Core\Include/core_cm4.h **** #define DWT_CTRL_NOCYCCNT_Pos              25U                                         /*!< DWT CTR
 952:.\CMSIS\Core\Include/core_cm4.h **** #define DWT_CTRL_NOCYCCNT_Msk              (0x1UL << DWT_CTRL_NOCYCCNT_Pos)            /*!< DWT CTR
 953:.\CMSIS\Core\Include/core_cm4.h **** 
 954:.\CMSIS\Core\Include/core_cm4.h **** #define DWT_CTRL_NOPRFCNT_Pos              24U                                         /*!< DWT CTR
 955:.\CMSIS\Core\Include/core_cm4.h **** #define DWT_CTRL_NOPRFCNT_Msk              (0x1UL << DWT_CTRL_NOPRFCNT_Pos)            /*!< DWT CTR
 956:.\CMSIS\Core\Include/core_cm4.h **** 
 957:.\CMSIS\Core\Include/core_cm4.h **** #define DWT_CTRL_CYCEVTENA_Pos             22U                                         /*!< DWT CTR
 958:.\CMSIS\Core\Include/core_cm4.h **** #define DWT_CTRL_CYCEVTENA_Msk             (0x1UL << DWT_CTRL_CYCEVTENA_Pos)           /*!< DWT CTR
 959:.\CMSIS\Core\Include/core_cm4.h **** 
 960:.\CMSIS\Core\Include/core_cm4.h **** #define DWT_CTRL_FOLDEVTENA_Pos            21U                                         /*!< DWT CTR
 961:.\CMSIS\Core\Include/core_cm4.h **** #define DWT_CTRL_FOLDEVTENA_Msk            (0x1UL << DWT_CTRL_FOLDEVTENA_Pos)          /*!< DWT CTR
 962:.\CMSIS\Core\Include/core_cm4.h **** 
 963:.\CMSIS\Core\Include/core_cm4.h **** #define DWT_CTRL_LSUEVTENA_Pos             20U                                         /*!< DWT CTR
 964:.\CMSIS\Core\Include/core_cm4.h **** #define DWT_CTRL_LSUEVTENA_Msk             (0x1UL << DWT_CTRL_LSUEVTENA_Pos)           /*!< DWT CTR
 965:.\CMSIS\Core\Include/core_cm4.h **** 
 966:.\CMSIS\Core\Include/core_cm4.h **** #define DWT_CTRL_SLEEPEVTENA_Pos           19U                                         /*!< DWT CTR
 967:.\CMSIS\Core\Include/core_cm4.h **** #define DWT_CTRL_SLEEPEVTENA_Msk           (0x1UL << DWT_CTRL_SLEEPEVTENA_Pos)         /*!< DWT CTR
 968:.\CMSIS\Core\Include/core_cm4.h **** 
 969:.\CMSIS\Core\Include/core_cm4.h **** #define DWT_CTRL_EXCEVTENA_Pos             18U                                         /*!< DWT CTR
 970:.\CMSIS\Core\Include/core_cm4.h **** #define DWT_CTRL_EXCEVTENA_Msk             (0x1UL << DWT_CTRL_EXCEVTENA_Pos)           /*!< DWT CTR
 971:.\CMSIS\Core\Include/core_cm4.h **** 
 972:.\CMSIS\Core\Include/core_cm4.h **** #define DWT_CTRL_CPIEVTENA_Pos             17U                                         /*!< DWT CTR
 973:.\CMSIS\Core\Include/core_cm4.h **** #define DWT_CTRL_CPIEVTENA_Msk             (0x1UL << DWT_CTRL_CPIEVTENA_Pos)           /*!< DWT CTR
 974:.\CMSIS\Core\Include/core_cm4.h **** 
 975:.\CMSIS\Core\Include/core_cm4.h **** #define DWT_CTRL_EXCTRCENA_Pos             16U                                         /*!< DWT CTR
 976:.\CMSIS\Core\Include/core_cm4.h **** #define DWT_CTRL_EXCTRCENA_Msk             (0x1UL << DWT_CTRL_EXCTRCENA_Pos)           /*!< DWT CTR
 977:.\CMSIS\Core\Include/core_cm4.h **** 
 978:.\CMSIS\Core\Include/core_cm4.h **** #define DWT_CTRL_PCSAMPLENA_Pos            12U                                         /*!< DWT CTR
 979:.\CMSIS\Core\Include/core_cm4.h **** #define DWT_CTRL_PCSAMPLENA_Msk            (0x1UL << DWT_CTRL_PCSAMPLENA_Pos)          /*!< DWT CTR
 980:.\CMSIS\Core\Include/core_cm4.h **** 
 981:.\CMSIS\Core\Include/core_cm4.h **** #define DWT_CTRL_SYNCTAP_Pos               10U                                         /*!< DWT CTR
 982:.\CMSIS\Core\Include/core_cm4.h **** #define DWT_CTRL_SYNCTAP_Msk               (0x3UL << DWT_CTRL_SYNCTAP_Pos)             /*!< DWT CTR
 983:.\CMSIS\Core\Include/core_cm4.h **** 
 984:.\CMSIS\Core\Include/core_cm4.h **** #define DWT_CTRL_CYCTAP_Pos                 9U                                         /*!< DWT CTR
 985:.\CMSIS\Core\Include/core_cm4.h **** #define DWT_CTRL_CYCTAP_Msk                (0x1UL << DWT_CTRL_CYCTAP_Pos)              /*!< DWT CTR
 986:.\CMSIS\Core\Include/core_cm4.h **** 
 987:.\CMSIS\Core\Include/core_cm4.h **** #define DWT_CTRL_POSTINIT_Pos               5U                                         /*!< DWT CTR
 988:.\CMSIS\Core\Include/core_cm4.h **** #define DWT_CTRL_POSTINIT_Msk              (0xFUL << DWT_CTRL_POSTINIT_Pos)            /*!< DWT CTR
 989:.\CMSIS\Core\Include/core_cm4.h **** 
ARM GAS  C:\Users\nicpa\AppData\Local\Temp\ccawORUH.s 			page 36


 990:.\CMSIS\Core\Include/core_cm4.h **** #define DWT_CTRL_POSTPRESET_Pos             1U                                         /*!< DWT CTR
 991:.\CMSIS\Core\Include/core_cm4.h **** #define DWT_CTRL_POSTPRESET_Msk            (0xFUL << DWT_CTRL_POSTPRESET_Pos)          /*!< DWT CTR
 992:.\CMSIS\Core\Include/core_cm4.h **** 
 993:.\CMSIS\Core\Include/core_cm4.h **** #define DWT_CTRL_CYCCNTENA_Pos              0U                                         /*!< DWT CTR
 994:.\CMSIS\Core\Include/core_cm4.h **** #define DWT_CTRL_CYCCNTENA_Msk             (0x1UL /*<< DWT_CTRL_CYCCNTENA_Pos*/)       /*!< DWT CTR
 995:.\CMSIS\Core\Include/core_cm4.h **** 
 996:.\CMSIS\Core\Include/core_cm4.h **** /* DWT CPI Count Register Definitions */
 997:.\CMSIS\Core\Include/core_cm4.h **** #define DWT_CPICNT_CPICNT_Pos               0U                                         /*!< DWT CPI
 998:.\CMSIS\Core\Include/core_cm4.h **** #define DWT_CPICNT_CPICNT_Msk              (0xFFUL /*<< DWT_CPICNT_CPICNT_Pos*/)       /*!< DWT CPI
 999:.\CMSIS\Core\Include/core_cm4.h **** 
1000:.\CMSIS\Core\Include/core_cm4.h **** /* DWT Exception Overhead Count Register Definitions */
1001:.\CMSIS\Core\Include/core_cm4.h **** #define DWT_EXCCNT_EXCCNT_Pos               0U                                         /*!< DWT EXC
1002:.\CMSIS\Core\Include/core_cm4.h **** #define DWT_EXCCNT_EXCCNT_Msk              (0xFFUL /*<< DWT_EXCCNT_EXCCNT_Pos*/)       /*!< DWT EXC
1003:.\CMSIS\Core\Include/core_cm4.h **** 
1004:.\CMSIS\Core\Include/core_cm4.h **** /* DWT Sleep Count Register Definitions */
1005:.\CMSIS\Core\Include/core_cm4.h **** #define DWT_SLEEPCNT_SLEEPCNT_Pos           0U                                         /*!< DWT SLE
1006:.\CMSIS\Core\Include/core_cm4.h **** #define DWT_SLEEPCNT_SLEEPCNT_Msk          (0xFFUL /*<< DWT_SLEEPCNT_SLEEPCNT_Pos*/)   /*!< DWT SLE
1007:.\CMSIS\Core\Include/core_cm4.h **** 
1008:.\CMSIS\Core\Include/core_cm4.h **** /* DWT LSU Count Register Definitions */
1009:.\CMSIS\Core\Include/core_cm4.h **** #define DWT_LSUCNT_LSUCNT_Pos               0U                                         /*!< DWT LSU
1010:.\CMSIS\Core\Include/core_cm4.h **** #define DWT_LSUCNT_LSUCNT_Msk              (0xFFUL /*<< DWT_LSUCNT_LSUCNT_Pos*/)       /*!< DWT LSU
1011:.\CMSIS\Core\Include/core_cm4.h **** 
1012:.\CMSIS\Core\Include/core_cm4.h **** /* DWT Folded-instruction Count Register Definitions */
1013:.\CMSIS\Core\Include/core_cm4.h **** #define DWT_FOLDCNT_FOLDCNT_Pos             0U                                         /*!< DWT FOL
1014:.\CMSIS\Core\Include/core_cm4.h **** #define DWT_FOLDCNT_FOLDCNT_Msk            (0xFFUL /*<< DWT_FOLDCNT_FOLDCNT_Pos*/)     /*!< DWT FOL
1015:.\CMSIS\Core\Include/core_cm4.h **** 
1016:.\CMSIS\Core\Include/core_cm4.h **** /* DWT Comparator Mask Register Definitions */
1017:.\CMSIS\Core\Include/core_cm4.h **** #define DWT_MASK_MASK_Pos                   0U                                         /*!< DWT MAS
1018:.\CMSIS\Core\Include/core_cm4.h **** #define DWT_MASK_MASK_Msk                  (0x1FUL /*<< DWT_MASK_MASK_Pos*/)           /*!< DWT MAS
1019:.\CMSIS\Core\Include/core_cm4.h **** 
1020:.\CMSIS\Core\Include/core_cm4.h **** /* DWT Comparator Function Register Definitions */
1021:.\CMSIS\Core\Include/core_cm4.h **** #define DWT_FUNCTION_MATCHED_Pos           24U                                         /*!< DWT FUN
1022:.\CMSIS\Core\Include/core_cm4.h **** #define DWT_FUNCTION_MATCHED_Msk           (0x1UL << DWT_FUNCTION_MATCHED_Pos)         /*!< DWT FUN
1023:.\CMSIS\Core\Include/core_cm4.h **** 
1024:.\CMSIS\Core\Include/core_cm4.h **** #define DWT_FUNCTION_DATAVADDR1_Pos        16U                                         /*!< DWT FUN
1025:.\CMSIS\Core\Include/core_cm4.h **** #define DWT_FUNCTION_DATAVADDR1_Msk        (0xFUL << DWT_FUNCTION_DATAVADDR1_Pos)      /*!< DWT FUN
1026:.\CMSIS\Core\Include/core_cm4.h **** 
1027:.\CMSIS\Core\Include/core_cm4.h **** #define DWT_FUNCTION_DATAVADDR0_Pos        12U                                         /*!< DWT FUN
1028:.\CMSIS\Core\Include/core_cm4.h **** #define DWT_FUNCTION_DATAVADDR0_Msk        (0xFUL << DWT_FUNCTION_DATAVADDR0_Pos)      /*!< DWT FUN
1029:.\CMSIS\Core\Include/core_cm4.h **** 
1030:.\CMSIS\Core\Include/core_cm4.h **** #define DWT_FUNCTION_DATAVSIZE_Pos         10U                                         /*!< DWT FUN
1031:.\CMSIS\Core\Include/core_cm4.h **** #define DWT_FUNCTION_DATAVSIZE_Msk         (0x3UL << DWT_FUNCTION_DATAVSIZE_Pos)       /*!< DWT FUN
1032:.\CMSIS\Core\Include/core_cm4.h **** 
1033:.\CMSIS\Core\Include/core_cm4.h **** #define DWT_FUNCTION_LNK1ENA_Pos            9U                                         /*!< DWT FUN
1034:.\CMSIS\Core\Include/core_cm4.h **** #define DWT_FUNCTION_LNK1ENA_Msk           (0x1UL << DWT_FUNCTION_LNK1ENA_Pos)         /*!< DWT FUN
1035:.\CMSIS\Core\Include/core_cm4.h **** 
1036:.\CMSIS\Core\Include/core_cm4.h **** #define DWT_FUNCTION_DATAVMATCH_Pos         8U                                         /*!< DWT FUN
1037:.\CMSIS\Core\Include/core_cm4.h **** #define DWT_FUNCTION_DATAVMATCH_Msk        (0x1UL << DWT_FUNCTION_DATAVMATCH_Pos)      /*!< DWT FUN
1038:.\CMSIS\Core\Include/core_cm4.h **** 
1039:.\CMSIS\Core\Include/core_cm4.h **** #define DWT_FUNCTION_CYCMATCH_Pos           7U                                         /*!< DWT FUN
1040:.\CMSIS\Core\Include/core_cm4.h **** #define DWT_FUNCTION_CYCMATCH_Msk          (0x1UL << DWT_FUNCTION_CYCMATCH_Pos)        /*!< DWT FUN
1041:.\CMSIS\Core\Include/core_cm4.h **** 
1042:.\CMSIS\Core\Include/core_cm4.h **** #define DWT_FUNCTION_EMITRANGE_Pos          5U                                         /*!< DWT FUN
1043:.\CMSIS\Core\Include/core_cm4.h **** #define DWT_FUNCTION_EMITRANGE_Msk         (0x1UL << DWT_FUNCTION_EMITRANGE_Pos)       /*!< DWT FUN
1044:.\CMSIS\Core\Include/core_cm4.h **** 
1045:.\CMSIS\Core\Include/core_cm4.h **** #define DWT_FUNCTION_FUNCTION_Pos           0U                                         /*!< DWT FUN
1046:.\CMSIS\Core\Include/core_cm4.h **** #define DWT_FUNCTION_FUNCTION_Msk          (0xFUL /*<< DWT_FUNCTION_FUNCTION_Pos*/)    /*!< DWT FUN
ARM GAS  C:\Users\nicpa\AppData\Local\Temp\ccawORUH.s 			page 37


1047:.\CMSIS\Core\Include/core_cm4.h **** 
1048:.\CMSIS\Core\Include/core_cm4.h **** /*@}*/ /* end of group CMSIS_DWT */
1049:.\CMSIS\Core\Include/core_cm4.h **** 
1050:.\CMSIS\Core\Include/core_cm4.h **** 
1051:.\CMSIS\Core\Include/core_cm4.h **** /**
1052:.\CMSIS\Core\Include/core_cm4.h ****   \ingroup  CMSIS_core_register
1053:.\CMSIS\Core\Include/core_cm4.h ****   \defgroup CMSIS_TPI     Trace Port Interface (TPI)
1054:.\CMSIS\Core\Include/core_cm4.h ****   \brief    Type definitions for the Trace Port Interface (TPI)
1055:.\CMSIS\Core\Include/core_cm4.h ****   @{
1056:.\CMSIS\Core\Include/core_cm4.h ****  */
1057:.\CMSIS\Core\Include/core_cm4.h **** 
1058:.\CMSIS\Core\Include/core_cm4.h **** /**
1059:.\CMSIS\Core\Include/core_cm4.h ****   \brief  Structure type to access the Trace Port Interface Register (TPI).
1060:.\CMSIS\Core\Include/core_cm4.h ****  */
1061:.\CMSIS\Core\Include/core_cm4.h **** typedef struct
1062:.\CMSIS\Core\Include/core_cm4.h **** {
1063:.\CMSIS\Core\Include/core_cm4.h ****   __IOM uint32_t SSPSR;                  /*!< Offset: 0x000 (R/ )  Supported Parallel Port Size Reg
1064:.\CMSIS\Core\Include/core_cm4.h ****   __IOM uint32_t CSPSR;                  /*!< Offset: 0x004 (R/W)  Current Parallel Port Size Regis
1065:.\CMSIS\Core\Include/core_cm4.h ****         uint32_t RESERVED0[2U];
1066:.\CMSIS\Core\Include/core_cm4.h ****   __IOM uint32_t ACPR;                   /*!< Offset: 0x010 (R/W)  Asynchronous Clock Prescaler Reg
1067:.\CMSIS\Core\Include/core_cm4.h ****         uint32_t RESERVED1[55U];
1068:.\CMSIS\Core\Include/core_cm4.h ****   __IOM uint32_t SPPR;                   /*!< Offset: 0x0F0 (R/W)  Selected Pin Protocol Register *
1069:.\CMSIS\Core\Include/core_cm4.h ****         uint32_t RESERVED2[131U];
1070:.\CMSIS\Core\Include/core_cm4.h ****   __IM  uint32_t FFSR;                   /*!< Offset: 0x300 (R/ )  Formatter and Flush Status Regis
1071:.\CMSIS\Core\Include/core_cm4.h ****   __IOM uint32_t FFCR;                   /*!< Offset: 0x304 (R/W)  Formatter and Flush Control Regi
1072:.\CMSIS\Core\Include/core_cm4.h ****   __IM  uint32_t FSCR;                   /*!< Offset: 0x308 (R/ )  Formatter Synchronization Counte
1073:.\CMSIS\Core\Include/core_cm4.h ****         uint32_t RESERVED3[759U];
1074:.\CMSIS\Core\Include/core_cm4.h ****   __IM  uint32_t TRIGGER;                /*!< Offset: 0xEE8 (R/ )  TRIGGER */
1075:.\CMSIS\Core\Include/core_cm4.h ****   __IM  uint32_t FIFO0;                  /*!< Offset: 0xEEC (R/ )  Integration ETM Data */
1076:.\CMSIS\Core\Include/core_cm4.h ****   __IM  uint32_t ITATBCTR2;              /*!< Offset: 0xEF0 (R/ )  ITATBCTR2 */
1077:.\CMSIS\Core\Include/core_cm4.h ****         uint32_t RESERVED4[1U];
1078:.\CMSIS\Core\Include/core_cm4.h ****   __IM  uint32_t ITATBCTR0;              /*!< Offset: 0xEF8 (R/ )  ITATBCTR0 */
1079:.\CMSIS\Core\Include/core_cm4.h ****   __IM  uint32_t FIFO1;                  /*!< Offset: 0xEFC (R/ )  Integration ITM Data */
1080:.\CMSIS\Core\Include/core_cm4.h ****   __IOM uint32_t ITCTRL;                 /*!< Offset: 0xF00 (R/W)  Integration Mode Control */
1081:.\CMSIS\Core\Include/core_cm4.h ****         uint32_t RESERVED5[39U];
1082:.\CMSIS\Core\Include/core_cm4.h ****   __IOM uint32_t CLAIMSET;               /*!< Offset: 0xFA0 (R/W)  Claim tag set */
1083:.\CMSIS\Core\Include/core_cm4.h ****   __IOM uint32_t CLAIMCLR;               /*!< Offset: 0xFA4 (R/W)  Claim tag clear */
1084:.\CMSIS\Core\Include/core_cm4.h ****         uint32_t RESERVED7[8U];
1085:.\CMSIS\Core\Include/core_cm4.h ****   __IM  uint32_t DEVID;                  /*!< Offset: 0xFC8 (R/ )  TPIU_DEVID */
1086:.\CMSIS\Core\Include/core_cm4.h ****   __IM  uint32_t DEVTYPE;                /*!< Offset: 0xFCC (R/ )  TPIU_DEVTYPE */
1087:.\CMSIS\Core\Include/core_cm4.h **** } TPI_Type;
1088:.\CMSIS\Core\Include/core_cm4.h **** 
1089:.\CMSIS\Core\Include/core_cm4.h **** /* TPI Asynchronous Clock Prescaler Register Definitions */
1090:.\CMSIS\Core\Include/core_cm4.h **** #define TPI_ACPR_PRESCALER_Pos              0U                                         /*!< @Deprec
1091:.\CMSIS\Core\Include/core_cm4.h **** #define TPI_ACPR_PRESCALER_Msk             (0x1FFFUL /*<< TPI_ACPR_PRESCALER_Pos*/)    /*!< @Deprec
1092:.\CMSIS\Core\Include/core_cm4.h **** 
1093:.\CMSIS\Core\Include/core_cm4.h **** #define TPI_ACPR_SWOSCALER_Pos              0U                                         /*!< TPI ACP
1094:.\CMSIS\Core\Include/core_cm4.h **** #define TPI_ACPR_SWOSCALER_Msk             (0xFFFFUL /*<< TPI_ACPR_SWOSCALER_Pos*/)    /*!< TPI ACP
1095:.\CMSIS\Core\Include/core_cm4.h **** 
1096:.\CMSIS\Core\Include/core_cm4.h **** /* TPI Selected Pin Protocol Register Definitions */
1097:.\CMSIS\Core\Include/core_cm4.h **** #define TPI_SPPR_TXMODE_Pos                 0U                                         /*!< TPI SPP
1098:.\CMSIS\Core\Include/core_cm4.h **** #define TPI_SPPR_TXMODE_Msk                (0x3UL /*<< TPI_SPPR_TXMODE_Pos*/)          /*!< TPI SPP
1099:.\CMSIS\Core\Include/core_cm4.h **** 
1100:.\CMSIS\Core\Include/core_cm4.h **** /* TPI Formatter and Flush Status Register Definitions */
1101:.\CMSIS\Core\Include/core_cm4.h **** #define TPI_FFSR_FtNonStop_Pos              3U                                         /*!< TPI FFS
1102:.\CMSIS\Core\Include/core_cm4.h **** #define TPI_FFSR_FtNonStop_Msk             (0x1UL << TPI_FFSR_FtNonStop_Pos)           /*!< TPI FFS
1103:.\CMSIS\Core\Include/core_cm4.h **** 
ARM GAS  C:\Users\nicpa\AppData\Local\Temp\ccawORUH.s 			page 38


1104:.\CMSIS\Core\Include/core_cm4.h **** #define TPI_FFSR_TCPresent_Pos              2U                                         /*!< TPI FFS
1105:.\CMSIS\Core\Include/core_cm4.h **** #define TPI_FFSR_TCPresent_Msk             (0x1UL << TPI_FFSR_TCPresent_Pos)           /*!< TPI FFS
1106:.\CMSIS\Core\Include/core_cm4.h **** 
1107:.\CMSIS\Core\Include/core_cm4.h **** #define TPI_FFSR_FtStopped_Pos              1U                                         /*!< TPI FFS
1108:.\CMSIS\Core\Include/core_cm4.h **** #define TPI_FFSR_FtStopped_Msk             (0x1UL << TPI_FFSR_FtStopped_Pos)           /*!< TPI FFS
1109:.\CMSIS\Core\Include/core_cm4.h **** 
1110:.\CMSIS\Core\Include/core_cm4.h **** #define TPI_FFSR_FlInProg_Pos               0U                                         /*!< TPI FFS
1111:.\CMSIS\Core\Include/core_cm4.h **** #define TPI_FFSR_FlInProg_Msk              (0x1UL /*<< TPI_FFSR_FlInProg_Pos*/)        /*!< TPI FFS
1112:.\CMSIS\Core\Include/core_cm4.h **** 
1113:.\CMSIS\Core\Include/core_cm4.h **** /* TPI Formatter and Flush Control Register Definitions */
1114:.\CMSIS\Core\Include/core_cm4.h **** #define TPI_FFCR_TrigIn_Pos                 8U                                         /*!< TPI FFC
1115:.\CMSIS\Core\Include/core_cm4.h **** #define TPI_FFCR_TrigIn_Msk                (0x1UL << TPI_FFCR_TrigIn_Pos)              /*!< TPI FFC
1116:.\CMSIS\Core\Include/core_cm4.h **** 
1117:.\CMSIS\Core\Include/core_cm4.h **** #define TPI_FFCR_EnFCont_Pos                1U                                         /*!< TPI FFC
1118:.\CMSIS\Core\Include/core_cm4.h **** #define TPI_FFCR_EnFCont_Msk               (0x1UL << TPI_FFCR_EnFCont_Pos)             /*!< TPI FFC
1119:.\CMSIS\Core\Include/core_cm4.h **** 
1120:.\CMSIS\Core\Include/core_cm4.h **** /* TPI TRIGGER Register Definitions */
1121:.\CMSIS\Core\Include/core_cm4.h **** #define TPI_TRIGGER_TRIGGER_Pos             0U                                         /*!< TPI TRI
1122:.\CMSIS\Core\Include/core_cm4.h **** #define TPI_TRIGGER_TRIGGER_Msk            (0x1UL /*<< TPI_TRIGGER_TRIGGER_Pos*/)      /*!< TPI TRI
1123:.\CMSIS\Core\Include/core_cm4.h **** 
1124:.\CMSIS\Core\Include/core_cm4.h **** /* TPI Integration ETM Data Register Definitions (FIFO0) */
1125:.\CMSIS\Core\Include/core_cm4.h **** #define TPI_FIFO0_ITM_ATVALID_Pos          29U                                         /*!< TPI FIF
1126:.\CMSIS\Core\Include/core_cm4.h **** #define TPI_FIFO0_ITM_ATVALID_Msk          (0x3UL << TPI_FIFO0_ITM_ATVALID_Pos)        /*!< TPI FIF
1127:.\CMSIS\Core\Include/core_cm4.h **** 
1128:.\CMSIS\Core\Include/core_cm4.h **** #define TPI_FIFO0_ITM_bytecount_Pos        27U                                         /*!< TPI FIF
1129:.\CMSIS\Core\Include/core_cm4.h **** #define TPI_FIFO0_ITM_bytecount_Msk        (0x3UL << TPI_FIFO0_ITM_bytecount_Pos)      /*!< TPI FIF
1130:.\CMSIS\Core\Include/core_cm4.h **** 
1131:.\CMSIS\Core\Include/core_cm4.h **** #define TPI_FIFO0_ETM_ATVALID_Pos          26U                                         /*!< TPI FIF
1132:.\CMSIS\Core\Include/core_cm4.h **** #define TPI_FIFO0_ETM_ATVALID_Msk          (0x3UL << TPI_FIFO0_ETM_ATVALID_Pos)        /*!< TPI FIF
1133:.\CMSIS\Core\Include/core_cm4.h **** 
1134:.\CMSIS\Core\Include/core_cm4.h **** #define TPI_FIFO0_ETM_bytecount_Pos        24U                                         /*!< TPI FIF
1135:.\CMSIS\Core\Include/core_cm4.h **** #define TPI_FIFO0_ETM_bytecount_Msk        (0x3UL << TPI_FIFO0_ETM_bytecount_Pos)      /*!< TPI FIF
1136:.\CMSIS\Core\Include/core_cm4.h **** 
1137:.\CMSIS\Core\Include/core_cm4.h **** #define TPI_FIFO0_ETM2_Pos                 16U                                         /*!< TPI FIF
1138:.\CMSIS\Core\Include/core_cm4.h **** #define TPI_FIFO0_ETM2_Msk                 (0xFFUL << TPI_FIFO0_ETM2_Pos)              /*!< TPI FIF
1139:.\CMSIS\Core\Include/core_cm4.h **** 
1140:.\CMSIS\Core\Include/core_cm4.h **** #define TPI_FIFO0_ETM1_Pos                  8U                                         /*!< TPI FIF
1141:.\CMSIS\Core\Include/core_cm4.h **** #define TPI_FIFO0_ETM1_Msk                 (0xFFUL << TPI_FIFO0_ETM1_Pos)              /*!< TPI FIF
1142:.\CMSIS\Core\Include/core_cm4.h **** 
1143:.\CMSIS\Core\Include/core_cm4.h **** #define TPI_FIFO0_ETM0_Pos                  0U                                         /*!< TPI FIF
1144:.\CMSIS\Core\Include/core_cm4.h **** #define TPI_FIFO0_ETM0_Msk                 (0xFFUL /*<< TPI_FIFO0_ETM0_Pos*/)          /*!< TPI FIF
1145:.\CMSIS\Core\Include/core_cm4.h **** 
1146:.\CMSIS\Core\Include/core_cm4.h **** /* TPI ITATBCTR2 Register Definitions */
1147:.\CMSIS\Core\Include/core_cm4.h **** #define TPI_ITATBCTR2_ATREADY_Pos           0U                                         /*!< TPI ITA
1148:.\CMSIS\Core\Include/core_cm4.h **** #define TPI_ITATBCTR2_ATREADY_Msk          (0x1UL /*<< TPI_ITATBCTR2_ATREADY_Pos*/)    /*!< TPI ITA
1149:.\CMSIS\Core\Include/core_cm4.h **** 
1150:.\CMSIS\Core\Include/core_cm4.h **** /* TPI Integration ITM Data Register Definitions (FIFO1) */
1151:.\CMSIS\Core\Include/core_cm4.h **** #define TPI_FIFO1_ITM_ATVALID_Pos          29U                                         /*!< TPI FIF
1152:.\CMSIS\Core\Include/core_cm4.h **** #define TPI_FIFO1_ITM_ATVALID_Msk          (0x3UL << TPI_FIFO1_ITM_ATVALID_Pos)        /*!< TPI FIF
1153:.\CMSIS\Core\Include/core_cm4.h **** 
1154:.\CMSIS\Core\Include/core_cm4.h **** #define TPI_FIFO1_ITM_bytecount_Pos        27U                                         /*!< TPI FIF
1155:.\CMSIS\Core\Include/core_cm4.h **** #define TPI_FIFO1_ITM_bytecount_Msk        (0x3UL << TPI_FIFO1_ITM_bytecount_Pos)      /*!< TPI FIF
1156:.\CMSIS\Core\Include/core_cm4.h **** 
1157:.\CMSIS\Core\Include/core_cm4.h **** #define TPI_FIFO1_ETM_ATVALID_Pos          26U                                         /*!< TPI FIF
1158:.\CMSIS\Core\Include/core_cm4.h **** #define TPI_FIFO1_ETM_ATVALID_Msk          (0x3UL << TPI_FIFO1_ETM_ATVALID_Pos)        /*!< TPI FIF
1159:.\CMSIS\Core\Include/core_cm4.h **** 
1160:.\CMSIS\Core\Include/core_cm4.h **** #define TPI_FIFO1_ETM_bytecount_Pos        24U                                         /*!< TPI FIF
ARM GAS  C:\Users\nicpa\AppData\Local\Temp\ccawORUH.s 			page 39


1161:.\CMSIS\Core\Include/core_cm4.h **** #define TPI_FIFO1_ETM_bytecount_Msk        (0x3UL << TPI_FIFO1_ETM_bytecount_Pos)      /*!< TPI FIF
1162:.\CMSIS\Core\Include/core_cm4.h **** 
1163:.\CMSIS\Core\Include/core_cm4.h **** #define TPI_FIFO1_ITM2_Pos                 16U                                         /*!< TPI FIF
1164:.\CMSIS\Core\Include/core_cm4.h **** #define TPI_FIFO1_ITM2_Msk                 (0xFFUL << TPI_FIFO1_ITM2_Pos)              /*!< TPI FIF
1165:.\CMSIS\Core\Include/core_cm4.h **** 
1166:.\CMSIS\Core\Include/core_cm4.h **** #define TPI_FIFO1_ITM1_Pos                  8U                                         /*!< TPI FIF
1167:.\CMSIS\Core\Include/core_cm4.h **** #define TPI_FIFO1_ITM1_Msk                 (0xFFUL << TPI_FIFO1_ITM1_Pos)              /*!< TPI FIF
1168:.\CMSIS\Core\Include/core_cm4.h **** 
1169:.\CMSIS\Core\Include/core_cm4.h **** #define TPI_FIFO1_ITM0_Pos                  0U                                         /*!< TPI FIF
1170:.\CMSIS\Core\Include/core_cm4.h **** #define TPI_FIFO1_ITM0_Msk                 (0xFFUL /*<< TPI_FIFO1_ITM0_Pos*/)          /*!< TPI FIF
1171:.\CMSIS\Core\Include/core_cm4.h **** 
1172:.\CMSIS\Core\Include/core_cm4.h **** /* TPI ITATBCTR0 Register Definitions */
1173:.\CMSIS\Core\Include/core_cm4.h **** #define TPI_ITATBCTR0_ATREADY_Pos           0U                                         /*!< TPI ITA
1174:.\CMSIS\Core\Include/core_cm4.h **** #define TPI_ITATBCTR0_ATREADY_Msk          (0x1UL /*<< TPI_ITATBCTR0_ATREADY_Pos*/)    /*!< TPI ITA
1175:.\CMSIS\Core\Include/core_cm4.h **** 
1176:.\CMSIS\Core\Include/core_cm4.h **** /* TPI Integration Mode Control Register Definitions */
1177:.\CMSIS\Core\Include/core_cm4.h **** #define TPI_ITCTRL_Mode_Pos                 0U                                         /*!< TPI ITC
1178:.\CMSIS\Core\Include/core_cm4.h **** #define TPI_ITCTRL_Mode_Msk                (0x1UL /*<< TPI_ITCTRL_Mode_Pos*/)          /*!< TPI ITC
1179:.\CMSIS\Core\Include/core_cm4.h **** 
1180:.\CMSIS\Core\Include/core_cm4.h **** /* TPI DEVID Register Definitions */
1181:.\CMSIS\Core\Include/core_cm4.h **** #define TPI_DEVID_NRZVALID_Pos             11U                                         /*!< TPI DEV
1182:.\CMSIS\Core\Include/core_cm4.h **** #define TPI_DEVID_NRZVALID_Msk             (0x1UL << TPI_DEVID_NRZVALID_Pos)           /*!< TPI DEV
1183:.\CMSIS\Core\Include/core_cm4.h **** 
1184:.\CMSIS\Core\Include/core_cm4.h **** #define TPI_DEVID_MANCVALID_Pos            10U                                         /*!< TPI DEV
1185:.\CMSIS\Core\Include/core_cm4.h **** #define TPI_DEVID_MANCVALID_Msk            (0x1UL << TPI_DEVID_MANCVALID_Pos)          /*!< TPI DEV
1186:.\CMSIS\Core\Include/core_cm4.h **** 
1187:.\CMSIS\Core\Include/core_cm4.h **** #define TPI_DEVID_PTINVALID_Pos             9U                                         /*!< TPI DEV
1188:.\CMSIS\Core\Include/core_cm4.h **** #define TPI_DEVID_PTINVALID_Msk            (0x1UL << TPI_DEVID_PTINVALID_Pos)          /*!< TPI DEV
1189:.\CMSIS\Core\Include/core_cm4.h **** 
1190:.\CMSIS\Core\Include/core_cm4.h **** #define TPI_DEVID_MinBufSz_Pos              6U                                         /*!< TPI DEV
1191:.\CMSIS\Core\Include/core_cm4.h **** #define TPI_DEVID_MinBufSz_Msk             (0x7UL << TPI_DEVID_MinBufSz_Pos)           /*!< TPI DEV
1192:.\CMSIS\Core\Include/core_cm4.h **** 
1193:.\CMSIS\Core\Include/core_cm4.h **** #define TPI_DEVID_AsynClkIn_Pos             5U                                         /*!< TPI DEV
1194:.\CMSIS\Core\Include/core_cm4.h **** #define TPI_DEVID_AsynClkIn_Msk            (0x1UL << TPI_DEVID_AsynClkIn_Pos)          /*!< TPI DEV
1195:.\CMSIS\Core\Include/core_cm4.h **** 
1196:.\CMSIS\Core\Include/core_cm4.h **** #define TPI_DEVID_NrTraceInput_Pos          0U                                         /*!< TPI DEV
1197:.\CMSIS\Core\Include/core_cm4.h **** #define TPI_DEVID_NrTraceInput_Msk         (0x1FUL /*<< TPI_DEVID_NrTraceInput_Pos*/)  /*!< TPI DEV
1198:.\CMSIS\Core\Include/core_cm4.h **** 
1199:.\CMSIS\Core\Include/core_cm4.h **** /* TPI DEVTYPE Register Definitions */
1200:.\CMSIS\Core\Include/core_cm4.h **** #define TPI_DEVTYPE_MajorType_Pos           4U                                         /*!< TPI DEV
1201:.\CMSIS\Core\Include/core_cm4.h **** #define TPI_DEVTYPE_MajorType_Msk          (0xFUL << TPI_DEVTYPE_MajorType_Pos)        /*!< TPI DEV
1202:.\CMSIS\Core\Include/core_cm4.h **** 
1203:.\CMSIS\Core\Include/core_cm4.h **** #define TPI_DEVTYPE_SubType_Pos             0U                                         /*!< TPI DEV
1204:.\CMSIS\Core\Include/core_cm4.h **** #define TPI_DEVTYPE_SubType_Msk            (0xFUL /*<< TPI_DEVTYPE_SubType_Pos*/)      /*!< TPI DEV
1205:.\CMSIS\Core\Include/core_cm4.h **** 
1206:.\CMSIS\Core\Include/core_cm4.h **** /*@}*/ /* end of group CMSIS_TPI */
1207:.\CMSIS\Core\Include/core_cm4.h **** 
1208:.\CMSIS\Core\Include/core_cm4.h **** 
1209:.\CMSIS\Core\Include/core_cm4.h **** #if defined (__MPU_PRESENT) && (__MPU_PRESENT == 1U)
1210:.\CMSIS\Core\Include/core_cm4.h **** /**
1211:.\CMSIS\Core\Include/core_cm4.h ****   \ingroup  CMSIS_core_register
1212:.\CMSIS\Core\Include/core_cm4.h ****   \defgroup CMSIS_MPU     Memory Protection Unit (MPU)
1213:.\CMSIS\Core\Include/core_cm4.h ****   \brief    Type definitions for the Memory Protection Unit (MPU)
1214:.\CMSIS\Core\Include/core_cm4.h ****   @{
1215:.\CMSIS\Core\Include/core_cm4.h ****  */
1216:.\CMSIS\Core\Include/core_cm4.h **** 
1217:.\CMSIS\Core\Include/core_cm4.h **** /**
ARM GAS  C:\Users\nicpa\AppData\Local\Temp\ccawORUH.s 			page 40


1218:.\CMSIS\Core\Include/core_cm4.h ****   \brief  Structure type to access the Memory Protection Unit (MPU).
1219:.\CMSIS\Core\Include/core_cm4.h ****  */
1220:.\CMSIS\Core\Include/core_cm4.h **** typedef struct
1221:.\CMSIS\Core\Include/core_cm4.h **** {
1222:.\CMSIS\Core\Include/core_cm4.h ****   __IM  uint32_t TYPE;                   /*!< Offset: 0x000 (R/ )  MPU Type Register */
1223:.\CMSIS\Core\Include/core_cm4.h ****   __IOM uint32_t CTRL;                   /*!< Offset: 0x004 (R/W)  MPU Control Register */
1224:.\CMSIS\Core\Include/core_cm4.h ****   __IOM uint32_t RNR;                    /*!< Offset: 0x008 (R/W)  MPU Region RNRber Register */
1225:.\CMSIS\Core\Include/core_cm4.h ****   __IOM uint32_t RBAR;                   /*!< Offset: 0x00C (R/W)  MPU Region Base Address Register
1226:.\CMSIS\Core\Include/core_cm4.h ****   __IOM uint32_t RASR;                   /*!< Offset: 0x010 (R/W)  MPU Region Attribute and Size Re
1227:.\CMSIS\Core\Include/core_cm4.h ****   __IOM uint32_t RBAR_A1;                /*!< Offset: 0x014 (R/W)  MPU Alias 1 Region Base Address 
1228:.\CMSIS\Core\Include/core_cm4.h ****   __IOM uint32_t RASR_A1;                /*!< Offset: 0x018 (R/W)  MPU Alias 1 Region Attribute and
1229:.\CMSIS\Core\Include/core_cm4.h ****   __IOM uint32_t RBAR_A2;                /*!< Offset: 0x01C (R/W)  MPU Alias 2 Region Base Address 
1230:.\CMSIS\Core\Include/core_cm4.h ****   __IOM uint32_t RASR_A2;                /*!< Offset: 0x020 (R/W)  MPU Alias 2 Region Attribute and
1231:.\CMSIS\Core\Include/core_cm4.h ****   __IOM uint32_t RBAR_A3;                /*!< Offset: 0x024 (R/W)  MPU Alias 3 Region Base Address 
1232:.\CMSIS\Core\Include/core_cm4.h ****   __IOM uint32_t RASR_A3;                /*!< Offset: 0x028 (R/W)  MPU Alias 3 Region Attribute and
1233:.\CMSIS\Core\Include/core_cm4.h **** } MPU_Type;
1234:.\CMSIS\Core\Include/core_cm4.h **** 
1235:.\CMSIS\Core\Include/core_cm4.h **** #define MPU_TYPE_RALIASES                  4U
1236:.\CMSIS\Core\Include/core_cm4.h **** 
1237:.\CMSIS\Core\Include/core_cm4.h **** /* MPU Type Register Definitions */
1238:.\CMSIS\Core\Include/core_cm4.h **** #define MPU_TYPE_IREGION_Pos               16U                                            /*!< MPU 
1239:.\CMSIS\Core\Include/core_cm4.h **** #define MPU_TYPE_IREGION_Msk               (0xFFUL << MPU_TYPE_IREGION_Pos)               /*!< MPU 
1240:.\CMSIS\Core\Include/core_cm4.h **** 
1241:.\CMSIS\Core\Include/core_cm4.h **** #define MPU_TYPE_DREGION_Pos                8U                                            /*!< MPU 
1242:.\CMSIS\Core\Include/core_cm4.h **** #define MPU_TYPE_DREGION_Msk               (0xFFUL << MPU_TYPE_DREGION_Pos)               /*!< MPU 
1243:.\CMSIS\Core\Include/core_cm4.h **** 
1244:.\CMSIS\Core\Include/core_cm4.h **** #define MPU_TYPE_SEPARATE_Pos               0U                                            /*!< MPU 
1245:.\CMSIS\Core\Include/core_cm4.h **** #define MPU_TYPE_SEPARATE_Msk              (1UL /*<< MPU_TYPE_SEPARATE_Pos*/)             /*!< MPU 
1246:.\CMSIS\Core\Include/core_cm4.h **** 
1247:.\CMSIS\Core\Include/core_cm4.h **** /* MPU Control Register Definitions */
1248:.\CMSIS\Core\Include/core_cm4.h **** #define MPU_CTRL_PRIVDEFENA_Pos             2U                                            /*!< MPU 
1249:.\CMSIS\Core\Include/core_cm4.h **** #define MPU_CTRL_PRIVDEFENA_Msk            (1UL << MPU_CTRL_PRIVDEFENA_Pos)               /*!< MPU 
1250:.\CMSIS\Core\Include/core_cm4.h **** 
1251:.\CMSIS\Core\Include/core_cm4.h **** #define MPU_CTRL_HFNMIENA_Pos               1U                                            /*!< MPU 
1252:.\CMSIS\Core\Include/core_cm4.h **** #define MPU_CTRL_HFNMIENA_Msk              (1UL << MPU_CTRL_HFNMIENA_Pos)                 /*!< MPU 
1253:.\CMSIS\Core\Include/core_cm4.h **** 
1254:.\CMSIS\Core\Include/core_cm4.h **** #define MPU_CTRL_ENABLE_Pos                 0U                                            /*!< MPU 
1255:.\CMSIS\Core\Include/core_cm4.h **** #define MPU_CTRL_ENABLE_Msk                (1UL /*<< MPU_CTRL_ENABLE_Pos*/)               /*!< MPU 
1256:.\CMSIS\Core\Include/core_cm4.h **** 
1257:.\CMSIS\Core\Include/core_cm4.h **** /* MPU Region Number Register Definitions */
1258:.\CMSIS\Core\Include/core_cm4.h **** #define MPU_RNR_REGION_Pos                  0U                                            /*!< MPU 
1259:.\CMSIS\Core\Include/core_cm4.h **** #define MPU_RNR_REGION_Msk                 (0xFFUL /*<< MPU_RNR_REGION_Pos*/)             /*!< MPU 
1260:.\CMSIS\Core\Include/core_cm4.h **** 
1261:.\CMSIS\Core\Include/core_cm4.h **** /* MPU Region Base Address Register Definitions */
1262:.\CMSIS\Core\Include/core_cm4.h **** #define MPU_RBAR_ADDR_Pos                   5U                                            /*!< MPU 
1263:.\CMSIS\Core\Include/core_cm4.h **** #define MPU_RBAR_ADDR_Msk                  (0x7FFFFFFUL << MPU_RBAR_ADDR_Pos)             /*!< MPU 
1264:.\CMSIS\Core\Include/core_cm4.h **** 
1265:.\CMSIS\Core\Include/core_cm4.h **** #define MPU_RBAR_VALID_Pos                  4U                                            /*!< MPU 
1266:.\CMSIS\Core\Include/core_cm4.h **** #define MPU_RBAR_VALID_Msk                 (1UL << MPU_RBAR_VALID_Pos)                    /*!< MPU 
1267:.\CMSIS\Core\Include/core_cm4.h **** 
1268:.\CMSIS\Core\Include/core_cm4.h **** #define MPU_RBAR_REGION_Pos                 0U                                            /*!< MPU 
1269:.\CMSIS\Core\Include/core_cm4.h **** #define MPU_RBAR_REGION_Msk                (0xFUL /*<< MPU_RBAR_REGION_Pos*/)             /*!< MPU 
1270:.\CMSIS\Core\Include/core_cm4.h **** 
1271:.\CMSIS\Core\Include/core_cm4.h **** /* MPU Region Attribute and Size Register Definitions */
1272:.\CMSIS\Core\Include/core_cm4.h **** #define MPU_RASR_ATTRS_Pos                 16U                                            /*!< MPU 
1273:.\CMSIS\Core\Include/core_cm4.h **** #define MPU_RASR_ATTRS_Msk                 (0xFFFFUL << MPU_RASR_ATTRS_Pos)               /*!< MPU 
1274:.\CMSIS\Core\Include/core_cm4.h **** 
ARM GAS  C:\Users\nicpa\AppData\Local\Temp\ccawORUH.s 			page 41


1275:.\CMSIS\Core\Include/core_cm4.h **** #define MPU_RASR_XN_Pos                    28U                                            /*!< MPU 
1276:.\CMSIS\Core\Include/core_cm4.h **** #define MPU_RASR_XN_Msk                    (1UL << MPU_RASR_XN_Pos)                       /*!< MPU 
1277:.\CMSIS\Core\Include/core_cm4.h **** 
1278:.\CMSIS\Core\Include/core_cm4.h **** #define MPU_RASR_AP_Pos                    24U                                            /*!< MPU 
1279:.\CMSIS\Core\Include/core_cm4.h **** #define MPU_RASR_AP_Msk                    (0x7UL << MPU_RASR_AP_Pos)                     /*!< MPU 
1280:.\CMSIS\Core\Include/core_cm4.h **** 
1281:.\CMSIS\Core\Include/core_cm4.h **** #define MPU_RASR_TEX_Pos                   19U                                            /*!< MPU 
1282:.\CMSIS\Core\Include/core_cm4.h **** #define MPU_RASR_TEX_Msk                   (0x7UL << MPU_RASR_TEX_Pos)                    /*!< MPU 
1283:.\CMSIS\Core\Include/core_cm4.h **** 
1284:.\CMSIS\Core\Include/core_cm4.h **** #define MPU_RASR_S_Pos                     18U                                            /*!< MPU 
1285:.\CMSIS\Core\Include/core_cm4.h **** #define MPU_RASR_S_Msk                     (1UL << MPU_RASR_S_Pos)                        /*!< MPU 
1286:.\CMSIS\Core\Include/core_cm4.h **** 
1287:.\CMSIS\Core\Include/core_cm4.h **** #define MPU_RASR_C_Pos                     17U                                            /*!< MPU 
1288:.\CMSIS\Core\Include/core_cm4.h **** #define MPU_RASR_C_Msk                     (1UL << MPU_RASR_C_Pos)                        /*!< MPU 
1289:.\CMSIS\Core\Include/core_cm4.h **** 
1290:.\CMSIS\Core\Include/core_cm4.h **** #define MPU_RASR_B_Pos                     16U                                            /*!< MPU 
1291:.\CMSIS\Core\Include/core_cm4.h **** #define MPU_RASR_B_Msk                     (1UL << MPU_RASR_B_Pos)                        /*!< MPU 
1292:.\CMSIS\Core\Include/core_cm4.h **** 
1293:.\CMSIS\Core\Include/core_cm4.h **** #define MPU_RASR_SRD_Pos                    8U                                            /*!< MPU 
1294:.\CMSIS\Core\Include/core_cm4.h **** #define MPU_RASR_SRD_Msk                   (0xFFUL << MPU_RASR_SRD_Pos)                   /*!< MPU 
1295:.\CMSIS\Core\Include/core_cm4.h **** 
1296:.\CMSIS\Core\Include/core_cm4.h **** #define MPU_RASR_SIZE_Pos                   1U                                            /*!< MPU 
1297:.\CMSIS\Core\Include/core_cm4.h **** #define MPU_RASR_SIZE_Msk                  (0x1FUL << MPU_RASR_SIZE_Pos)                  /*!< MPU 
1298:.\CMSIS\Core\Include/core_cm4.h **** 
1299:.\CMSIS\Core\Include/core_cm4.h **** #define MPU_RASR_ENABLE_Pos                 0U                                            /*!< MPU 
1300:.\CMSIS\Core\Include/core_cm4.h **** #define MPU_RASR_ENABLE_Msk                (1UL /*<< MPU_RASR_ENABLE_Pos*/)               /*!< MPU 
1301:.\CMSIS\Core\Include/core_cm4.h **** 
1302:.\CMSIS\Core\Include/core_cm4.h **** /*@} end of group CMSIS_MPU */
1303:.\CMSIS\Core\Include/core_cm4.h **** #endif /* defined (__MPU_PRESENT) && (__MPU_PRESENT == 1U) */
1304:.\CMSIS\Core\Include/core_cm4.h **** 
1305:.\CMSIS\Core\Include/core_cm4.h **** 
1306:.\CMSIS\Core\Include/core_cm4.h **** /**
1307:.\CMSIS\Core\Include/core_cm4.h ****   \ingroup  CMSIS_core_register
1308:.\CMSIS\Core\Include/core_cm4.h ****   \defgroup CMSIS_FPU     Floating Point Unit (FPU)
1309:.\CMSIS\Core\Include/core_cm4.h ****   \brief    Type definitions for the Floating Point Unit (FPU)
1310:.\CMSIS\Core\Include/core_cm4.h ****   @{
1311:.\CMSIS\Core\Include/core_cm4.h ****  */
1312:.\CMSIS\Core\Include/core_cm4.h **** 
1313:.\CMSIS\Core\Include/core_cm4.h **** /**
1314:.\CMSIS\Core\Include/core_cm4.h ****   \brief  Structure type to access the Floating Point Unit (FPU).
1315:.\CMSIS\Core\Include/core_cm4.h ****  */
1316:.\CMSIS\Core\Include/core_cm4.h **** typedef struct
1317:.\CMSIS\Core\Include/core_cm4.h **** {
1318:.\CMSIS\Core\Include/core_cm4.h ****         uint32_t RESERVED0[1U];
1319:.\CMSIS\Core\Include/core_cm4.h ****   __IOM uint32_t FPCCR;                  /*!< Offset: 0x004 (R/W)  Floating-Point Context Control R
1320:.\CMSIS\Core\Include/core_cm4.h ****   __IOM uint32_t FPCAR;                  /*!< Offset: 0x008 (R/W)  Floating-Point Context Address R
1321:.\CMSIS\Core\Include/core_cm4.h ****   __IOM uint32_t FPDSCR;                 /*!< Offset: 0x00C (R/W)  Floating-Point Default Status Co
1322:.\CMSIS\Core\Include/core_cm4.h ****   __IM  uint32_t MVFR0;                  /*!< Offset: 0x010 (R/ )  Media and FP Feature Register 0 
1323:.\CMSIS\Core\Include/core_cm4.h ****   __IM  uint32_t MVFR1;                  /*!< Offset: 0x014 (R/ )  Media and FP Feature Register 1 
1324:.\CMSIS\Core\Include/core_cm4.h **** } FPU_Type;
1325:.\CMSIS\Core\Include/core_cm4.h **** 
1326:.\CMSIS\Core\Include/core_cm4.h **** /* Floating-Point Context Control Register Definitions */
1327:.\CMSIS\Core\Include/core_cm4.h **** #define FPU_FPCCR_ASPEN_Pos                31U                                            /*!< FPCC
1328:.\CMSIS\Core\Include/core_cm4.h **** #define FPU_FPCCR_ASPEN_Msk                (1UL << FPU_FPCCR_ASPEN_Pos)                   /*!< FPCC
1329:.\CMSIS\Core\Include/core_cm4.h **** 
1330:.\CMSIS\Core\Include/core_cm4.h **** #define FPU_FPCCR_LSPEN_Pos                30U                                            /*!< FPCC
1331:.\CMSIS\Core\Include/core_cm4.h **** #define FPU_FPCCR_LSPEN_Msk                (1UL << FPU_FPCCR_LSPEN_Pos)                   /*!< FPCC
ARM GAS  C:\Users\nicpa\AppData\Local\Temp\ccawORUH.s 			page 42


1332:.\CMSIS\Core\Include/core_cm4.h **** 
1333:.\CMSIS\Core\Include/core_cm4.h **** #define FPU_FPCCR_MONRDY_Pos                8U                                            /*!< FPCC
1334:.\CMSIS\Core\Include/core_cm4.h **** #define FPU_FPCCR_MONRDY_Msk               (1UL << FPU_FPCCR_MONRDY_Pos)                  /*!< FPCC
1335:.\CMSIS\Core\Include/core_cm4.h **** 
1336:.\CMSIS\Core\Include/core_cm4.h **** #define FPU_FPCCR_BFRDY_Pos                 6U                                            /*!< FPCC
1337:.\CMSIS\Core\Include/core_cm4.h **** #define FPU_FPCCR_BFRDY_Msk                (1UL << FPU_FPCCR_BFRDY_Pos)                   /*!< FPCC
1338:.\CMSIS\Core\Include/core_cm4.h **** 
1339:.\CMSIS\Core\Include/core_cm4.h **** #define FPU_FPCCR_MMRDY_Pos                 5U                                            /*!< FPCC
1340:.\CMSIS\Core\Include/core_cm4.h **** #define FPU_FPCCR_MMRDY_Msk                (1UL << FPU_FPCCR_MMRDY_Pos)                   /*!< FPCC
1341:.\CMSIS\Core\Include/core_cm4.h **** 
1342:.\CMSIS\Core\Include/core_cm4.h **** #define FPU_FPCCR_HFRDY_Pos                 4U                                            /*!< FPCC
1343:.\CMSIS\Core\Include/core_cm4.h **** #define FPU_FPCCR_HFRDY_Msk                (1UL << FPU_FPCCR_HFRDY_Pos)                   /*!< FPCC
1344:.\CMSIS\Core\Include/core_cm4.h **** 
1345:.\CMSIS\Core\Include/core_cm4.h **** #define FPU_FPCCR_THREAD_Pos                3U                                            /*!< FPCC
1346:.\CMSIS\Core\Include/core_cm4.h **** #define FPU_FPCCR_THREAD_Msk               (1UL << FPU_FPCCR_THREAD_Pos)                  /*!< FPCC
1347:.\CMSIS\Core\Include/core_cm4.h **** 
1348:.\CMSIS\Core\Include/core_cm4.h **** #define FPU_FPCCR_USER_Pos                  1U                                            /*!< FPCC
1349:.\CMSIS\Core\Include/core_cm4.h **** #define FPU_FPCCR_USER_Msk                 (1UL << FPU_FPCCR_USER_Pos)                    /*!< FPCC
1350:.\CMSIS\Core\Include/core_cm4.h **** 
1351:.\CMSIS\Core\Include/core_cm4.h **** #define FPU_FPCCR_LSPACT_Pos                0U                                            /*!< FPCC
1352:.\CMSIS\Core\Include/core_cm4.h **** #define FPU_FPCCR_LSPACT_Msk               (1UL /*<< FPU_FPCCR_LSPACT_Pos*/)              /*!< FPCC
1353:.\CMSIS\Core\Include/core_cm4.h **** 
1354:.\CMSIS\Core\Include/core_cm4.h **** /* Floating-Point Context Address Register Definitions */
1355:.\CMSIS\Core\Include/core_cm4.h **** #define FPU_FPCAR_ADDRESS_Pos               3U                                            /*!< FPCA
1356:.\CMSIS\Core\Include/core_cm4.h **** #define FPU_FPCAR_ADDRESS_Msk              (0x1FFFFFFFUL << FPU_FPCAR_ADDRESS_Pos)        /*!< FPCA
1357:.\CMSIS\Core\Include/core_cm4.h **** 
1358:.\CMSIS\Core\Include/core_cm4.h **** /* Floating-Point Default Status Control Register Definitions */
1359:.\CMSIS\Core\Include/core_cm4.h **** #define FPU_FPDSCR_AHP_Pos                 26U                                            /*!< FPDS
1360:.\CMSIS\Core\Include/core_cm4.h **** #define FPU_FPDSCR_AHP_Msk                 (1UL << FPU_FPDSCR_AHP_Pos)                    /*!< FPDS
1361:.\CMSIS\Core\Include/core_cm4.h **** 
1362:.\CMSIS\Core\Include/core_cm4.h **** #define FPU_FPDSCR_DN_Pos                  25U                                            /*!< FPDS
1363:.\CMSIS\Core\Include/core_cm4.h **** #define FPU_FPDSCR_DN_Msk                  (1UL << FPU_FPDSCR_DN_Pos)                     /*!< FPDS
1364:.\CMSIS\Core\Include/core_cm4.h **** 
1365:.\CMSIS\Core\Include/core_cm4.h **** #define FPU_FPDSCR_FZ_Pos                  24U                                            /*!< FPDS
1366:.\CMSIS\Core\Include/core_cm4.h **** #define FPU_FPDSCR_FZ_Msk                  (1UL << FPU_FPDSCR_FZ_Pos)                     /*!< FPDS
1367:.\CMSIS\Core\Include/core_cm4.h **** 
1368:.\CMSIS\Core\Include/core_cm4.h **** #define FPU_FPDSCR_RMode_Pos               22U                                            /*!< FPDS
1369:.\CMSIS\Core\Include/core_cm4.h **** #define FPU_FPDSCR_RMode_Msk               (3UL << FPU_FPDSCR_RMode_Pos)                  /*!< FPDS
1370:.\CMSIS\Core\Include/core_cm4.h **** 
1371:.\CMSIS\Core\Include/core_cm4.h **** /* Media and FP Feature Register 0 Definitions */
1372:.\CMSIS\Core\Include/core_cm4.h **** #define FPU_MVFR0_FP_rounding_modes_Pos    28U                                            /*!< MVFR
1373:.\CMSIS\Core\Include/core_cm4.h **** #define FPU_MVFR0_FP_rounding_modes_Msk    (0xFUL << FPU_MVFR0_FP_rounding_modes_Pos)     /*!< MVFR
1374:.\CMSIS\Core\Include/core_cm4.h **** 
1375:.\CMSIS\Core\Include/core_cm4.h **** #define FPU_MVFR0_Short_vectors_Pos        24U                                            /*!< MVFR
1376:.\CMSIS\Core\Include/core_cm4.h **** #define FPU_MVFR0_Short_vectors_Msk        (0xFUL << FPU_MVFR0_Short_vectors_Pos)         /*!< MVFR
1377:.\CMSIS\Core\Include/core_cm4.h **** 
1378:.\CMSIS\Core\Include/core_cm4.h **** #define FPU_MVFR0_Square_root_Pos          20U                                            /*!< MVFR
1379:.\CMSIS\Core\Include/core_cm4.h **** #define FPU_MVFR0_Square_root_Msk          (0xFUL << FPU_MVFR0_Square_root_Pos)           /*!< MVFR
1380:.\CMSIS\Core\Include/core_cm4.h **** 
1381:.\CMSIS\Core\Include/core_cm4.h **** #define FPU_MVFR0_Divide_Pos               16U                                            /*!< MVFR
1382:.\CMSIS\Core\Include/core_cm4.h **** #define FPU_MVFR0_Divide_Msk               (0xFUL << FPU_MVFR0_Divide_Pos)                /*!< MVFR
1383:.\CMSIS\Core\Include/core_cm4.h **** 
1384:.\CMSIS\Core\Include/core_cm4.h **** #define FPU_MVFR0_FP_excep_trapping_Pos    12U                                            /*!< MVFR
1385:.\CMSIS\Core\Include/core_cm4.h **** #define FPU_MVFR0_FP_excep_trapping_Msk    (0xFUL << FPU_MVFR0_FP_excep_trapping_Pos)     /*!< MVFR
1386:.\CMSIS\Core\Include/core_cm4.h **** 
1387:.\CMSIS\Core\Include/core_cm4.h **** #define FPU_MVFR0_Double_precision_Pos      8U                                            /*!< MVFR
1388:.\CMSIS\Core\Include/core_cm4.h **** #define FPU_MVFR0_Double_precision_Msk     (0xFUL << FPU_MVFR0_Double_precision_Pos)      /*!< MVFR
ARM GAS  C:\Users\nicpa\AppData\Local\Temp\ccawORUH.s 			page 43


1389:.\CMSIS\Core\Include/core_cm4.h **** 
1390:.\CMSIS\Core\Include/core_cm4.h **** #define FPU_MVFR0_Single_precision_Pos      4U                                            /*!< MVFR
1391:.\CMSIS\Core\Include/core_cm4.h **** #define FPU_MVFR0_Single_precision_Msk     (0xFUL << FPU_MVFR0_Single_precision_Pos)      /*!< MVFR
1392:.\CMSIS\Core\Include/core_cm4.h **** 
1393:.\CMSIS\Core\Include/core_cm4.h **** #define FPU_MVFR0_A_SIMD_registers_Pos      0U                                            /*!< MVFR
1394:.\CMSIS\Core\Include/core_cm4.h **** #define FPU_MVFR0_A_SIMD_registers_Msk     (0xFUL /*<< FPU_MVFR0_A_SIMD_registers_Pos*/)  /*!< MVFR
1395:.\CMSIS\Core\Include/core_cm4.h **** 
1396:.\CMSIS\Core\Include/core_cm4.h **** /* Media and FP Feature Register 1 Definitions */
1397:.\CMSIS\Core\Include/core_cm4.h **** #define FPU_MVFR1_FP_fused_MAC_Pos         28U                                            /*!< MVFR
1398:.\CMSIS\Core\Include/core_cm4.h **** #define FPU_MVFR1_FP_fused_MAC_Msk         (0xFUL << FPU_MVFR1_FP_fused_MAC_Pos)          /*!< MVFR
1399:.\CMSIS\Core\Include/core_cm4.h **** 
1400:.\CMSIS\Core\Include/core_cm4.h **** #define FPU_MVFR1_FP_HPFP_Pos              24U                                            /*!< MVFR
1401:.\CMSIS\Core\Include/core_cm4.h **** #define FPU_MVFR1_FP_HPFP_Msk              (0xFUL << FPU_MVFR1_FP_HPFP_Pos)               /*!< MVFR
1402:.\CMSIS\Core\Include/core_cm4.h **** 
1403:.\CMSIS\Core\Include/core_cm4.h **** #define FPU_MVFR1_D_NaN_mode_Pos            4U                                            /*!< MVFR
1404:.\CMSIS\Core\Include/core_cm4.h **** #define FPU_MVFR1_D_NaN_mode_Msk           (0xFUL << FPU_MVFR1_D_NaN_mode_Pos)            /*!< MVFR
1405:.\CMSIS\Core\Include/core_cm4.h **** 
1406:.\CMSIS\Core\Include/core_cm4.h **** #define FPU_MVFR1_FtZ_mode_Pos              0U                                            /*!< MVFR
1407:.\CMSIS\Core\Include/core_cm4.h **** #define FPU_MVFR1_FtZ_mode_Msk             (0xFUL /*<< FPU_MVFR1_FtZ_mode_Pos*/)          /*!< MVFR
1408:.\CMSIS\Core\Include/core_cm4.h **** 
1409:.\CMSIS\Core\Include/core_cm4.h **** /*@} end of group CMSIS_FPU */
1410:.\CMSIS\Core\Include/core_cm4.h **** 
1411:.\CMSIS\Core\Include/core_cm4.h **** 
1412:.\CMSIS\Core\Include/core_cm4.h **** /**
1413:.\CMSIS\Core\Include/core_cm4.h ****   \ingroup  CMSIS_core_register
1414:.\CMSIS\Core\Include/core_cm4.h ****   \defgroup CMSIS_CoreDebug       Core Debug Registers (CoreDebug)
1415:.\CMSIS\Core\Include/core_cm4.h ****   \brief    Type definitions for the Core Debug Registers
1416:.\CMSIS\Core\Include/core_cm4.h ****   @{
1417:.\CMSIS\Core\Include/core_cm4.h ****  */
1418:.\CMSIS\Core\Include/core_cm4.h **** 
1419:.\CMSIS\Core\Include/core_cm4.h **** /**
1420:.\CMSIS\Core\Include/core_cm4.h ****   \brief  Structure type to access the Core Debug Register (CoreDebug).
1421:.\CMSIS\Core\Include/core_cm4.h ****  */
1422:.\CMSIS\Core\Include/core_cm4.h **** typedef struct
1423:.\CMSIS\Core\Include/core_cm4.h **** {
1424:.\CMSIS\Core\Include/core_cm4.h ****   __IOM uint32_t DHCSR;                  /*!< Offset: 0x000 (R/W)  Debug Halting Control and Status
1425:.\CMSIS\Core\Include/core_cm4.h ****   __OM  uint32_t DCRSR;                  /*!< Offset: 0x004 ( /W)  Debug Core Register Selector Reg
1426:.\CMSIS\Core\Include/core_cm4.h ****   __IOM uint32_t DCRDR;                  /*!< Offset: 0x008 (R/W)  Debug Core Register Data Registe
1427:.\CMSIS\Core\Include/core_cm4.h ****   __IOM uint32_t DEMCR;                  /*!< Offset: 0x00C (R/W)  Debug Exception and Monitor Cont
1428:.\CMSIS\Core\Include/core_cm4.h **** } CoreDebug_Type;
1429:.\CMSIS\Core\Include/core_cm4.h **** 
1430:.\CMSIS\Core\Include/core_cm4.h **** /* Debug Halting Control and Status Register Definitions */
1431:.\CMSIS\Core\Include/core_cm4.h **** #define CoreDebug_DHCSR_DBGKEY_Pos         16U                                            /*!< Core
1432:.\CMSIS\Core\Include/core_cm4.h **** #define CoreDebug_DHCSR_DBGKEY_Msk         (0xFFFFUL << CoreDebug_DHCSR_DBGKEY_Pos)       /*!< Core
1433:.\CMSIS\Core\Include/core_cm4.h **** 
1434:.\CMSIS\Core\Include/core_cm4.h **** #define CoreDebug_DHCSR_S_RESET_ST_Pos     25U                                            /*!< Core
1435:.\CMSIS\Core\Include/core_cm4.h **** #define CoreDebug_DHCSR_S_RESET_ST_Msk     (1UL << CoreDebug_DHCSR_S_RESET_ST_Pos)        /*!< Core
1436:.\CMSIS\Core\Include/core_cm4.h **** 
1437:.\CMSIS\Core\Include/core_cm4.h **** #define CoreDebug_DHCSR_S_RETIRE_ST_Pos    24U                                            /*!< Core
1438:.\CMSIS\Core\Include/core_cm4.h **** #define CoreDebug_DHCSR_S_RETIRE_ST_Msk    (1UL << CoreDebug_DHCSR_S_RETIRE_ST_Pos)       /*!< Core
1439:.\CMSIS\Core\Include/core_cm4.h **** 
1440:.\CMSIS\Core\Include/core_cm4.h **** #define CoreDebug_DHCSR_S_LOCKUP_Pos       19U                                            /*!< Core
1441:.\CMSIS\Core\Include/core_cm4.h **** #define CoreDebug_DHCSR_S_LOCKUP_Msk       (1UL << CoreDebug_DHCSR_S_LOCKUP_Pos)          /*!< Core
1442:.\CMSIS\Core\Include/core_cm4.h **** 
1443:.\CMSIS\Core\Include/core_cm4.h **** #define CoreDebug_DHCSR_S_SLEEP_Pos        18U                                            /*!< Core
1444:.\CMSIS\Core\Include/core_cm4.h **** #define CoreDebug_DHCSR_S_SLEEP_Msk        (1UL << CoreDebug_DHCSR_S_SLEEP_Pos)           /*!< Core
1445:.\CMSIS\Core\Include/core_cm4.h **** 
ARM GAS  C:\Users\nicpa\AppData\Local\Temp\ccawORUH.s 			page 44


1446:.\CMSIS\Core\Include/core_cm4.h **** #define CoreDebug_DHCSR_S_HALT_Pos         17U                                            /*!< Core
1447:.\CMSIS\Core\Include/core_cm4.h **** #define CoreDebug_DHCSR_S_HALT_Msk         (1UL << CoreDebug_DHCSR_S_HALT_Pos)            /*!< Core
1448:.\CMSIS\Core\Include/core_cm4.h **** 
1449:.\CMSIS\Core\Include/core_cm4.h **** #define CoreDebug_DHCSR_S_REGRDY_Pos       16U                                            /*!< Core
1450:.\CMSIS\Core\Include/core_cm4.h **** #define CoreDebug_DHCSR_S_REGRDY_Msk       (1UL << CoreDebug_DHCSR_S_REGRDY_Pos)          /*!< Core
1451:.\CMSIS\Core\Include/core_cm4.h **** 
1452:.\CMSIS\Core\Include/core_cm4.h **** #define CoreDebug_DHCSR_C_SNAPSTALL_Pos     5U                                            /*!< Core
1453:.\CMSIS\Core\Include/core_cm4.h **** #define CoreDebug_DHCSR_C_SNAPSTALL_Msk    (1UL << CoreDebug_DHCSR_C_SNAPSTALL_Pos)       /*!< Core
1454:.\CMSIS\Core\Include/core_cm4.h **** 
1455:.\CMSIS\Core\Include/core_cm4.h **** #define CoreDebug_DHCSR_C_MASKINTS_Pos      3U                                            /*!< Core
1456:.\CMSIS\Core\Include/core_cm4.h **** #define CoreDebug_DHCSR_C_MASKINTS_Msk     (1UL << CoreDebug_DHCSR_C_MASKINTS_Pos)        /*!< Core
1457:.\CMSIS\Core\Include/core_cm4.h **** 
1458:.\CMSIS\Core\Include/core_cm4.h **** #define CoreDebug_DHCSR_C_STEP_Pos          2U                                            /*!< Core
1459:.\CMSIS\Core\Include/core_cm4.h **** #define CoreDebug_DHCSR_C_STEP_Msk         (1UL << CoreDebug_DHCSR_C_STEP_Pos)            /*!< Core
1460:.\CMSIS\Core\Include/core_cm4.h **** 
1461:.\CMSIS\Core\Include/core_cm4.h **** #define CoreDebug_DHCSR_C_HALT_Pos          1U                                            /*!< Core
1462:.\CMSIS\Core\Include/core_cm4.h **** #define CoreDebug_DHCSR_C_HALT_Msk         (1UL << CoreDebug_DHCSR_C_HALT_Pos)            /*!< Core
1463:.\CMSIS\Core\Include/core_cm4.h **** 
1464:.\CMSIS\Core\Include/core_cm4.h **** #define CoreDebug_DHCSR_C_DEBUGEN_Pos       0U                                            /*!< Core
1465:.\CMSIS\Core\Include/core_cm4.h **** #define CoreDebug_DHCSR_C_DEBUGEN_Msk      (1UL /*<< CoreDebug_DHCSR_C_DEBUGEN_Pos*/)     /*!< Core
1466:.\CMSIS\Core\Include/core_cm4.h **** 
1467:.\CMSIS\Core\Include/core_cm4.h **** /* Debug Core Register Selector Register Definitions */
1468:.\CMSIS\Core\Include/core_cm4.h **** #define CoreDebug_DCRSR_REGWnR_Pos         16U                                            /*!< Core
1469:.\CMSIS\Core\Include/core_cm4.h **** #define CoreDebug_DCRSR_REGWnR_Msk         (1UL << CoreDebug_DCRSR_REGWnR_Pos)            /*!< Core
1470:.\CMSIS\Core\Include/core_cm4.h **** 
1471:.\CMSIS\Core\Include/core_cm4.h **** #define CoreDebug_DCRSR_REGSEL_Pos          0U                                            /*!< Core
1472:.\CMSIS\Core\Include/core_cm4.h **** #define CoreDebug_DCRSR_REGSEL_Msk         (0x1FUL /*<< CoreDebug_DCRSR_REGSEL_Pos*/)     /*!< Core
1473:.\CMSIS\Core\Include/core_cm4.h **** 
1474:.\CMSIS\Core\Include/core_cm4.h **** /* Debug Exception and Monitor Control Register Definitions */
1475:.\CMSIS\Core\Include/core_cm4.h **** #define CoreDebug_DEMCR_TRCENA_Pos         24U                                            /*!< Core
1476:.\CMSIS\Core\Include/core_cm4.h **** #define CoreDebug_DEMCR_TRCENA_Msk         (1UL << CoreDebug_DEMCR_TRCENA_Pos)            /*!< Core
1477:.\CMSIS\Core\Include/core_cm4.h **** 
1478:.\CMSIS\Core\Include/core_cm4.h **** #define CoreDebug_DEMCR_MON_REQ_Pos        19U                                            /*!< Core
1479:.\CMSIS\Core\Include/core_cm4.h **** #define CoreDebug_DEMCR_MON_REQ_Msk        (1UL << CoreDebug_DEMCR_MON_REQ_Pos)           /*!< Core
1480:.\CMSIS\Core\Include/core_cm4.h **** 
1481:.\CMSIS\Core\Include/core_cm4.h **** #define CoreDebug_DEMCR_MON_STEP_Pos       18U                                            /*!< Core
1482:.\CMSIS\Core\Include/core_cm4.h **** #define CoreDebug_DEMCR_MON_STEP_Msk       (1UL << CoreDebug_DEMCR_MON_STEP_Pos)          /*!< Core
1483:.\CMSIS\Core\Include/core_cm4.h **** 
1484:.\CMSIS\Core\Include/core_cm4.h **** #define CoreDebug_DEMCR_MON_PEND_Pos       17U                                            /*!< Core
1485:.\CMSIS\Core\Include/core_cm4.h **** #define CoreDebug_DEMCR_MON_PEND_Msk       (1UL << CoreDebug_DEMCR_MON_PEND_Pos)          /*!< Core
1486:.\CMSIS\Core\Include/core_cm4.h **** 
1487:.\CMSIS\Core\Include/core_cm4.h **** #define CoreDebug_DEMCR_MON_EN_Pos         16U                                            /*!< Core
1488:.\CMSIS\Core\Include/core_cm4.h **** #define CoreDebug_DEMCR_MON_EN_Msk         (1UL << CoreDebug_DEMCR_MON_EN_Pos)            /*!< Core
1489:.\CMSIS\Core\Include/core_cm4.h **** 
1490:.\CMSIS\Core\Include/core_cm4.h **** #define CoreDebug_DEMCR_VC_HARDERR_Pos     10U                                            /*!< Core
1491:.\CMSIS\Core\Include/core_cm4.h **** #define CoreDebug_DEMCR_VC_HARDERR_Msk     (1UL << CoreDebug_DEMCR_VC_HARDERR_Pos)        /*!< Core
1492:.\CMSIS\Core\Include/core_cm4.h **** 
1493:.\CMSIS\Core\Include/core_cm4.h **** #define CoreDebug_DEMCR_VC_INTERR_Pos       9U                                            /*!< Core
1494:.\CMSIS\Core\Include/core_cm4.h **** #define CoreDebug_DEMCR_VC_INTERR_Msk      (1UL << CoreDebug_DEMCR_VC_INTERR_Pos)         /*!< Core
1495:.\CMSIS\Core\Include/core_cm4.h **** 
1496:.\CMSIS\Core\Include/core_cm4.h **** #define CoreDebug_DEMCR_VC_BUSERR_Pos       8U                                            /*!< Core
1497:.\CMSIS\Core\Include/core_cm4.h **** #define CoreDebug_DEMCR_VC_BUSERR_Msk      (1UL << CoreDebug_DEMCR_VC_BUSERR_Pos)         /*!< Core
1498:.\CMSIS\Core\Include/core_cm4.h **** 
1499:.\CMSIS\Core\Include/core_cm4.h **** #define CoreDebug_DEMCR_VC_STATERR_Pos      7U                                            /*!< Core
1500:.\CMSIS\Core\Include/core_cm4.h **** #define CoreDebug_DEMCR_VC_STATERR_Msk     (1UL << CoreDebug_DEMCR_VC_STATERR_Pos)        /*!< Core
1501:.\CMSIS\Core\Include/core_cm4.h **** 
1502:.\CMSIS\Core\Include/core_cm4.h **** #define CoreDebug_DEMCR_VC_CHKERR_Pos       6U                                            /*!< Core
ARM GAS  C:\Users\nicpa\AppData\Local\Temp\ccawORUH.s 			page 45


1503:.\CMSIS\Core\Include/core_cm4.h **** #define CoreDebug_DEMCR_VC_CHKERR_Msk      (1UL << CoreDebug_DEMCR_VC_CHKERR_Pos)         /*!< Core
1504:.\CMSIS\Core\Include/core_cm4.h **** 
1505:.\CMSIS\Core\Include/core_cm4.h **** #define CoreDebug_DEMCR_VC_NOCPERR_Pos      5U                                            /*!< Core
1506:.\CMSIS\Core\Include/core_cm4.h **** #define CoreDebug_DEMCR_VC_NOCPERR_Msk     (1UL << CoreDebug_DEMCR_VC_NOCPERR_Pos)        /*!< Core
1507:.\CMSIS\Core\Include/core_cm4.h **** 
1508:.\CMSIS\Core\Include/core_cm4.h **** #define CoreDebug_DEMCR_VC_MMERR_Pos        4U                                            /*!< Core
1509:.\CMSIS\Core\Include/core_cm4.h **** #define CoreDebug_DEMCR_VC_MMERR_Msk       (1UL << CoreDebug_DEMCR_VC_MMERR_Pos)          /*!< Core
1510:.\CMSIS\Core\Include/core_cm4.h **** 
1511:.\CMSIS\Core\Include/core_cm4.h **** #define CoreDebug_DEMCR_VC_CORERESET_Pos    0U                                            /*!< Core
1512:.\CMSIS\Core\Include/core_cm4.h **** #define CoreDebug_DEMCR_VC_CORERESET_Msk   (1UL /*<< CoreDebug_DEMCR_VC_CORERESET_Pos*/)  /*!< Core
1513:.\CMSIS\Core\Include/core_cm4.h **** 
1514:.\CMSIS\Core\Include/core_cm4.h **** /*@} end of group CMSIS_CoreDebug */
1515:.\CMSIS\Core\Include/core_cm4.h **** 
1516:.\CMSIS\Core\Include/core_cm4.h **** 
1517:.\CMSIS\Core\Include/core_cm4.h **** /**
1518:.\CMSIS\Core\Include/core_cm4.h ****   \ingroup    CMSIS_core_register
1519:.\CMSIS\Core\Include/core_cm4.h ****   \defgroup   CMSIS_core_bitfield     Core register bit field macros
1520:.\CMSIS\Core\Include/core_cm4.h ****   \brief      Macros for use with bit field definitions (xxx_Pos, xxx_Msk).
1521:.\CMSIS\Core\Include/core_cm4.h ****   @{
1522:.\CMSIS\Core\Include/core_cm4.h ****  */
1523:.\CMSIS\Core\Include/core_cm4.h **** 
1524:.\CMSIS\Core\Include/core_cm4.h **** /**
1525:.\CMSIS\Core\Include/core_cm4.h ****   \brief   Mask and shift a bit field value for use in a register bit range.
1526:.\CMSIS\Core\Include/core_cm4.h ****   \param[in] field  Name of the register bit field.
1527:.\CMSIS\Core\Include/core_cm4.h ****   \param[in] value  Value of the bit field. This parameter is interpreted as an uint32_t type.
1528:.\CMSIS\Core\Include/core_cm4.h ****   \return           Masked and shifted value.
1529:.\CMSIS\Core\Include/core_cm4.h **** */
1530:.\CMSIS\Core\Include/core_cm4.h **** #define _VAL2FLD(field, value)    (((uint32_t)(value) << field ## _Pos) & field ## _Msk)
1531:.\CMSIS\Core\Include/core_cm4.h **** 
1532:.\CMSIS\Core\Include/core_cm4.h **** /**
1533:.\CMSIS\Core\Include/core_cm4.h ****   \brief     Mask and shift a register value to extract a bit filed value.
1534:.\CMSIS\Core\Include/core_cm4.h ****   \param[in] field  Name of the register bit field.
1535:.\CMSIS\Core\Include/core_cm4.h ****   \param[in] value  Value of register. This parameter is interpreted as an uint32_t type.
1536:.\CMSIS\Core\Include/core_cm4.h ****   \return           Masked and shifted bit field value.
1537:.\CMSIS\Core\Include/core_cm4.h **** */
1538:.\CMSIS\Core\Include/core_cm4.h **** #define _FLD2VAL(field, value)    (((uint32_t)(value) & field ## _Msk) >> field ## _Pos)
1539:.\CMSIS\Core\Include/core_cm4.h **** 
1540:.\CMSIS\Core\Include/core_cm4.h **** /*@} end of group CMSIS_core_bitfield */
1541:.\CMSIS\Core\Include/core_cm4.h **** 
1542:.\CMSIS\Core\Include/core_cm4.h **** 
1543:.\CMSIS\Core\Include/core_cm4.h **** /**
1544:.\CMSIS\Core\Include/core_cm4.h ****   \ingroup    CMSIS_core_register
1545:.\CMSIS\Core\Include/core_cm4.h ****   \defgroup   CMSIS_core_base     Core Definitions
1546:.\CMSIS\Core\Include/core_cm4.h ****   \brief      Definitions for base addresses, unions, and structures.
1547:.\CMSIS\Core\Include/core_cm4.h ****   @{
1548:.\CMSIS\Core\Include/core_cm4.h ****  */
1549:.\CMSIS\Core\Include/core_cm4.h **** 
1550:.\CMSIS\Core\Include/core_cm4.h **** /* Memory mapping of Core Hardware */
1551:.\CMSIS\Core\Include/core_cm4.h **** #define SCS_BASE            (0xE000E000UL)                            /*!< System Control Space Bas
1552:.\CMSIS\Core\Include/core_cm4.h **** #define ITM_BASE            (0xE0000000UL)                            /*!< ITM Base Address */
1553:.\CMSIS\Core\Include/core_cm4.h **** #define DWT_BASE            (0xE0001000UL)                            /*!< DWT Base Address */
1554:.\CMSIS\Core\Include/core_cm4.h **** #define TPI_BASE            (0xE0040000UL)                            /*!< TPI Base Address */
1555:.\CMSIS\Core\Include/core_cm4.h **** #define CoreDebug_BASE      (0xE000EDF0UL)                            /*!< Core Debug Base Address 
1556:.\CMSIS\Core\Include/core_cm4.h **** #define SysTick_BASE        (SCS_BASE +  0x0010UL)                    /*!< SysTick Base Address */
1557:.\CMSIS\Core\Include/core_cm4.h **** #define NVIC_BASE           (SCS_BASE +  0x0100UL)                    /*!< NVIC Base Address */
1558:.\CMSIS\Core\Include/core_cm4.h **** #define SCB_BASE            (SCS_BASE +  0x0D00UL)                    /*!< System Control Block Bas
1559:.\CMSIS\Core\Include/core_cm4.h **** 
ARM GAS  C:\Users\nicpa\AppData\Local\Temp\ccawORUH.s 			page 46


1560:.\CMSIS\Core\Include/core_cm4.h **** #define SCnSCB              ((SCnSCB_Type    *)     SCS_BASE      )   /*!< System control Register 
1561:.\CMSIS\Core\Include/core_cm4.h **** #define SCB                 ((SCB_Type       *)     SCB_BASE      )   /*!< SCB configuration struct
1562:.\CMSIS\Core\Include/core_cm4.h **** #define SysTick             ((SysTick_Type   *)     SysTick_BASE  )   /*!< SysTick configuration st
1563:.\CMSIS\Core\Include/core_cm4.h **** #define NVIC                ((NVIC_Type      *)     NVIC_BASE     )   /*!< NVIC configuration struc
1564:.\CMSIS\Core\Include/core_cm4.h **** #define ITM                 ((ITM_Type       *)     ITM_BASE      )   /*!< ITM configuration struct
1565:.\CMSIS\Core\Include/core_cm4.h **** #define DWT                 ((DWT_Type       *)     DWT_BASE      )   /*!< DWT configuration struct
1566:.\CMSIS\Core\Include/core_cm4.h **** #define TPI                 ((TPI_Type       *)     TPI_BASE      )   /*!< TPI configuration struct
1567:.\CMSIS\Core\Include/core_cm4.h **** #define CoreDebug           ((CoreDebug_Type *)     CoreDebug_BASE)   /*!< Core Debug configuration
1568:.\CMSIS\Core\Include/core_cm4.h **** 
1569:.\CMSIS\Core\Include/core_cm4.h **** #if defined (__MPU_PRESENT) && (__MPU_PRESENT == 1U)
1570:.\CMSIS\Core\Include/core_cm4.h ****   #define MPU_BASE          (SCS_BASE +  0x0D90UL)                    /*!< Memory Protection Unit *
1571:.\CMSIS\Core\Include/core_cm4.h ****   #define MPU               ((MPU_Type       *)     MPU_BASE      )   /*!< Memory Protection Unit *
1572:.\CMSIS\Core\Include/core_cm4.h **** #endif
1573:.\CMSIS\Core\Include/core_cm4.h **** 
1574:.\CMSIS\Core\Include/core_cm4.h **** #define FPU_BASE            (SCS_BASE +  0x0F30UL)                    /*!< Floating Point Unit */
1575:.\CMSIS\Core\Include/core_cm4.h **** #define FPU                 ((FPU_Type       *)     FPU_BASE      )   /*!< Floating Point Unit */
1576:.\CMSIS\Core\Include/core_cm4.h **** 
1577:.\CMSIS\Core\Include/core_cm4.h **** /*@} */
1578:.\CMSIS\Core\Include/core_cm4.h **** 
1579:.\CMSIS\Core\Include/core_cm4.h **** 
1580:.\CMSIS\Core\Include/core_cm4.h **** 
1581:.\CMSIS\Core\Include/core_cm4.h **** /*******************************************************************************
1582:.\CMSIS\Core\Include/core_cm4.h ****  *                Hardware Abstraction Layer
1583:.\CMSIS\Core\Include/core_cm4.h ****   Core Function Interface contains:
1584:.\CMSIS\Core\Include/core_cm4.h ****   - Core NVIC Functions
1585:.\CMSIS\Core\Include/core_cm4.h ****   - Core SysTick Functions
1586:.\CMSIS\Core\Include/core_cm4.h ****   - Core Debug Functions
1587:.\CMSIS\Core\Include/core_cm4.h ****   - Core Register Access Functions
1588:.\CMSIS\Core\Include/core_cm4.h ****  ******************************************************************************/
1589:.\CMSIS\Core\Include/core_cm4.h **** /**
1590:.\CMSIS\Core\Include/core_cm4.h ****   \defgroup CMSIS_Core_FunctionInterface Functions and Instructions Reference
1591:.\CMSIS\Core\Include/core_cm4.h **** */
1592:.\CMSIS\Core\Include/core_cm4.h **** 
1593:.\CMSIS\Core\Include/core_cm4.h **** 
1594:.\CMSIS\Core\Include/core_cm4.h **** 
1595:.\CMSIS\Core\Include/core_cm4.h **** /* ##########################   NVIC functions  #################################### */
1596:.\CMSIS\Core\Include/core_cm4.h **** /**
1597:.\CMSIS\Core\Include/core_cm4.h ****   \ingroup  CMSIS_Core_FunctionInterface
1598:.\CMSIS\Core\Include/core_cm4.h ****   \defgroup CMSIS_Core_NVICFunctions NVIC Functions
1599:.\CMSIS\Core\Include/core_cm4.h ****   \brief    Functions that manage interrupts and exceptions via the NVIC.
1600:.\CMSIS\Core\Include/core_cm4.h ****   @{
1601:.\CMSIS\Core\Include/core_cm4.h ****  */
1602:.\CMSIS\Core\Include/core_cm4.h **** 
1603:.\CMSIS\Core\Include/core_cm4.h **** #ifdef CMSIS_NVIC_VIRTUAL
1604:.\CMSIS\Core\Include/core_cm4.h ****   #ifndef CMSIS_NVIC_VIRTUAL_HEADER_FILE
1605:.\CMSIS\Core\Include/core_cm4.h ****     #define CMSIS_NVIC_VIRTUAL_HEADER_FILE "cmsis_nvic_virtual.h"
1606:.\CMSIS\Core\Include/core_cm4.h ****   #endif
1607:.\CMSIS\Core\Include/core_cm4.h ****   #include CMSIS_NVIC_VIRTUAL_HEADER_FILE
1608:.\CMSIS\Core\Include/core_cm4.h **** #else
1609:.\CMSIS\Core\Include/core_cm4.h ****   #define NVIC_SetPriorityGrouping    __NVIC_SetPriorityGrouping
1610:.\CMSIS\Core\Include/core_cm4.h ****   #define NVIC_GetPriorityGrouping    __NVIC_GetPriorityGrouping
1611:.\CMSIS\Core\Include/core_cm4.h ****   #define NVIC_EnableIRQ              __NVIC_EnableIRQ
1612:.\CMSIS\Core\Include/core_cm4.h ****   #define NVIC_GetEnableIRQ           __NVIC_GetEnableIRQ
1613:.\CMSIS\Core\Include/core_cm4.h ****   #define NVIC_DisableIRQ             __NVIC_DisableIRQ
1614:.\CMSIS\Core\Include/core_cm4.h ****   #define NVIC_GetPendingIRQ          __NVIC_GetPendingIRQ
1615:.\CMSIS\Core\Include/core_cm4.h ****   #define NVIC_SetPendingIRQ          __NVIC_SetPendingIRQ
1616:.\CMSIS\Core\Include/core_cm4.h ****   #define NVIC_ClearPendingIRQ        __NVIC_ClearPendingIRQ
ARM GAS  C:\Users\nicpa\AppData\Local\Temp\ccawORUH.s 			page 47


1617:.\CMSIS\Core\Include/core_cm4.h ****   #define NVIC_GetActive              __NVIC_GetActive
1618:.\CMSIS\Core\Include/core_cm4.h ****   #define NVIC_SetPriority            __NVIC_SetPriority
1619:.\CMSIS\Core\Include/core_cm4.h ****   #define NVIC_GetPriority            __NVIC_GetPriority
1620:.\CMSIS\Core\Include/core_cm4.h ****   #define NVIC_SystemReset            __NVIC_SystemReset
1621:.\CMSIS\Core\Include/core_cm4.h **** #endif /* CMSIS_NVIC_VIRTUAL */
1622:.\CMSIS\Core\Include/core_cm4.h **** 
1623:.\CMSIS\Core\Include/core_cm4.h **** #ifdef CMSIS_VECTAB_VIRTUAL
1624:.\CMSIS\Core\Include/core_cm4.h ****   #ifndef CMSIS_VECTAB_VIRTUAL_HEADER_FILE
1625:.\CMSIS\Core\Include/core_cm4.h ****    #define CMSIS_VECTAB_VIRTUAL_HEADER_FILE "cmsis_vectab_virtual.h"
1626:.\CMSIS\Core\Include/core_cm4.h ****   #endif
1627:.\CMSIS\Core\Include/core_cm4.h ****   #include CMSIS_VECTAB_VIRTUAL_HEADER_FILE
1628:.\CMSIS\Core\Include/core_cm4.h **** #else
1629:.\CMSIS\Core\Include/core_cm4.h ****   #define NVIC_SetVector              __NVIC_SetVector
1630:.\CMSIS\Core\Include/core_cm4.h ****   #define NVIC_GetVector              __NVIC_GetVector
1631:.\CMSIS\Core\Include/core_cm4.h **** #endif  /* (CMSIS_VECTAB_VIRTUAL) */
1632:.\CMSIS\Core\Include/core_cm4.h **** 
1633:.\CMSIS\Core\Include/core_cm4.h **** #define NVIC_USER_IRQ_OFFSET          16
1634:.\CMSIS\Core\Include/core_cm4.h **** 
1635:.\CMSIS\Core\Include/core_cm4.h **** 
1636:.\CMSIS\Core\Include/core_cm4.h **** /* The following EXC_RETURN values are saved the LR on exception entry */
1637:.\CMSIS\Core\Include/core_cm4.h **** #define EXC_RETURN_HANDLER         (0xFFFFFFF1UL)     /* return to Handler mode, uses MSP after ret
1638:.\CMSIS\Core\Include/core_cm4.h **** #define EXC_RETURN_THREAD_MSP      (0xFFFFFFF9UL)     /* return to Thread mode, uses MSP after retu
1639:.\CMSIS\Core\Include/core_cm4.h **** #define EXC_RETURN_THREAD_PSP      (0xFFFFFFFDUL)     /* return to Thread mode, uses PSP after retu
1640:.\CMSIS\Core\Include/core_cm4.h **** #define EXC_RETURN_HANDLER_FPU     (0xFFFFFFE1UL)     /* return to Handler mode, uses MSP after ret
1641:.\CMSIS\Core\Include/core_cm4.h **** #define EXC_RETURN_THREAD_MSP_FPU  (0xFFFFFFE9UL)     /* return to Thread mode, uses MSP after retu
1642:.\CMSIS\Core\Include/core_cm4.h **** #define EXC_RETURN_THREAD_PSP_FPU  (0xFFFFFFEDUL)     /* return to Thread mode, uses PSP after retu
1643:.\CMSIS\Core\Include/core_cm4.h **** 
1644:.\CMSIS\Core\Include/core_cm4.h **** 
1645:.\CMSIS\Core\Include/core_cm4.h **** /**
1646:.\CMSIS\Core\Include/core_cm4.h ****   \brief   Set Priority Grouping
1647:.\CMSIS\Core\Include/core_cm4.h ****   \details Sets the priority grouping field using the required unlock sequence.
1648:.\CMSIS\Core\Include/core_cm4.h ****            The parameter PriorityGroup is assigned to the field SCB->AIRCR [10:8] PRIGROUP field.
1649:.\CMSIS\Core\Include/core_cm4.h ****            Only values from 0..7 are used.
1650:.\CMSIS\Core\Include/core_cm4.h ****            In case of a conflict between priority grouping and available
1651:.\CMSIS\Core\Include/core_cm4.h ****            priority bits (__NVIC_PRIO_BITS), the smallest possible priority group is set.
1652:.\CMSIS\Core\Include/core_cm4.h ****   \param [in]      PriorityGroup  Priority grouping field.
1653:.\CMSIS\Core\Include/core_cm4.h ****  */
1654:.\CMSIS\Core\Include/core_cm4.h **** __STATIC_INLINE void __NVIC_SetPriorityGrouping(uint32_t PriorityGroup)
1655:.\CMSIS\Core\Include/core_cm4.h **** {
1656:.\CMSIS\Core\Include/core_cm4.h ****   uint32_t reg_value;
1657:.\CMSIS\Core\Include/core_cm4.h ****   uint32_t PriorityGroupTmp = (PriorityGroup & (uint32_t)0x07UL);             /* only values 0..7 a
1658:.\CMSIS\Core\Include/core_cm4.h **** 
1659:.\CMSIS\Core\Include/core_cm4.h ****   reg_value  =  SCB->AIRCR;                                                   /* read old register 
1660:.\CMSIS\Core\Include/core_cm4.h ****   reg_value &= ~((uint32_t)(SCB_AIRCR_VECTKEY_Msk | SCB_AIRCR_PRIGROUP_Msk)); /* clear bits to chan
1661:.\CMSIS\Core\Include/core_cm4.h ****   reg_value  =  (reg_value                                   |
1662:.\CMSIS\Core\Include/core_cm4.h ****                 ((uint32_t)0x5FAUL << SCB_AIRCR_VECTKEY_Pos) |
1663:.\CMSIS\Core\Include/core_cm4.h ****                 (PriorityGroupTmp << SCB_AIRCR_PRIGROUP_Pos)  );              /* Insert write key a
1664:.\CMSIS\Core\Include/core_cm4.h ****   SCB->AIRCR =  reg_value;
1665:.\CMSIS\Core\Include/core_cm4.h **** }
1666:.\CMSIS\Core\Include/core_cm4.h **** 
1667:.\CMSIS\Core\Include/core_cm4.h **** 
1668:.\CMSIS\Core\Include/core_cm4.h **** /**
1669:.\CMSIS\Core\Include/core_cm4.h ****   \brief   Get Priority Grouping
1670:.\CMSIS\Core\Include/core_cm4.h ****   \details Reads the priority grouping field from the NVIC Interrupt Controller.
1671:.\CMSIS\Core\Include/core_cm4.h ****   \return                Priority grouping field (SCB->AIRCR [10:8] PRIGROUP field).
1672:.\CMSIS\Core\Include/core_cm4.h ****  */
1673:.\CMSIS\Core\Include/core_cm4.h **** __STATIC_INLINE uint32_t __NVIC_GetPriorityGrouping(void)
ARM GAS  C:\Users\nicpa\AppData\Local\Temp\ccawORUH.s 			page 48


1674:.\CMSIS\Core\Include/core_cm4.h **** {
1675:.\CMSIS\Core\Include/core_cm4.h ****   return ((uint32_t)((SCB->AIRCR & SCB_AIRCR_PRIGROUP_Msk) >> SCB_AIRCR_PRIGROUP_Pos));
1676:.\CMSIS\Core\Include/core_cm4.h **** }
1677:.\CMSIS\Core\Include/core_cm4.h **** 
1678:.\CMSIS\Core\Include/core_cm4.h **** 
1679:.\CMSIS\Core\Include/core_cm4.h **** /**
1680:.\CMSIS\Core\Include/core_cm4.h ****   \brief   Enable Interrupt
1681:.\CMSIS\Core\Include/core_cm4.h ****   \details Enables a device specific interrupt in the NVIC interrupt controller.
1682:.\CMSIS\Core\Include/core_cm4.h ****   \param [in]      IRQn  Device specific interrupt number.
1683:.\CMSIS\Core\Include/core_cm4.h ****   \note    IRQn must not be negative.
1684:.\CMSIS\Core\Include/core_cm4.h ****  */
1685:.\CMSIS\Core\Include/core_cm4.h **** __STATIC_INLINE void __NVIC_EnableIRQ(IRQn_Type IRQn)
1686:.\CMSIS\Core\Include/core_cm4.h **** {
1687:.\CMSIS\Core\Include/core_cm4.h ****   if ((int32_t)(IRQn) >= 0)
1688:.\CMSIS\Core\Include/core_cm4.h ****   {
1689:.\CMSIS\Core\Include/core_cm4.h ****     NVIC->ISER[(((uint32_t)IRQn) >> 5UL)] = (uint32_t)(1UL << (((uint32_t)IRQn) & 0x1FUL));
1690:.\CMSIS\Core\Include/core_cm4.h ****   }
1691:.\CMSIS\Core\Include/core_cm4.h **** }
1692:.\CMSIS\Core\Include/core_cm4.h **** 
1693:.\CMSIS\Core\Include/core_cm4.h **** 
1694:.\CMSIS\Core\Include/core_cm4.h **** /**
1695:.\CMSIS\Core\Include/core_cm4.h ****   \brief   Get Interrupt Enable status
1696:.\CMSIS\Core\Include/core_cm4.h ****   \details Returns a device specific interrupt enable status from the NVIC interrupt controller.
1697:.\CMSIS\Core\Include/core_cm4.h ****   \param [in]      IRQn  Device specific interrupt number.
1698:.\CMSIS\Core\Include/core_cm4.h ****   \return             0  Interrupt is not enabled.
1699:.\CMSIS\Core\Include/core_cm4.h ****   \return             1  Interrupt is enabled.
1700:.\CMSIS\Core\Include/core_cm4.h ****   \note    IRQn must not be negative.
1701:.\CMSIS\Core\Include/core_cm4.h ****  */
1702:.\CMSIS\Core\Include/core_cm4.h **** __STATIC_INLINE uint32_t __NVIC_GetEnableIRQ(IRQn_Type IRQn)
1703:.\CMSIS\Core\Include/core_cm4.h **** {
1704:.\CMSIS\Core\Include/core_cm4.h ****   if ((int32_t)(IRQn) >= 0)
1705:.\CMSIS\Core\Include/core_cm4.h ****   {
1706:.\CMSIS\Core\Include/core_cm4.h ****     return((uint32_t)(((NVIC->ISER[(((uint32_t)IRQn) >> 5UL)] & (1UL << (((uint32_t)IRQn) & 0x1FUL)
1707:.\CMSIS\Core\Include/core_cm4.h ****   }
1708:.\CMSIS\Core\Include/core_cm4.h ****   else
1709:.\CMSIS\Core\Include/core_cm4.h ****   {
1710:.\CMSIS\Core\Include/core_cm4.h ****     return(0U);
1711:.\CMSIS\Core\Include/core_cm4.h ****   }
1712:.\CMSIS\Core\Include/core_cm4.h **** }
1713:.\CMSIS\Core\Include/core_cm4.h **** 
1714:.\CMSIS\Core\Include/core_cm4.h **** 
1715:.\CMSIS\Core\Include/core_cm4.h **** /**
1716:.\CMSIS\Core\Include/core_cm4.h ****   \brief   Disable Interrupt
1717:.\CMSIS\Core\Include/core_cm4.h ****   \details Disables a device specific interrupt in the NVIC interrupt controller.
1718:.\CMSIS\Core\Include/core_cm4.h ****   \param [in]      IRQn  Device specific interrupt number.
1719:.\CMSIS\Core\Include/core_cm4.h ****   \note    IRQn must not be negative.
1720:.\CMSIS\Core\Include/core_cm4.h ****  */
1721:.\CMSIS\Core\Include/core_cm4.h **** __STATIC_INLINE void __NVIC_DisableIRQ(IRQn_Type IRQn)
1722:.\CMSIS\Core\Include/core_cm4.h **** {
1723:.\CMSIS\Core\Include/core_cm4.h ****   if ((int32_t)(IRQn) >= 0)
1724:.\CMSIS\Core\Include/core_cm4.h ****   {
1725:.\CMSIS\Core\Include/core_cm4.h ****     NVIC->ICER[(((uint32_t)IRQn) >> 5UL)] = (uint32_t)(1UL << (((uint32_t)IRQn) & 0x1FUL));
1726:.\CMSIS\Core\Include/core_cm4.h ****     __DSB();
1727:.\CMSIS\Core\Include/core_cm4.h ****     __ISB();
1728:.\CMSIS\Core\Include/core_cm4.h ****   }
1729:.\CMSIS\Core\Include/core_cm4.h **** }
1730:.\CMSIS\Core\Include/core_cm4.h **** 
ARM GAS  C:\Users\nicpa\AppData\Local\Temp\ccawORUH.s 			page 49


1731:.\CMSIS\Core\Include/core_cm4.h **** 
1732:.\CMSIS\Core\Include/core_cm4.h **** /**
1733:.\CMSIS\Core\Include/core_cm4.h ****   \brief   Get Pending Interrupt
1734:.\CMSIS\Core\Include/core_cm4.h ****   \details Reads the NVIC pending register and returns the pending bit for the specified device spe
1735:.\CMSIS\Core\Include/core_cm4.h ****   \param [in]      IRQn  Device specific interrupt number.
1736:.\CMSIS\Core\Include/core_cm4.h ****   \return             0  Interrupt status is not pending.
1737:.\CMSIS\Core\Include/core_cm4.h ****   \return             1  Interrupt status is pending.
1738:.\CMSIS\Core\Include/core_cm4.h ****   \note    IRQn must not be negative.
1739:.\CMSIS\Core\Include/core_cm4.h ****  */
1740:.\CMSIS\Core\Include/core_cm4.h **** __STATIC_INLINE uint32_t __NVIC_GetPendingIRQ(IRQn_Type IRQn)
1741:.\CMSIS\Core\Include/core_cm4.h **** {
1742:.\CMSIS\Core\Include/core_cm4.h ****   if ((int32_t)(IRQn) >= 0)
1743:.\CMSIS\Core\Include/core_cm4.h ****   {
1744:.\CMSIS\Core\Include/core_cm4.h ****     return((uint32_t)(((NVIC->ISPR[(((uint32_t)IRQn) >> 5UL)] & (1UL << (((uint32_t)IRQn) & 0x1FUL)
1745:.\CMSIS\Core\Include/core_cm4.h ****   }
1746:.\CMSIS\Core\Include/core_cm4.h ****   else
1747:.\CMSIS\Core\Include/core_cm4.h ****   {
1748:.\CMSIS\Core\Include/core_cm4.h ****     return(0U);
1749:.\CMSIS\Core\Include/core_cm4.h ****   }
1750:.\CMSIS\Core\Include/core_cm4.h **** }
1751:.\CMSIS\Core\Include/core_cm4.h **** 
1752:.\CMSIS\Core\Include/core_cm4.h **** 
1753:.\CMSIS\Core\Include/core_cm4.h **** /**
1754:.\CMSIS\Core\Include/core_cm4.h ****   \brief   Set Pending Interrupt
1755:.\CMSIS\Core\Include/core_cm4.h ****   \details Sets the pending bit of a device specific interrupt in the NVIC pending register.
1756:.\CMSIS\Core\Include/core_cm4.h ****   \param [in]      IRQn  Device specific interrupt number.
1757:.\CMSIS\Core\Include/core_cm4.h ****   \note    IRQn must not be negative.
1758:.\CMSIS\Core\Include/core_cm4.h ****  */
1759:.\CMSIS\Core\Include/core_cm4.h **** __STATIC_INLINE void __NVIC_SetPendingIRQ(IRQn_Type IRQn)
1760:.\CMSIS\Core\Include/core_cm4.h **** {
1761:.\CMSIS\Core\Include/core_cm4.h ****   if ((int32_t)(IRQn) >= 0)
1762:.\CMSIS\Core\Include/core_cm4.h ****   {
1763:.\CMSIS\Core\Include/core_cm4.h ****     NVIC->ISPR[(((uint32_t)IRQn) >> 5UL)] = (uint32_t)(1UL << (((uint32_t)IRQn) & 0x1FUL));
1764:.\CMSIS\Core\Include/core_cm4.h ****   }
1765:.\CMSIS\Core\Include/core_cm4.h **** }
1766:.\CMSIS\Core\Include/core_cm4.h **** 
1767:.\CMSIS\Core\Include/core_cm4.h **** 
1768:.\CMSIS\Core\Include/core_cm4.h **** /**
1769:.\CMSIS\Core\Include/core_cm4.h ****   \brief   Clear Pending Interrupt
1770:.\CMSIS\Core\Include/core_cm4.h ****   \details Clears the pending bit of a device specific interrupt in the NVIC pending register.
1771:.\CMSIS\Core\Include/core_cm4.h ****   \param [in]      IRQn  Device specific interrupt number.
1772:.\CMSIS\Core\Include/core_cm4.h ****   \note    IRQn must not be negative.
1773:.\CMSIS\Core\Include/core_cm4.h ****  */
1774:.\CMSIS\Core\Include/core_cm4.h **** __STATIC_INLINE void __NVIC_ClearPendingIRQ(IRQn_Type IRQn)
1775:.\CMSIS\Core\Include/core_cm4.h **** {
1776:.\CMSIS\Core\Include/core_cm4.h ****   if ((int32_t)(IRQn) >= 0)
 306              		.loc 3 1776 0
 307 0058 002B     		cmp	r3, #0
 308 005a 08DB     		blt	.L13
1777:.\CMSIS\Core\Include/core_cm4.h ****   {
1778:.\CMSIS\Core\Include/core_cm4.h ****     NVIC->ICPR[(((uint32_t)IRQn) >> 5UL)] = (uint32_t)(1UL << (((uint32_t)IRQn) & 0x1FUL));
 309              		.loc 3 1778 0
 310 005c 5A09     		lsrs	r2, r3, #5
 311 005e 03F01F00 		and	r0, r3, #31
 312 0062 0121     		movs	r1, #1
 313 0064 8140     		lsls	r1, r1, r0
 314 0066 6032     		adds	r2, r2, #96
ARM GAS  C:\Users\nicpa\AppData\Local\Temp\ccawORUH.s 			page 50


 315 0068 0948     		ldr	r0, .L15+8
 316 006a 40F82210 		str	r1, [r0, r2, lsl #2]
 317              	.L13:
 318              	.LVL26:
 319              	.LBE65:
 320              	.LBE64:
 321              	.LBB66:
 322              	.LBB67:
1687:.\CMSIS\Core\Include/core_cm4.h ****   {
 323              		.loc 3 1687 0
 324 006e 002B     		cmp	r3, #0
 325 0070 08DB     		blt	.L12
1689:.\CMSIS\Core\Include/core_cm4.h ****   }
 326              		.loc 3 1689 0
 327 0072 5909     		lsrs	r1, r3, #5
 328 0074 03F01F03 		and	r3, r3, #31
 329              	.LVL27:
 330 0078 0122     		movs	r2, #1
 331 007a 02FA03F3 		lsl	r3, r2, r3
 332 007e 044A     		ldr	r2, .L15+8
 333 0080 42F82130 		str	r3, [r2, r1, lsl #2]
 334              	.LVL28:
 335              	.L12:
 336              	.LBE67:
 337              	.LBE66:
  36:MAX30102_functions.c **** 
 338              		.loc 1 36 0
 339 0084 2046     		mov	r0, r4
 340 0086 38BD     		pop	{r3, r4, r5, pc}
 341              	.L16:
 342              		.align	2
 343              	.L15:
 344 0088 00000000 		.word	PPG_RDY_isr_cfg
 345 008c 00000000 		.word	PPG_RDY_handler
 346 0090 00E100E0 		.word	-536813312
 347              		.cfi_endproc
 348              	.LFE623:
 349              		.size	MAX_Init, .-MAX_Init
 350              		.section	.text.readMultipleBytes_MAX,"ax",%progbits
 351              		.align	2
 352              		.global	readMultipleBytes_MAX
 353              		.thumb
 354              		.thumb_func
 355              		.type	readMultipleBytes_MAX, %function
 356              	readMultipleBytes_MAX:
 357              	.LFB627:
  63:MAX30102_functions.c **** void readMultipleBytes_MAX(uint8_t baseAddress, uint8_t *buffer, uint8_t length)
  64:MAX30102_functions.c **** {
 358              		.loc 1 64 0
 359              		.cfi_startproc
 360              		@ args = 0, pretend = 0, frame = 0
 361              		@ frame_needed = 0, uses_anonymous_args = 0
 362              	.LVL29:
 363 0000 2DE9F041 		push	{r4, r5, r6, r7, r8, lr}
 364              		.cfi_def_cfa_offset 24
 365              		.cfi_offset 4, -24
 366              		.cfi_offset 5, -20
ARM GAS  C:\Users\nicpa\AppData\Local\Temp\ccawORUH.s 			page 51


 367              		.cfi_offset 6, -16
 368              		.cfi_offset 7, -12
 369              		.cfi_offset 8, -8
 370              		.cfi_offset 14, -4
 371 0004 82B0     		sub	sp, sp, #8
 372              		.cfi_def_cfa_offset 32
 373 0006 8046     		mov	r8, r0
 374 0008 0D46     		mov	r5, r1
 375 000a 1646     		mov	r6, r2
 376              	.LVL30:
 377              	.LBB68:
 378              	.LBB69:
 570:Generated_Source\PSoC6/I2C_MAX.h **** }
 379              		.loc 2 570 0
 380 000c 1A4C     		ldr	r4, .L21
 381 000e 1B4F     		ldr	r7, .L21+4
 382 0010 0097     		str	r7, [sp]
 383 0012 6423     		movs	r3, #100
 384 0014 0022     		movs	r2, #0
 385              	.LVL31:
 386 0016 5721     		movs	r1, #87
 387              	.LVL32:
 388 0018 2046     		mov	r0, r4
 389              	.LVL33:
 390 001a FFF7FEFF 		bl	Cy_SCB_I2C_MasterSendStart
 391              	.LVL34:
 392              	.LBE69:
 393              	.LBE68:
 394              	.LBB70:
 395              	.LBB71:
 396              		.loc 2 622 0
 397 001e 3B46     		mov	r3, r7
 398 0020 6422     		movs	r2, #100
 399 0022 4146     		mov	r1, r8
 400 0024 2046     		mov	r0, r4
 401 0026 FFF7FEFF 		bl	Cy_SCB_I2C_MasterWriteByte
 402              	.LVL35:
 403              	.LBE71:
 404              	.LBE70:
 405              	.LBB72:
 406              	.LBB73:
 583:Generated_Source\PSoC6/I2C_MAX.h **** }
 407              		.loc 2 583 0
 408 002a 0097     		str	r7, [sp]
 409 002c 6423     		movs	r3, #100
 410 002e 0122     		movs	r2, #1
 411 0030 5721     		movs	r1, #87
 412 0032 2046     		mov	r0, r4
 413 0034 FFF7FEFF 		bl	Cy_SCB_I2C_MasterSendReStart
 414              	.LVL36:
 415              	.LBE73:
 416              	.LBE72:
  65:MAX30102_functions.c ****     I2C_MAX_MasterSendStart(MAX_ADDR,CY_SCB_I2C_WRITE_XFER,100); 
  66:MAX30102_functions.c ****     I2C_MAX_MasterWriteByte(baseAddress,100);       
  67:MAX30102_functions.c ****     I2C_MAX_MasterSendReStart(MAX_ADDR,CY_SCB_I2C_READ_XFER,100);
  68:MAX30102_functions.c ****     uint8_t idx = 0;
  69:MAX30102_functions.c ****     for(idx=0 ; idx < length-1 ; idx++)
ARM GAS  C:\Users\nicpa\AppData\Local\Temp\ccawORUH.s 			page 52


 417              		.loc 1 69 0
 418 0038 0024     		movs	r4, #0
 419 003a 09E0     		b	.L18
 420              	.LVL37:
 421              	.L19:
 422              	.LBB74:
 423              	.LBB75:
 609:Generated_Source\PSoC6/I2C_MAX.h **** }
 424              		.loc 2 609 0 discriminator 3
 425 003c 0F4B     		ldr	r3, .L21+4
 426 003e 0093     		str	r3, [sp]
 427 0040 6423     		movs	r3, #100
 428 0042 2A19     		adds	r2, r5, r4
 429              	.LVL38:
 430 0044 0021     		movs	r1, #0
 431 0046 0C48     		ldr	r0, .L21
 432 0048 FFF7FEFF 		bl	Cy_SCB_I2C_MasterReadByte
 433              	.LVL39:
 434              	.LBE75:
 435              	.LBE74:
 436              		.loc 1 69 0 discriminator 3
 437 004c 0134     		adds	r4, r4, #1
 438              	.LVL40:
 439 004e E4B2     		uxtb	r4, r4
 440              	.LVL41:
 441              	.L18:
 442              		.loc 1 69 0 is_stmt 0 discriminator 1
 443 0050 731E     		subs	r3, r6, #1
 444 0052 9C42     		cmp	r4, r3
 445 0054 F2DB     		blt	.L19
 446              	.LVL42:
 447              	.LBB76:
 448              	.LBB77:
 609:Generated_Source\PSoC6/I2C_MAX.h **** }
 449              		.loc 2 609 0 is_stmt 1
 450 0056 084E     		ldr	r6, .L21
 451 0058 084F     		ldr	r7, .L21+4
 452 005a 0097     		str	r7, [sp]
 453 005c 6423     		movs	r3, #100
 454 005e 2A19     		adds	r2, r5, r4
 455              	.LVL43:
 456 0060 0121     		movs	r1, #1
 457 0062 3046     		mov	r0, r6
 458 0064 FFF7FEFF 		bl	Cy_SCB_I2C_MasterReadByte
 459              	.LVL44:
 460              	.LBE77:
 461              	.LBE76:
 462              	.LBB78:
 463              	.LBB79:
 596:Generated_Source\PSoC6/I2C_MAX.h **** }
 464              		.loc 2 596 0
 465 0068 3A46     		mov	r2, r7
 466 006a 6421     		movs	r1, #100
 467 006c 3046     		mov	r0, r6
 468 006e FFF7FEFF 		bl	Cy_SCB_I2C_MasterSendStop
 469              	.LVL45:
 470              	.LBE79:
ARM GAS  C:\Users\nicpa\AppData\Local\Temp\ccawORUH.s 			page 53


 471              	.LBE78:
  70:MAX30102_functions.c ****     { 
  71:MAX30102_functions.c ****         I2C_MAX_MasterReadByte(CY_SCB_I2C_ACK,(uint8_t*)&buffer[idx],100);  
  72:MAX30102_functions.c ****     }
  73:MAX30102_functions.c ****     I2C_MAX_MasterReadByte(CY_SCB_I2C_NAK,(uint8_t*)&buffer[idx],100);
  74:MAX30102_functions.c ****     I2C_MAX_MasterSendStop(100); 
  75:MAX30102_functions.c **** }
 472              		.loc 1 75 0
 473 0072 02B0     		add	sp, sp, #8
 474              		.cfi_def_cfa_offset 24
 475              		@ sp needed
 476 0074 BDE8F081 		pop	{r4, r5, r6, r7, r8, pc}
 477              	.LVL46:
 478              	.L22:
 479              		.align	2
 480              	.L21:
 481 0078 00006340 		.word	1080229888
 482 007c 00000000 		.word	I2C_MAX_context
 483              		.cfi_endproc
 484              	.LFE627:
 485              		.size	readMultipleBytes_MAX, .-readMultipleBytes_MAX
 486              		.section	.text.read_MAX30102_task,"ax",%progbits
 487              		.align	2
 488              		.global	read_MAX30102_task
 489              		.thumb
 490              		.thumb_func
 491              		.type	read_MAX30102_task, %function
 492              	read_MAX30102_task:
 493              	.LFB628:
  76:MAX30102_functions.c **** 
  77:MAX30102_functions.c **** //Dfinitions de paramtres
  78:MAX30102_functions.c **** 
  79:MAX30102_functions.c **** 
  80:MAX30102_functions.c **** 
  81:MAX30102_functions.c **** 
  82:MAX30102_functions.c **** //uint32 red_data[1000];
  83:MAX30102_functions.c **** //uint32 ir_data[1000];
  84:MAX30102_functions.c **** 
  85:MAX30102_functions.c **** //Fonction de lecture du capteur
  86:MAX30102_functions.c **** float32 LED1, LED2;
  87:MAX30102_functions.c **** 
  88:MAX30102_functions.c **** 
  89:MAX30102_functions.c **** void read_MAX30102_task(void* pvParameters)
  90:MAX30102_functions.c **** {
 494              		.loc 1 90 0
 495              		.cfi_startproc
 496              		@ Volatile: function does not return.
 497              		@ args = 0, pretend = 0, frame = 0
 498              		@ frame_needed = 0, uses_anonymous_args = 0
 499              	.LVL47:
 500 0000 08B5     		push	{r3, lr}
 501              		.cfi_def_cfa_offset 8
 502              		.cfi_offset 3, -8
 503              		.cfi_offset 14, -4
  91:MAX30102_functions.c ****     (void)pvParameters;
  92:MAX30102_functions.c ****     I2C_MAX_Start();
 504              		.loc 1 92 0
ARM GAS  C:\Users\nicpa\AppData\Local\Temp\ccawORUH.s 			page 54


 505 0002 FFF7FEFF 		bl	I2C_MAX_Start
 506              	.LVL48:
  93:MAX30102_functions.c **** 
  94:MAX30102_functions.c ****     
  95:MAX30102_functions.c ****     MAX_Init();
 507              		.loc 1 95 0
 508 0006 FFF7FEFF 		bl	MAX_Init
 509              	.LVL49:
  96:MAX30102_functions.c ****     
  97:MAX30102_functions.c ****     read_flag_MAX = false;
 510              		.loc 1 97 0
 511 000a 0023     		movs	r3, #0
 512 000c 054A     		ldr	r2, .L26
 513 000e 1370     		strb	r3, [r2]
  98:MAX30102_functions.c ****     write_idx_MAX = 0;
 514              		.loc 1 98 0
 515 0010 054A     		ldr	r2, .L26+4
 516 0012 1360     		str	r3, [r2]
  99:MAX30102_functions.c ****     received_data();
 517              		.loc 1 99 0
 518 0014 FFF7FEFF 		bl	received_data
 519              	.LVL50:
 520              	.L24:
 100:MAX30102_functions.c ****     for(;;)
 101:MAX30102_functions.c ****     {
 102:MAX30102_functions.c ****         vTaskDelay(pdMS_TO_TICKS(5000));
 521              		.loc 1 102 0 discriminator 1
 522 0018 41F28830 		movw	r0, #5000
 523 001c FFF7FEFF 		bl	vTaskDelay
 524              	.LVL51:
 525 0020 FAE7     		b	.L24
 526              	.L27:
 527 0022 00BF     		.align	2
 528              	.L26:
 529 0024 00000000 		.word	read_flag_MAX
 530 0028 00000000 		.word	write_idx_MAX
 531              		.cfi_endproc
 532              	.LFE628:
 533              		.size	read_MAX30102_task, .-read_MAX30102_task
 534              		.section	.text.MAX_data,"ax",%progbits
 535              		.align	2
 536              		.global	MAX_data
 537              		.thumb
 538              		.thumb_func
 539              		.type	MAX_data, %function
 540              	MAX_data:
 541              	.LFB629:
 103:MAX30102_functions.c ****     }
 104:MAX30102_functions.c **** }
 105:MAX30102_functions.c **** 
 106:MAX30102_functions.c **** void MAX_data()
 107:MAX30102_functions.c **** {
 542              		.loc 1 107 0
 543              		.cfi_startproc
 544              		@ args = 0, pretend = 0, frame = 8
 545              		@ frame_needed = 0, uses_anonymous_args = 0
 546 0000 10B5     		push	{r4, lr}
ARM GAS  C:\Users\nicpa\AppData\Local\Temp\ccawORUH.s 			page 55


 547              		.cfi_def_cfa_offset 8
 548              		.cfi_offset 4, -8
 549              		.cfi_offset 14, -4
 550 0002 82B0     		sub	sp, sp, #8
 551              		.cfi_def_cfa_offset 16
 108:MAX30102_functions.c **** 
 109:MAX30102_functions.c ****             uint8 buffer[6];
 110:MAX30102_functions.c ****     
