ARM GAS  C:\Users\nicpa\AppData\Local\Temp\ccNwnYuX.s 			page 1


   1              		.syntax unified
   2              		.cpu cortex-m4
   3              		.eabi_attribute 27, 1
   4              		.fpu fpv4-sp-d16
   5              		.eabi_attribute 20, 1
   6              		.eabi_attribute 21, 1
   7              		.eabi_attribute 23, 3
   8              		.eabi_attribute 24, 1
   9              		.eabi_attribute 25, 1
  10              		.eabi_attribute 26, 1
  11              		.eabi_attribute 30, 1
  12              		.eabi_attribute 34, 1
  13              		.eabi_attribute 18, 4
  14              		.thumb
  15              		.syntax unified
  16              		.file	"screen_functions.c"
  17              		.text
  18              	.Ltext0:
  19              		.cfi_sections	.debug_frame
  20              		.section	.text.UpdateDisplay,"ax",%progbits
  21              		.align	2
  22              		.global	UpdateDisplay
  23              		.thumb
  24              		.thumb_func
  25              		.type	UpdateDisplay, %function
  26              	UpdateDisplay:
  27              	.LFB662:
  28              		.file 1 "screen_functions.c"
   1:screen_functions.c **** /* ========================================
   2:screen_functions.c ****  *
   3:screen_functions.c ****  * Copyright YOUR COMPANY, THE YEAR
   4:screen_functions.c ****  * All Rights Reserved
   5:screen_functions.c ****  * UNPUBLISHED, LICENSED SOFTWARE.
   6:screen_functions.c ****  *
   7:screen_functions.c ****  * CONFIDENTIAL AND PROPRIETARY INFORMATION
   8:screen_functions.c ****  * WHICH IS THE PROPERTY OF your company.
   9:screen_functions.c ****  *
  10:screen_functions.c ****  * ========================================
  11:screen_functions.c **** */
  12:screen_functions.c **** 
  13:screen_functions.c **** /* [] END OF FILE */
  14:screen_functions.c **** 
  15:screen_functions.c **** 
  16:screen_functions.c **** /*******************************************************************************
  17:screen_functions.c **** * Function Name: void UpdateDisplay(void)
  18:screen_functions.c **** ********************************************************************************
  19:screen_functions.c **** *
  20:screen_functions.c **** * Summary: This function updates the display with the data in the display 
  21:screen_functions.c **** *			buffer.  The function first transfers the content of the EmWin
  22:screen_functions.c **** *			display buffer to the primary EInk display buffer.  Then it calls
  23:screen_functions.c **** *			the Cy_EINK_ShowFrame function to update the display, and then
  24:screen_functions.c **** *			it copies the EmWin display buffer to the Eink display cache buffer
  25:screen_functions.c **** *
  26:screen_functions.c **** * Parameters:
  27:screen_functions.c **** *  None
  28:screen_functions.c **** *
  29:screen_functions.c **** * Return:
ARM GAS  C:\Users\nicpa\AppData\Local\Temp\ccNwnYuX.s 			page 2


  30:screen_functions.c **** *  None
  31:screen_functions.c **** *
  32:screen_functions.c **** * Side Effects:
  33:screen_functions.c **** *  It takes about a second to refresh the display.  This is a blocking function
  34:screen_functions.c **** *  and only returns after the display refresh
  35:screen_functions.c **** *
  36:screen_functions.c **** *******************************************************************************/
  37:screen_functions.c **** 
  38:screen_functions.c **** 
  39:screen_functions.c **** 
  40:screen_functions.c **** #include "screen_functions.h"
  41:screen_functions.c **** 
  42:screen_functions.c **** uint8 imageBufferCache[CY_EINK_FRAME_SIZE] = {0};
  43:screen_functions.c **** 
  44:screen_functions.c **** void UpdateDisplay(cy_eink_update_t updateMethod, bool powerCycle)
  45:screen_functions.c **** {
  29              		.loc 1 45 0
  30              		.cfi_startproc
  31              		@ args = 0, pretend = 0, frame = 0
  32              		@ frame_needed = 0, uses_anonymous_args = 0
  33              	.LVL0:
  34 0000 F8B5     		push	{r3, r4, r5, r6, r7, lr}
  35              		.cfi_def_cfa_offset 24
  36              		.cfi_offset 3, -24
  37              		.cfi_offset 4, -20
  38              		.cfi_offset 5, -16
  39              		.cfi_offset 6, -12
  40              		.cfi_offset 7, -8
  41              		.cfi_offset 14, -4
  42 0002 0646     		mov	r6, r0
  43 0004 0F46     		mov	r7, r1
  46:screen_functions.c ****     cy_eink_frame_t* pEmwinBuffer;
  47:screen_functions.c **** 
  48:screen_functions.c ****     /* Get the pointer to Emwin's display buffer */
  49:screen_functions.c ****     pEmwinBuffer = (cy_eink_frame_t*)LCD_GetDisplayBuffer();
  44              		.loc 1 49 0
  45 0006 FFF7FEFF 		bl	LCD_GetDisplayBuffer
  46              	.LVL1:
  47 000a 0546     		mov	r5, r0
  48              	.LVL2:
  50:screen_functions.c **** 
  51:screen_functions.c ****     /* Update the EInk display */
  52:screen_functions.c ****     Cy_EINK_ShowFrame(imageBufferCache, pEmwinBuffer, updateMethod, powerCycle);
  49              		.loc 1 52 0
  50 000c 064C     		ldr	r4, .L3
  51 000e 3B46     		mov	r3, r7
  52 0010 3246     		mov	r2, r6
  53 0012 0146     		mov	r1, r0
  54 0014 2046     		mov	r0, r4
  55              	.LVL3:
  56 0016 FFF7FEFF 		bl	Cy_EINK_ShowFrame
  57              	.LVL4:
  53:screen_functions.c **** 
  54:screen_functions.c ****     /* Copy the EmWin display buffer to the imageBuffer cache*/
  55:screen_functions.c ****     memcpy(imageBufferCache, pEmwinBuffer, CY_EINK_FRAME_SIZE);
  58              		.loc 1 55 0
  59 001a 41F2B062 		movw	r2, #5808
ARM GAS  C:\Users\nicpa\AppData\Local\Temp\ccNwnYuX.s 			page 3


  60 001e 2946     		mov	r1, r5
  61 0020 2046     		mov	r0, r4
  62 0022 FFF7FEFF 		bl	memcpy
  63              	.LVL5:
  64 0026 F8BD     		pop	{r3, r4, r5, r6, r7, pc}
  65              	.LVL6:
  66              	.L4:
  67              		.align	2
  68              	.L3:
  69 0028 00000000 		.word	.LANCHOR0
  70              		.cfi_endproc
  71              	.LFE662:
  72              		.size	UpdateDisplay, .-UpdateDisplay
  73              		.section	.text.ClearScreen,"ax",%progbits
  74              		.align	2
  75              		.global	ClearScreen
  76              		.thumb
  77              		.thumb_func
  78              		.type	ClearScreen, %function
  79              	ClearScreen:
  80              	.LFB663:
  56:screen_functions.c **** }
  57:screen_functions.c **** 
  58:screen_functions.c **** 
  59:screen_functions.c **** /*******************************************************************************
  60:screen_functions.c **** * Function Name: void ClearScreen(void)
  61:screen_functions.c **** ********************************************************************************
  62:screen_functions.c **** *
  63:screen_functions.c **** * Summary: This function clears the screen
  64:screen_functions.c **** *
  65:screen_functions.c **** * Parameters:
  66:screen_functions.c **** *  None
  67:screen_functions.c **** *
  68:screen_functions.c **** * Return:
  69:screen_functions.c **** *  None
  70:screen_functions.c **** *
  71:screen_functions.c **** *******************************************************************************/
  72:screen_functions.c **** void ClearScreen(void)
  73:screen_functions.c **** {
  81              		.loc 1 73 0
  82              		.cfi_startproc
  83              		@ args = 0, pretend = 0, frame = 0
  84              		@ frame_needed = 0, uses_anonymous_args = 0
  85 0000 08B5     		push	{r3, lr}
  86              		.cfi_def_cfa_offset 8
  87              		.cfi_offset 3, -8
  88              		.cfi_offset 14, -4
  74:screen_functions.c ****     GUI_SetColor(GUI_BLACK);
  89              		.loc 1 74 0
  90 0002 0020     		movs	r0, #0
  91 0004 FFF7FEFF 		bl	GUI_SetColor
  92              	.LVL7:
  75:screen_functions.c ****     GUI_SetBkColor(GUI_WHITE);
  93              		.loc 1 75 0
  94 0008 6FF07F40 		mvn	r0, #-16777216
  95 000c FFF7FEFF 		bl	GUI_SetBkColor
  96              	.LVL8:
ARM GAS  C:\Users\nicpa\AppData\Local\Temp\ccNwnYuX.s 			page 4


  76:screen_functions.c ****     GUI_Clear();
  97              		.loc 1 76 0
  98 0010 FFF7FEFF 		bl	GUI_Clear
  99              	.LVL9:
  77:screen_functions.c ****     UpdateDisplay(CY_EINK_FULL_4STAGE, true);
 100              		.loc 1 77 0
 101 0014 0121     		movs	r1, #1
 102 0016 0846     		mov	r0, r1
 103 0018 FFF7FEFF 		bl	UpdateDisplay
 104              	.LVL10:
 105 001c 08BD     		pop	{r3, pc}
 106              		.cfi_endproc
 107              	.LFE663:
 108              		.size	ClearScreen, .-ClearScreen
 109 001e 00BF     		.section	.text.WaitforSwitchPressAndRelease,"ax",%progbits
 110              		.align	2
 111              		.global	WaitforSwitchPressAndRelease
 112              		.thumb
 113              		.thumb_func
 114              		.type	WaitforSwitchPressAndRelease, %function
 115              	WaitforSwitchPressAndRelease:
 116              	.LFB664:
  78:screen_functions.c **** }
  79:screen_functions.c **** /*******************************************************************************
  80:screen_functions.c **** * Function Name: void WaitforSwitchPressAndRelease(void)
  81:screen_functions.c **** ********************************************************************************
  82:screen_functions.c **** *
  83:screen_functions.c **** * Summary: This implements a simple "Wait for button press and release"
  84:screen_functions.c **** *			function.  It first waits for the button to be pressed and then
  85:screen_functions.c **** *			waits for the button to be released.
  86:screen_functions.c **** *
  87:screen_functions.c **** * Parameters:
  88:screen_functions.c **** *  None
  89:screen_functions.c **** *
  90:screen_functions.c **** * Return:
  91:screen_functions.c **** *  None
  92:screen_functions.c **** *
  93:screen_functions.c **** * Side Effects:
  94:screen_functions.c **** *  This is a blocking function and exits only on a button press and release
  95:screen_functions.c **** *
  96:screen_functions.c **** *******************************************************************************/
  97:screen_functions.c **** 
  98:screen_functions.c **** 
  99:screen_functions.c **** void WaitforSwitchPressAndRelease(void)
 100:screen_functions.c **** {
 117              		.loc 1 100 0
 118              		.cfi_startproc
 119              		@ args = 0, pretend = 0, frame = 0
 120              		@ frame_needed = 0, uses_anonymous_args = 0
 121 0000 08B5     		push	{r3, lr}
 122              		.cfi_def_cfa_offset 8
 123              		.cfi_offset 3, -8
 124              		.cfi_offset 14, -4
 125              	.L8:
 101:screen_functions.c ****     /* Wait for SW2 to be pressed */
 102:screen_functions.c ****     while(Status_SW2_Read() != 0);
 126              		.loc 1 102 0 discriminator 1
ARM GAS  C:\Users\nicpa\AppData\Local\Temp\ccNwnYuX.s 			page 5


 127 0002 FFF7FEFF 		bl	Status_SW2_Read
 128              	.LVL11:
 129 0006 0028     		cmp	r0, #0
 130 0008 FBD1     		bne	.L8
 131              	.L9:
 103:screen_functions.c ****     
 104:screen_functions.c ****     /* Wait for SW2 to be released */
 105:screen_functions.c ****     while(Status_SW2_Read() == 0);
 132              		.loc 1 105 0 discriminator 1
 133 000a FFF7FEFF 		bl	Status_SW2_Read
 134              	.LVL12:
 135 000e 0028     		cmp	r0, #0
 136 0010 FBD0     		beq	.L9
 106:screen_functions.c **** }
 137              		.loc 1 106 0
 138 0012 08BD     		pop	{r3, pc}
 139              		.cfi_endproc
 140              	.LFE664:
 141              		.size	WaitforSwitchPressAndRelease, .-WaitforSwitchPressAndRelease
 142              		.global	imageBufferCache
 143              		.bss
 144              		.align	2
 145              		.set	.LANCHOR0,. + 0
 146              		.type	imageBufferCache, %object
 147              		.size	imageBufferCache, 5808
 148              	imageBufferCache:
 149 0000 00000000 		.space	5808
 149      00000000 
 149      00000000 
 149      00000000 
 149      00000000 
 150              		.text
 151              	.Letext0:
 152              		.file 2 "c:\\program files (x86)\\cypress\\psoc creator\\4.4\\psoc creator\\import\\gnu\\arm\\5.4.
 153              		.file 3 "c:\\program files (x86)\\cypress\\psoc creator\\4.4\\psoc creator\\import\\gnu\\arm\\5.4.
 154              		.file 4 "Generated_Source\\PSoC6\\pdl\\drivers/peripheral/device/cy_device.h"
 155              		.file 5 "Generated_Source\\PSoC6\\pdl\\drivers/peripheral/syslib/cy_syslib.h"
 156              		.file 6 "Generated_Source\\PSoC6\\pdl\\drivers/peripheral/scb/cy_scb_i2c.h"
 157              		.file 7 "Generated_Source\\PSoC6\\pdl\\drivers/peripheral/scb/cy_scb_spi.h"
 158              		.file 8 "Generated_Source\\PSoC6\\pdl\\drivers/peripheral/scb/cy_scb_uart.h"
 159              		.file 9 "Generated_Source\\PSoC6\\pdl\\drivers/peripheral/tcpwm/cy_tcpwm_counter.h"
 160              		.file 10 ".\\eInk Library/pervasive_eink_hardware_driver.h"
 161              		.file 11 ".\\eInk Library/cy_eink_library.h"
 162              		.file 12 ".\\CMSIS\\Core\\Include/core_cm4.h"
 163              		.file 13 "Generated_Source\\PSoC6/CY_EINK_SPIM.h"
 164              		.file 14 "Generated_Source\\PSoC6/CY_EINK_Timer.h"
 165              		.file 15 "Generated_Source\\PSoC6/I2C_MAX.h"
 166              		.file 16 "Generated_Source\\PSoC6/I2Cm.h"
 167              		.file 17 "Generated_Source\\PSoC6/UART.h"
 168              		.file 18 "LCDConf.h"
 169              		.file 19 "Generated_Source\\PSoC6\\pdl\\middleware/emWin/code/include/GUI.h"
 170              		.file 20 "Generated_Source\\PSoC6/Status_SW2.h"