ARM GAS  C:\Users\nicpa\AppData\Local\Temp\ccqh83x6.s 			page 1


   1              		.syntax unified
   2              		.cpu cortex-m4
   3              		.eabi_attribute 27, 1
   4              		.fpu fpv4-sp-d16
   5              		.eabi_attribute 20, 1
   6              		.eabi_attribute 21, 1
   7              		.eabi_attribute 23, 3
   8              		.eabi_attribute 24, 1
   9              		.eabi_attribute 25, 1
  10              		.eabi_attribute 26, 1
  11              		.eabi_attribute 30, 1
  12              		.eabi_attribute 34, 1
  13              		.eabi_attribute 18, 4
  14              		.thumb
  15              		.syntax unified
  16              		.file	"Status_SW2.c"
  17              		.text
  18              	.Ltext0:
  19              		.cfi_sections	.debug_frame
  20              		.section	.text.Status_SW2_Read,"ax",%progbits
  21              		.align	2
  22              		.global	Status_SW2_Read
  23              		.thumb
  24              		.thumb_func
  25              		.type	Status_SW2_Read, %function
  26              	Status_SW2_Read:
  27              	.LFB132:
  28              		.file 1 "Generated_Source\\PSoC6\\Status_SW2.c"
   1:Generated_Source\PSoC6/Status_SW2.c **** /*******************************************************************************
   2:Generated_Source\PSoC6/Status_SW2.c **** * File Name: Status_SW2.c  
   3:Generated_Source\PSoC6/Status_SW2.c **** * Version 1.90
   4:Generated_Source\PSoC6/Status_SW2.c **** *
   5:Generated_Source\PSoC6/Status_SW2.c **** * Description:
   6:Generated_Source\PSoC6/Status_SW2.c **** *  This file contains API to enable firmware to read the value of a Status 
   7:Generated_Source\PSoC6/Status_SW2.c **** *  Register.
   8:Generated_Source\PSoC6/Status_SW2.c **** *
   9:Generated_Source\PSoC6/Status_SW2.c **** * Note:
  10:Generated_Source\PSoC6/Status_SW2.c **** *
  11:Generated_Source\PSoC6/Status_SW2.c **** ********************************************************************************
  12:Generated_Source\PSoC6/Status_SW2.c **** * Copyright 2008-2015, Cypress Semiconductor Corporation.  All rights reserved.
  13:Generated_Source\PSoC6/Status_SW2.c **** * You may use this file only in accordance with the license, terms, conditions, 
  14:Generated_Source\PSoC6/Status_SW2.c **** * disclaimers, and limitations in the end user license agreement accompanying 
  15:Generated_Source\PSoC6/Status_SW2.c **** * the software package with which this file was provided.
  16:Generated_Source\PSoC6/Status_SW2.c **** *******************************************************************************/
  17:Generated_Source\PSoC6/Status_SW2.c **** 
  18:Generated_Source\PSoC6/Status_SW2.c **** #include "Status_SW2.h"
  19:Generated_Source\PSoC6/Status_SW2.c **** 
  20:Generated_Source\PSoC6/Status_SW2.c **** #if !defined(Status_SW2_sts_sts_reg__REMOVED) /* Check for removal by optimization */
  21:Generated_Source\PSoC6/Status_SW2.c **** 
  22:Generated_Source\PSoC6/Status_SW2.c **** 
  23:Generated_Source\PSoC6/Status_SW2.c **** /*******************************************************************************
  24:Generated_Source\PSoC6/Status_SW2.c **** * Function Name: Status_SW2_Read
  25:Generated_Source\PSoC6/Status_SW2.c **** ********************************************************************************
  26:Generated_Source\PSoC6/Status_SW2.c **** *
  27:Generated_Source\PSoC6/Status_SW2.c **** * Summary:
  28:Generated_Source\PSoC6/Status_SW2.c **** *  Reads the current value assigned to the Status Register.
  29:Generated_Source\PSoC6/Status_SW2.c **** *
ARM GAS  C:\Users\nicpa\AppData\Local\Temp\ccqh83x6.s 			page 2


  30:Generated_Source\PSoC6/Status_SW2.c **** * Parameters:
  31:Generated_Source\PSoC6/Status_SW2.c **** *  None.
  32:Generated_Source\PSoC6/Status_SW2.c **** *
  33:Generated_Source\PSoC6/Status_SW2.c **** * Return:
  34:Generated_Source\PSoC6/Status_SW2.c **** *  The current value in the Status Register.
  35:Generated_Source\PSoC6/Status_SW2.c **** *
  36:Generated_Source\PSoC6/Status_SW2.c **** *******************************************************************************/
  37:Generated_Source\PSoC6/Status_SW2.c **** uint8 Status_SW2_Read(void) 
  38:Generated_Source\PSoC6/Status_SW2.c **** { 
  29              		.loc 1 38 0
  30              		.cfi_startproc
  31              		@ args = 0, pretend = 0, frame = 0
  32              		@ frame_needed = 0, uses_anonymous_args = 0
  33              		@ link register save eliminated.
  39:Generated_Source\PSoC6/Status_SW2.c ****     return Status_SW2_Status;
  34              		.loc 1 39 0
  35 0000 014B     		ldr	r3, .L2
  36 0002 1878     		ldrb	r0, [r3]	@ zero_extendqisi2
  40:Generated_Source\PSoC6/Status_SW2.c **** }
  37              		.loc 1 40 0
  38 0004 7047     		bx	lr
  39              	.L3:
  40 0006 00BF     		.align	2
  41              	.L2:
  42 0008 04163440 		.word	1077155332
  43              		.cfi_endproc
  44              	.LFE132:
  45              		.size	Status_SW2_Read, .-Status_SW2_Read
  46              		.section	.text.Status_SW2_InterruptEnable,"ax",%progbits
  47              		.align	2
  48              		.global	Status_SW2_InterruptEnable
  49              		.thumb
  50              		.thumb_func
  51              		.type	Status_SW2_InterruptEnable, %function
  52              	Status_SW2_InterruptEnable:
  53              	.LFB133:
  41:Generated_Source\PSoC6/Status_SW2.c **** 
  42:Generated_Source\PSoC6/Status_SW2.c **** 
  43:Generated_Source\PSoC6/Status_SW2.c **** /*******************************************************************************
  44:Generated_Source\PSoC6/Status_SW2.c **** * Function Name: Status_SW2_InterruptEnable
  45:Generated_Source\PSoC6/Status_SW2.c **** ********************************************************************************
  46:Generated_Source\PSoC6/Status_SW2.c **** *
  47:Generated_Source\PSoC6/Status_SW2.c **** * Summary:
  48:Generated_Source\PSoC6/Status_SW2.c **** *  Enables the Status Register interrupt.
  49:Generated_Source\PSoC6/Status_SW2.c **** *
  50:Generated_Source\PSoC6/Status_SW2.c **** * Parameters:
  51:Generated_Source\PSoC6/Status_SW2.c **** *  None.
  52:Generated_Source\PSoC6/Status_SW2.c **** *
  53:Generated_Source\PSoC6/Status_SW2.c **** * Return:
  54:Generated_Source\PSoC6/Status_SW2.c **** *  None.
  55:Generated_Source\PSoC6/Status_SW2.c **** *
  56:Generated_Source\PSoC6/Status_SW2.c **** *******************************************************************************/
  57:Generated_Source\PSoC6/Status_SW2.c **** void Status_SW2_InterruptEnable(void) 
  58:Generated_Source\PSoC6/Status_SW2.c **** {
  54              		.loc 1 58 0
  55              		.cfi_startproc
  56              		@ args = 0, pretend = 0, frame = 0
ARM GAS  C:\Users\nicpa\AppData\Local\Temp\ccqh83x6.s 			page 3


  57              		@ frame_needed = 0, uses_anonymous_args = 0
  58 0000 08B5     		push	{r3, lr}
  59              		.cfi_def_cfa_offset 8
  60              		.cfi_offset 3, -8
  61              		.cfi_offset 14, -4
  59:Generated_Source\PSoC6/Status_SW2.c ****     uint8 interruptState;
  60:Generated_Source\PSoC6/Status_SW2.c ****     interruptState = CyEnterCriticalSection();
  62              		.loc 1 60 0
  63 0002 FFF7FEFF 		bl	Cy_SysLib_EnterCriticalSection
  64              	.LVL0:
  61:Generated_Source\PSoC6/Status_SW2.c ****     Status_SW2_Status_Aux_Ctrl |= Status_SW2_STATUS_INTR_ENBL;
  65              		.loc 1 61 0
  66 0006 044A     		ldr	r2, .L6
  67 0008 1378     		ldrb	r3, [r2]	@ zero_extendqisi2
  68 000a 43F01003 		orr	r3, r3, #16
  69 000e 1370     		strb	r3, [r2]
  62:Generated_Source\PSoC6/Status_SW2.c ****     CyExitCriticalSection(interruptState);
  70              		.loc 1 62 0
  71 0010 C0B2     		uxtb	r0, r0
  72 0012 FFF7FEFF 		bl	Cy_SysLib_ExitCriticalSection
  73              	.LVL1:
  74 0016 08BD     		pop	{r3, pc}
  75              	.L7:
  76              		.align	2
  77              	.L6:
  78 0018 04193440 		.word	1077156100
  79              		.cfi_endproc
  80              	.LFE133:
  81              		.size	Status_SW2_InterruptEnable, .-Status_SW2_InterruptEnable
  82              		.section	.text.Status_SW2_InterruptDisable,"ax",%progbits
  83              		.align	2
  84              		.global	Status_SW2_InterruptDisable
  85              		.thumb
  86              		.thumb_func
  87              		.type	Status_SW2_InterruptDisable, %function
  88              	Status_SW2_InterruptDisable:
  89              	.LFB134:
  63:Generated_Source\PSoC6/Status_SW2.c **** }
  64:Generated_Source\PSoC6/Status_SW2.c **** 
  65:Generated_Source\PSoC6/Status_SW2.c **** 
  66:Generated_Source\PSoC6/Status_SW2.c **** /*******************************************************************************
  67:Generated_Source\PSoC6/Status_SW2.c **** * Function Name: Status_SW2_InterruptDisable
  68:Generated_Source\PSoC6/Status_SW2.c **** ********************************************************************************
  69:Generated_Source\PSoC6/Status_SW2.c **** *
  70:Generated_Source\PSoC6/Status_SW2.c **** * Summary:
  71:Generated_Source\PSoC6/Status_SW2.c **** *  Disables the Status Register interrupt.
  72:Generated_Source\PSoC6/Status_SW2.c **** *
  73:Generated_Source\PSoC6/Status_SW2.c **** * Parameters:
  74:Generated_Source\PSoC6/Status_SW2.c **** *  None.
  75:Generated_Source\PSoC6/Status_SW2.c **** *
  76:Generated_Source\PSoC6/Status_SW2.c **** * Return:
  77:Generated_Source\PSoC6/Status_SW2.c **** *  None.
  78:Generated_Source\PSoC6/Status_SW2.c **** *
  79:Generated_Source\PSoC6/Status_SW2.c **** *******************************************************************************/
  80:Generated_Source\PSoC6/Status_SW2.c **** void Status_SW2_InterruptDisable(void) 
  81:Generated_Source\PSoC6/Status_SW2.c **** {
  90              		.loc 1 81 0
ARM GAS  C:\Users\nicpa\AppData\Local\Temp\ccqh83x6.s 			page 4


  91              		.cfi_startproc
  92              		@ args = 0, pretend = 0, frame = 0
  93              		@ frame_needed = 0, uses_anonymous_args = 0
  94 0000 08B5     		push	{r3, lr}
  95              		.cfi_def_cfa_offset 8
  96              		.cfi_offset 3, -8
  97              		.cfi_offset 14, -4
  82:Generated_Source\PSoC6/Status_SW2.c ****     uint8 interruptState;
  83:Generated_Source\PSoC6/Status_SW2.c ****     interruptState = CyEnterCriticalSection();
  98              		.loc 1 83 0
  99 0002 FFF7FEFF 		bl	Cy_SysLib_EnterCriticalSection
 100              	.LVL2:
  84:Generated_Source\PSoC6/Status_SW2.c ****     Status_SW2_Status_Aux_Ctrl &= (uint8)(~Status_SW2_STATUS_INTR_ENBL);
 101              		.loc 1 84 0
 102 0006 044A     		ldr	r2, .L10
 103 0008 1378     		ldrb	r3, [r2]	@ zero_extendqisi2
 104 000a 03F0EF03 		and	r3, r3, #239
 105 000e 1370     		strb	r3, [r2]
  85:Generated_Source\PSoC6/Status_SW2.c ****     CyExitCriticalSection(interruptState);
 106              		.loc 1 85 0
 107 0010 C0B2     		uxtb	r0, r0
 108 0012 FFF7FEFF 		bl	Cy_SysLib_ExitCriticalSection
 109              	.LVL3:
 110 0016 08BD     		pop	{r3, pc}
 111              	.L11:
 112              		.align	2
 113              	.L10:
 114 0018 04193440 		.word	1077156100
 115              		.cfi_endproc
 116              	.LFE134:
 117              		.size	Status_SW2_InterruptDisable, .-Status_SW2_InterruptDisable
 118              		.section	.text.Status_SW2_WriteMask,"ax",%progbits
 119              		.align	2
 120              		.global	Status_SW2_WriteMask
 121              		.thumb
 122              		.thumb_func
 123              		.type	Status_SW2_WriteMask, %function
 124              	Status_SW2_WriteMask:
 125              	.LFB135:
  86:Generated_Source\PSoC6/Status_SW2.c **** }
  87:Generated_Source\PSoC6/Status_SW2.c **** 
  88:Generated_Source\PSoC6/Status_SW2.c **** 
  89:Generated_Source\PSoC6/Status_SW2.c **** /*******************************************************************************
  90:Generated_Source\PSoC6/Status_SW2.c **** * Function Name: Status_SW2_WriteMask
  91:Generated_Source\PSoC6/Status_SW2.c **** ********************************************************************************
  92:Generated_Source\PSoC6/Status_SW2.c **** *
  93:Generated_Source\PSoC6/Status_SW2.c **** * Summary:
  94:Generated_Source\PSoC6/Status_SW2.c **** *  Writes the current mask value assigned to the Status Register.
  95:Generated_Source\PSoC6/Status_SW2.c **** *
  96:Generated_Source\PSoC6/Status_SW2.c **** * Parameters:
  97:Generated_Source\PSoC6/Status_SW2.c **** *  mask:  Value to write into the mask register.
  98:Generated_Source\PSoC6/Status_SW2.c **** *
  99:Generated_Source\PSoC6/Status_SW2.c **** * Return:
 100:Generated_Source\PSoC6/Status_SW2.c **** *  None.
 101:Generated_Source\PSoC6/Status_SW2.c **** *
 102:Generated_Source\PSoC6/Status_SW2.c **** *******************************************************************************/
 103:Generated_Source\PSoC6/Status_SW2.c **** void Status_SW2_WriteMask(uint8 mask) 
ARM GAS  C:\Users\nicpa\AppData\Local\Temp\ccqh83x6.s 			page 5


 104:Generated_Source\PSoC6/Status_SW2.c **** {
 126              		.loc 1 104 0
 127              		.cfi_startproc
 128              		@ args = 0, pretend = 0, frame = 0
 129              		@ frame_needed = 0, uses_anonymous_args = 0
 130              		@ link register save eliminated.
 131              	.LVL4:
 105:Generated_Source\PSoC6/Status_SW2.c ****     #if(Status_SW2_INPUTS < 8u)
 106:Generated_Source\PSoC6/Status_SW2.c ****     	mask &= ((uint8)(1u << Status_SW2_INPUTS) - 1u);
 132              		.loc 1 106 0
 133 0000 00F00100 		and	r0, r0, #1
 134              	.LVL5:
 107:Generated_Source\PSoC6/Status_SW2.c **** 	#endif /* End Status_SW2_INPUTS < 8u */
 108:Generated_Source\PSoC6/Status_SW2.c ****     Status_SW2_Status_Mask = mask;
 135              		.loc 1 108 0
 136 0004 014B     		ldr	r3, .L13
 137 0006 1870     		strb	r0, [r3]
 138 0008 7047     		bx	lr
 139              	.L14:
 140 000a 00BF     		.align	2
 141              	.L13:
 142 000c 04183440 		.word	1077155844
 143              		.cfi_endproc
 144              	.LFE135:
 145              		.size	Status_SW2_WriteMask, .-Status_SW2_WriteMask
 146              		.section	.text.Status_SW2_ReadMask,"ax",%progbits
 147              		.align	2
 148              		.global	Status_SW2_ReadMask
 149              		.thumb
 150              		.thumb_func
 151              		.type	Status_SW2_ReadMask, %function
 152              	Status_SW2_ReadMask:
 153              	.LFB136:
 109:Generated_Source\PSoC6/Status_SW2.c **** }
 110:Generated_Source\PSoC6/Status_SW2.c **** 
 111:Generated_Source\PSoC6/Status_SW2.c **** 
 112:Generated_Source\PSoC6/Status_SW2.c **** /*******************************************************************************
 113:Generated_Source\PSoC6/Status_SW2.c **** * Function Name: Status_SW2_ReadMask
 114:Generated_Source\PSoC6/Status_SW2.c **** ********************************************************************************
 115:Generated_Source\PSoC6/Status_SW2.c **** *
 116:Generated_Source\PSoC6/Status_SW2.c **** * Summary:
 117:Generated_Source\PSoC6/Status_SW2.c **** *  Reads the current interrupt mask assigned to the Status Register.
 118:Generated_Source\PSoC6/Status_SW2.c **** *
 119:Generated_Source\PSoC6/Status_SW2.c **** * Parameters:
 120:Generated_Source\PSoC6/Status_SW2.c **** *  None.
 121:Generated_Source\PSoC6/Status_SW2.c **** *
 122:Generated_Source\PSoC6/Status_SW2.c **** * Return:
 123:Generated_Source\PSoC6/Status_SW2.c **** *  The value of the interrupt mask of the Status Register.
 124:Generated_Source\PSoC6/Status_SW2.c **** *
 125:Generated_Source\PSoC6/Status_SW2.c **** *******************************************************************************/
 126:Generated_Source\PSoC6/Status_SW2.c **** uint8 Status_SW2_ReadMask(void) 
 127:Generated_Source\PSoC6/Status_SW2.c **** {
 154              		.loc 1 127 0
 155              		.cfi_startproc
 156              		@ args = 0, pretend = 0, frame = 0
 157              		@ frame_needed = 0, uses_anonymous_args = 0
 158              		@ link register save eliminated.
ARM GAS  C:\Users\nicpa\AppData\Local\Temp\ccqh83x6.s 			page 6


 128:Generated_Source\PSoC6/Status_SW2.c ****     return Status_SW2_Status_Mask;
 159              		.loc 1 128 0
 160 0000 014B     		ldr	r3, .L16
 161 0002 1878     		ldrb	r0, [r3]	@ zero_extendqisi2
 129:Generated_Source\PSoC6/Status_SW2.c **** }
 162              		.loc 1 129 0
 163 0004 7047     		bx	lr
 164              	.L17:
 165 0006 00BF     		.align	2
 166              	.L16:
 167 0008 04183440 		.word	1077155844
 168              		.cfi_endproc
 169              	.LFE136:
 170              		.size	Status_SW2_ReadMask, .-Status_SW2_ReadMask
 171              		.text
 172              	.Letext0:
 173              		.file 2 "c:\\program files (x86)\\cypress\\psoc creator\\4.4\\psoc creator\\import\\gnu\\arm\\5.4.
 174              		.file 3 "c:\\program files (x86)\\cypress\\psoc creator\\4.4\\psoc creator\\import\\gnu\\arm\\5.4.
 175              		.file 4 "Generated_Source\\PSoC6\\pdl\\drivers/peripheral/syslib/cy_syslib.h"
 176              		.file 5 ".\\CMSIS\\Core\\Include/core_cm4.h"