ARM GAS  C:\Users\nicpa\AppData\Local\Temp\ccHOh1Eg.s 			page 1


   1              		.syntax unified
   2              		.cpu cortex-m4
   3              		.eabi_attribute 27, 1
   4              		.fpu fpv4-sp-d16
   5              		.eabi_attribute 20, 1
   6              		.eabi_attribute 21, 1
   7              		.eabi_attribute 23, 3
   8              		.eabi_attribute 24, 1
   9              		.eabi_attribute 25, 1
  10              		.eabi_attribute 26, 1
  11              		.eabi_attribute 30, 1
  12              		.eabi_attribute 34, 1
  13              		.eabi_attribute 18, 4
  14              		.thumb
  15              		.syntax unified
  16              		.file	"Traitement_Signal.c"
  17              		.text
  18              	.Ltext0:
  19              		.cfi_sections	.debug_frame
  20              		.section	.text.filtre_6,"ax",%progbits
  21              		.align	2
  22              		.global	filtre_6
  23              		.thumb
  24              		.thumb_func
  25              		.type	filtre_6, %function
  26              	filtre_6:
  27              	.LFB699:
  28              		.file 1 "Traitement_Signal.c"
   1:Traitement_Signal.c **** /* ========================================
   2:Traitement_Signal.c ****  *
   3:Traitement_Signal.c ****  * Copyright YOUR COMPANY, THE YEAR
   4:Traitement_Signal.c ****  * All Rights Reserved
   5:Traitement_Signal.c ****  * UNPUBLISHED, LICENSED SOFTWARE.
   6:Traitement_Signal.c ****  *
   7:Traitement_Signal.c ****  * CONFIDENTIAL AND PROPRIETARY INFORMATION
   8:Traitement_Signal.c ****  * WHICH IS THE PROPERTY OF your company.
   9:Traitement_Signal.c ****  *
  10:Traitement_Signal.c ****  * ========================================
  11:Traitement_Signal.c **** */
  12:Traitement_Signal.c **** #include "master.h"
  13:Traitement_Signal.c **** 
  14:Traitement_Signal.c ****  
  15:Traitement_Signal.c **** 
  16:Traitement_Signal.c **** #define TEST_LENGTH_SAMPLES  1000
  17:Traitement_Signal.c **** #define BLOCK_SIZE            1
  18:Traitement_Signal.c **** #define NUM_TAPS              51
  19:Traitement_Signal.c **** 
  20:Traitement_Signal.c **** static float32_t firStateF32[BLOCK_SIZE + NUM_TAPS - 1];
  21:Traitement_Signal.c **** 
  22:Traitement_Signal.c **** uint32_t blockSize = BLOCK_SIZE;
  23:Traitement_Signal.c **** uint32_t numBlocks = TEST_LENGTH_SAMPLES/BLOCK_SIZE;
  24:Traitement_Signal.c **** 
  25:Traitement_Signal.c **** 
  26:Traitement_Signal.c **** /*******************************************************************************
  27:Traitement_Signal.c **** * Function Name: void filtre_6(float32 signal[], float32 signal_filtre[])
  28:Traitement_Signal.c **** 
  29:Traitement_Signal.c **** ********************************************************************************
ARM GAS  C:\Users\nicpa\AppData\Local\Temp\ccHOh1Eg.s 			page 2


  30:Traitement_Signal.c **** *
  31:Traitement_Signal.c **** * Summary: 
  32:Traitement_Signal.c **** * Cette fonction agit comme filtre passe-bas de 6 Hz pour filtrer un signal d’entrée. 
  33:Traitement_Signal.c **** * Cette fonction est basée sur l’exemple qu’on retrouve à l’adresse suivante : 
  34:Traitement_Signal.c **** * https://www.keil.com/pack/doc/CMSIS/DSP/html/group__FIRLPF.html
  35:Traitement_Signal.c **** 
  36:Traitement_Signal.c **** *Parameters:
  37:Traitement_Signal.c **** * float32 signal[] : le signal à filtrer
  38:Traitement_Signal.c **** * float32 signal_filtre[] : vecteur qui contiendra le signal filtré
  39:Traitement_Signal.c **** 
  40:Traitement_Signal.c **** * Return:
  41:Traitement_Signal.c **** * None
  42:Traitement_Signal.c **** *
  43:Traitement_Signal.c **** * Side Effects:
  44:Traitement_Signal.c **** * Nécessite plusieurs coefficients
  45:Traitement_Signal.c **** *******************************************************************************/
  46:Traitement_Signal.c **** void filtre_6(float32 signal[], float32 signal_filtre[]){
  29              		.loc 1 46 0
  30              		.cfi_startproc
  31              		@ args = 0, pretend = 0, frame = 216
  32              		@ frame_needed = 0, uses_anonymous_args = 0
  33              	.LVL0:
  34 0000 70B5     		push	{r4, r5, r6, lr}
  35              		.cfi_def_cfa_offset 16
  36              		.cfi_offset 4, -16
  37              		.cfi_offset 5, -12
  38              		.cfi_offset 6, -8
  39              		.cfi_offset 14, -4
  40 0002 B8B0     		sub	sp, sp, #224
  41              		.cfi_def_cfa_offset 240
  42 0004 0646     		mov	r6, r0
  43 0006 0D46     		mov	r5, r1
  47:Traitement_Signal.c ****     
  48:Traitement_Signal.c ****     const float32_t firCoeffs32PasseBasBPM[NUM_TAPS] = {0.0000000000f, 0.0004075633f, 0.0008932012f
  44              		.loc 1 48 0
  45 0008 CC22     		movs	r2, #204
  46 000a 1049     		ldr	r1, .L5
  47              	.LVL1:
  48 000c 05A8     		add	r0, sp, #20
  49              	.LVL2:
  50 000e FFF7FEFF 		bl	memcpy
  51              	.LVL3:
  49:Traitement_Signal.c **** 
  50:Traitement_Signal.c ****     uint32_t i;
  51:Traitement_Signal.c ****     arm_fir_instance_f32 S;
  52:Traitement_Signal.c ****     float32_t *inputF32;
  53:Traitement_Signal.c ****     float32_t *outputF32;
  54:Traitement_Signal.c **** 
  55:Traitement_Signal.c ****   
  56:Traitement_Signal.c ****   inputF32 = &signal[0];
  57:Traitement_Signal.c ****   outputF32 = &signal_filtre[0];
  58:Traitement_Signal.c ****   /* Call FIR init function to initialize the instance structure. */
  59:Traitement_Signal.c ****   arm_fir_init_f32(&S, NUM_TAPS, (float32_t *)&firCoeffs32PasseBasBPM[0], &firStateF32[0], blockSiz
  52              		.loc 1 59 0
  53 0012 0F4B     		ldr	r3, .L5+4
  54 0014 1B68     		ldr	r3, [r3]
  55 0016 0093     		str	r3, [sp]
ARM GAS  C:\Users\nicpa\AppData\Local\Temp\ccHOh1Eg.s 			page 3


  56 0018 0E4B     		ldr	r3, .L5+8
  57 001a 05AA     		add	r2, sp, #20
  58 001c 3321     		movs	r1, #51
  59 001e 02A8     		add	r0, sp, #8
  60 0020 FFF7FEFF 		bl	arm_fir_init_f32
  61              	.LVL4:
  60:Traitement_Signal.c ****   /* ----------------------------------------------------------------------
  61:Traitement_Signal.c ****   ** Call the FIR process function for every blockSize samples
  62:Traitement_Signal.c ****   ** ------------------------------------------------------------------- */
  63:Traitement_Signal.c ****   for(i=0; i < numBlocks; i++)
  62              		.loc 1 63 0
  63 0024 0024     		movs	r4, #0
  64 0026 0AE0     		b	.L2
  65              	.LVL5:
  66              	.L3:
  64:Traitement_Signal.c ****   {
  65:Traitement_Signal.c ****     arm_fir_f32(&S, inputF32 + (i * blockSize), outputF32 + (i * blockSize), blockSize);
  67              		.loc 1 65 0 discriminator 3
  68 0028 094B     		ldr	r3, .L5+4
  69 002a 1B68     		ldr	r3, [r3]
  70 002c 03FB04F1 		mul	r1, r3, r4
  71 0030 8900     		lsls	r1, r1, #2
  72 0032 6A18     		adds	r2, r5, r1
  73 0034 3144     		add	r1, r1, r6
  74 0036 02A8     		add	r0, sp, #8
  75 0038 FFF7FEFF 		bl	arm_fir_f32
  76              	.LVL6:
  63:Traitement_Signal.c ****   {
  77              		.loc 1 63 0 discriminator 3
  78 003c 0134     		adds	r4, r4, #1
  79              	.LVL7:
  80              	.L2:
  63:Traitement_Signal.c ****   {
  81              		.loc 1 63 0 is_stmt 0 discriminator 1
  82 003e 044B     		ldr	r3, .L5+4
  83 0040 5B68     		ldr	r3, [r3, #4]
  84 0042 9C42     		cmp	r4, r3
  85 0044 F0D3     		bcc	.L3
  66:Traitement_Signal.c ****   } 
  67:Traitement_Signal.c **** }
  86              		.loc 1 67 0 is_stmt 1
  87 0046 38B0     		add	sp, sp, #224
  88              		.cfi_def_cfa_offset 16
  89              		@ sp needed
  90 0048 70BD     		pop	{r4, r5, r6, pc}
  91              	.LVL8:
  92              	.L6:
  93 004a 00BF     		.align	2
  94              	.L5:
  95 004c 00000000 		.word	.LANCHOR0
  96 0050 00000000 		.word	.LANCHOR2
  97 0054 00000000 		.word	.LANCHOR1
  98              		.cfi_endproc
  99              	.LFE699:
 100              		.size	filtre_6, .-filtre_6
 101              		.section	.text.AC,"ax",%progbits
 102              		.align	2
ARM GAS  C:\Users\nicpa\AppData\Local\Temp\ccHOh1Eg.s 			page 4


 103              		.global	AC
 104              		.thumb
 105              		.thumb_func
 106              		.type	AC, %function
 107              	AC:
 108              	.LFB700:
  68:Traitement_Signal.c **** 
  69:Traitement_Signal.c **** 
  70:Traitement_Signal.c ****     float32 AC_valeur;
  71:Traitement_Signal.c ****     float max_AC;
  72:Traitement_Signal.c ****     uint32_t  indexmax_AC;
  73:Traitement_Signal.c ****     float min_AC;
  74:Traitement_Signal.c ****     uint32_t  indexmin_AC;
  75:Traitement_Signal.c ****     int k;
  76:Traitement_Signal.c ****     float AC_1000[1000] = {};
  77:Traitement_Signal.c ****     
  78:Traitement_Signal.c ****     
  79:Traitement_Signal.c **** /*******************************************************************************
  80:Traitement_Signal.c **** * Function Name: float32 AC(float32 signal[])
  81:Traitement_Signal.c **** ********************************************************************************
  82:Traitement_Signal.c **** *
  83:Traitement_Signal.c **** * Summary: 
  84:Traitement_Signal.c **** * Cette fonction calcule le maximum ainsi que le minimum d’un signal donné en paramètre. 
  85:Traitement_Signal.c **** * Cette fonction calcule par la suite la différence du max et du min pour obtenir l’amplitude du
  86:Traitement_Signal.c **** * signal et ainsi la composante AC. Elle utilise les valeurs 500 à 1000 du vecteur pour éviter le
  87:Traitement_Signal.c **** * erratiques dûes au filtre.
  88:Traitement_Signal.c ****     
  89:Traitement_Signal.c **** * Parameters:
  90:Traitement_Signal.c **** * float32 signal[] : les données dont on veut trouver l'amplitude
  91:Traitement_Signal.c **** * 
  92:Traitement_Signal.c **** * Return:
  93:Traitement_Signal.c **** * float32 AC_valeur : l'amplitude du signal
  94:Traitement_Signal.c **** *
  95:Traitement_Signal.c **** * Side Effects:
  96:Traitement_Signal.c **** * None   
  97:Traitement_Signal.c **** *******************************************************************************/
  98:Traitement_Signal.c **** 
  99:Traitement_Signal.c **** float32 AC(float32 signal[]){
 109              		.loc 1 99 0
 110              		.cfi_startproc
 111              		@ args = 0, pretend = 0, frame = 0
 112              		@ frame_needed = 0, uses_anonymous_args = 0
 113              	.LVL9:
 114 0000 2DE9F041 		push	{r4, r5, r6, r7, r8, lr}
 115              		.cfi_def_cfa_offset 24
 116              		.cfi_offset 4, -24
 117              		.cfi_offset 5, -20
 118              		.cfi_offset 6, -16
 119              		.cfi_offset 7, -12
 120              		.cfi_offset 8, -8
 121              		.cfi_offset 14, -4
 100:Traitement_Signal.c ****     AC_valeur = 0;
 122              		.loc 1 100 0
 123 0004 154E     		ldr	r6, .L9
 124 0006 0021     		movs	r1, #0
 125 0008 3160     		str	r1, [r6]	@ float
 101:Traitement_Signal.c ****     max_AC = 0;
ARM GAS  C:\Users\nicpa\AppData\Local\Temp\ccHOh1Eg.s 			page 5


 126              		.loc 1 101 0
 127 000a 154D     		ldr	r5, .L9+4
 128 000c 2960     		str	r1, [r5]	@ float
 102:Traitement_Signal.c ****     indexmax_AC = 0;
 129              		.loc 1 102 0
 130 000e 154B     		ldr	r3, .L9+8
 131 0010 0022     		movs	r2, #0
 132 0012 1A60     		str	r2, [r3]
 103:Traitement_Signal.c ****     min_AC = 0;
 133              		.loc 1 103 0
 134 0014 144C     		ldr	r4, .L9+12
 135 0016 2160     		str	r1, [r4]	@ float
 104:Traitement_Signal.c ****     indexmin_AC = 0;
 136              		.loc 1 104 0
 137 0018 DFF85480 		ldr	r8, .L9+20
 138 001c C8F80020 		str	r2, [r8]
 105:Traitement_Signal.c ****     k = 0;
 139              		.loc 1 105 0
 140 0020 1249     		ldr	r1, .L9+16
 141 0022 0A60     		str	r2, [r1]
 106:Traitement_Signal.c ****   
 107:Traitement_Signal.c ****     
 108:Traitement_Signal.c ****     arm_max_f32(&signal[500], 500, &max_AC, &indexmax_AC);
 142              		.loc 1 108 0
 143 0024 00F5FA67 		add	r7, r0, #2000
 144 0028 2A46     		mov	r2, r5
 145 002a 4FF4FA71 		mov	r1, #500
 146 002e 3846     		mov	r0, r7
 147              	.LVL10:
 148 0030 FFF7FEFF 		bl	arm_max_f32
 149              	.LVL11:
 109:Traitement_Signal.c ****     arm_min_f32(&signal[500], 500, &min_AC, &indexmin_AC);
 150              		.loc 1 109 0
 151 0034 4346     		mov	r3, r8
 152 0036 2246     		mov	r2, r4
 153 0038 4FF4FA71 		mov	r1, #500
 154 003c 3846     		mov	r0, r7
 155 003e FFF7FEFF 		bl	arm_min_f32
 156              	.LVL12:
 110:Traitement_Signal.c ****     AC_valeur = max_AC - min_AC;
 157              		.loc 1 110 0
 158 0042 D5ED007A 		vldr.32	s15, [r5]
 159 0046 94ED007A 		vldr.32	s14, [r4]
 160 004a 77EEC77A 		vsub.f32	s15, s15, s14
 161 004e C6ED007A 		vstr.32	s15, [r6]
 111:Traitement_Signal.c ****     return AC_valeur;
 112:Traitement_Signal.c **** 
 113:Traitement_Signal.c **** }
 162              		.loc 1 113 0
 163 0052 17EE900A 		vmov	r0, s15
 164 0056 BDE8F081 		pop	{r4, r5, r6, r7, r8, pc}
 165              	.LVL13:
 166              	.L10:
 167 005a 00BF     		.align	2
 168              	.L9:
 169 005c 00000000 		.word	AC_valeur
 170 0060 00000000 		.word	max_AC
ARM GAS  C:\Users\nicpa\AppData\Local\Temp\ccHOh1Eg.s 			page 6


 171 0064 00000000 		.word	indexmax_AC
 172 0068 00000000 		.word	min_AC
 173 006c 00000000 		.word	k
 174 0070 00000000 		.word	indexmin_AC
 175              		.cfi_endproc
 176              	.LFE700:
 177              		.size	AC, .-AC
 178              		.section	.text.DC_sum,"ax",%progbits
 179              		.align	2
 180              		.global	DC_sum
 181              		.thumb
 182              		.thumb_func
 183              		.type	DC_sum, %function
 184              	DC_sum:
 185              	.LFB701:
 114:Traitement_Signal.c **** 
 115:Traitement_Signal.c **** 
 116:Traitement_Signal.c **** 
 117:Traitement_Signal.c **** float32 DC;
 118:Traitement_Signal.c **** float32 moyenne_DC;
 119:Traitement_Signal.c **** 
 120:Traitement_Signal.c **** /*******************************************************************************
 121:Traitement_Signal.c **** * Function Name: float32 DC_sum(float32 signal[])
 122:Traitement_Signal.c **** ********************************************************************************
 123:Traitement_Signal.c **** *
 124:Traitement_Signal.c **** * Summary: 
 125:Traitement_Signal.c **** * Cette fonction calcule la moyenne du signal donné en paramètre pour en retirer la composante DC
 126:Traitement_Signal.c ****     
 127:Traitement_Signal.c **** * Parameters:
 128:Traitement_Signal.c **** * float32 signal[] : les données dont on veut trouver l'amplitude
 129:Traitement_Signal.c **** * 
 130:Traitement_Signal.c **** * Return:
 131:Traitement_Signal.c **** * float32 AC_valeur : l'amplitude du signal
 132:Traitement_Signal.c **** *
 133:Traitement_Signal.c **** * Side Effects:
 134:Traitement_Signal.c **** * None   
 135:Traitement_Signal.c **** *******************************************************************************/
 136:Traitement_Signal.c **** 
 137:Traitement_Signal.c **** float32 DC_sum(float32 signal[]){
 186              		.loc 1 137 0
 187              		.cfi_startproc
 188              		@ args = 0, pretend = 0, frame = 0
 189              		@ frame_needed = 0, uses_anonymous_args = 0
 190              		@ link register save eliminated.
 191              	.LVL14:
 138:Traitement_Signal.c ****      DC=0;
 192              		.loc 1 138 0
 193 0000 0023     		movs	r3, #0
 194 0002 114A     		ldr	r2, .L14
 195 0004 1360     		str	r3, [r2]	@ float
 139:Traitement_Signal.c ****      moyenne_DC = 0;
 196              		.loc 1 139 0
 197 0006 114A     		ldr	r2, .L14+4
 198 0008 1360     		str	r3, [r2]	@ float
 199              	.LVL15:
 200              	.LBB7:
 140:Traitement_Signal.c **** 
ARM GAS  C:\Users\nicpa\AppData\Local\Temp\ccHOh1Eg.s 			page 7


 141:Traitement_Signal.c ****      for(int i=500; i<1000; i++)
 201              		.loc 1 141 0
 202 000a 4FF4FA73 		mov	r3, #500
 203 000e 0BE0     		b	.L12
 204              	.LVL16:
 205              	.L13:
 142:Traitement_Signal.c ****      {
 143:Traitement_Signal.c ****          DC += signal[i];
 206              		.loc 1 143 0 discriminator 3
 207 0010 00EB8302 		add	r2, r0, r3, lsl #2
 208 0014 92ED007A 		vldr.32	s14, [r2]
 209 0018 0B4A     		ldr	r2, .L14
 210 001a D2ED007A 		vldr.32	s15, [r2]
 211 001e 77EE877A 		vadd.f32	s15, s15, s14
 212 0022 C2ED007A 		vstr.32	s15, [r2]
 141:Traitement_Signal.c ****      {
 213              		.loc 1 141 0 discriminator 3
 214 0026 0133     		adds	r3, r3, #1
 215              	.LVL17:
 216              	.L12:
 141:Traitement_Signal.c ****      {
 217              		.loc 1 141 0 is_stmt 0 discriminator 1
 218 0028 B3F57A7F 		cmp	r3, #1000
 219 002c F0DB     		blt	.L13
 220              	.LBE7:
 144:Traitement_Signal.c ****      }
 145:Traitement_Signal.c ****      moyenne_DC = DC/500;
 221              		.loc 1 145 0 is_stmt 1
 222 002e 064B     		ldr	r3, .L14
 223              	.LVL18:
 224 0030 D3ED006A 		vldr.32	s13, [r3]
 225 0034 9FED067A 		vldr.32	s14, .L14+8
 226 0038 C6EE877A 		vdiv.f32	s15, s13, s14
 227 003c 034B     		ldr	r3, .L14+4
 228 003e C3ED007A 		vstr.32	s15, [r3]
 146:Traitement_Signal.c ****      return moyenne_DC;
 147:Traitement_Signal.c **** }
 229              		.loc 1 147 0
 230 0042 17EE900A 		vmov	r0, s15
 231              	.LVL19:
 232 0046 7047     		bx	lr
 233              	.L15:
 234              		.align	2
 235              	.L14:
 236 0048 00000000 		.word	DC
 237 004c 00000000 		.word	moyenne_DC
 238 0050 0000FA43 		.word	1140457472
 239              		.cfi_endproc
 240              	.LFE701:
 241              		.size	DC_sum, .-DC_sum
 242              		.global	__aeabi_f2d
 243              		.global	__aeabi_dmul
 244              		.global	__aeabi_dadd
 245              		.global	__aeabi_d2f
 246              		.section	.text.traitement_task,"ax",%progbits
 247              		.align	2
 248              		.global	traitement_task
ARM GAS  C:\Users\nicpa\AppData\Local\Temp\ccHOh1Eg.s 			page 8


 249              		.thumb
 250              		.thumb_func
 251              		.type	traitement_task, %function
 252              	traitement_task:
 253              	.LFB702:
 148:Traitement_Signal.c **** 
 149:Traitement_Signal.c **** 
 150:Traitement_Signal.c **** 
 151:Traitement_Signal.c **** /*******************************************************************************
 152:Traitement_Signal.c **** * Function Name: void traitement_task(void*pvParameters)
 153:Traitement_Signal.c **** ********************************************************************************
 154:Traitement_Signal.c **** *
 155:Traitement_Signal.c **** * Summary: 
 156:Traitement_Signal.c **** * Cette tâche appelle le traitement des données reçues du capteur MAX30102,
 157:Traitement_Signal.c **** * en filtrant d'abord les signaux, puis en retirant les composantes AC et DC, et finalement en 
 158:Traitement_Signal.c **** * calculant les valeurs de SpO2 et HR.
 159:Traitement_Signal.c **** * 
 160:Traitement_Signal.c **** * Parameters:
 161:Traitement_Signal.c **** * void* pvParameters
 162:Traitement_Signal.c **** * 
 163:Traitement_Signal.c **** * Return:
 164:Traitement_Signal.c **** * None
 165:Traitement_Signal.c **** *
 166:Traitement_Signal.c **** * Side Effects:
 167:Traitement_Signal.c **** * None  
 168:Traitement_Signal.c **** * 
 169:Traitement_Signal.c **** *******************************************************************************/
 170:Traitement_Signal.c ****     
 171:Traitement_Signal.c **** void traitement_task(void* pvParameters)
 172:Traitement_Signal.c **** {
 254              		.loc 1 172 0
 255              		.cfi_startproc
 256              		@ args = 0, pretend = 0, frame = 72
 257              		@ frame_needed = 0, uses_anonymous_args = 0
 258              	.LVL20:
 259 0000 30B5     		push	{r4, r5, lr}
 260              		.cfi_def_cfa_offset 12
 261              		.cfi_offset 4, -12
 262              		.cfi_offset 5, -8
 263              		.cfi_offset 14, -4
 264 0002 2DED028B 		vpush.64	{d8}
 265              		.cfi_def_cfa_offset 20
 266              		.cfi_offset 80, -20
 267              		.cfi_offset 81, -16
 268 0006 93B0     		sub	sp, sp, #76
 269              		.cfi_def_cfa_offset 96
 173:Traitement_Signal.c ****     
 174:Traitement_Signal.c ****     (void)pvParameters;
 175:Traitement_Signal.c **** 
 176:Traitement_Signal.c ****     R = 0 ;
 270              		.loc 1 176 0
 271 0008 0023     		movs	r3, #0
 272 000a 8F4A     		ldr	r2, .L40
 273 000c 1360     		str	r3, [r2]	@ float
 177:Traitement_Signal.c ****     S = 0;
 274              		.loc 1 177 0
 275 000e 8F4A     		ldr	r2, .L40+4
ARM GAS  C:\Users\nicpa\AppData\Local\Temp\ccHOh1Eg.s 			page 9


 276 0010 1360     		str	r3, [r2]	@ float
 178:Traitement_Signal.c ****     DC_R = 0;
 277              		.loc 1 178 0
 278 0012 8F4A     		ldr	r2, .L40+8
 279 0014 1360     		str	r3, [r2]	@ float
 179:Traitement_Signal.c ****     DC_IF = 0;
 280              		.loc 1 179 0
 281 0016 8F4A     		ldr	r2, .L40+12
 282 0018 1360     		str	r3, [r2]	@ float
 180:Traitement_Signal.c ****     AC_R = 0;
 283              		.loc 1 180 0
 284 001a 8F4A     		ldr	r2, .L40+16
 285 001c 1360     		str	r3, [r2]	@ float
 286              	.LVL21:
 287              	.L32:
 181:Traitement_Signal.c ****     DC_IF = 0;
 182:Traitement_Signal.c ****     
 183:Traitement_Signal.c ****  
 184:Traitement_Signal.c ****    
 185:Traitement_Signal.c ****     
 186:Traitement_Signal.c ****     for (;;)
 187:Traitement_Signal.c ****     {
 188:Traitement_Signal.c ****         
 189:Traitement_Signal.c ****         if (currentpage == PAGE_SIGNAL_IR || currentpage == PAGE_SIGNAL_R)
 288              		.loc 1 189 0
 289 001e 8F4B     		ldr	r3, .L40+20
 290 0020 1B78     		ldrb	r3, [r3]	@ zero_extendqisi2
 291 0022 8F4A     		ldr	r2, .L40+24
 292 0024 1278     		ldrb	r2, [r2]	@ zero_extendqisi2
 293 0026 9342     		cmp	r3, r2
 294 0028 04D0     		beq	.L17
 295              		.loc 1 189 0 is_stmt 0 discriminator 1
 296 002a 8E4A     		ldr	r2, .L40+28
 297 002c 1278     		ldrb	r2, [r2]	@ zero_extendqisi2
 298 002e 9342     		cmp	r3, r2
 299 0030 40F0FE80 		bne	.L18
 300              	.L17:
 190:Traitement_Signal.c ****         {
 191:Traitement_Signal.c ****             
 192:Traitement_Signal.c ****             if (read_flag_MAX)
 301              		.loc 1 192 0 is_stmt 1
 302 0034 8C4B     		ldr	r3, .L40+32
 303 0036 1B78     		ldrb	r3, [r3]	@ zero_extendqisi2
 304 0038 002B     		cmp	r3, #0
 305 003a 00F0FD80 		beq	.L19
 306              	.LBB15:
 193:Traitement_Signal.c ****             {
 194:Traitement_Signal.c ****                 //Filtrage passe-bas des signaux 
 195:Traitement_Signal.c ****                 filtre_6(red_data, signal_R);
 307              		.loc 1 195 0
 308 003e 8B4D     		ldr	r5, .L40+36
 309 0040 2946     		mov	r1, r5
 310 0042 8B48     		ldr	r0, .L40+40
 311 0044 FFF7FEFF 		bl	filtre_6
 312              	.LVL22:
 196:Traitement_Signal.c ****                 filtre_6(ir_data, signal_IF);
 313              		.loc 1 196 0
ARM GAS  C:\Users\nicpa\AppData\Local\Temp\ccHOh1Eg.s 			page 10


 314 0048 8A4C     		ldr	r4, .L40+44
 315 004a 2146     		mov	r1, r4
 316 004c 8A48     		ldr	r0, .L40+48
 317 004e FFF7FEFF 		bl	filtre_6
 318              	.LVL23:
 197:Traitement_Signal.c **** 
 198:Traitement_Signal.c ****                 //Extraction du courant DC moyen
 199:Traitement_Signal.c ****                 DC_R = DC_sum(signal_R);
 319              		.loc 1 199 0
 320 0052 2846     		mov	r0, r5
 321 0054 FFF7FEFF 		bl	DC_sum
 322              	.LVL24:
 323 0058 7D4B     		ldr	r3, .L40+8
 324 005a 1860     		str	r0, [r3]	@ float
 200:Traitement_Signal.c ****                 DC_IF = DC_sum(signal_IF);
 325              		.loc 1 200 0
 326 005c 2046     		mov	r0, r4
 327 005e FFF7FEFF 		bl	DC_sum
 328              	.LVL25:
 329 0062 06EE900A 		vmov	s13, r0
 330 0066 7B4B     		ldr	r3, .L40+12
 331 0068 1860     		str	r0, [r3]	@ float
 332              	.LVL26:
 333              	.LBB16:
 201:Traitement_Signal.c ****     
 202:Traitement_Signal.c ****                 //Obtention des signaux AC
 203:Traitement_Signal.c ****                 for(int i=0; i<1000; i++)
 334              		.loc 1 203 0
 335 006a 0022     		movs	r2, #0
 336 006c 18E0     		b	.L20
 337              	.LVL27:
 338              	.L21:
 204:Traitement_Signal.c ****                 {
 205:Traitement_Signal.c ****                     signal_AC_R[i] = signal_R[i] - DC_R;
 339              		.loc 1 205 0 discriminator 3
 340 006e 9300     		lsls	r3, r2, #2
 341 0070 7E49     		ldr	r1, .L40+36
 342 0072 1944     		add	r1, r1, r3
 343 0074 D1ED007A 		vldr.32	s15, [r1]
 344 0078 7549     		ldr	r1, .L40+8
 345 007a 91ED007A 		vldr.32	s14, [r1]
 346 007e 77EEC77A 		vsub.f32	s15, s15, s14
 347 0082 7E49     		ldr	r1, .L40+52
 348 0084 1944     		add	r1, r1, r3
 349 0086 C1ED007A 		vstr.32	s15, [r1]
 206:Traitement_Signal.c ****                     signal_AC_IF[i] = signal_IF[i] - DC_IF;
 350              		.loc 1 206 0 discriminator 3
 351 008a 7A49     		ldr	r1, .L40+44
 352 008c 1944     		add	r1, r1, r3
 353 008e D1ED007A 		vldr.32	s15, [r1]
 354 0092 77EEE67A 		vsub.f32	s15, s15, s13
 355 0096 7A49     		ldr	r1, .L40+56
 356 0098 0B44     		add	r3, r3, r1
 357 009a C3ED007A 		vstr.32	s15, [r3]
 203:Traitement_Signal.c ****                 {
 358              		.loc 1 203 0 discriminator 3
 359 009e 0132     		adds	r2, r2, #1
ARM GAS  C:\Users\nicpa\AppData\Local\Temp\ccHOh1Eg.s 			page 11


 360              	.LVL28:
 361              	.L20:
 203:Traitement_Signal.c ****                 {
 362              		.loc 1 203 0 is_stmt 0 discriminator 1
 363 00a0 B2F57A7F 		cmp	r2, #1000
 364 00a4 E3DB     		blt	.L21
 365              	.LBE16:
 207:Traitement_Signal.c ****                 }
 208:Traitement_Signal.c ****             
 209:Traitement_Signal.c ****                 //Extraction du courant AC moyen
 210:Traitement_Signal.c ****                 AC_R = AC(signal_AC_R);
 366              		.loc 1 210 0 is_stmt 1
 367 00a6 7548     		ldr	r0, .L40+52
 368 00a8 FFF7FEFF 		bl	AC
 369              	.LVL29:
 370 00ac 6A4C     		ldr	r4, .L40+16
 371 00ae 2060     		str	r0, [r4]	@ float
 211:Traitement_Signal.c ****                 AC_IF = AC(signal_AC_IF);
 372              		.loc 1 211 0
 373 00b0 7348     		ldr	r0, .L40+56
 374 00b2 FFF7FEFF 		bl	AC
 375              	.LVL30:
 376 00b6 07EE900A 		vmov	s15, r0
 377 00ba 724B     		ldr	r3, .L40+60
 378 00bc 1860     		str	r0, [r3]	@ float
 212:Traitement_Signal.c ****     
 213:Traitement_Signal.c ****                 //Calcul du SpO2
 214:Traitement_Signal.c ****                 R = (AC_R/DC_R)/(AC_IF/DC_IF);
 379              		.loc 1 214 0
 380 00be 94ED006A 		vldr.32	s12, [r4]
 381 00c2 634B     		ldr	r3, .L40+8
 382 00c4 93ED007A 		vldr.32	s14, [r3]
 383 00c8 C6EE076A 		vdiv.f32	s13, s12, s14
 384 00cc 614B     		ldr	r3, .L40+12
 385 00ce 93ED006A 		vldr.32	s12, [r3]
 386 00d2 87EE867A 		vdiv.f32	s14, s15, s12
 387 00d6 86EE878A 		vdiv.f32	s16, s13, s14
 388 00da 5B4B     		ldr	r3, .L40
 389 00dc 83ED008A 		vstr.32	s16, [r3]
 215:Traitement_Signal.c ****                 S = -12.5*R + 105;
 390              		.loc 1 215 0
 391 00e0 18EE100A 		vmov	r0, s16
 392 00e4 FFF7FEFF 		bl	__aeabi_f2d
 393              	.LVL31:
 394 00e8 0022     		movs	r2, #0
 395 00ea 674B     		ldr	r3, .L40+64
 396 00ec FFF7FEFF 		bl	__aeabi_dmul
 397              	.LVL32:
 398 00f0 0022     		movs	r2, #0
 399 00f2 664B     		ldr	r3, .L40+68
 400 00f4 FFF7FEFF 		bl	__aeabi_dadd
 401              	.LVL33:
 402 00f8 FFF7FEFF 		bl	__aeabi_d2f
 403              	.LVL34:
 404 00fc 534B     		ldr	r3, .L40+4
 405 00fe 1860     		str	r0, [r3]	@ float
 216:Traitement_Signal.c ****             
ARM GAS  C:\Users\nicpa\AppData\Local\Temp\ccHOh1Eg.s 			page 12


 217:Traitement_Signal.c **** 
 218:Traitement_Signal.c ****                 //Routine de test du SpO2
 219:Traitement_Signal.c ****                 char displayStr[50];
 220:Traitement_Signal.c ****                 sprintf(displayStr,"____%i,____",(int)(1000*R));
 406              		.loc 1 220 0
 407 0100 DFED637A 		vldr.32	s15, .L40+72
 408 0104 28EE278A 		vmul.f32	s16, s16, s15
 409 0108 FDEEC87A 		vcvt.s32.f32	s15, s16
 410 010c 17EE902A 		vmov	r2, s15	@ int
 411 0110 6049     		ldr	r1, .L40+76
 412 0112 05A8     		add	r0, sp, #20
 413 0114 FFF7FEFF 		bl	sprintf
 414              	.LVL35:
 415              	.LBB17:
 416              	.LBB18:
 417              	.LBB19:
 418              		.file 2 "Generated_Source\\PSoC6\\pdl\\drivers/peripheral/scb/cy_scb_uart.h"
   1:Generated_Source\PSoC6\pdl\drivers/peripheral/scb/cy_scb_uart.h **** /***************************************************************************//**
   2:Generated_Source\PSoC6\pdl\drivers/peripheral/scb/cy_scb_uart.h **** * \file cy_scb_uart.h
   3:Generated_Source\PSoC6\pdl\drivers/peripheral/scb/cy_scb_uart.h **** * \version 2.20
   4:Generated_Source\PSoC6\pdl\drivers/peripheral/scb/cy_scb_uart.h **** *
   5:Generated_Source\PSoC6\pdl\drivers/peripheral/scb/cy_scb_uart.h **** * Provides UART API declarations of the SCB driver.
   6:Generated_Source\PSoC6\pdl\drivers/peripheral/scb/cy_scb_uart.h **** *
   7:Generated_Source\PSoC6\pdl\drivers/peripheral/scb/cy_scb_uart.h **** ********************************************************************************
   8:Generated_Source\PSoC6\pdl\drivers/peripheral/scb/cy_scb_uart.h **** * \copyright
   9:Generated_Source\PSoC6\pdl\drivers/peripheral/scb/cy_scb_uart.h **** * Copyright 2016-2018, Cypress Semiconductor Corporation.  All rights reserved.
  10:Generated_Source\PSoC6\pdl\drivers/peripheral/scb/cy_scb_uart.h **** * You may use this file only in accordance with the license, terms, conditions,
  11:Generated_Source\PSoC6\pdl\drivers/peripheral/scb/cy_scb_uart.h **** * disclaimers, and limitations in the end user license agreement accompanying
  12:Generated_Source\PSoC6\pdl\drivers/peripheral/scb/cy_scb_uart.h **** * the software package with which this file was provided.
  13:Generated_Source\PSoC6\pdl\drivers/peripheral/scb/cy_scb_uart.h **** *******************************************************************************/
  14:Generated_Source\PSoC6\pdl\drivers/peripheral/scb/cy_scb_uart.h **** 
  15:Generated_Source\PSoC6\pdl\drivers/peripheral/scb/cy_scb_uart.h **** /**
  16:Generated_Source\PSoC6\pdl\drivers/peripheral/scb/cy_scb_uart.h **** * \addtogroup group_scb_uart
  17:Generated_Source\PSoC6\pdl\drivers/peripheral/scb/cy_scb_uart.h **** * \{
  18:Generated_Source\PSoC6\pdl\drivers/peripheral/scb/cy_scb_uart.h **** * Driver API for UART
  19:Generated_Source\PSoC6\pdl\drivers/peripheral/scb/cy_scb_uart.h **** *
  20:Generated_Source\PSoC6\pdl\drivers/peripheral/scb/cy_scb_uart.h **** * The functions and other declarations used in this part of the driver are in 
  21:Generated_Source\PSoC6\pdl\drivers/peripheral/scb/cy_scb_uart.h **** * cy_scb_uart.h. You can also include cy_pdl.h (ModusToolbox only) to get access 
  22:Generated_Source\PSoC6\pdl\drivers/peripheral/scb/cy_scb_uart.h **** * to all functions and declarations in the PDL.
  23:Generated_Source\PSoC6\pdl\drivers/peripheral/scb/cy_scb_uart.h **** *
  24:Generated_Source\PSoC6\pdl\drivers/peripheral/scb/cy_scb_uart.h **** * The Universal Asynchronous Receiver/Transmitter (UART) protocol is an 
  25:Generated_Source\PSoC6\pdl\drivers/peripheral/scb/cy_scb_uart.h **** * asynchronous serial interface protocol. UART communication is typically 
  26:Generated_Source\PSoC6\pdl\drivers/peripheral/scb/cy_scb_uart.h **** * point-to-point. The UART interface consists of two signals:
  27:Generated_Source\PSoC6\pdl\drivers/peripheral/scb/cy_scb_uart.h **** * * TX: Transmitter output
  28:Generated_Source\PSoC6\pdl\drivers/peripheral/scb/cy_scb_uart.h **** * * RX: Receiver input
  29:Generated_Source\PSoC6\pdl\drivers/peripheral/scb/cy_scb_uart.h **** *
  30:Generated_Source\PSoC6\pdl\drivers/peripheral/scb/cy_scb_uart.h **** * Additionally, two side-band signals are used to implement flow control in 
  31:Generated_Source\PSoC6\pdl\drivers/peripheral/scb/cy_scb_uart.h **** * UART. Note that the flow control applies only to TX functionality.
  32:Generated_Source\PSoC6\pdl\drivers/peripheral/scb/cy_scb_uart.h **** * * Clear to Send (CTS): This is an input signal to the transmitter. 
  33:Generated_Source\PSoC6\pdl\drivers/peripheral/scb/cy_scb_uart.h **** *   When active, it indicates that the slave is ready for the master to 
  34:Generated_Source\PSoC6\pdl\drivers/peripheral/scb/cy_scb_uart.h **** *   transmit data.
  35:Generated_Source\PSoC6\pdl\drivers/peripheral/scb/cy_scb_uart.h **** * * Ready to Send (RTS): This is an output signal from the receiver. When 
  36:Generated_Source\PSoC6\pdl\drivers/peripheral/scb/cy_scb_uart.h **** *   active, it indicates that the receiver is ready to receive data
  37:Generated_Source\PSoC6\pdl\drivers/peripheral/scb/cy_scb_uart.h **** *
  38:Generated_Source\PSoC6\pdl\drivers/peripheral/scb/cy_scb_uart.h **** * Features:
  39:Generated_Source\PSoC6\pdl\drivers/peripheral/scb/cy_scb_uart.h **** * * Supports UART protocol
  40:Generated_Source\PSoC6\pdl\drivers/peripheral/scb/cy_scb_uart.h **** *   * Standard UART
ARM GAS  C:\Users\nicpa\AppData\Local\Temp\ccHOh1Eg.s 			page 13


  41:Generated_Source\PSoC6\pdl\drivers/peripheral/scb/cy_scb_uart.h **** *   * Multi-processor mode
  42:Generated_Source\PSoC6\pdl\drivers/peripheral/scb/cy_scb_uart.h **** * * SmartCard (ISO7816) reader
  43:Generated_Source\PSoC6\pdl\drivers/peripheral/scb/cy_scb_uart.h **** * * IrDA
  44:Generated_Source\PSoC6\pdl\drivers/peripheral/scb/cy_scb_uart.h **** * * Data frame size programmable from 4 to 16 bits
  45:Generated_Source\PSoC6\pdl\drivers/peripheral/scb/cy_scb_uart.h **** * * Programmable number of STOP bits, which can be set in terms of half bit 
  46:Generated_Source\PSoC6\pdl\drivers/peripheral/scb/cy_scb_uart.h **** *   periods between 1 and 4
  47:Generated_Source\PSoC6\pdl\drivers/peripheral/scb/cy_scb_uart.h **** * * Parity support (odd and even parity)
  48:Generated_Source\PSoC6\pdl\drivers/peripheral/scb/cy_scb_uart.h **** * * Median filter on Rx input
  49:Generated_Source\PSoC6\pdl\drivers/peripheral/scb/cy_scb_uart.h **** * * Programmable oversampling
  50:Generated_Source\PSoC6\pdl\drivers/peripheral/scb/cy_scb_uart.h **** * * Start skipping
  51:Generated_Source\PSoC6\pdl\drivers/peripheral/scb/cy_scb_uart.h **** *
  52:Generated_Source\PSoC6\pdl\drivers/peripheral/scb/cy_scb_uart.h **** ********************************************************************************
  53:Generated_Source\PSoC6\pdl\drivers/peripheral/scb/cy_scb_uart.h **** * \section group_scb_uart_configuration Configuration Considerations
  54:Generated_Source\PSoC6\pdl\drivers/peripheral/scb/cy_scb_uart.h **** ********************************************************************************
  55:Generated_Source\PSoC6\pdl\drivers/peripheral/scb/cy_scb_uart.h **** * The UART driver configuration can be divided to number of sequential
  56:Generated_Source\PSoC6\pdl\drivers/peripheral/scb/cy_scb_uart.h **** * steps listed below:
  57:Generated_Source\PSoC6\pdl\drivers/peripheral/scb/cy_scb_uart.h **** * * \ref group_scb_uart_config
  58:Generated_Source\PSoC6\pdl\drivers/peripheral/scb/cy_scb_uart.h **** * * \ref group_scb_uart_pins
  59:Generated_Source\PSoC6\pdl\drivers/peripheral/scb/cy_scb_uart.h **** * * \ref group_scb_uart_clock
  60:Generated_Source\PSoC6\pdl\drivers/peripheral/scb/cy_scb_uart.h **** * * \ref group_scb_uart_data_rate
  61:Generated_Source\PSoC6\pdl\drivers/peripheral/scb/cy_scb_uart.h **** * * \ref group_scb_uart_intr
  62:Generated_Source\PSoC6\pdl\drivers/peripheral/scb/cy_scb_uart.h **** * * \ref group_scb_uart_enable
  63:Generated_Source\PSoC6\pdl\drivers/peripheral/scb/cy_scb_uart.h **** *
  64:Generated_Source\PSoC6\pdl\drivers/peripheral/scb/cy_scb_uart.h **** * \note
  65:Generated_Source\PSoC6\pdl\drivers/peripheral/scb/cy_scb_uart.h **** * UART driver is built on top of the SCB hardware block. The SCB5 instance is
  66:Generated_Source\PSoC6\pdl\drivers/peripheral/scb/cy_scb_uart.h **** * used as an example for all code snippets. Modify the code to match your
  67:Generated_Source\PSoC6\pdl\drivers/peripheral/scb/cy_scb_uart.h **** * design.
  68:Generated_Source\PSoC6\pdl\drivers/peripheral/scb/cy_scb_uart.h **** *
  69:Generated_Source\PSoC6\pdl\drivers/peripheral/scb/cy_scb_uart.h **** ********************************************************************************
  70:Generated_Source\PSoC6\pdl\drivers/peripheral/scb/cy_scb_uart.h **** * \subsection group_scb_uart_config Configure UART
  71:Generated_Source\PSoC6\pdl\drivers/peripheral/scb/cy_scb_uart.h **** ********************************************************************************
  72:Generated_Source\PSoC6\pdl\drivers/peripheral/scb/cy_scb_uart.h **** * To set up the UART driver, provide the configuration parameters in the
  73:Generated_Source\PSoC6\pdl\drivers/peripheral/scb/cy_scb_uart.h **** * \ref cy_stc_scb_uart_config_t structure. For example: provide uartMode,
  74:Generated_Source\PSoC6\pdl\drivers/peripheral/scb/cy_scb_uart.h **** * oversample, dataWidth, enableMsbFirst, parity, and stopBits. The other
  75:Generated_Source\PSoC6\pdl\drivers/peripheral/scb/cy_scb_uart.h **** * parameters are optional. To initialize the driver, call \ref Cy_SCB_UART_Init 
  76:Generated_Source\PSoC6\pdl\drivers/peripheral/scb/cy_scb_uart.h **** * function providing a pointer to the populated \ref cy_stc_scb_uart_config_t 
  77:Generated_Source\PSoC6\pdl\drivers/peripheral/scb/cy_scb_uart.h **** * structure and the allocated \ref cy_stc_scb_uart_context_t structure.
  78:Generated_Source\PSoC6\pdl\drivers/peripheral/scb/cy_scb_uart.h **** *
  79:Generated_Source\PSoC6\pdl\drivers/peripheral/scb/cy_scb_uart.h **** * \snippet SCB_CompDatasheet_sut_01_revA.cydsn\uart_snippets.c UART_CFG
  80:Generated_Source\PSoC6\pdl\drivers/peripheral/scb/cy_scb_uart.h **** *
  81:Generated_Source\PSoC6\pdl\drivers/peripheral/scb/cy_scb_uart.h **** ********************************************************************************
  82:Generated_Source\PSoC6\pdl\drivers/peripheral/scb/cy_scb_uart.h **** * \subsection group_scb_uart_pins Assign and Configure Pins
  83:Generated_Source\PSoC6\pdl\drivers/peripheral/scb/cy_scb_uart.h **** ********************************************************************************
  84:Generated_Source\PSoC6\pdl\drivers/peripheral/scb/cy_scb_uart.h **** * Only dedicated SCB pins can be used for UART operation. The HSIOM
  85:Generated_Source\PSoC6\pdl\drivers/peripheral/scb/cy_scb_uart.h **** * register must be configured to connect dedicated SCB UART pins to the 
  86:Generated_Source\PSoC6\pdl\drivers/peripheral/scb/cy_scb_uart.h **** * SCB block. Also, the UART output pins must be configured in Strong Drive 
  87:Generated_Source\PSoC6\pdl\drivers/peripheral/scb/cy_scb_uart.h **** * Input Off mode and UART input pins in Digital High-Z:
  88:Generated_Source\PSoC6\pdl\drivers/peripheral/scb/cy_scb_uart.h **** *
  89:Generated_Source\PSoC6\pdl\drivers/peripheral/scb/cy_scb_uart.h **** * \snippet SCB_CompDatasheet_sut_01_revA.cydsn\uart_snippets.c UART_CFG_PINS
  90:Generated_Source\PSoC6\pdl\drivers/peripheral/scb/cy_scb_uart.h **** *
  91:Generated_Source\PSoC6\pdl\drivers/peripheral/scb/cy_scb_uart.h **** ********************************************************************************
  92:Generated_Source\PSoC6\pdl\drivers/peripheral/scb/cy_scb_uart.h **** * \subsection group_scb_uart_clock Assign Clock Divider
  93:Generated_Source\PSoC6\pdl\drivers/peripheral/scb/cy_scb_uart.h **** ********************************************************************************
  94:Generated_Source\PSoC6\pdl\drivers/peripheral/scb/cy_scb_uart.h **** * A clock source must be connected to the SCB block to oversample input and
  95:Generated_Source\PSoC6\pdl\drivers/peripheral/scb/cy_scb_uart.h **** * output signals, in this document this clock will be referred as clk_scb.
  96:Generated_Source\PSoC6\pdl\drivers/peripheral/scb/cy_scb_uart.h **** * You must use one of available integer or fractional dividers. Use the 
  97:Generated_Source\PSoC6\pdl\drivers/peripheral/scb/cy_scb_uart.h **** * \ref group_sysclk driver API to do this.
ARM GAS  C:\Users\nicpa\AppData\Local\Temp\ccHOh1Eg.s 			page 14


  98:Generated_Source\PSoC6\pdl\drivers/peripheral/scb/cy_scb_uart.h **** *
  99:Generated_Source\PSoC6\pdl\drivers/peripheral/scb/cy_scb_uart.h **** * \snippet SCB_CompDatasheet_sut_01_revA.cydsn\uart_snippets.c UART_CFG_ASSIGN_CLOCK
 100:Generated_Source\PSoC6\pdl\drivers/peripheral/scb/cy_scb_uart.h **** *
 101:Generated_Source\PSoC6\pdl\drivers/peripheral/scb/cy_scb_uart.h **** ********************************************************************************
 102:Generated_Source\PSoC6\pdl\drivers/peripheral/scb/cy_scb_uart.h **** * \subsection group_scb_uart_data_rate Configure Baud Rate
 103:Generated_Source\PSoC6\pdl\drivers/peripheral/scb/cy_scb_uart.h **** ********************************************************************************
 104:Generated_Source\PSoC6\pdl\drivers/peripheral/scb/cy_scb_uart.h **** * To get the UART to operate with the desired baud rate, the clk_scb frequency
 105:Generated_Source\PSoC6\pdl\drivers/peripheral/scb/cy_scb_uart.h **** * and the oversample must be configured. Use the \ref group_sysclk driver API
 106:Generated_Source\PSoC6\pdl\drivers/peripheral/scb/cy_scb_uart.h **** * to configure clk_scb frequency. Set the <em><b>oversample parameter
 107:Generated_Source\PSoC6\pdl\drivers/peripheral/scb/cy_scb_uart.h **** * in configuration structure</b></em> to define the number of the SCB clocks
 108:Generated_Source\PSoC6\pdl\drivers/peripheral/scb/cy_scb_uart.h **** * within one UART bit-time.
 109:Generated_Source\PSoC6\pdl\drivers/peripheral/scb/cy_scb_uart.h **** *
 110:Generated_Source\PSoC6\pdl\drivers/peripheral/scb/cy_scb_uart.h **** * \snippet SCB_CompDatasheet_sut_01_revA.cydsn\uart_snippets.c UART_CFG_DATA_RATE
 111:Generated_Source\PSoC6\pdl\drivers/peripheral/scb/cy_scb_uart.h **** *
 112:Generated_Source\PSoC6\pdl\drivers/peripheral/scb/cy_scb_uart.h **** * <b>Refer to the technical reference manual (TRM) section UART sub-section
 113:Generated_Source\PSoC6\pdl\drivers/peripheral/scb/cy_scb_uart.h **** * Clocking and Oversampling to get information about how to configure the UART to run with
 114:Generated_Source\PSoC6\pdl\drivers/peripheral/scb/cy_scb_uart.h **** * desired baud rate.</b>
 115:Generated_Source\PSoC6\pdl\drivers/peripheral/scb/cy_scb_uart.h **** *
 116:Generated_Source\PSoC6\pdl\drivers/peripheral/scb/cy_scb_uart.h **** ********************************************************************************
 117:Generated_Source\PSoC6\pdl\drivers/peripheral/scb/cy_scb_uart.h **** * \subsection group_scb_uart_intr Configure Interrupt
 118:Generated_Source\PSoC6\pdl\drivers/peripheral/scb/cy_scb_uart.h **** ********************************************************************************
 119:Generated_Source\PSoC6\pdl\drivers/peripheral/scb/cy_scb_uart.h **** * The interrupt is optional for the UART operation. To configure interrupt
 120:Generated_Source\PSoC6\pdl\drivers/peripheral/scb/cy_scb_uart.h **** * the \ref Cy_SCB_UART_Interrupt function must be called in the interrupt
 121:Generated_Source\PSoC6\pdl\drivers/peripheral/scb/cy_scb_uart.h **** * handler for the selected SCB instance. Also, this interrupt must be enabled
 122:Generated_Source\PSoC6\pdl\drivers/peripheral/scb/cy_scb_uart.h **** * in the NVIC.
 123:Generated_Source\PSoC6\pdl\drivers/peripheral/scb/cy_scb_uart.h **** * The interrupt must be configured when \ref group_scb_uart_hl will be used.
 124:Generated_Source\PSoC6\pdl\drivers/peripheral/scb/cy_scb_uart.h **** *
 125:Generated_Source\PSoC6\pdl\drivers/peripheral/scb/cy_scb_uart.h **** * \snippet SCB_CompDatasheet_sut_01_revA.cydsn\uart_snippets.c UART_INTR_A
 126:Generated_Source\PSoC6\pdl\drivers/peripheral/scb/cy_scb_uart.h **** * \snippet SCB_CompDatasheet_sut_01_revA.cydsn\uart_snippets.c UART_INTR_B
 127:Generated_Source\PSoC6\pdl\drivers/peripheral/scb/cy_scb_uart.h **** *
 128:Generated_Source\PSoC6\pdl\drivers/peripheral/scb/cy_scb_uart.h **** ********************************************************************************
 129:Generated_Source\PSoC6\pdl\drivers/peripheral/scb/cy_scb_uart.h **** * \subsection group_scb_uart_enable Enable UART
 130:Generated_Source\PSoC6\pdl\drivers/peripheral/scb/cy_scb_uart.h **** ********************************************************************************
 131:Generated_Source\PSoC6\pdl\drivers/peripheral/scb/cy_scb_uart.h **** * Finally, enable the UART operation by calling \ref Cy_SCB_UART_Enable.
 132:Generated_Source\PSoC6\pdl\drivers/peripheral/scb/cy_scb_uart.h **** *
 133:Generated_Source\PSoC6\pdl\drivers/peripheral/scb/cy_scb_uart.h **** * \snippet SCB_CompDatasheet_sut_01_revA.cydsn\uart_snippets.c UART_ENABLE
 134:Generated_Source\PSoC6\pdl\drivers/peripheral/scb/cy_scb_uart.h **** *
 135:Generated_Source\PSoC6\pdl\drivers/peripheral/scb/cy_scb_uart.h **** ********************************************************************************
 136:Generated_Source\PSoC6\pdl\drivers/peripheral/scb/cy_scb_uart.h **** * \section group_scb_uart_use_cases Common Use Cases
 137:Generated_Source\PSoC6\pdl\drivers/peripheral/scb/cy_scb_uart.h **** ********************************************************************************
 138:Generated_Source\PSoC6\pdl\drivers/peripheral/scb/cy_scb_uart.h **** * The UART API is divided into two categories: \ref group_scb_uart_low_level_functions
 139:Generated_Source\PSoC6\pdl\drivers/peripheral/scb/cy_scb_uart.h **** * and \ref group_scb_uart_high_level_functions. \n
 140:Generated_Source\PSoC6\pdl\drivers/peripheral/scb/cy_scb_uart.h **** * <em>Do not mix <b>High-Level</b> and <b>Low-Level</b> API because a Low-Level
 141:Generated_Source\PSoC6\pdl\drivers/peripheral/scb/cy_scb_uart.h **** * API can adversely affect the operation of a High-Level API.</em>
 142:Generated_Source\PSoC6\pdl\drivers/peripheral/scb/cy_scb_uart.h **** *
 143:Generated_Source\PSoC6\pdl\drivers/peripheral/scb/cy_scb_uart.h **** ********************************************************************************
 144:Generated_Source\PSoC6\pdl\drivers/peripheral/scb/cy_scb_uart.h **** * \subsection group_scb_uart_ll Low-Level API
 145:Generated_Source\PSoC6\pdl\drivers/peripheral/scb/cy_scb_uart.h **** ********************************************************************************
 146:Generated_Source\PSoC6\pdl\drivers/peripheral/scb/cy_scb_uart.h **** * The \ref group_scb_uart_low_level_functions functions allow
 147:Generated_Source\PSoC6\pdl\drivers/peripheral/scb/cy_scb_uart.h **** * interacting directly with the hardware and do not use \ref Cy_SCB_UART_Interrupt.
 148:Generated_Source\PSoC6\pdl\drivers/peripheral/scb/cy_scb_uart.h **** * These functions do not require context for operation. Thus, NULL can be
 149:Generated_Source\PSoC6\pdl\drivers/peripheral/scb/cy_scb_uart.h **** * passed for context parameter in \ref Cy_SCB_UART_Init and \ref Cy_SCB_UART_Disable 
 150:Generated_Source\PSoC6\pdl\drivers/peripheral/scb/cy_scb_uart.h **** * instead of a pointer to the context structure.
 151:Generated_Source\PSoC6\pdl\drivers/peripheral/scb/cy_scb_uart.h **** *
 152:Generated_Source\PSoC6\pdl\drivers/peripheral/scb/cy_scb_uart.h **** * * To write data into the TX FIFO, use one of the provided functions:
 153:Generated_Source\PSoC6\pdl\drivers/peripheral/scb/cy_scb_uart.h **** *   \ref Cy_SCB_UART_Put, \ref Cy_SCB_UART_PutArray,
 154:Generated_Source\PSoC6\pdl\drivers/peripheral/scb/cy_scb_uart.h **** *   \ref Cy_SCB_UART_PutArrayBlocking or \ref Cy_SCB_UART_PutString.
ARM GAS  C:\Users\nicpa\AppData\Local\Temp\ccHOh1Eg.s 			page 15


 155:Generated_Source\PSoC6\pdl\drivers/peripheral/scb/cy_scb_uart.h **** *   Note that putting data into the TX FIFO starts data transfer.
 156:Generated_Source\PSoC6\pdl\drivers/peripheral/scb/cy_scb_uart.h **** *
 157:Generated_Source\PSoC6\pdl\drivers/peripheral/scb/cy_scb_uart.h **** * * To read data from the RX FIFO, use one of the provided functions:
 158:Generated_Source\PSoC6\pdl\drivers/peripheral/scb/cy_scb_uart.h **** *   \ref Cy_SCB_UART_Get, \ref Cy_SCB_UART_GetArray or
 159:Generated_Source\PSoC6\pdl\drivers/peripheral/scb/cy_scb_uart.h **** *   \ref Cy_SCB_UART_GetArrayBlocking.
 160:Generated_Source\PSoC6\pdl\drivers/peripheral/scb/cy_scb_uart.h **** *
 161:Generated_Source\PSoC6\pdl\drivers/peripheral/scb/cy_scb_uart.h **** * * The statuses can be polled using: \ref Cy_SCB_UART_GetRxFifoStatus and
 162:Generated_Source\PSoC6\pdl\drivers/peripheral/scb/cy_scb_uart.h **** *   \ref Cy_SCB_UART_GetTxFifoStatus.
 163:Generated_Source\PSoC6\pdl\drivers/peripheral/scb/cy_scb_uart.h **** *   <em>The statuses are <b>W1C (Write 1 to Clear)</b> and after a status
 164:Generated_Source\PSoC6\pdl\drivers/peripheral/scb/cy_scb_uart.h **** *   is set, it must be cleared.</em> Note that there are statuses evaluated as level.
 165:Generated_Source\PSoC6\pdl\drivers/peripheral/scb/cy_scb_uart.h **** *   These statuses remain set until an event is true. Therefore, after the clear
 166:Generated_Source\PSoC6\pdl\drivers/peripheral/scb/cy_scb_uart.h **** *   operation, the status is cleared but then it is restored (if event is still
 167:Generated_Source\PSoC6\pdl\drivers/peripheral/scb/cy_scb_uart.h **** *   true).
 168:Generated_Source\PSoC6\pdl\drivers/peripheral/scb/cy_scb_uart.h **** *   Also, the following functions can be used for polling as well
 169:Generated_Source\PSoC6\pdl\drivers/peripheral/scb/cy_scb_uart.h **** *   \ref Cy_SCB_UART_IsTxComplete, \ref Cy_SCB_UART_GetNumInRxFifo and
 170:Generated_Source\PSoC6\pdl\drivers/peripheral/scb/cy_scb_uart.h **** *   \ref Cy_SCB_UART_GetNumInTxFifo.
 171:Generated_Source\PSoC6\pdl\drivers/peripheral/scb/cy_scb_uart.h **** *
 172:Generated_Source\PSoC6\pdl\drivers/peripheral/scb/cy_scb_uart.h **** * \snippet SCB_CompDatasheet_sut_01_revA.cydsn\uart_snippets.c UART_TRANSMIT_DATA_LL
 173:Generated_Source\PSoC6\pdl\drivers/peripheral/scb/cy_scb_uart.h **** *
 174:Generated_Source\PSoC6\pdl\drivers/peripheral/scb/cy_scb_uart.h **** ********************************************************************************
 175:Generated_Source\PSoC6\pdl\drivers/peripheral/scb/cy_scb_uart.h **** * \subsection group_scb_uart_hl High-Level API
 176:Generated_Source\PSoC6\pdl\drivers/peripheral/scb/cy_scb_uart.h **** ********************************************************************************
 177:Generated_Source\PSoC6\pdl\drivers/peripheral/scb/cy_scb_uart.h **** * The \ref group_scb_uart_high_level_functions API use \ref Cy_SCB_UART_Interrupt
 178:Generated_Source\PSoC6\pdl\drivers/peripheral/scb/cy_scb_uart.h **** * to execute the transfer. Call \ref Cy_SCB_UART_Transmit to start transmission.
 179:Generated_Source\PSoC6\pdl\drivers/peripheral/scb/cy_scb_uart.h **** * Call \ref Cy_SCB_UART_Receive to start receive operation. After the
 180:Generated_Source\PSoC6\pdl\drivers/peripheral/scb/cy_scb_uart.h **** * operation is started the \ref Cy_SCB_UART_Interrupt handles the data
 181:Generated_Source\PSoC6\pdl\drivers/peripheral/scb/cy_scb_uart.h **** * transfer until its completion.
 182:Generated_Source\PSoC6\pdl\drivers/peripheral/scb/cy_scb_uart.h **** * Therefore \ref Cy_SCB_UART_Interrupt must be called inside the user 
 183:Generated_Source\PSoC6\pdl\drivers/peripheral/scb/cy_scb_uart.h **** * interrupt handler to make the High-Level API work. To monitor status
 184:Generated_Source\PSoC6\pdl\drivers/peripheral/scb/cy_scb_uart.h **** * of transmit operation, use \ref Cy_SCB_UART_GetTransmitStatus and
 185:Generated_Source\PSoC6\pdl\drivers/peripheral/scb/cy_scb_uart.h **** * \ref Cy_SCB_UART_GetReceiveStatus to monitor receive status appropriately.
 186:Generated_Source\PSoC6\pdl\drivers/peripheral/scb/cy_scb_uart.h **** * Alternatively use \ref Cy_SCB_UART_RegisterCallback to register callback
 187:Generated_Source\PSoC6\pdl\drivers/peripheral/scb/cy_scb_uart.h **** * function to be notified about \ref group_scb_uart_macros_callback_events.
 188:Generated_Source\PSoC6\pdl\drivers/peripheral/scb/cy_scb_uart.h **** *
 189:Generated_Source\PSoC6\pdl\drivers/peripheral/scb/cy_scb_uart.h **** * <b>Receive Operation</b>
 190:Generated_Source\PSoC6\pdl\drivers/peripheral/scb/cy_scb_uart.h **** * \snippet SCB_CompDatasheet_sut_01_revA.cydsn\uart_snippets.c UART_RECEIVE_DATA_HL
 191:Generated_Source\PSoC6\pdl\drivers/peripheral/scb/cy_scb_uart.h **** *
 192:Generated_Source\PSoC6\pdl\drivers/peripheral/scb/cy_scb_uart.h **** * <b>Transmit Operation</b>
 193:Generated_Source\PSoC6\pdl\drivers/peripheral/scb/cy_scb_uart.h **** * \snippet SCB_CompDatasheet_sut_01_revA.cydsn\uart_snippets.c UART_TRANSMIT_DATA_HL
 194:Generated_Source\PSoC6\pdl\drivers/peripheral/scb/cy_scb_uart.h **** *
 195:Generated_Source\PSoC6\pdl\drivers/peripheral/scb/cy_scb_uart.h **** * There is also capability to insert a receive ring buffer that operates between
 196:Generated_Source\PSoC6\pdl\drivers/peripheral/scb/cy_scb_uart.h **** * the RX FIFO and the user buffer. The received data is copied into the ring
 197:Generated_Source\PSoC6\pdl\drivers/peripheral/scb/cy_scb_uart.h **** * buffer from the RX FIFO. This process runs in the background after the ring
 198:Generated_Source\PSoC6\pdl\drivers/peripheral/scb/cy_scb_uart.h **** * buffer operation is started by \ref Cy_SCB_UART_StartRingBuffer.
 199:Generated_Source\PSoC6\pdl\drivers/peripheral/scb/cy_scb_uart.h **** * When \ref Cy_SCB_UART_Receive is called, it first reads data from the ring
 200:Generated_Source\PSoC6\pdl\drivers/peripheral/scb/cy_scb_uart.h **** * buffer and then sets up an interrupt to receive more data if the required
 201:Generated_Source\PSoC6\pdl\drivers/peripheral/scb/cy_scb_uart.h **** * amount has not yet been read.
 202:Generated_Source\PSoC6\pdl\drivers/peripheral/scb/cy_scb_uart.h **** *
 203:Generated_Source\PSoC6\pdl\drivers/peripheral/scb/cy_scb_uart.h **** ********************************************************************************
 204:Generated_Source\PSoC6\pdl\drivers/peripheral/scb/cy_scb_uart.h **** * \section group_scb_uart_dma_trig DMA Trigger
 205:Generated_Source\PSoC6\pdl\drivers/peripheral/scb/cy_scb_uart.h **** ********************************************************************************
 206:Generated_Source\PSoC6\pdl\drivers/peripheral/scb/cy_scb_uart.h **** * The SCB provides TX and RX output trigger signals that can be routed to the
 207:Generated_Source\PSoC6\pdl\drivers/peripheral/scb/cy_scb_uart.h **** * DMA controller inputs. These signals are assigned based on the data availability
 208:Generated_Source\PSoC6\pdl\drivers/peripheral/scb/cy_scb_uart.h **** * in the TX and RX FIFOs appropriately.
 209:Generated_Source\PSoC6\pdl\drivers/peripheral/scb/cy_scb_uart.h **** *
 210:Generated_Source\PSoC6\pdl\drivers/peripheral/scb/cy_scb_uart.h **** * * The RX trigger signal is active while the number of data
 211:Generated_Source\PSoC6\pdl\drivers/peripheral/scb/cy_scb_uart.h **** *   elements in the RX FIFO is greater than the value of RX FIFO level. Use
ARM GAS  C:\Users\nicpa\AppData\Local\Temp\ccHOh1Eg.s 			page 16


 212:Generated_Source\PSoC6\pdl\drivers/peripheral/scb/cy_scb_uart.h **** *   function \ref Cy_SCB_SetRxFifoLevel or set configuration structure
 213:Generated_Source\PSoC6\pdl\drivers/peripheral/scb/cy_scb_uart.h **** *   rxFifoTriggerLevel parameter to configure RX FIFO level value. \n
 214:Generated_Source\PSoC6\pdl\drivers/peripheral/scb/cy_scb_uart.h **** *   <em>For example, the RX FIFO has 8 data elements and the RX FIFO level is 0.
 215:Generated_Source\PSoC6\pdl\drivers/peripheral/scb/cy_scb_uart.h **** *   The RX trigger signal is active until DMA reads all data from
 216:Generated_Source\PSoC6\pdl\drivers/peripheral/scb/cy_scb_uart.h **** *   the RX FIFO.</em>
 217:Generated_Source\PSoC6\pdl\drivers/peripheral/scb/cy_scb_uart.h **** *
 218:Generated_Source\PSoC6\pdl\drivers/peripheral/scb/cy_scb_uart.h **** * * The TX trigger signal is active while the number of data elements
 219:Generated_Source\PSoC6\pdl\drivers/peripheral/scb/cy_scb_uart.h **** *   in the TX FIFO is less than the value of TX FIFO level. Use function
 220:Generated_Source\PSoC6\pdl\drivers/peripheral/scb/cy_scb_uart.h **** *   \ref Cy_SCB_SetTxFifoLevel or set configuration structure txFifoTriggerLevel
 221:Generated_Source\PSoC6\pdl\drivers/peripheral/scb/cy_scb_uart.h **** *   parameter to configure TX FIFO level value. \n
 222:Generated_Source\PSoC6\pdl\drivers/peripheral/scb/cy_scb_uart.h **** *   <em>For example, the TX FIFO has 0 data elements (empty) and the TX FIFO level
 223:Generated_Source\PSoC6\pdl\drivers/peripheral/scb/cy_scb_uart.h **** *   is 7. The TX trigger signal is active until DMA loads TX FIFO
 224:Generated_Source\PSoC6\pdl\drivers/peripheral/scb/cy_scb_uart.h **** *   with 8 data elements (note that after the first TX load operation, the data 
 225:Generated_Source\PSoC6\pdl\drivers/peripheral/scb/cy_scb_uart.h **** *   element goes to the shift register and TX FIFO is empty).</em>
 226:Generated_Source\PSoC6\pdl\drivers/peripheral/scb/cy_scb_uart.h **** *
 227:Generated_Source\PSoC6\pdl\drivers/peripheral/scb/cy_scb_uart.h **** * To route SCB TX or RX trigger signals to DMA controller use \ref group_trigmux
 228:Generated_Source\PSoC6\pdl\drivers/peripheral/scb/cy_scb_uart.h **** * driver API.
 229:Generated_Source\PSoC6\pdl\drivers/peripheral/scb/cy_scb_uart.h **** *
 230:Generated_Source\PSoC6\pdl\drivers/peripheral/scb/cy_scb_uart.h **** * \note
 231:Generated_Source\PSoC6\pdl\drivers/peripheral/scb/cy_scb_uart.h **** * To properly handle DMA level request signal activation and de-activation from the SCB
 232:Generated_Source\PSoC6\pdl\drivers/peripheral/scb/cy_scb_uart.h **** * peripheral block the DMA Descriptor typically must be configured to re-trigger
 233:Generated_Source\PSoC6\pdl\drivers/peripheral/scb/cy_scb_uart.h **** * after 16 Clk_Slow cycles.
 234:Generated_Source\PSoC6\pdl\drivers/peripheral/scb/cy_scb_uart.h **** *
 235:Generated_Source\PSoC6\pdl\drivers/peripheral/scb/cy_scb_uart.h **** ********************************************************************************
 236:Generated_Source\PSoC6\pdl\drivers/peripheral/scb/cy_scb_uart.h **** * \section group_scb_uart_lp Low Power Support
 237:Generated_Source\PSoC6\pdl\drivers/peripheral/scb/cy_scb_uart.h **** ********************************************************************************
 238:Generated_Source\PSoC6\pdl\drivers/peripheral/scb/cy_scb_uart.h **** * The UART driver provides callback functions to handle power mode
 239:Generated_Source\PSoC6\pdl\drivers/peripheral/scb/cy_scb_uart.h **** * transition. The callback \ref Cy_SCB_UART_DeepSleepCallback must be called
 240:Generated_Source\PSoC6\pdl\drivers/peripheral/scb/cy_scb_uart.h **** * during execution of \ref Cy_SysPm_CpuEnterDeepSleep \ref Cy_SCB_UART_HibernateCallback
 241:Generated_Source\PSoC6\pdl\drivers/peripheral/scb/cy_scb_uart.h **** * must be called during execution of \ref Cy_SysPm_SystemEnterHibernate. To trigger the
 242:Generated_Source\PSoC6\pdl\drivers/peripheral/scb/cy_scb_uart.h **** * callback execution, the callback must be registered before calling the
 243:Generated_Source\PSoC6\pdl\drivers/peripheral/scb/cy_scb_uart.h **** * power mode transition function. Refer to \ref group_syspm driver for more
 244:Generated_Source\PSoC6\pdl\drivers/peripheral/scb/cy_scb_uart.h **** * information about power mode transitions and callback registration.
 245:Generated_Source\PSoC6\pdl\drivers/peripheral/scb/cy_scb_uart.h **** *
 246:Generated_Source\PSoC6\pdl\drivers/peripheral/scb/cy_scb_uart.h **** * The UART is disabled during Deep Sleep and Hibernate and stops driving 
 247:Generated_Source\PSoC6\pdl\drivers/peripheral/scb/cy_scb_uart.h **** * the output pins. The state of the UART output pins TX and RTS is High-Z, 
 248:Generated_Source\PSoC6\pdl\drivers/peripheral/scb/cy_scb_uart.h **** * which can cause unexpected behavior of the UART receiver due to possible
 249:Generated_Source\PSoC6\pdl\drivers/peripheral/scb/cy_scb_uart.h **** * glitches on these lines. These pins must be set to the inactive state before 
 250:Generated_Source\PSoC6\pdl\drivers/peripheral/scb/cy_scb_uart.h **** * entering Deep Sleep or Hibernate mode.
 251:Generated_Source\PSoC6\pdl\drivers/peripheral/scb/cy_scb_uart.h **** * These pins must keep the inactive level (the same state 
 252:Generated_Source\PSoC6\pdl\drivers/peripheral/scb/cy_scb_uart.h **** * when UART TX is enabled and does not transfer data) before entering Deep 
 253:Generated_Source\PSoC6\pdl\drivers/peripheral/scb/cy_scb_uart.h **** * Sleep or Hibernate mode. To do that, write the GPIO data register of each pin 
 254:Generated_Source\PSoC6\pdl\drivers/peripheral/scb/cy_scb_uart.h **** * to the inactive level for each output pin. Then configure High-Speed Input 
 255:Generated_Source\PSoC6\pdl\drivers/peripheral/scb/cy_scb_uart.h **** * Output Multiplexer (HSIOM) of each pin to be controlled by the GPIO (use 
 256:Generated_Source\PSoC6\pdl\drivers/peripheral/scb/cy_scb_uart.h **** * \ref group_gpio driver API). After exiting Deep Sleep mode the UART 
 257:Generated_Source\PSoC6\pdl\drivers/peripheral/scb/cy_scb_uart.h **** * must be enabled and the pins configuration restored to return the 
 258:Generated_Source\PSoC6\pdl\drivers/peripheral/scb/cy_scb_uart.h **** * UART control of the pins (after exiting Hibernate mode, the 
 259:Generated_Source\PSoC6\pdl\drivers/peripheral/scb/cy_scb_uart.h **** * system initialization code does the same). Copy either or 
 260:Generated_Source\PSoC6\pdl\drivers/peripheral/scb/cy_scb_uart.h **** * both \ref Cy_SCB_UART_DeepSleepCallback and \ref Cy_SCB_UART_HibernateCallback 
 261:Generated_Source\PSoC6\pdl\drivers/peripheral/scb/cy_scb_uart.h **** * as appropriate, and make the changes described above inside the function.
 262:Generated_Source\PSoC6\pdl\drivers/peripheral/scb/cy_scb_uart.h **** * Alternately, external pull-up or pull-down resistors can be connected 
 263:Generated_Source\PSoC6\pdl\drivers/peripheral/scb/cy_scb_uart.h **** * to the appropriate UART lines to keep them inactive during Deep-Sleep or 
 264:Generated_Source\PSoC6\pdl\drivers/peripheral/scb/cy_scb_uart.h **** * Hibernate.
 265:Generated_Source\PSoC6\pdl\drivers/peripheral/scb/cy_scb_uart.h **** *
 266:Generated_Source\PSoC6\pdl\drivers/peripheral/scb/cy_scb_uart.h **** ********************************************************************************
 267:Generated_Source\PSoC6\pdl\drivers/peripheral/scb/cy_scb_uart.h **** * \section group_scb_uart_more_information More Information
 268:Generated_Source\PSoC6\pdl\drivers/peripheral/scb/cy_scb_uart.h **** ********************************************************************************
ARM GAS  C:\Users\nicpa\AppData\Local\Temp\ccHOh1Eg.s 			page 17


 269:Generated_Source\PSoC6\pdl\drivers/peripheral/scb/cy_scb_uart.h **** * For more information on the SCB peripheral, refer to the technical reference
 270:Generated_Source\PSoC6\pdl\drivers/peripheral/scb/cy_scb_uart.h **** * manual (TRM).
 271:Generated_Source\PSoC6\pdl\drivers/peripheral/scb/cy_scb_uart.h **** *
 272:Generated_Source\PSoC6\pdl\drivers/peripheral/scb/cy_scb_uart.h **** ********************************************************************************
 273:Generated_Source\PSoC6\pdl\drivers/peripheral/scb/cy_scb_uart.h **** * \section group_scb_uart_MISRA MISRA-C Compliance
 274:Generated_Source\PSoC6\pdl\drivers/peripheral/scb/cy_scb_uart.h **** ********************************************************************************
 275:Generated_Source\PSoC6\pdl\drivers/peripheral/scb/cy_scb_uart.h **** * <table class="doxtable">
 276:Generated_Source\PSoC6\pdl\drivers/peripheral/scb/cy_scb_uart.h **** *   <tr>
 277:Generated_Source\PSoC6\pdl\drivers/peripheral/scb/cy_scb_uart.h **** *     <th>MISRA Rule</th>
 278:Generated_Source\PSoC6\pdl\drivers/peripheral/scb/cy_scb_uart.h **** *     <th>Rule Class (Required/Advisory)</th>
 279:Generated_Source\PSoC6\pdl\drivers/peripheral/scb/cy_scb_uart.h **** *     <th>Rule Description</th>
 280:Generated_Source\PSoC6\pdl\drivers/peripheral/scb/cy_scb_uart.h **** *     <th>Description of Deviation(s)</th>
 281:Generated_Source\PSoC6\pdl\drivers/peripheral/scb/cy_scb_uart.h **** *   </tr>
 282:Generated_Source\PSoC6\pdl\drivers/peripheral/scb/cy_scb_uart.h **** *   <tr>
 283:Generated_Source\PSoC6\pdl\drivers/peripheral/scb/cy_scb_uart.h **** *     <td>11.4</td>
 284:Generated_Source\PSoC6\pdl\drivers/peripheral/scb/cy_scb_uart.h **** *     <td>A</td>
 285:Generated_Source\PSoC6\pdl\drivers/peripheral/scb/cy_scb_uart.h **** *     <td>A cast should not be performed between a pointer to object type and
 286:Generated_Source\PSoC6\pdl\drivers/peripheral/scb/cy_scb_uart.h **** *         a different pointer to object type.</td>
 287:Generated_Source\PSoC6\pdl\drivers/peripheral/scb/cy_scb_uart.h **** *     <td>
 288:Generated_Source\PSoC6\pdl\drivers/peripheral/scb/cy_scb_uart.h **** *         * The pointer to the buffer memory is void to allow handling different
 289:Generated_Source\PSoC6\pdl\drivers/peripheral/scb/cy_scb_uart.h **** *         different data types: uint8_t (4-8 bits) or uint16_t (9-16 bits).
 290:Generated_Source\PSoC6\pdl\drivers/peripheral/scb/cy_scb_uart.h **** *         The cast operation is safe because the configuration is verified
 291:Generated_Source\PSoC6\pdl\drivers/peripheral/scb/cy_scb_uart.h **** *         before operation is performed.
 292:Generated_Source\PSoC6\pdl\drivers/peripheral/scb/cy_scb_uart.h **** *         * The functions \ref Cy_SCB_UART_DeepSleepCallback and
 293:Generated_Source\PSoC6\pdl\drivers/peripheral/scb/cy_scb_uart.h **** *         \ref Cy_SCB_UART_HibernateCallback are callback of
 294:Generated_Source\PSoC6\pdl\drivers/peripheral/scb/cy_scb_uart.h **** *         \ref cy_en_syspm_status_t type. The cast operation safety in these
 295:Generated_Source\PSoC6\pdl\drivers/peripheral/scb/cy_scb_uart.h **** *         functions becomes the user's responsibility because pointers are
 296:Generated_Source\PSoC6\pdl\drivers/peripheral/scb/cy_scb_uart.h **** *         initialized when callback is registered in SysPm driver.</td>
 297:Generated_Source\PSoC6\pdl\drivers/peripheral/scb/cy_scb_uart.h **** *   </tr>
 298:Generated_Source\PSoC6\pdl\drivers/peripheral/scb/cy_scb_uart.h **** *   <tr>
 299:Generated_Source\PSoC6\pdl\drivers/peripheral/scb/cy_scb_uart.h **** *     <td>14.2</td>
 300:Generated_Source\PSoC6\pdl\drivers/peripheral/scb/cy_scb_uart.h **** *     <td>R</td>
 301:Generated_Source\PSoC6\pdl\drivers/peripheral/scb/cy_scb_uart.h **** *     <td>All non-null statements shall either: a) have at least one side-effect
 302:Generated_Source\PSoC6\pdl\drivers/peripheral/scb/cy_scb_uart.h **** *         however executed, or b) cause control flow to change.</td>
 303:Generated_Source\PSoC6\pdl\drivers/peripheral/scb/cy_scb_uart.h **** *     <td>The unused function parameters are cast to void. This statement
 304:Generated_Source\PSoC6\pdl\drivers/peripheral/scb/cy_scb_uart.h **** *         has no side-effect and is used to suppress a compiler warning.</td>
 305:Generated_Source\PSoC6\pdl\drivers/peripheral/scb/cy_scb_uart.h **** *   </tr>
 306:Generated_Source\PSoC6\pdl\drivers/peripheral/scb/cy_scb_uart.h **** *   <tr>
 307:Generated_Source\PSoC6\pdl\drivers/peripheral/scb/cy_scb_uart.h **** *     <td>14.7</td>
 308:Generated_Source\PSoC6\pdl\drivers/peripheral/scb/cy_scb_uart.h **** *     <td>R</td>
 309:Generated_Source\PSoC6\pdl\drivers/peripheral/scb/cy_scb_uart.h **** *     <td>A function shall have a single point of exit at the end of the
 310:Generated_Source\PSoC6\pdl\drivers/peripheral/scb/cy_scb_uart.h **** *         function.</td>
 311:Generated_Source\PSoC6\pdl\drivers/peripheral/scb/cy_scb_uart.h **** *     <td>The functions can return from several points. This is done to improve
 312:Generated_Source\PSoC6\pdl\drivers/peripheral/scb/cy_scb_uart.h **** *         code clarity when returning error status code if input parameters
 313:Generated_Source\PSoC6\pdl\drivers/peripheral/scb/cy_scb_uart.h **** *         validation fails.</td>
 314:Generated_Source\PSoC6\pdl\drivers/peripheral/scb/cy_scb_uart.h **** *   </tr>
 315:Generated_Source\PSoC6\pdl\drivers/peripheral/scb/cy_scb_uart.h **** * </table>
 316:Generated_Source\PSoC6\pdl\drivers/peripheral/scb/cy_scb_uart.h **** *
 317:Generated_Source\PSoC6\pdl\drivers/peripheral/scb/cy_scb_uart.h **** * \section group_scb_uart_changelog Changelog
 318:Generated_Source\PSoC6\pdl\drivers/peripheral/scb/cy_scb_uart.h **** * <table class="doxtable">
 319:Generated_Source\PSoC6\pdl\drivers/peripheral/scb/cy_scb_uart.h **** *   <tr><th>Version</th><th>Changes</th><th>Reason for Change</th></tr>
 320:Generated_Source\PSoC6\pdl\drivers/peripheral/scb/cy_scb_uart.h **** *   <tr>
 321:Generated_Source\PSoC6\pdl\drivers/peripheral/scb/cy_scb_uart.h **** *     <td rowspan="2">2.20</td>
 322:Generated_Source\PSoC6\pdl\drivers/peripheral/scb/cy_scb_uart.h **** *     <td>Flattened the organization of the driver source code into the single 
 323:Generated_Source\PSoC6\pdl\drivers/peripheral/scb/cy_scb_uart.h **** *         source directory and the single include directory.
 324:Generated_Source\PSoC6\pdl\drivers/peripheral/scb/cy_scb_uart.h **** *     </td>
 325:Generated_Source\PSoC6\pdl\drivers/peripheral/scb/cy_scb_uart.h **** *     <td>Driver library directory-structure simplification.</td>
ARM GAS  C:\Users\nicpa\AppData\Local\Temp\ccHOh1Eg.s 			page 18


 326:Generated_Source\PSoC6\pdl\drivers/peripheral/scb/cy_scb_uart.h **** *   </tr>
 327:Generated_Source\PSoC6\pdl\drivers/peripheral/scb/cy_scb_uart.h **** *   <tr>
 328:Generated_Source\PSoC6\pdl\drivers/peripheral/scb/cy_scb_uart.h **** *     <td>Added register access layer. Use register access macros instead
 329:Generated_Source\PSoC6\pdl\drivers/peripheral/scb/cy_scb_uart.h **** *         of direct register access using dereferenced pointers.</td>
 330:Generated_Source\PSoC6\pdl\drivers/peripheral/scb/cy_scb_uart.h **** *     <td>Makes register access device-independent, so that the PDL does 
 331:Generated_Source\PSoC6\pdl\drivers/peripheral/scb/cy_scb_uart.h **** *         not need to be recompiled for each supported part number.</td>
 332:Generated_Source\PSoC6\pdl\drivers/peripheral/scb/cy_scb_uart.h **** *   </tr>
 333:Generated_Source\PSoC6\pdl\drivers/peripheral/scb/cy_scb_uart.h **** *   <tr>
 334:Generated_Source\PSoC6\pdl\drivers/peripheral/scb/cy_scb_uart.h **** *     <td>2.10</td>
 335:Generated_Source\PSoC6\pdl\drivers/peripheral/scb/cy_scb_uart.h **** *     <td>None.</td>
 336:Generated_Source\PSoC6\pdl\drivers/peripheral/scb/cy_scb_uart.h **** *     <td>SCB I2C driver updated.</td>
 337:Generated_Source\PSoC6\pdl\drivers/peripheral/scb/cy_scb_uart.h **** *   </tr>
 338:Generated_Source\PSoC6\pdl\drivers/peripheral/scb/cy_scb_uart.h **** *   <tr>
 339:Generated_Source\PSoC6\pdl\drivers/peripheral/scb/cy_scb_uart.h **** *     <td rowspan="5">2.0</td>
 340:Generated_Source\PSoC6\pdl\drivers/peripheral/scb/cy_scb_uart.h **** *     <td>Added parameters validation for public API.</td>
 341:Generated_Source\PSoC6\pdl\drivers/peripheral/scb/cy_scb_uart.h **** *     <td></td>
 342:Generated_Source\PSoC6\pdl\drivers/peripheral/scb/cy_scb_uart.h **** *   </tr>
 343:Generated_Source\PSoC6\pdl\drivers/peripheral/scb/cy_scb_uart.h **** *   <tr>
 344:Generated_Source\PSoC6\pdl\drivers/peripheral/scb/cy_scb_uart.h **** *     <td>Replaced variables that have limited range of values with enumerated
 345:Generated_Source\PSoC6\pdl\drivers/peripheral/scb/cy_scb_uart.h **** *         types.</td>
 346:Generated_Source\PSoC6\pdl\drivers/peripheral/scb/cy_scb_uart.h **** *     <td></td>
 347:Generated_Source\PSoC6\pdl\drivers/peripheral/scb/cy_scb_uart.h **** *   </tr>
 348:Generated_Source\PSoC6\pdl\drivers/peripheral/scb/cy_scb_uart.h **** *   <tr>
 349:Generated_Source\PSoC6\pdl\drivers/peripheral/scb/cy_scb_uart.h **** *     <td>Added missing "cy_cb_" to the callback function type names.</td>
 350:Generated_Source\PSoC6\pdl\drivers/peripheral/scb/cy_scb_uart.h **** *     <td></td>
 351:Generated_Source\PSoC6\pdl\drivers/peripheral/scb/cy_scb_uart.h **** *   </tr>
 352:Generated_Source\PSoC6\pdl\drivers/peripheral/scb/cy_scb_uart.h **** *   <tr>
 353:Generated_Source\PSoC6\pdl\drivers/peripheral/scb/cy_scb_uart.h **** *     <td>Added function \ref Cy_SCB_UART_SendBreakBlocking for break condition
 354:Generated_Source\PSoC6\pdl\drivers/peripheral/scb/cy_scb_uart.h **** *         generation.</td>
 355:Generated_Source\PSoC6\pdl\drivers/peripheral/scb/cy_scb_uart.h **** *     <td></td>
 356:Generated_Source\PSoC6\pdl\drivers/peripheral/scb/cy_scb_uart.h **** *   </tr>
 357:Generated_Source\PSoC6\pdl\drivers/peripheral/scb/cy_scb_uart.h **** *   <tr>
 358:Generated_Source\PSoC6\pdl\drivers/peripheral/scb/cy_scb_uart.h **** *     <td>Fixed low power callbacks \ref Cy_SCB_UART_DeepSleepCallback and
 359:Generated_Source\PSoC6\pdl\drivers/peripheral/scb/cy_scb_uart.h **** *         \ref Cy_SCB_UART_HibernateCallback to prevent the device from entering
 360:Generated_Source\PSoC6\pdl\drivers/peripheral/scb/cy_scb_uart.h **** *         low power mode when RX FIFO is not empty.</td>
 361:Generated_Source\PSoC6\pdl\drivers/peripheral/scb/cy_scb_uart.h **** *     <td>The callbacks allowed entering device into low power mode when RX FIFO
 362:Generated_Source\PSoC6\pdl\drivers/peripheral/scb/cy_scb_uart.h **** *         had data.</td>
 363:Generated_Source\PSoC6\pdl\drivers/peripheral/scb/cy_scb_uart.h **** *   </tr>
 364:Generated_Source\PSoC6\pdl\drivers/peripheral/scb/cy_scb_uart.h **** *   <tr>
 365:Generated_Source\PSoC6\pdl\drivers/peripheral/scb/cy_scb_uart.h **** *     <td>1.0</td>
 366:Generated_Source\PSoC6\pdl\drivers/peripheral/scb/cy_scb_uart.h **** *     <td>Initial version.</td>
 367:Generated_Source\PSoC6\pdl\drivers/peripheral/scb/cy_scb_uart.h **** *     <td></td>
 368:Generated_Source\PSoC6\pdl\drivers/peripheral/scb/cy_scb_uart.h **** *   </tr>
 369:Generated_Source\PSoC6\pdl\drivers/peripheral/scb/cy_scb_uart.h **** * </table>
 370:Generated_Source\PSoC6\pdl\drivers/peripheral/scb/cy_scb_uart.h **** *
 371:Generated_Source\PSoC6\pdl\drivers/peripheral/scb/cy_scb_uart.h **** * \defgroup group_scb_uart_macros Macros
 372:Generated_Source\PSoC6\pdl\drivers/peripheral/scb/cy_scb_uart.h **** * \defgroup group_scb_uart_functions Functions
 373:Generated_Source\PSoC6\pdl\drivers/peripheral/scb/cy_scb_uart.h **** * \{
 374:Generated_Source\PSoC6\pdl\drivers/peripheral/scb/cy_scb_uart.h **** * \defgroup group_scb_uart_general_functions General
 375:Generated_Source\PSoC6\pdl\drivers/peripheral/scb/cy_scb_uart.h **** * \defgroup group_scb_uart_high_level_functions High-Level
 376:Generated_Source\PSoC6\pdl\drivers/peripheral/scb/cy_scb_uart.h **** * \defgroup group_scb_uart_low_level_functions Low-Level
 377:Generated_Source\PSoC6\pdl\drivers/peripheral/scb/cy_scb_uart.h **** * \defgroup group_scb_uart_interrupt_functions Interrupt
 378:Generated_Source\PSoC6\pdl\drivers/peripheral/scb/cy_scb_uart.h **** * \defgroup group_scb_uart_low_power_functions Low Power Callbacks
 379:Generated_Source\PSoC6\pdl\drivers/peripheral/scb/cy_scb_uart.h **** * \}
 380:Generated_Source\PSoC6\pdl\drivers/peripheral/scb/cy_scb_uart.h **** * \defgroup group_scb_uart_data_structures Data Structures
 381:Generated_Source\PSoC6\pdl\drivers/peripheral/scb/cy_scb_uart.h **** * \defgroup group_scb_uart_enums Enumerated Types
 382:Generated_Source\PSoC6\pdl\drivers/peripheral/scb/cy_scb_uart.h **** */
ARM GAS  C:\Users\nicpa\AppData\Local\Temp\ccHOh1Eg.s 			page 19


 383:Generated_Source\PSoC6\pdl\drivers/peripheral/scb/cy_scb_uart.h **** 
 384:Generated_Source\PSoC6\pdl\drivers/peripheral/scb/cy_scb_uart.h **** #if !defined(CY_SCB_UART_H)
 385:Generated_Source\PSoC6\pdl\drivers/peripheral/scb/cy_scb_uart.h **** #define CY_SCB_UART_H
 386:Generated_Source\PSoC6\pdl\drivers/peripheral/scb/cy_scb_uart.h **** 
 387:Generated_Source\PSoC6\pdl\drivers/peripheral/scb/cy_scb_uart.h **** #include "cy_scb_common.h"
 388:Generated_Source\PSoC6\pdl\drivers/peripheral/scb/cy_scb_uart.h **** 
 389:Generated_Source\PSoC6\pdl\drivers/peripheral/scb/cy_scb_uart.h **** #if defined(__cplusplus)
 390:Generated_Source\PSoC6\pdl\drivers/peripheral/scb/cy_scb_uart.h **** extern "C" {
 391:Generated_Source\PSoC6\pdl\drivers/peripheral/scb/cy_scb_uart.h **** #endif
 392:Generated_Source\PSoC6\pdl\drivers/peripheral/scb/cy_scb_uart.h **** 
 393:Generated_Source\PSoC6\pdl\drivers/peripheral/scb/cy_scb_uart.h **** /***************************************
 394:Generated_Source\PSoC6\pdl\drivers/peripheral/scb/cy_scb_uart.h **** *          Enumerated Types
 395:Generated_Source\PSoC6\pdl\drivers/peripheral/scb/cy_scb_uart.h **** ***************************************/
 396:Generated_Source\PSoC6\pdl\drivers/peripheral/scb/cy_scb_uart.h **** 
 397:Generated_Source\PSoC6\pdl\drivers/peripheral/scb/cy_scb_uart.h **** /**
 398:Generated_Source\PSoC6\pdl\drivers/peripheral/scb/cy_scb_uart.h **** * \addtogroup group_scb_uart_enums
 399:Generated_Source\PSoC6\pdl\drivers/peripheral/scb/cy_scb_uart.h **** * \{
 400:Generated_Source\PSoC6\pdl\drivers/peripheral/scb/cy_scb_uart.h **** */
 401:Generated_Source\PSoC6\pdl\drivers/peripheral/scb/cy_scb_uart.h **** 
 402:Generated_Source\PSoC6\pdl\drivers/peripheral/scb/cy_scb_uart.h **** /** UART status codes */
 403:Generated_Source\PSoC6\pdl\drivers/peripheral/scb/cy_scb_uart.h **** typedef enum
 404:Generated_Source\PSoC6\pdl\drivers/peripheral/scb/cy_scb_uart.h **** {
 405:Generated_Source\PSoC6\pdl\drivers/peripheral/scb/cy_scb_uart.h ****     /** Operation completed successfully */
 406:Generated_Source\PSoC6\pdl\drivers/peripheral/scb/cy_scb_uart.h ****     CY_SCB_UART_SUCCESS = 0U,
 407:Generated_Source\PSoC6\pdl\drivers/peripheral/scb/cy_scb_uart.h **** 
 408:Generated_Source\PSoC6\pdl\drivers/peripheral/scb/cy_scb_uart.h ****     /** One or more of input parameters are invalid */
 409:Generated_Source\PSoC6\pdl\drivers/peripheral/scb/cy_scb_uart.h ****     CY_SCB_UART_BAD_PARAM = (CY_SCB_ID | CY_PDL_STATUS_ERROR | CY_SCB_UART_ID | 1U),
 410:Generated_Source\PSoC6\pdl\drivers/peripheral/scb/cy_scb_uart.h **** 
 411:Generated_Source\PSoC6\pdl\drivers/peripheral/scb/cy_scb_uart.h ****     /**
 412:Generated_Source\PSoC6\pdl\drivers/peripheral/scb/cy_scb_uart.h ****     * The UART is busy processing a receive operation.
 413:Generated_Source\PSoC6\pdl\drivers/peripheral/scb/cy_scb_uart.h ****     */
 414:Generated_Source\PSoC6\pdl\drivers/peripheral/scb/cy_scb_uart.h ****     CY_SCB_UART_RECEIVE_BUSY = (CY_SCB_ID | CY_PDL_STATUS_ERROR | CY_SCB_UART_ID | 2U),
 415:Generated_Source\PSoC6\pdl\drivers/peripheral/scb/cy_scb_uart.h **** 
 416:Generated_Source\PSoC6\pdl\drivers/peripheral/scb/cy_scb_uart.h ****     /**
 417:Generated_Source\PSoC6\pdl\drivers/peripheral/scb/cy_scb_uart.h ****     * The UART is busy processing a transmit operation.
 418:Generated_Source\PSoC6\pdl\drivers/peripheral/scb/cy_scb_uart.h ****     */
 419:Generated_Source\PSoC6\pdl\drivers/peripheral/scb/cy_scb_uart.h ****     CY_SCB_UART_TRANSMIT_BUSY = (CY_SCB_ID | CY_PDL_STATUS_ERROR | CY_SCB_UART_ID | 3U)
 420:Generated_Source\PSoC6\pdl\drivers/peripheral/scb/cy_scb_uart.h **** } cy_en_scb_uart_status_t;
 421:Generated_Source\PSoC6\pdl\drivers/peripheral/scb/cy_scb_uart.h **** 
 422:Generated_Source\PSoC6\pdl\drivers/peripheral/scb/cy_scb_uart.h **** /** UART Mode */
 423:Generated_Source\PSoC6\pdl\drivers/peripheral/scb/cy_scb_uart.h **** typedef enum
 424:Generated_Source\PSoC6\pdl\drivers/peripheral/scb/cy_scb_uart.h **** {
 425:Generated_Source\PSoC6\pdl\drivers/peripheral/scb/cy_scb_uart.h ****     CY_SCB_UART_STANDARD  = 0U, /**< Configures the SCB for Standard UART operation */
 426:Generated_Source\PSoC6\pdl\drivers/peripheral/scb/cy_scb_uart.h ****     CY_SCB_UART_SMARTCARD = 1U, /**< Configures the SCB for SmartCard operation */
 427:Generated_Source\PSoC6\pdl\drivers/peripheral/scb/cy_scb_uart.h ****     CY_SCB_UART_IRDA      = 2U, /**< Configures the SCB for IrDA operation */
 428:Generated_Source\PSoC6\pdl\drivers/peripheral/scb/cy_scb_uart.h **** } cy_en_scb_uart_mode_t;
 429:Generated_Source\PSoC6\pdl\drivers/peripheral/scb/cy_scb_uart.h **** 
 430:Generated_Source\PSoC6\pdl\drivers/peripheral/scb/cy_scb_uart.h **** /** UART Stop Bits */
 431:Generated_Source\PSoC6\pdl\drivers/peripheral/scb/cy_scb_uart.h **** typedef enum
 432:Generated_Source\PSoC6\pdl\drivers/peripheral/scb/cy_scb_uart.h **** {
 433:Generated_Source\PSoC6\pdl\drivers/peripheral/scb/cy_scb_uart.h ****     CY_SCB_UART_STOP_BITS_1   = 2U,  /**< UART looks for 1 Stop Bit    */
 434:Generated_Source\PSoC6\pdl\drivers/peripheral/scb/cy_scb_uart.h ****     CY_SCB_UART_STOP_BITS_1_5 = 3U,  /**< UART looks for 1.5 Stop Bits */
 435:Generated_Source\PSoC6\pdl\drivers/peripheral/scb/cy_scb_uart.h ****     CY_SCB_UART_STOP_BITS_2   = 4U,  /**< UART looks for 2 Stop Bits   */
 436:Generated_Source\PSoC6\pdl\drivers/peripheral/scb/cy_scb_uart.h ****     CY_SCB_UART_STOP_BITS_2_5 = 5U,  /**< UART looks for 2.5 Stop Bits */
 437:Generated_Source\PSoC6\pdl\drivers/peripheral/scb/cy_scb_uart.h ****     CY_SCB_UART_STOP_BITS_3   = 6U,  /**< UART looks for 3 Stop Bits   */
 438:Generated_Source\PSoC6\pdl\drivers/peripheral/scb/cy_scb_uart.h ****     CY_SCB_UART_STOP_BITS_3_5 = 7U,  /**< UART looks for 3.5 Stop Bits */
 439:Generated_Source\PSoC6\pdl\drivers/peripheral/scb/cy_scb_uart.h ****     CY_SCB_UART_STOP_BITS_4   = 8U,  /**< UART looks for 4 Stop Bits   */
ARM GAS  C:\Users\nicpa\AppData\Local\Temp\ccHOh1Eg.s 			page 20


 440:Generated_Source\PSoC6\pdl\drivers/peripheral/scb/cy_scb_uart.h **** } cy_en_scb_uart_stop_bits_t;
 441:Generated_Source\PSoC6\pdl\drivers/peripheral/scb/cy_scb_uart.h **** 
 442:Generated_Source\PSoC6\pdl\drivers/peripheral/scb/cy_scb_uart.h **** /** UART Parity */
 443:Generated_Source\PSoC6\pdl\drivers/peripheral/scb/cy_scb_uart.h **** typedef enum
 444:Generated_Source\PSoC6\pdl\drivers/peripheral/scb/cy_scb_uart.h **** {
 445:Generated_Source\PSoC6\pdl\drivers/peripheral/scb/cy_scb_uart.h ****     CY_SCB_UART_PARITY_NONE = 0U,    /**< UART has no parity check   */
 446:Generated_Source\PSoC6\pdl\drivers/peripheral/scb/cy_scb_uart.h ****     CY_SCB_UART_PARITY_EVEN = 2U,    /**< UART has even parity check */
 447:Generated_Source\PSoC6\pdl\drivers/peripheral/scb/cy_scb_uart.h ****     CY_SCB_UART_PARITY_ODD  = 3U,    /**< UART has odd parity check  */
 448:Generated_Source\PSoC6\pdl\drivers/peripheral/scb/cy_scb_uart.h **** } cy_en_scb_uart_parity_t;
 449:Generated_Source\PSoC6\pdl\drivers/peripheral/scb/cy_scb_uart.h **** 
 450:Generated_Source\PSoC6\pdl\drivers/peripheral/scb/cy_scb_uart.h **** /** UART Polarity */
 451:Generated_Source\PSoC6\pdl\drivers/peripheral/scb/cy_scb_uart.h **** typedef enum
 452:Generated_Source\PSoC6\pdl\drivers/peripheral/scb/cy_scb_uart.h **** {
 453:Generated_Source\PSoC6\pdl\drivers/peripheral/scb/cy_scb_uart.h ****     CY_SCB_UART_ACTIVE_LOW  = 0U,   /**< Signal is active low */
 454:Generated_Source\PSoC6\pdl\drivers/peripheral/scb/cy_scb_uart.h ****     CY_SCB_UART_ACTIVE_HIGH = 1U,   /**< Signal is active high */
 455:Generated_Source\PSoC6\pdl\drivers/peripheral/scb/cy_scb_uart.h **** } cy_en_scb_uart_polarity_t;
 456:Generated_Source\PSoC6\pdl\drivers/peripheral/scb/cy_scb_uart.h **** /** \} group_scb_uart_enums */
 457:Generated_Source\PSoC6\pdl\drivers/peripheral/scb/cy_scb_uart.h **** 
 458:Generated_Source\PSoC6\pdl\drivers/peripheral/scb/cy_scb_uart.h **** 
 459:Generated_Source\PSoC6\pdl\drivers/peripheral/scb/cy_scb_uart.h **** /*******************************************************************************
 460:Generated_Source\PSoC6\pdl\drivers/peripheral/scb/cy_scb_uart.h **** *                           Type Definitions
 461:Generated_Source\PSoC6\pdl\drivers/peripheral/scb/cy_scb_uart.h **** *******************************************************************************/
 462:Generated_Source\PSoC6\pdl\drivers/peripheral/scb/cy_scb_uart.h **** 
 463:Generated_Source\PSoC6\pdl\drivers/peripheral/scb/cy_scb_uart.h **** /**
 464:Generated_Source\PSoC6\pdl\drivers/peripheral/scb/cy_scb_uart.h **** * \addtogroup group_scb_uart_data_structures
 465:Generated_Source\PSoC6\pdl\drivers/peripheral/scb/cy_scb_uart.h **** * \{
 466:Generated_Source\PSoC6\pdl\drivers/peripheral/scb/cy_scb_uart.h **** */
 467:Generated_Source\PSoC6\pdl\drivers/peripheral/scb/cy_scb_uart.h **** 
 468:Generated_Source\PSoC6\pdl\drivers/peripheral/scb/cy_scb_uart.h **** /**
 469:Generated_Source\PSoC6\pdl\drivers/peripheral/scb/cy_scb_uart.h **** * Provides the typedef for the callback function called in the
 470:Generated_Source\PSoC6\pdl\drivers/peripheral/scb/cy_scb_uart.h **** * \ref Cy_SCB_UART_Interrupt to notify the user about occurrences of
 471:Generated_Source\PSoC6\pdl\drivers/peripheral/scb/cy_scb_uart.h **** * \ref group_scb_uart_macros_callback_events.
 472:Generated_Source\PSoC6\pdl\drivers/peripheral/scb/cy_scb_uart.h **** */
 473:Generated_Source\PSoC6\pdl\drivers/peripheral/scb/cy_scb_uart.h **** typedef void (* cy_cb_scb_uart_handle_events_t)(uint32_t event);
 474:Generated_Source\PSoC6\pdl\drivers/peripheral/scb/cy_scb_uart.h **** 
 475:Generated_Source\PSoC6\pdl\drivers/peripheral/scb/cy_scb_uart.h **** /** UART configuration structure */
 476:Generated_Source\PSoC6\pdl\drivers/peripheral/scb/cy_scb_uart.h **** typedef struct stc_scb_uart_config
 477:Generated_Source\PSoC6\pdl\drivers/peripheral/scb/cy_scb_uart.h **** {
 478:Generated_Source\PSoC6\pdl\drivers/peripheral/scb/cy_scb_uart.h ****     /** Specifies the UART's mode of operation */
 479:Generated_Source\PSoC6\pdl\drivers/peripheral/scb/cy_scb_uart.h ****     cy_en_scb_uart_mode_t    uartMode;
 480:Generated_Source\PSoC6\pdl\drivers/peripheral/scb/cy_scb_uart.h **** 
 481:Generated_Source\PSoC6\pdl\drivers/peripheral/scb/cy_scb_uart.h ****     /**
 482:Generated_Source\PSoC6\pdl\drivers/peripheral/scb/cy_scb_uart.h ****     * Oversample factor for UART.
 483:Generated_Source\PSoC6\pdl\drivers/peripheral/scb/cy_scb_uart.h ****     * * The UART baud rate is the SCB Clock frequency / oversample
 484:Generated_Source\PSoC6\pdl\drivers/peripheral/scb/cy_scb_uart.h ****     *  (valid range is 8-16).
 485:Generated_Source\PSoC6\pdl\drivers/peripheral/scb/cy_scb_uart.h ****     * * For IrDA, the oversample is always 16, unless
 486:Generated_Source\PSoC6\pdl\drivers/peripheral/scb/cy_scb_uart.h ****     * \ref irdaEnableLowPowerReceiver is enabled. Then the oversample is
 487:Generated_Source\PSoC6\pdl\drivers/peripheral/scb/cy_scb_uart.h ****     * reduced to the \ref group_scb_uart_macros_irda_lp_ovs set.
 488:Generated_Source\PSoC6\pdl\drivers/peripheral/scb/cy_scb_uart.h ****     */
 489:Generated_Source\PSoC6\pdl\drivers/peripheral/scb/cy_scb_uart.h ****     uint32_t    oversample;
 490:Generated_Source\PSoC6\pdl\drivers/peripheral/scb/cy_scb_uart.h **** 
 491:Generated_Source\PSoC6\pdl\drivers/peripheral/scb/cy_scb_uart.h ****     /** The width of UART data (valid range is 5 to 9) */
 492:Generated_Source\PSoC6\pdl\drivers/peripheral/scb/cy_scb_uart.h ****     uint32_t    dataWidth;
 493:Generated_Source\PSoC6\pdl\drivers/peripheral/scb/cy_scb_uart.h **** 
 494:Generated_Source\PSoC6\pdl\drivers/peripheral/scb/cy_scb_uart.h ****     /**
 495:Generated_Source\PSoC6\pdl\drivers/peripheral/scb/cy_scb_uart.h ****     * Enables the hardware to shift out data element MSB first; otherwise,
 496:Generated_Source\PSoC6\pdl\drivers/peripheral/scb/cy_scb_uart.h ****     * LSB first
ARM GAS  C:\Users\nicpa\AppData\Local\Temp\ccHOh1Eg.s 			page 21


 497:Generated_Source\PSoC6\pdl\drivers/peripheral/scb/cy_scb_uart.h ****     */
 498:Generated_Source\PSoC6\pdl\drivers/peripheral/scb/cy_scb_uart.h ****     bool        enableMsbFirst;
 499:Generated_Source\PSoC6\pdl\drivers/peripheral/scb/cy_scb_uart.h **** 
 500:Generated_Source\PSoC6\pdl\drivers/peripheral/scb/cy_scb_uart.h ****     /**
 501:Generated_Source\PSoC6\pdl\drivers/peripheral/scb/cy_scb_uart.h ****     * Specifies the number of stop bits in the UART transaction, in half-bit
 502:Generated_Source\PSoC6\pdl\drivers/peripheral/scb/cy_scb_uart.h ****     * increments
 503:Generated_Source\PSoC6\pdl\drivers/peripheral/scb/cy_scb_uart.h ****     */
 504:Generated_Source\PSoC6\pdl\drivers/peripheral/scb/cy_scb_uart.h ****     cy_en_scb_uart_stop_bits_t    stopBits;
 505:Generated_Source\PSoC6\pdl\drivers/peripheral/scb/cy_scb_uart.h **** 
 506:Generated_Source\PSoC6\pdl\drivers/peripheral/scb/cy_scb_uart.h ****     /** Configures the UART parity */
 507:Generated_Source\PSoC6\pdl\drivers/peripheral/scb/cy_scb_uart.h ****     cy_en_scb_uart_parity_t    parity;
 508:Generated_Source\PSoC6\pdl\drivers/peripheral/scb/cy_scb_uart.h **** 
 509:Generated_Source\PSoC6\pdl\drivers/peripheral/scb/cy_scb_uart.h ****     /**
 510:Generated_Source\PSoC6\pdl\drivers/peripheral/scb/cy_scb_uart.h ****     * Enables a digital 3-tap median filter (2 out of 3 voting) to be applied 
 511:Generated_Source\PSoC6\pdl\drivers/peripheral/scb/cy_scb_uart.h ****     * to the input of the RX FIFO to filter glitches on the line (for IrDA, 
 512:Generated_Source\PSoC6\pdl\drivers/peripheral/scb/cy_scb_uart.h ****     * this parameter is ignored)
 513:Generated_Source\PSoC6\pdl\drivers/peripheral/scb/cy_scb_uart.h ****     *
 514:Generated_Source\PSoC6\pdl\drivers/peripheral/scb/cy_scb_uart.h ****     */
 515:Generated_Source\PSoC6\pdl\drivers/peripheral/scb/cy_scb_uart.h ****     bool        enableInputFilter;
 516:Generated_Source\PSoC6\pdl\drivers/peripheral/scb/cy_scb_uart.h **** 
 517:Generated_Source\PSoC6\pdl\drivers/peripheral/scb/cy_scb_uart.h ****     /**
 518:Generated_Source\PSoC6\pdl\drivers/peripheral/scb/cy_scb_uart.h ****     * Enables the hardware to drop data in the RX FIFO when a parity error is
 519:Generated_Source\PSoC6\pdl\drivers/peripheral/scb/cy_scb_uart.h ****     * detected
 520:Generated_Source\PSoC6\pdl\drivers/peripheral/scb/cy_scb_uart.h ****     */
 521:Generated_Source\PSoC6\pdl\drivers/peripheral/scb/cy_scb_uart.h ****     bool        dropOnParityError;
 522:Generated_Source\PSoC6\pdl\drivers/peripheral/scb/cy_scb_uart.h **** 
 523:Generated_Source\PSoC6\pdl\drivers/peripheral/scb/cy_scb_uart.h ****     /**
 524:Generated_Source\PSoC6\pdl\drivers/peripheral/scb/cy_scb_uart.h ****     * Enables the hardware to drop data in the RX FIFO when a frame error is
 525:Generated_Source\PSoC6\pdl\drivers/peripheral/scb/cy_scb_uart.h ****     * detected
 526:Generated_Source\PSoC6\pdl\drivers/peripheral/scb/cy_scb_uart.h ****     */
 527:Generated_Source\PSoC6\pdl\drivers/peripheral/scb/cy_scb_uart.h ****     bool        dropOnFrameError;
 528:Generated_Source\PSoC6\pdl\drivers/peripheral/scb/cy_scb_uart.h **** 
 529:Generated_Source\PSoC6\pdl\drivers/peripheral/scb/cy_scb_uart.h ****     /**
 530:Generated_Source\PSoC6\pdl\drivers/peripheral/scb/cy_scb_uart.h ****     * Enables the UART operation in Multi-Processor mode which requires
 531:Generated_Source\PSoC6\pdl\drivers/peripheral/scb/cy_scb_uart.h ****     * dataWidth to be 9 bits (the 9th bit is used to indicate address byte)
 532:Generated_Source\PSoC6\pdl\drivers/peripheral/scb/cy_scb_uart.h ****     */
 533:Generated_Source\PSoC6\pdl\drivers/peripheral/scb/cy_scb_uart.h ****     bool        enableMutliProcessorMode;
 534:Generated_Source\PSoC6\pdl\drivers/peripheral/scb/cy_scb_uart.h **** 
 535:Generated_Source\PSoC6\pdl\drivers/peripheral/scb/cy_scb_uart.h ****     /**
 536:Generated_Source\PSoC6\pdl\drivers/peripheral/scb/cy_scb_uart.h ****     * If Multi Processor mode is enabled, this is the address of the RX
 537:Generated_Source\PSoC6\pdl\drivers/peripheral/scb/cy_scb_uart.h ****     * FIFO. If the address matches, data is accepted into the FIFO. If
 538:Generated_Source\PSoC6\pdl\drivers/peripheral/scb/cy_scb_uart.h ****     * it does not match, the data is ignored.
 539:Generated_Source\PSoC6\pdl\drivers/peripheral/scb/cy_scb_uart.h ****     */
 540:Generated_Source\PSoC6\pdl\drivers/peripheral/scb/cy_scb_uart.h ****     uint32_t    receiverAddress;
 541:Generated_Source\PSoC6\pdl\drivers/peripheral/scb/cy_scb_uart.h **** 
 542:Generated_Source\PSoC6\pdl\drivers/peripheral/scb/cy_scb_uart.h ****     /**
 543:Generated_Source\PSoC6\pdl\drivers/peripheral/scb/cy_scb_uart.h ****     * This is the address mask for the Multi Processor address. 1 indicates
 544:Generated_Source\PSoC6\pdl\drivers/peripheral/scb/cy_scb_uart.h ****     * that the incoming address must match the corresponding bit in the slave
 545:Generated_Source\PSoC6\pdl\drivers/peripheral/scb/cy_scb_uart.h ****     * address. A 0 in the mask indicates that the incoming address does
 546:Generated_Source\PSoC6\pdl\drivers/peripheral/scb/cy_scb_uart.h ****     * not need to match.
 547:Generated_Source\PSoC6\pdl\drivers/peripheral/scb/cy_scb_uart.h ****     */
 548:Generated_Source\PSoC6\pdl\drivers/peripheral/scb/cy_scb_uart.h ****     uint32_t    receiverAddressMask;
 549:Generated_Source\PSoC6\pdl\drivers/peripheral/scb/cy_scb_uart.h **** 
 550:Generated_Source\PSoC6\pdl\drivers/peripheral/scb/cy_scb_uart.h ****     /**
 551:Generated_Source\PSoC6\pdl\drivers/peripheral/scb/cy_scb_uart.h ****     * Enables the hardware to accept the matching address in the RX FIFO.
 552:Generated_Source\PSoC6\pdl\drivers/peripheral/scb/cy_scb_uart.h ****     * This is useful when the device supports more than one address.
 553:Generated_Source\PSoC6\pdl\drivers/peripheral/scb/cy_scb_uart.h ****     */
ARM GAS  C:\Users\nicpa\AppData\Local\Temp\ccHOh1Eg.s 			page 22


 554:Generated_Source\PSoC6\pdl\drivers/peripheral/scb/cy_scb_uart.h ****     bool        acceptAddrInFifo;
 555:Generated_Source\PSoC6\pdl\drivers/peripheral/scb/cy_scb_uart.h **** 
 556:Generated_Source\PSoC6\pdl\drivers/peripheral/scb/cy_scb_uart.h ****     /** Inverts the IrDA RX input */
 557:Generated_Source\PSoC6\pdl\drivers/peripheral/scb/cy_scb_uart.h ****     bool        irdaInvertRx;
 558:Generated_Source\PSoC6\pdl\drivers/peripheral/scb/cy_scb_uart.h **** 
 559:Generated_Source\PSoC6\pdl\drivers/peripheral/scb/cy_scb_uart.h ****     /**
 560:Generated_Source\PSoC6\pdl\drivers/peripheral/scb/cy_scb_uart.h ****     * Enables the low-power receive for IrDA mode.
 561:Generated_Source\PSoC6\pdl\drivers/peripheral/scb/cy_scb_uart.h ****     * Note that the transmission must be disabled if this mode is enabled.
 562:Generated_Source\PSoC6\pdl\drivers/peripheral/scb/cy_scb_uart.h ****     */
 563:Generated_Source\PSoC6\pdl\drivers/peripheral/scb/cy_scb_uart.h ****     bool        irdaEnableLowPowerReceiver;
 564:Generated_Source\PSoC6\pdl\drivers/peripheral/scb/cy_scb_uart.h **** 
 565:Generated_Source\PSoC6\pdl\drivers/peripheral/scb/cy_scb_uart.h ****     /**
 566:Generated_Source\PSoC6\pdl\drivers/peripheral/scb/cy_scb_uart.h ****     * Enables retransmission of the frame placed in the TX FIFO when
 567:Generated_Source\PSoC6\pdl\drivers/peripheral/scb/cy_scb_uart.h ****     * NACK is received in SmartCard mode (for Standard and IrDA , this parameter
 568:Generated_Source\PSoC6\pdl\drivers/peripheral/scb/cy_scb_uart.h ****     * is ignored)
 569:Generated_Source\PSoC6\pdl\drivers/peripheral/scb/cy_scb_uart.h ****     */
 570:Generated_Source\PSoC6\pdl\drivers/peripheral/scb/cy_scb_uart.h ****     bool        smartCardRetryOnNack;
 571:Generated_Source\PSoC6\pdl\drivers/peripheral/scb/cy_scb_uart.h **** 
 572:Generated_Source\PSoC6\pdl\drivers/peripheral/scb/cy_scb_uart.h ****     /**
 573:Generated_Source\PSoC6\pdl\drivers/peripheral/scb/cy_scb_uart.h ****     * Enables the usage of the CTS input signal for the transmitter. The
 574:Generated_Source\PSoC6\pdl\drivers/peripheral/scb/cy_scb_uart.h ****     * transmitter waits for CTS to be active before sending data
 575:Generated_Source\PSoC6\pdl\drivers/peripheral/scb/cy_scb_uart.h ****     */
 576:Generated_Source\PSoC6\pdl\drivers/peripheral/scb/cy_scb_uart.h ****     bool        enableCts;
 577:Generated_Source\PSoC6\pdl\drivers/peripheral/scb/cy_scb_uart.h **** 
 578:Generated_Source\PSoC6\pdl\drivers/peripheral/scb/cy_scb_uart.h ****     /** Sets the CTS Polarity */
 579:Generated_Source\PSoC6\pdl\drivers/peripheral/scb/cy_scb_uart.h ****     cy_en_scb_uart_polarity_t    ctsPolarity;
 580:Generated_Source\PSoC6\pdl\drivers/peripheral/scb/cy_scb_uart.h **** 
 581:Generated_Source\PSoC6\pdl\drivers/peripheral/scb/cy_scb_uart.h ****     /**
 582:Generated_Source\PSoC6\pdl\drivers/peripheral/scb/cy_scb_uart.h ****     * When the RX FIFO has fewer entries than rtsRxFifoLevel, the
 583:Generated_Source\PSoC6\pdl\drivers/peripheral/scb/cy_scb_uart.h ****     * RTS signal is active (note to disable RTS, set this field to zero)
 584:Generated_Source\PSoC6\pdl\drivers/peripheral/scb/cy_scb_uart.h ****     */
 585:Generated_Source\PSoC6\pdl\drivers/peripheral/scb/cy_scb_uart.h ****     uint32_t    rtsRxFifoLevel;
 586:Generated_Source\PSoC6\pdl\drivers/peripheral/scb/cy_scb_uart.h **** 
 587:Generated_Source\PSoC6\pdl\drivers/peripheral/scb/cy_scb_uart.h ****     /** Sets the RTS Polarity */
 588:Generated_Source\PSoC6\pdl\drivers/peripheral/scb/cy_scb_uart.h ****     cy_en_scb_uart_polarity_t    rtsPolarity;
 589:Generated_Source\PSoC6\pdl\drivers/peripheral/scb/cy_scb_uart.h **** 
 590:Generated_Source\PSoC6\pdl\drivers/peripheral/scb/cy_scb_uart.h ****     /** Specifies the number of bits to detect a break condition */
 591:Generated_Source\PSoC6\pdl\drivers/peripheral/scb/cy_scb_uart.h ****     uint32_t    breakWidth;
 592:Generated_Source\PSoC6\pdl\drivers/peripheral/scb/cy_scb_uart.h **** 
 593:Generated_Source\PSoC6\pdl\drivers/peripheral/scb/cy_scb_uart.h ****     /**
 594:Generated_Source\PSoC6\pdl\drivers/peripheral/scb/cy_scb_uart.h ****     * When there are more entries in the RX FIFO than this level
 595:Generated_Source\PSoC6\pdl\drivers/peripheral/scb/cy_scb_uart.h ****     * the RX trigger output goes high. This output can be connected
 596:Generated_Source\PSoC6\pdl\drivers/peripheral/scb/cy_scb_uart.h ****     * to a DMA channel through a trigger mux.
 597:Generated_Source\PSoC6\pdl\drivers/peripheral/scb/cy_scb_uart.h ****     * Also, it controls the \ref CY_SCB_UART_RX_TRIGGER interrupt source.
 598:Generated_Source\PSoC6\pdl\drivers/peripheral/scb/cy_scb_uart.h ****     */
 599:Generated_Source\PSoC6\pdl\drivers/peripheral/scb/cy_scb_uart.h ****     uint32_t    rxFifoTriggerLevel;
 600:Generated_Source\PSoC6\pdl\drivers/peripheral/scb/cy_scb_uart.h **** 
 601:Generated_Source\PSoC6\pdl\drivers/peripheral/scb/cy_scb_uart.h ****     /**
 602:Generated_Source\PSoC6\pdl\drivers/peripheral/scb/cy_scb_uart.h ****     * The bits set in this mask allow the event to cause an interrupt
 603:Generated_Source\PSoC6\pdl\drivers/peripheral/scb/cy_scb_uart.h ****     * (See \ref group_scb_uart_macros_rx_fifo_status for the set of constants)
 604:Generated_Source\PSoC6\pdl\drivers/peripheral/scb/cy_scb_uart.h ****     */
 605:Generated_Source\PSoC6\pdl\drivers/peripheral/scb/cy_scb_uart.h ****     uint32_t    rxFifoIntEnableMask;
 606:Generated_Source\PSoC6\pdl\drivers/peripheral/scb/cy_scb_uart.h **** 
 607:Generated_Source\PSoC6\pdl\drivers/peripheral/scb/cy_scb_uart.h ****     /**
 608:Generated_Source\PSoC6\pdl\drivers/peripheral/scb/cy_scb_uart.h ****     * When there are fewer entries in the TX FIFO then this level
 609:Generated_Source\PSoC6\pdl\drivers/peripheral/scb/cy_scb_uart.h ****     * the TX trigger output goes high. This output can be connected
 610:Generated_Source\PSoC6\pdl\drivers/peripheral/scb/cy_scb_uart.h ****     * to a DMA channel through a trigger mux.
ARM GAS  C:\Users\nicpa\AppData\Local\Temp\ccHOh1Eg.s 			page 23


 611:Generated_Source\PSoC6\pdl\drivers/peripheral/scb/cy_scb_uart.h ****     * Also, it controls \ref CY_SCB_UART_TX_TRIGGER interrupt source.
 612:Generated_Source\PSoC6\pdl\drivers/peripheral/scb/cy_scb_uart.h ****     */
 613:Generated_Source\PSoC6\pdl\drivers/peripheral/scb/cy_scb_uart.h ****     uint32_t    txFifoTriggerLevel;
 614:Generated_Source\PSoC6\pdl\drivers/peripheral/scb/cy_scb_uart.h **** 
 615:Generated_Source\PSoC6\pdl\drivers/peripheral/scb/cy_scb_uart.h ****     /**
 616:Generated_Source\PSoC6\pdl\drivers/peripheral/scb/cy_scb_uart.h ****     * Bits set in this mask allows the event to cause an interrupt
 617:Generated_Source\PSoC6\pdl\drivers/peripheral/scb/cy_scb_uart.h ****     * (See \ref group_scb_uart_macros_tx_fifo_status for the set of constants)
 618:Generated_Source\PSoC6\pdl\drivers/peripheral/scb/cy_scb_uart.h ****     */
 619:Generated_Source\PSoC6\pdl\drivers/peripheral/scb/cy_scb_uart.h ****     uint32_t    txFifoIntEnableMask;
 620:Generated_Source\PSoC6\pdl\drivers/peripheral/scb/cy_scb_uart.h **** } cy_stc_scb_uart_config_t;
 621:Generated_Source\PSoC6\pdl\drivers/peripheral/scb/cy_scb_uart.h **** 
 622:Generated_Source\PSoC6\pdl\drivers/peripheral/scb/cy_scb_uart.h **** /** UART context structure.
 623:Generated_Source\PSoC6\pdl\drivers/peripheral/scb/cy_scb_uart.h **** * All fields for the context structure are internal. Firmware never reads or
 624:Generated_Source\PSoC6\pdl\drivers/peripheral/scb/cy_scb_uart.h **** * writes these values. Firmware allocates the structure and provides the
 625:Generated_Source\PSoC6\pdl\drivers/peripheral/scb/cy_scb_uart.h **** * address of the structure to the driver in function calls. Firmware must
 626:Generated_Source\PSoC6\pdl\drivers/peripheral/scb/cy_scb_uart.h **** * ensure that the defined instance of this structure remains in scope
 627:Generated_Source\PSoC6\pdl\drivers/peripheral/scb/cy_scb_uart.h **** * while the drive is in use.
 628:Generated_Source\PSoC6\pdl\drivers/peripheral/scb/cy_scb_uart.h **** */
 629:Generated_Source\PSoC6\pdl\drivers/peripheral/scb/cy_scb_uart.h **** typedef struct cy_stc_scb_uart_context
 630:Generated_Source\PSoC6\pdl\drivers/peripheral/scb/cy_scb_uart.h **** {
 631:Generated_Source\PSoC6\pdl\drivers/peripheral/scb/cy_scb_uart.h ****     /** \cond INTERNAL */
 632:Generated_Source\PSoC6\pdl\drivers/peripheral/scb/cy_scb_uart.h ****     uint32_t volatile txStatus;         /**< The transmit status */
 633:Generated_Source\PSoC6\pdl\drivers/peripheral/scb/cy_scb_uart.h ****     uint32_t volatile rxStatus;         /**< The receive status */
 634:Generated_Source\PSoC6\pdl\drivers/peripheral/scb/cy_scb_uart.h **** 
 635:Generated_Source\PSoC6\pdl\drivers/peripheral/scb/cy_scb_uart.h ****     void     *rxRingBuf;                /**< The pointer to the ring buffer */
 636:Generated_Source\PSoC6\pdl\drivers/peripheral/scb/cy_scb_uart.h ****     uint32_t  rxRingBufSize;            /**< The ring buffer size */
 637:Generated_Source\PSoC6\pdl\drivers/peripheral/scb/cy_scb_uart.h ****     uint32_t volatile rxRingBufHead;    /**< The ring buffer head index */
 638:Generated_Source\PSoC6\pdl\drivers/peripheral/scb/cy_scb_uart.h ****     uint32_t volatile rxRingBufTail;    /**< The ring buffer tail index */
 639:Generated_Source\PSoC6\pdl\drivers/peripheral/scb/cy_scb_uart.h **** 
 640:Generated_Source\PSoC6\pdl\drivers/peripheral/scb/cy_scb_uart.h ****     void     *rxBuf;                    /**< The pointer to the receive buffer */
 641:Generated_Source\PSoC6\pdl\drivers/peripheral/scb/cy_scb_uart.h ****     uint32_t  rxBufSize;                /**< The receive buffer size */
 642:Generated_Source\PSoC6\pdl\drivers/peripheral/scb/cy_scb_uart.h ****     uint32_t volatile rxBufIdx;         /**< The current location in the receive buffer */
 643:Generated_Source\PSoC6\pdl\drivers/peripheral/scb/cy_scb_uart.h **** 
 644:Generated_Source\PSoC6\pdl\drivers/peripheral/scb/cy_scb_uart.h ****     void     *txBuf;                    /**< The pointer to the transmit buffer */
 645:Generated_Source\PSoC6\pdl\drivers/peripheral/scb/cy_scb_uart.h ****     uint32_t  txBufSize;                /**< The transmit buffer size */
 646:Generated_Source\PSoC6\pdl\drivers/peripheral/scb/cy_scb_uart.h ****     uint32_t volatile txLeftToTransmit; /**< The number of data elements left to be transmitted */
 647:Generated_Source\PSoC6\pdl\drivers/peripheral/scb/cy_scb_uart.h **** 
 648:Generated_Source\PSoC6\pdl\drivers/peripheral/scb/cy_scb_uart.h ****     /** The pointer to an event callback that is called when any of
 649:Generated_Source\PSoC6\pdl\drivers/peripheral/scb/cy_scb_uart.h ****     * \ref group_scb_uart_macros_callback_events occurs
 650:Generated_Source\PSoC6\pdl\drivers/peripheral/scb/cy_scb_uart.h ****     */
 651:Generated_Source\PSoC6\pdl\drivers/peripheral/scb/cy_scb_uart.h ****     cy_cb_scb_uart_handle_events_t cbEvents;
 652:Generated_Source\PSoC6\pdl\drivers/peripheral/scb/cy_scb_uart.h **** 
 653:Generated_Source\PSoC6\pdl\drivers/peripheral/scb/cy_scb_uart.h **** #if !defined(NDEBUG)
 654:Generated_Source\PSoC6\pdl\drivers/peripheral/scb/cy_scb_uart.h ****     uint32_t initKey;               /**< Tracks the context initialization */
 655:Generated_Source\PSoC6\pdl\drivers/peripheral/scb/cy_scb_uart.h **** #endif /* !(NDEBUG) */
 656:Generated_Source\PSoC6\pdl\drivers/peripheral/scb/cy_scb_uart.h ****     /** \endcond */
 657:Generated_Source\PSoC6\pdl\drivers/peripheral/scb/cy_scb_uart.h **** } cy_stc_scb_uart_context_t;
 658:Generated_Source\PSoC6\pdl\drivers/peripheral/scb/cy_scb_uart.h **** /** \} group_scb_uart_data_structures */
 659:Generated_Source\PSoC6\pdl\drivers/peripheral/scb/cy_scb_uart.h **** 
 660:Generated_Source\PSoC6\pdl\drivers/peripheral/scb/cy_scb_uart.h **** 
 661:Generated_Source\PSoC6\pdl\drivers/peripheral/scb/cy_scb_uart.h **** /*******************************************************************************
 662:Generated_Source\PSoC6\pdl\drivers/peripheral/scb/cy_scb_uart.h **** *                           Function Prototypes
 663:Generated_Source\PSoC6\pdl\drivers/peripheral/scb/cy_scb_uart.h **** *******************************************************************************/
 664:Generated_Source\PSoC6\pdl\drivers/peripheral/scb/cy_scb_uart.h **** 
 665:Generated_Source\PSoC6\pdl\drivers/peripheral/scb/cy_scb_uart.h **** /**
 666:Generated_Source\PSoC6\pdl\drivers/peripheral/scb/cy_scb_uart.h **** * \addtogroup group_scb_uart_general_functions
 667:Generated_Source\PSoC6\pdl\drivers/peripheral/scb/cy_scb_uart.h **** * \{
ARM GAS  C:\Users\nicpa\AppData\Local\Temp\ccHOh1Eg.s 			page 24


 668:Generated_Source\PSoC6\pdl\drivers/peripheral/scb/cy_scb_uart.h **** */
 669:Generated_Source\PSoC6\pdl\drivers/peripheral/scb/cy_scb_uart.h **** cy_en_scb_uart_status_t Cy_SCB_UART_Init(CySCB_Type *base, cy_stc_scb_uart_config_t const *config,
 670:Generated_Source\PSoC6\pdl\drivers/peripheral/scb/cy_scb_uart.h ****                                          cy_stc_scb_uart_context_t *context);
 671:Generated_Source\PSoC6\pdl\drivers/peripheral/scb/cy_scb_uart.h **** void Cy_SCB_UART_DeInit (CySCB_Type *base);
 672:Generated_Source\PSoC6\pdl\drivers/peripheral/scb/cy_scb_uart.h **** __STATIC_INLINE void Cy_SCB_UART_Enable(CySCB_Type *base);
 673:Generated_Source\PSoC6\pdl\drivers/peripheral/scb/cy_scb_uart.h **** void Cy_SCB_UART_Disable(CySCB_Type *base, cy_stc_scb_uart_context_t *context);
 674:Generated_Source\PSoC6\pdl\drivers/peripheral/scb/cy_scb_uart.h **** 
 675:Generated_Source\PSoC6\pdl\drivers/peripheral/scb/cy_scb_uart.h **** __STATIC_INLINE void     Cy_SCB_UART_EnableCts      (CySCB_Type *base);
 676:Generated_Source\PSoC6\pdl\drivers/peripheral/scb/cy_scb_uart.h **** __STATIC_INLINE void     Cy_SCB_UART_DisableCts     (CySCB_Type *base);
 677:Generated_Source\PSoC6\pdl\drivers/peripheral/scb/cy_scb_uart.h **** __STATIC_INLINE void     Cy_SCB_UART_SetRtsFifoLevel(CySCB_Type *base, uint32_t level);
 678:Generated_Source\PSoC6\pdl\drivers/peripheral/scb/cy_scb_uart.h **** __STATIC_INLINE uint32_t Cy_SCB_UART_GetRtsFifoLevel(CySCB_Type const *base);
 679:Generated_Source\PSoC6\pdl\drivers/peripheral/scb/cy_scb_uart.h **** 
 680:Generated_Source\PSoC6\pdl\drivers/peripheral/scb/cy_scb_uart.h **** __STATIC_INLINE void Cy_SCB_UART_EnableSkipStart (CySCB_Type *base);
 681:Generated_Source\PSoC6\pdl\drivers/peripheral/scb/cy_scb_uart.h **** __STATIC_INLINE void Cy_SCB_UART_DisableSkipStart(CySCB_Type *base);
 682:Generated_Source\PSoC6\pdl\drivers/peripheral/scb/cy_scb_uart.h **** /** \} group_scb_uart_general_functions */
 683:Generated_Source\PSoC6\pdl\drivers/peripheral/scb/cy_scb_uart.h **** 
 684:Generated_Source\PSoC6\pdl\drivers/peripheral/scb/cy_scb_uart.h **** /**
 685:Generated_Source\PSoC6\pdl\drivers/peripheral/scb/cy_scb_uart.h **** * \addtogroup group_scb_uart_high_level_functions
 686:Generated_Source\PSoC6\pdl\drivers/peripheral/scb/cy_scb_uart.h **** * \{
 687:Generated_Source\PSoC6\pdl\drivers/peripheral/scb/cy_scb_uart.h **** */
 688:Generated_Source\PSoC6\pdl\drivers/peripheral/scb/cy_scb_uart.h **** void     Cy_SCB_UART_StartRingBuffer   (CySCB_Type *base, void *buffer, uint32_t size,
 689:Generated_Source\PSoC6\pdl\drivers/peripheral/scb/cy_scb_uart.h ****                                         cy_stc_scb_uart_context_t *context);
 690:Generated_Source\PSoC6\pdl\drivers/peripheral/scb/cy_scb_uart.h **** void     Cy_SCB_UART_StopRingBuffer    (CySCB_Type *base, cy_stc_scb_uart_context_t *context);
 691:Generated_Source\PSoC6\pdl\drivers/peripheral/scb/cy_scb_uart.h **** uint32_t Cy_SCB_UART_GetNumInRingBuffer(CySCB_Type const *base, cy_stc_scb_uart_context_t const *co
 692:Generated_Source\PSoC6\pdl\drivers/peripheral/scb/cy_scb_uart.h **** void     Cy_SCB_UART_ClearRingBuffer   (CySCB_Type const *base, cy_stc_scb_uart_context_t *context)
 693:Generated_Source\PSoC6\pdl\drivers/peripheral/scb/cy_scb_uart.h **** 
 694:Generated_Source\PSoC6\pdl\drivers/peripheral/scb/cy_scb_uart.h **** cy_en_scb_uart_status_t Cy_SCB_UART_Receive(CySCB_Type *base, void *buffer, uint32_t size,
 695:Generated_Source\PSoC6\pdl\drivers/peripheral/scb/cy_scb_uart.h ****                                             cy_stc_scb_uart_context_t *context);
 696:Generated_Source\PSoC6\pdl\drivers/peripheral/scb/cy_scb_uart.h **** void     Cy_SCB_UART_AbortReceive    (CySCB_Type *base, cy_stc_scb_uart_context_t *context);
 697:Generated_Source\PSoC6\pdl\drivers/peripheral/scb/cy_scb_uart.h **** uint32_t Cy_SCB_UART_GetReceiveStatus(CySCB_Type const *base, cy_stc_scb_uart_context_t const *cont
 698:Generated_Source\PSoC6\pdl\drivers/peripheral/scb/cy_scb_uart.h **** uint32_t Cy_SCB_UART_GetNumReceived  (CySCB_Type const *base, cy_stc_scb_uart_context_t const *cont
 699:Generated_Source\PSoC6\pdl\drivers/peripheral/scb/cy_scb_uart.h **** 
 700:Generated_Source\PSoC6\pdl\drivers/peripheral/scb/cy_scb_uart.h **** cy_en_scb_uart_status_t Cy_SCB_UART_Transmit(CySCB_Type *base, void *buffer, uint32_t size,
 701:Generated_Source\PSoC6\pdl\drivers/peripheral/scb/cy_scb_uart.h ****                                              cy_stc_scb_uart_context_t *context);
 702:Generated_Source\PSoC6\pdl\drivers/peripheral/scb/cy_scb_uart.h **** void     Cy_SCB_UART_AbortTransmit       (CySCB_Type *base, cy_stc_scb_uart_context_t *context);
 703:Generated_Source\PSoC6\pdl\drivers/peripheral/scb/cy_scb_uart.h **** uint32_t Cy_SCB_UART_GetTransmitStatus   (CySCB_Type const *base, cy_stc_scb_uart_context_t const *
 704:Generated_Source\PSoC6\pdl\drivers/peripheral/scb/cy_scb_uart.h **** uint32_t Cy_SCB_UART_GetNumLeftToTransmit(CySCB_Type const *base, cy_stc_scb_uart_context_t const *
 705:Generated_Source\PSoC6\pdl\drivers/peripheral/scb/cy_scb_uart.h **** /** \} group_scb_uart_high_level_functions */
 706:Generated_Source\PSoC6\pdl\drivers/peripheral/scb/cy_scb_uart.h **** 
 707:Generated_Source\PSoC6\pdl\drivers/peripheral/scb/cy_scb_uart.h **** /**
 708:Generated_Source\PSoC6\pdl\drivers/peripheral/scb/cy_scb_uart.h **** * \addtogroup group_scb_uart_low_level_functions
 709:Generated_Source\PSoC6\pdl\drivers/peripheral/scb/cy_scb_uart.h **** * \{
 710:Generated_Source\PSoC6\pdl\drivers/peripheral/scb/cy_scb_uart.h **** */
 711:Generated_Source\PSoC6\pdl\drivers/peripheral/scb/cy_scb_uart.h **** __STATIC_INLINE uint32_t Cy_SCB_UART_Put             (CySCB_Type *base, uint32_t data);
 712:Generated_Source\PSoC6\pdl\drivers/peripheral/scb/cy_scb_uart.h **** __STATIC_INLINE uint32_t Cy_SCB_UART_PutArray        (CySCB_Type *base, void *buffer, uint32_t size
 713:Generated_Source\PSoC6\pdl\drivers/peripheral/scb/cy_scb_uart.h **** __STATIC_INLINE void     Cy_SCB_UART_PutArrayBlocking(CySCB_Type *base, void *buffer, uint32_t size
 714:Generated_Source\PSoC6\pdl\drivers/peripheral/scb/cy_scb_uart.h **** __STATIC_INLINE void     Cy_SCB_UART_PutString       (CySCB_Type *base, char_t const string[]);
 715:Generated_Source\PSoC6\pdl\drivers/peripheral/scb/cy_scb_uart.h **** void Cy_SCB_UART_SendBreakBlocking(CySCB_Type *base, uint32_t breakWidth);
 716:Generated_Source\PSoC6\pdl\drivers/peripheral/scb/cy_scb_uart.h **** 
 717:Generated_Source\PSoC6\pdl\drivers/peripheral/scb/cy_scb_uart.h **** __STATIC_INLINE uint32_t Cy_SCB_UART_Get             (CySCB_Type const *base);
 718:Generated_Source\PSoC6\pdl\drivers/peripheral/scb/cy_scb_uart.h **** __STATIC_INLINE uint32_t Cy_SCB_UART_GetArray        (CySCB_Type const *base, void *buffer, uint32_
 719:Generated_Source\PSoC6\pdl\drivers/peripheral/scb/cy_scb_uart.h **** __STATIC_INLINE void     Cy_SCB_UART_GetArrayBlocking(CySCB_Type const *base, void *buffer, uint32_
 720:Generated_Source\PSoC6\pdl\drivers/peripheral/scb/cy_scb_uart.h **** 
 721:Generated_Source\PSoC6\pdl\drivers/peripheral/scb/cy_scb_uart.h **** __STATIC_INLINE uint32_t Cy_SCB_UART_GetTxFifoStatus  (CySCB_Type const *base);
 722:Generated_Source\PSoC6\pdl\drivers/peripheral/scb/cy_scb_uart.h **** __STATIC_INLINE void     Cy_SCB_UART_ClearTxFifoStatus(CySCB_Type *base, uint32_t clearMask);
 723:Generated_Source\PSoC6\pdl\drivers/peripheral/scb/cy_scb_uart.h **** 
 724:Generated_Source\PSoC6\pdl\drivers/peripheral/scb/cy_scb_uart.h **** __STATIC_INLINE uint32_t Cy_SCB_UART_GetRxFifoStatus  (CySCB_Type const *base);
ARM GAS  C:\Users\nicpa\AppData\Local\Temp\ccHOh1Eg.s 			page 25


 725:Generated_Source\PSoC6\pdl\drivers/peripheral/scb/cy_scb_uart.h **** __STATIC_INLINE void     Cy_SCB_UART_ClearRxFifoStatus(CySCB_Type *base, uint32_t clearMask);
 726:Generated_Source\PSoC6\pdl\drivers/peripheral/scb/cy_scb_uart.h **** 
 727:Generated_Source\PSoC6\pdl\drivers/peripheral/scb/cy_scb_uart.h **** __STATIC_INLINE uint32_t Cy_SCB_UART_GetNumInTxFifo   (CySCB_Type const *base);
 728:Generated_Source\PSoC6\pdl\drivers/peripheral/scb/cy_scb_uart.h **** __STATIC_INLINE bool     Cy_SCB_UART_IsTxComplete     (CySCB_Type const *base);
 729:Generated_Source\PSoC6\pdl\drivers/peripheral/scb/cy_scb_uart.h **** 
 730:Generated_Source\PSoC6\pdl\drivers/peripheral/scb/cy_scb_uart.h **** __STATIC_INLINE uint32_t Cy_SCB_UART_GetNumInRxFifo   (CySCB_Type const *base);
 731:Generated_Source\PSoC6\pdl\drivers/peripheral/scb/cy_scb_uart.h **** 
 732:Generated_Source\PSoC6\pdl\drivers/peripheral/scb/cy_scb_uart.h **** __STATIC_INLINE void     Cy_SCB_UART_ClearRxFifo      (CySCB_Type *base);
 733:Generated_Source\PSoC6\pdl\drivers/peripheral/scb/cy_scb_uart.h **** __STATIC_INLINE void     Cy_SCB_UART_ClearTxFifo      (CySCB_Type *base);
 734:Generated_Source\PSoC6\pdl\drivers/peripheral/scb/cy_scb_uart.h **** /** \} group_scb_uart_low_level_functions */
 735:Generated_Source\PSoC6\pdl\drivers/peripheral/scb/cy_scb_uart.h **** 
 736:Generated_Source\PSoC6\pdl\drivers/peripheral/scb/cy_scb_uart.h **** /**
 737:Generated_Source\PSoC6\pdl\drivers/peripheral/scb/cy_scb_uart.h **** * \addtogroup group_scb_uart_interrupt_functions
 738:Generated_Source\PSoC6\pdl\drivers/peripheral/scb/cy_scb_uart.h **** * \{
 739:Generated_Source\PSoC6\pdl\drivers/peripheral/scb/cy_scb_uart.h **** */
 740:Generated_Source\PSoC6\pdl\drivers/peripheral/scb/cy_scb_uart.h **** void Cy_SCB_UART_Interrupt(CySCB_Type *base, cy_stc_scb_uart_context_t *context);
 741:Generated_Source\PSoC6\pdl\drivers/peripheral/scb/cy_scb_uart.h **** 
 742:Generated_Source\PSoC6\pdl\drivers/peripheral/scb/cy_scb_uart.h **** __STATIC_INLINE void Cy_SCB_UART_RegisterCallback(CySCB_Type const *base, cy_cb_scb_uart_handle_eve
 743:Generated_Source\PSoC6\pdl\drivers/peripheral/scb/cy_scb_uart.h ****                                                   cy_stc_scb_uart_context_t *context);
 744:Generated_Source\PSoC6\pdl\drivers/peripheral/scb/cy_scb_uart.h **** /** \} group_scb_uart_interrupt_functions */
 745:Generated_Source\PSoC6\pdl\drivers/peripheral/scb/cy_scb_uart.h **** 
 746:Generated_Source\PSoC6\pdl\drivers/peripheral/scb/cy_scb_uart.h **** /**
 747:Generated_Source\PSoC6\pdl\drivers/peripheral/scb/cy_scb_uart.h **** * \addtogroup group_scb_uart_low_power_functions
 748:Generated_Source\PSoC6\pdl\drivers/peripheral/scb/cy_scb_uart.h **** * \{
 749:Generated_Source\PSoC6\pdl\drivers/peripheral/scb/cy_scb_uart.h **** */
 750:Generated_Source\PSoC6\pdl\drivers/peripheral/scb/cy_scb_uart.h **** cy_en_syspm_status_t Cy_SCB_UART_DeepSleepCallback(cy_stc_syspm_callback_params_t *callbackParams, 
 751:Generated_Source\PSoC6\pdl\drivers/peripheral/scb/cy_scb_uart.h **** cy_en_syspm_status_t Cy_SCB_UART_HibernateCallback(cy_stc_syspm_callback_params_t *callbackParams, 
 752:Generated_Source\PSoC6\pdl\drivers/peripheral/scb/cy_scb_uart.h **** /** \} group_scb_uart_low_power_functions */
 753:Generated_Source\PSoC6\pdl\drivers/peripheral/scb/cy_scb_uart.h **** 
 754:Generated_Source\PSoC6\pdl\drivers/peripheral/scb/cy_scb_uart.h **** 
 755:Generated_Source\PSoC6\pdl\drivers/peripheral/scb/cy_scb_uart.h **** /*******************************************************************************
 756:Generated_Source\PSoC6\pdl\drivers/peripheral/scb/cy_scb_uart.h **** *                               API Constants
 757:Generated_Source\PSoC6\pdl\drivers/peripheral/scb/cy_scb_uart.h **** *******************************************************************************/
 758:Generated_Source\PSoC6\pdl\drivers/peripheral/scb/cy_scb_uart.h **** 
 759:Generated_Source\PSoC6\pdl\drivers/peripheral/scb/cy_scb_uart.h **** /**
 760:Generated_Source\PSoC6\pdl\drivers/peripheral/scb/cy_scb_uart.h **** * \addtogroup group_scb_uart_macros
 761:Generated_Source\PSoC6\pdl\drivers/peripheral/scb/cy_scb_uart.h **** * \{
 762:Generated_Source\PSoC6\pdl\drivers/peripheral/scb/cy_scb_uart.h **** */
 763:Generated_Source\PSoC6\pdl\drivers/peripheral/scb/cy_scb_uart.h **** 
 764:Generated_Source\PSoC6\pdl\drivers/peripheral/scb/cy_scb_uart.h **** /**
 765:Generated_Source\PSoC6\pdl\drivers/peripheral/scb/cy_scb_uart.h **** * \defgroup group_scb_uart_macros_irda_lp_ovs UART IRDA Low Power Oversample factors
 766:Generated_Source\PSoC6\pdl\drivers/peripheral/scb/cy_scb_uart.h **** * \{
 767:Generated_Source\PSoC6\pdl\drivers/peripheral/scb/cy_scb_uart.h **** */
 768:Generated_Source\PSoC6\pdl\drivers/peripheral/scb/cy_scb_uart.h **** #define CY_SCB_UART_IRDA_LP_OVS16      (1UL)   /**< IrDA in low-power mode oversampled by 16   */
 769:Generated_Source\PSoC6\pdl\drivers/peripheral/scb/cy_scb_uart.h **** #define CY_SCB_UART_IRDA_LP_OVS32      (2UL)   /**< IrDA in low-power mode oversampled by 32   */
 770:Generated_Source\PSoC6\pdl\drivers/peripheral/scb/cy_scb_uart.h **** #define CY_SCB_UART_IRDA_LP_OVS48      (3UL)   /**< IrDA in low-power mode oversampled by 48   */
 771:Generated_Source\PSoC6\pdl\drivers/peripheral/scb/cy_scb_uart.h **** #define CY_SCB_UART_IRDA_LP_OVS96      (4UL)   /**< IrDA in low-power mode oversampled by 96   */
 772:Generated_Source\PSoC6\pdl\drivers/peripheral/scb/cy_scb_uart.h **** #define CY_SCB_UART_IRDA_LP_OVS192     (5UL)   /**< IrDA in low-power mode oversampled by 192  */
 773:Generated_Source\PSoC6\pdl\drivers/peripheral/scb/cy_scb_uart.h **** #define CY_SCB_UART_IRDA_LP_OVS768     (6UL)   /**< IrDA in low-power mode oversampled by 768  */
 774:Generated_Source\PSoC6\pdl\drivers/peripheral/scb/cy_scb_uart.h **** #define CY_SCB_UART_IRDA_LP_OVS1536    (7UL)   /**< IrDA in low-power mode oversampled by 1536 */
 775:Generated_Source\PSoC6\pdl\drivers/peripheral/scb/cy_scb_uart.h **** /** \} group_scb_uart_macros_irda_lp_ovs */
 776:Generated_Source\PSoC6\pdl\drivers/peripheral/scb/cy_scb_uart.h **** 
 777:Generated_Source\PSoC6\pdl\drivers/peripheral/scb/cy_scb_uart.h **** /**
 778:Generated_Source\PSoC6\pdl\drivers/peripheral/scb/cy_scb_uart.h **** * \defgroup group_scb_uart_macros_rx_fifo_status UART RX FIFO status.
 779:Generated_Source\PSoC6\pdl\drivers/peripheral/scb/cy_scb_uart.h **** * \{
 780:Generated_Source\PSoC6\pdl\drivers/peripheral/scb/cy_scb_uart.h **** * Macros to check UART RX FIFO status returned by \ref Cy_SCB_UART_GetRxFifoStatus
 781:Generated_Source\PSoC6\pdl\drivers/peripheral/scb/cy_scb_uart.h **** * function or assign mask for \ref Cy_SCB_UART_ClearRxFifoStatus function.
ARM GAS  C:\Users\nicpa\AppData\Local\Temp\ccHOh1Eg.s 			page 26


 782:Generated_Source\PSoC6\pdl\drivers/peripheral/scb/cy_scb_uart.h **** * Each UART RX FIFO status is encoded in a separate bit, therefore multiple
 783:Generated_Source\PSoC6\pdl\drivers/peripheral/scb/cy_scb_uart.h **** * bits may be set to indicate the current status.
 784:Generated_Source\PSoC6\pdl\drivers/peripheral/scb/cy_scb_uart.h **** */
 785:Generated_Source\PSoC6\pdl\drivers/peripheral/scb/cy_scb_uart.h **** 
 786:Generated_Source\PSoC6\pdl\drivers/peripheral/scb/cy_scb_uart.h **** /** The number of entries in the RX FIFO is more than the RX FIFO trigger level
 787:Generated_Source\PSoC6\pdl\drivers/peripheral/scb/cy_scb_uart.h **** * value
 788:Generated_Source\PSoC6\pdl\drivers/peripheral/scb/cy_scb_uart.h **** */
 789:Generated_Source\PSoC6\pdl\drivers/peripheral/scb/cy_scb_uart.h **** #define CY_SCB_UART_RX_TRIGGER         (SCB_INTR_RX_TRIGGER_Msk)
 790:Generated_Source\PSoC6\pdl\drivers/peripheral/scb/cy_scb_uart.h **** 
 791:Generated_Source\PSoC6\pdl\drivers/peripheral/scb/cy_scb_uart.h **** /** The RX FIFO is not empty, there is data to read */
 792:Generated_Source\PSoC6\pdl\drivers/peripheral/scb/cy_scb_uart.h **** #define CY_SCB_UART_RX_NOT_EMPTY       (SCB_INTR_RX_NOT_EMPTY_Msk)
 793:Generated_Source\PSoC6\pdl\drivers/peripheral/scb/cy_scb_uart.h **** 
 794:Generated_Source\PSoC6\pdl\drivers/peripheral/scb/cy_scb_uart.h **** /**
 795:Generated_Source\PSoC6\pdl\drivers/peripheral/scb/cy_scb_uart.h **** * The RX FIFO is full, there is no more space for additional data, and
 796:Generated_Source\PSoC6\pdl\drivers/peripheral/scb/cy_scb_uart.h **** * any additional data will be dropped
 797:Generated_Source\PSoC6\pdl\drivers/peripheral/scb/cy_scb_uart.h **** */
 798:Generated_Source\PSoC6\pdl\drivers/peripheral/scb/cy_scb_uart.h **** #define CY_SCB_UART_RX_FULL            (SCB_INTR_RX_FULL_Msk)
 799:Generated_Source\PSoC6\pdl\drivers/peripheral/scb/cy_scb_uart.h **** 
 800:Generated_Source\PSoC6\pdl\drivers/peripheral/scb/cy_scb_uart.h **** /**
 801:Generated_Source\PSoC6\pdl\drivers/peripheral/scb/cy_scb_uart.h **** * The RX FIFO was full and there was an attempt to write to it.
 802:Generated_Source\PSoC6\pdl\drivers/peripheral/scb/cy_scb_uart.h **** * That additional data was dropped.
 803:Generated_Source\PSoC6\pdl\drivers/peripheral/scb/cy_scb_uart.h **** */
 804:Generated_Source\PSoC6\pdl\drivers/peripheral/scb/cy_scb_uart.h **** #define CY_SCB_UART_RX_OVERFLOW        (SCB_INTR_RX_OVERFLOW_Msk)
 805:Generated_Source\PSoC6\pdl\drivers/peripheral/scb/cy_scb_uart.h **** 
 806:Generated_Source\PSoC6\pdl\drivers/peripheral/scb/cy_scb_uart.h **** /** An attempt to read from an empty RX FIFO */
 807:Generated_Source\PSoC6\pdl\drivers/peripheral/scb/cy_scb_uart.h **** #define CY_SCB_UART_RX_UNDERFLOW       (SCB_INTR_RX_UNDERFLOW_Msk)
 808:Generated_Source\PSoC6\pdl\drivers/peripheral/scb/cy_scb_uart.h **** 
 809:Generated_Source\PSoC6\pdl\drivers/peripheral/scb/cy_scb_uart.h **** /** The RX FIFO detected a frame error, either a stop or stop-bit error */
 810:Generated_Source\PSoC6\pdl\drivers/peripheral/scb/cy_scb_uart.h **** #define CY_SCB_UART_RX_ERR_FRAME       (SCB_INTR_RX_FRAME_ERROR_Msk)
 811:Generated_Source\PSoC6\pdl\drivers/peripheral/scb/cy_scb_uart.h **** 
 812:Generated_Source\PSoC6\pdl\drivers/peripheral/scb/cy_scb_uart.h **** /** The RX FIFO detected a parity error */
 813:Generated_Source\PSoC6\pdl\drivers/peripheral/scb/cy_scb_uart.h **** #define CY_SCB_UART_RX_ERR_PARITY      (SCB_INTR_RX_PARITY_ERROR_Msk)
 814:Generated_Source\PSoC6\pdl\drivers/peripheral/scb/cy_scb_uart.h **** 
 815:Generated_Source\PSoC6\pdl\drivers/peripheral/scb/cy_scb_uart.h **** /** The RX FIFO detected a break transmission from the transmitter */
 816:Generated_Source\PSoC6\pdl\drivers/peripheral/scb/cy_scb_uart.h **** #define CY_SCB_UART_RX_BREAK_DETECT    (SCB_INTR_RX_BREAK_DETECT_Msk)
 817:Generated_Source\PSoC6\pdl\drivers/peripheral/scb/cy_scb_uart.h **** /** \} group_scb_uart_macros_rx_fifo_status */
 818:Generated_Source\PSoC6\pdl\drivers/peripheral/scb/cy_scb_uart.h **** 
 819:Generated_Source\PSoC6\pdl\drivers/peripheral/scb/cy_scb_uart.h **** /**
 820:Generated_Source\PSoC6\pdl\drivers/peripheral/scb/cy_scb_uart.h **** * \defgroup group_scb_uart_macros_tx_fifo_status UART TX FIFO Statuses
 821:Generated_Source\PSoC6\pdl\drivers/peripheral/scb/cy_scb_uart.h **** * \{
 822:Generated_Source\PSoC6\pdl\drivers/peripheral/scb/cy_scb_uart.h **** * Macros to check UART TX FIFO status returned by \ref Cy_SCB_UART_GetTxFifoStatus
 823:Generated_Source\PSoC6\pdl\drivers/peripheral/scb/cy_scb_uart.h **** * function or assign mask for \ref Cy_SCB_UART_ClearTxFifoStatus function.
 824:Generated_Source\PSoC6\pdl\drivers/peripheral/scb/cy_scb_uart.h **** * Each UART TX FIFO status is encoded in a separate bit, therefore multiple bits
 825:Generated_Source\PSoC6\pdl\drivers/peripheral/scb/cy_scb_uart.h **** * may be set to indicate the current status.
 826:Generated_Source\PSoC6\pdl\drivers/peripheral/scb/cy_scb_uart.h **** */
 827:Generated_Source\PSoC6\pdl\drivers/peripheral/scb/cy_scb_uart.h **** 
 828:Generated_Source\PSoC6\pdl\drivers/peripheral/scb/cy_scb_uart.h **** /** The number of entries in the TX FIFO is less than the TX FIFO trigger level
 829:Generated_Source\PSoC6\pdl\drivers/peripheral/scb/cy_scb_uart.h **** * value
 830:Generated_Source\PSoC6\pdl\drivers/peripheral/scb/cy_scb_uart.h **** */
 831:Generated_Source\PSoC6\pdl\drivers/peripheral/scb/cy_scb_uart.h **** #define CY_SCB_UART_TX_TRIGGER     (SCB_INTR_TX_TRIGGER_Msk)
 832:Generated_Source\PSoC6\pdl\drivers/peripheral/scb/cy_scb_uart.h **** 
 833:Generated_Source\PSoC6\pdl\drivers/peripheral/scb/cy_scb_uart.h **** /** The TX FIFO is not full, there is a space for more data */
 834:Generated_Source\PSoC6\pdl\drivers/peripheral/scb/cy_scb_uart.h **** #define CY_SCB_UART_TX_NOT_FULL    (SCB_INTR_TX_NOT_FULL_Msk)
 835:Generated_Source\PSoC6\pdl\drivers/peripheral/scb/cy_scb_uart.h **** 
 836:Generated_Source\PSoC6\pdl\drivers/peripheral/scb/cy_scb_uart.h **** /** The TX FIFO is empty, note there may still be data in the shift register.*/
 837:Generated_Source\PSoC6\pdl\drivers/peripheral/scb/cy_scb_uart.h **** #define CY_SCB_UART_TX_EMPTY       (SCB_INTR_TX_EMPTY_Msk)
 838:Generated_Source\PSoC6\pdl\drivers/peripheral/scb/cy_scb_uart.h **** 
ARM GAS  C:\Users\nicpa\AppData\Local\Temp\ccHOh1Eg.s 			page 27


 839:Generated_Source\PSoC6\pdl\drivers/peripheral/scb/cy_scb_uart.h **** /** An attempt to write to the full TX FIFO */
 840:Generated_Source\PSoC6\pdl\drivers/peripheral/scb/cy_scb_uart.h **** #define CY_SCB_UART_TX_OVERFLOW    (SCB_INTR_TX_OVERFLOW_Msk)
 841:Generated_Source\PSoC6\pdl\drivers/peripheral/scb/cy_scb_uart.h **** 
 842:Generated_Source\PSoC6\pdl\drivers/peripheral/scb/cy_scb_uart.h **** /** An attempt to read from an empty transmitter FIFO (hardware reads). */
 843:Generated_Source\PSoC6\pdl\drivers/peripheral/scb/cy_scb_uart.h **** #define CY_SCB_UART_TX_UNDERFLOW (SCB_INTR_TX_UNDERFLOW_Msk)
 844:Generated_Source\PSoC6\pdl\drivers/peripheral/scb/cy_scb_uart.h **** 
 845:Generated_Source\PSoC6\pdl\drivers/peripheral/scb/cy_scb_uart.h **** /** All data has been transmitted out of the FIFO, including shifter */
 846:Generated_Source\PSoC6\pdl\drivers/peripheral/scb/cy_scb_uart.h **** #define CY_SCB_UART_TX_DONE        (SCB_INTR_TX_UART_DONE_Msk)
 847:Generated_Source\PSoC6\pdl\drivers/peripheral/scb/cy_scb_uart.h **** 
 848:Generated_Source\PSoC6\pdl\drivers/peripheral/scb/cy_scb_uart.h **** /** SmartCard only: the transmitter received a NACK */
 849:Generated_Source\PSoC6\pdl\drivers/peripheral/scb/cy_scb_uart.h **** #define CY_SCB_UART_TX_NACK        (SCB_INTR_TX_UART_NACK_Msk)
 850:Generated_Source\PSoC6\pdl\drivers/peripheral/scb/cy_scb_uart.h **** 
 851:Generated_Source\PSoC6\pdl\drivers/peripheral/scb/cy_scb_uart.h **** /** SmartCard only: the transmitter lost arbitration */
 852:Generated_Source\PSoC6\pdl\drivers/peripheral/scb/cy_scb_uart.h **** #define CY_SCB_UART_TX_ARB_LOST    (SCB_INTR_TX_UART_ARB_LOST_Msk)
 853:Generated_Source\PSoC6\pdl\drivers/peripheral/scb/cy_scb_uart.h **** /** \} group_scb_uart_macros_tx_fifo_status */
 854:Generated_Source\PSoC6\pdl\drivers/peripheral/scb/cy_scb_uart.h **** 
 855:Generated_Source\PSoC6\pdl\drivers/peripheral/scb/cy_scb_uart.h **** /**
 856:Generated_Source\PSoC6\pdl\drivers/peripheral/scb/cy_scb_uart.h **** * \defgroup group_scb_uart_macros_receive_status UART Receive Statuses
 857:Generated_Source\PSoC6\pdl\drivers/peripheral/scb/cy_scb_uart.h **** * \{
 858:Generated_Source\PSoC6\pdl\drivers/peripheral/scb/cy_scb_uart.h **** * Macros to check current UART receive status returned by 
 859:Generated_Source\PSoC6\pdl\drivers/peripheral/scb/cy_scb_uart.h **** * \ref Cy_SCB_UART_GetReceiveStatus function. 
 860:Generated_Source\PSoC6\pdl\drivers/peripheral/scb/cy_scb_uart.h **** * Each UART receive status is encoded in a separate bit, therefore multiple bits
 861:Generated_Source\PSoC6\pdl\drivers/peripheral/scb/cy_scb_uart.h **** * may be set to indicate the current status.
 862:Generated_Source\PSoC6\pdl\drivers/peripheral/scb/cy_scb_uart.h **** */
 863:Generated_Source\PSoC6\pdl\drivers/peripheral/scb/cy_scb_uart.h **** /** The receive operation started by \ref Cy_SCB_UART_Receive is in progress */
 864:Generated_Source\PSoC6\pdl\drivers/peripheral/scb/cy_scb_uart.h **** #define CY_SCB_UART_RECEIVE_ACTIVE         (0x01UL)
 865:Generated_Source\PSoC6\pdl\drivers/peripheral/scb/cy_scb_uart.h **** 
 866:Generated_Source\PSoC6\pdl\drivers/peripheral/scb/cy_scb_uart.h **** /**
 867:Generated_Source\PSoC6\pdl\drivers/peripheral/scb/cy_scb_uart.h **** * The hardware RX FIFO was full and there was an attempt to write to it.
 868:Generated_Source\PSoC6\pdl\drivers/peripheral/scb/cy_scb_uart.h **** * That additional data was dropped.
 869:Generated_Source\PSoC6\pdl\drivers/peripheral/scb/cy_scb_uart.h **** */
 870:Generated_Source\PSoC6\pdl\drivers/peripheral/scb/cy_scb_uart.h **** #define CY_SCB_UART_RECEIVE_OVERFLOW       (SCB_INTR_RX_OVERFLOW_Msk)
 871:Generated_Source\PSoC6\pdl\drivers/peripheral/scb/cy_scb_uart.h **** 
 872:Generated_Source\PSoC6\pdl\drivers/peripheral/scb/cy_scb_uart.h **** /** The receive hardware detected a frame error, either a start or
 873:Generated_Source\PSoC6\pdl\drivers/peripheral/scb/cy_scb_uart.h **** * stop bit error
 874:Generated_Source\PSoC6\pdl\drivers/peripheral/scb/cy_scb_uart.h **** */
 875:Generated_Source\PSoC6\pdl\drivers/peripheral/scb/cy_scb_uart.h **** #define CY_SCB_UART_RECEIVE_ERR_FRAME      (SCB_INTR_RX_FRAME_ERROR_Msk)
 876:Generated_Source\PSoC6\pdl\drivers/peripheral/scb/cy_scb_uart.h **** 
 877:Generated_Source\PSoC6\pdl\drivers/peripheral/scb/cy_scb_uart.h **** /** The receive hardware detected a parity error */
 878:Generated_Source\PSoC6\pdl\drivers/peripheral/scb/cy_scb_uart.h **** #define CY_SCB_UART_RECEIVE_ERR_PARITY     (SCB_INTR_RX_PARITY_ERROR_Msk)
 879:Generated_Source\PSoC6\pdl\drivers/peripheral/scb/cy_scb_uart.h **** 
 880:Generated_Source\PSoC6\pdl\drivers/peripheral/scb/cy_scb_uart.h **** /** The receive hardware detected a break transmission from transmitter */
 881:Generated_Source\PSoC6\pdl\drivers/peripheral/scb/cy_scb_uart.h **** #define CY_SCB_UART_RECEIVE_BREAK_DETECT   (SCB_INTR_RX_BREAK_DETECT_Msk)
 882:Generated_Source\PSoC6\pdl\drivers/peripheral/scb/cy_scb_uart.h **** /** \} group_scb_uart_macros_receive_status */
 883:Generated_Source\PSoC6\pdl\drivers/peripheral/scb/cy_scb_uart.h **** 
 884:Generated_Source\PSoC6\pdl\drivers/peripheral/scb/cy_scb_uart.h **** /**
 885:Generated_Source\PSoC6\pdl\drivers/peripheral/scb/cy_scb_uart.h **** * \defgroup group_scb_uart_macros_transmit_status UART Transmit Status
 886:Generated_Source\PSoC6\pdl\drivers/peripheral/scb/cy_scb_uart.h **** * \{
 887:Generated_Source\PSoC6\pdl\drivers/peripheral/scb/cy_scb_uart.h **** * Macros to check current UART transmit status returned by 
 888:Generated_Source\PSoC6\pdl\drivers/peripheral/scb/cy_scb_uart.h **** * \ref Cy_SCB_UART_GetTransmitStatus function. 
 889:Generated_Source\PSoC6\pdl\drivers/peripheral/scb/cy_scb_uart.h **** * Each UART transmit status is encoded in a separate bit, therefore multiple bits
 890:Generated_Source\PSoC6\pdl\drivers/peripheral/scb/cy_scb_uart.h **** * may be set to indicate the current status.
 891:Generated_Source\PSoC6\pdl\drivers/peripheral/scb/cy_scb_uart.h **** */
 892:Generated_Source\PSoC6\pdl\drivers/peripheral/scb/cy_scb_uart.h **** 
 893:Generated_Source\PSoC6\pdl\drivers/peripheral/scb/cy_scb_uart.h **** /** The transmit operation started by \ref Cy_SCB_UART_Transmit is in progress */
 894:Generated_Source\PSoC6\pdl\drivers/peripheral/scb/cy_scb_uart.h **** #define CY_SCB_UART_TRANSMIT_ACTIVE    (0x01UL)
 895:Generated_Source\PSoC6\pdl\drivers/peripheral/scb/cy_scb_uart.h **** 
ARM GAS  C:\Users\nicpa\AppData\Local\Temp\ccHOh1Eg.s 			page 28


 896:Generated_Source\PSoC6\pdl\drivers/peripheral/scb/cy_scb_uart.h **** /**
 897:Generated_Source\PSoC6\pdl\drivers/peripheral/scb/cy_scb_uart.h **** * All data elements specified by \ref Cy_SCB_UART_Transmit have been loaded
 898:Generated_Source\PSoC6\pdl\drivers/peripheral/scb/cy_scb_uart.h **** * into the TX FIFO
 899:Generated_Source\PSoC6\pdl\drivers/peripheral/scb/cy_scb_uart.h **** */
 900:Generated_Source\PSoC6\pdl\drivers/peripheral/scb/cy_scb_uart.h **** #define CY_SCB_UART_TRANSMIT_IN_FIFO   (0x02UL)
 901:Generated_Source\PSoC6\pdl\drivers/peripheral/scb/cy_scb_uart.h **** 
 902:Generated_Source\PSoC6\pdl\drivers/peripheral/scb/cy_scb_uart.h **** /** SmartCard only: the transmitter received a NACK */
 903:Generated_Source\PSoC6\pdl\drivers/peripheral/scb/cy_scb_uart.h **** #define CY_SCB_UART_TRANSMIT_NACK      (SCB_INTR_TX_UART_NACK_Msk)
 904:Generated_Source\PSoC6\pdl\drivers/peripheral/scb/cy_scb_uart.h **** 
 905:Generated_Source\PSoC6\pdl\drivers/peripheral/scb/cy_scb_uart.h **** /** SmartCard only: the transmitter lost arbitration */
 906:Generated_Source\PSoC6\pdl\drivers/peripheral/scb/cy_scb_uart.h **** #define CY_SCB_UART_TRANSMIT_ARB_LOST  (SCB_INTR_TX_UART_ARB_LOST_Msk)
 907:Generated_Source\PSoC6\pdl\drivers/peripheral/scb/cy_scb_uart.h **** /** \} group_scb_uart_macros_transmit_status */
 908:Generated_Source\PSoC6\pdl\drivers/peripheral/scb/cy_scb_uart.h **** 
 909:Generated_Source\PSoC6\pdl\drivers/peripheral/scb/cy_scb_uart.h **** /**
 910:Generated_Source\PSoC6\pdl\drivers/peripheral/scb/cy_scb_uart.h **** * \defgroup group_scb_uart_macros_callback_events UART Callback Events
 911:Generated_Source\PSoC6\pdl\drivers/peripheral/scb/cy_scb_uart.h **** * \{
 912:Generated_Source\PSoC6\pdl\drivers/peripheral/scb/cy_scb_uart.h **** * Macros to check UART events passed by \ref cy_cb_scb_uart_handle_events_t callback.
 913:Generated_Source\PSoC6\pdl\drivers/peripheral/scb/cy_scb_uart.h **** * Note that only single event is notified by the callback when it is called.
 914:Generated_Source\PSoC6\pdl\drivers/peripheral/scb/cy_scb_uart.h **** */
 915:Generated_Source\PSoC6\pdl\drivers/peripheral/scb/cy_scb_uart.h **** 
 916:Generated_Source\PSoC6\pdl\drivers/peripheral/scb/cy_scb_uart.h **** /**
 917:Generated_Source\PSoC6\pdl\drivers/peripheral/scb/cy_scb_uart.h **** * All data elements specified by \ref Cy_SCB_UART_Transmit have been loaded
 918:Generated_Source\PSoC6\pdl\drivers/peripheral/scb/cy_scb_uart.h **** * into the TX FIFO
 919:Generated_Source\PSoC6\pdl\drivers/peripheral/scb/cy_scb_uart.h **** */
 920:Generated_Source\PSoC6\pdl\drivers/peripheral/scb/cy_scb_uart.h **** #define CY_SCB_UART_TRANSMIT_IN_FIFO_EVENT (0x01UL)
 921:Generated_Source\PSoC6\pdl\drivers/peripheral/scb/cy_scb_uart.h **** 
 922:Generated_Source\PSoC6\pdl\drivers/peripheral/scb/cy_scb_uart.h **** /** The transmit operation started by \ref Cy_SCB_UART_Transmit is complete */
 923:Generated_Source\PSoC6\pdl\drivers/peripheral/scb/cy_scb_uart.h **** #define CY_SCB_UART_TRANSMIT_DONE_EVENT    (0x02UL)
 924:Generated_Source\PSoC6\pdl\drivers/peripheral/scb/cy_scb_uart.h **** 
 925:Generated_Source\PSoC6\pdl\drivers/peripheral/scb/cy_scb_uart.h **** /** The receive operation started by \ref Cy_SCB_UART_Receive is complete */
 926:Generated_Source\PSoC6\pdl\drivers/peripheral/scb/cy_scb_uart.h **** #define CY_SCB_UART_RECEIVE_DONE_EVENT     (0x04UL)
 927:Generated_Source\PSoC6\pdl\drivers/peripheral/scb/cy_scb_uart.h **** 
 928:Generated_Source\PSoC6\pdl\drivers/peripheral/scb/cy_scb_uart.h **** /**
 929:Generated_Source\PSoC6\pdl\drivers/peripheral/scb/cy_scb_uart.h **** * The ring buffer is full, there is no more space for additional data.
 930:Generated_Source\PSoC6\pdl\drivers/peripheral/scb/cy_scb_uart.h **** * Additional data is stored in the RX FIFO until it becomes full, at which
 931:Generated_Source\PSoC6\pdl\drivers/peripheral/scb/cy_scb_uart.h **** * point data is dropped.
 932:Generated_Source\PSoC6\pdl\drivers/peripheral/scb/cy_scb_uart.h **** */
 933:Generated_Source\PSoC6\pdl\drivers/peripheral/scb/cy_scb_uart.h **** #define CY_SCB_UART_RB_FULL_EVENT          (0x08UL)
 934:Generated_Source\PSoC6\pdl\drivers/peripheral/scb/cy_scb_uart.h **** 
 935:Generated_Source\PSoC6\pdl\drivers/peripheral/scb/cy_scb_uart.h **** /**
 936:Generated_Source\PSoC6\pdl\drivers/peripheral/scb/cy_scb_uart.h **** * An error was detected during the receive operation. This includes overflow,
 937:Generated_Source\PSoC6\pdl\drivers/peripheral/scb/cy_scb_uart.h **** * frame error, or parity error. Check \ref Cy_SCB_UART_GetReceiveStatus to
 938:Generated_Source\PSoC6\pdl\drivers/peripheral/scb/cy_scb_uart.h **** * determine the source of the error.
 939:Generated_Source\PSoC6\pdl\drivers/peripheral/scb/cy_scb_uart.h **** */
 940:Generated_Source\PSoC6\pdl\drivers/peripheral/scb/cy_scb_uart.h **** #define CY_SCB_UART_RECEIVE_ERR_EVENT      (0x10UL)
 941:Generated_Source\PSoC6\pdl\drivers/peripheral/scb/cy_scb_uart.h **** 
 942:Generated_Source\PSoC6\pdl\drivers/peripheral/scb/cy_scb_uart.h **** /**
 943:Generated_Source\PSoC6\pdl\drivers/peripheral/scb/cy_scb_uart.h **** * An error was detected during the transmit operation. This includes a NACK
 944:Generated_Source\PSoC6\pdl\drivers/peripheral/scb/cy_scb_uart.h **** * or lost arbitration. Check \ref Cy_SCB_UART_GetTransmitStatus to determine
 945:Generated_Source\PSoC6\pdl\drivers/peripheral/scb/cy_scb_uart.h **** * the source of the error
 946:Generated_Source\PSoC6\pdl\drivers/peripheral/scb/cy_scb_uart.h **** */
 947:Generated_Source\PSoC6\pdl\drivers/peripheral/scb/cy_scb_uart.h **** #define CY_SCB_UART_TRANSMIT_ERR_EVENT     (0x20UL)
 948:Generated_Source\PSoC6\pdl\drivers/peripheral/scb/cy_scb_uart.h **** /** \} group_scb_uart_macros_callback_events */
 949:Generated_Source\PSoC6\pdl\drivers/peripheral/scb/cy_scb_uart.h **** 
 950:Generated_Source\PSoC6\pdl\drivers/peripheral/scb/cy_scb_uart.h **** /** Data returned by the hardware when an empty RX FIFO is read */
 951:Generated_Source\PSoC6\pdl\drivers/peripheral/scb/cy_scb_uart.h **** #define CY_SCB_UART_RX_NO_DATA         (0xFFFFFFFFUL)
 952:Generated_Source\PSoC6\pdl\drivers/peripheral/scb/cy_scb_uart.h **** 
ARM GAS  C:\Users\nicpa\AppData\Local\Temp\ccHOh1Eg.s 			page 29


 953:Generated_Source\PSoC6\pdl\drivers/peripheral/scb/cy_scb_uart.h **** 
 954:Generated_Source\PSoC6\pdl\drivers/peripheral/scb/cy_scb_uart.h **** /*******************************************************************************
 955:Generated_Source\PSoC6\pdl\drivers/peripheral/scb/cy_scb_uart.h **** *                            Internal Constants
 956:Generated_Source\PSoC6\pdl\drivers/peripheral/scb/cy_scb_uart.h **** *******************************************************************************/
 957:Generated_Source\PSoC6\pdl\drivers/peripheral/scb/cy_scb_uart.h **** 
 958:Generated_Source\PSoC6\pdl\drivers/peripheral/scb/cy_scb_uart.h **** /** \cond INTERNAL */
 959:Generated_Source\PSoC6\pdl\drivers/peripheral/scb/cy_scb_uart.h **** #define CY_SCB_UART_TX_INTR_MASK    (CY_SCB_UART_TX_TRIGGER  | CY_SCB_UART_TX_NOT_FULL  | CY_SCB_UA
 960:Generated_Source\PSoC6\pdl\drivers/peripheral/scb/cy_scb_uart.h ****                                      CY_SCB_UART_TX_OVERFLOW | CY_SCB_UART_TX_UNDERFLOW | CY_SCB_UA
 961:Generated_Source\PSoC6\pdl\drivers/peripheral/scb/cy_scb_uart.h ****                                      CY_SCB_UART_TX_NACK     | CY_SCB_UART_TX_ARB_LOST)
 962:Generated_Source\PSoC6\pdl\drivers/peripheral/scb/cy_scb_uart.h **** 
 963:Generated_Source\PSoC6\pdl\drivers/peripheral/scb/cy_scb_uart.h **** #define CY_SCB_UART_RX_INTR_MASK    (CY_SCB_UART_RX_TRIGGER    | CY_SCB_UART_RX_NOT_EMPTY | CY_SCB_
 964:Generated_Source\PSoC6\pdl\drivers/peripheral/scb/cy_scb_uart.h ****                                      CY_SCB_UART_RX_OVERFLOW   | CY_SCB_UART_RX_UNDERFLOW | CY_SCB_
 965:Generated_Source\PSoC6\pdl\drivers/peripheral/scb/cy_scb_uart.h ****                                      CY_SCB_UART_RX_ERR_PARITY | CY_SCB_UART_RX_BREAK_DETECT)
 966:Generated_Source\PSoC6\pdl\drivers/peripheral/scb/cy_scb_uart.h **** 
 967:Generated_Source\PSoC6\pdl\drivers/peripheral/scb/cy_scb_uart.h **** #define CY_SCB_UART_TX_INTR        (CY_SCB_TX_INTR_LEVEL | CY_SCB_TX_INTR_UART_NACK | CY_SCB_TX_INT
 968:Generated_Source\PSoC6\pdl\drivers/peripheral/scb/cy_scb_uart.h **** 
 969:Generated_Source\PSoC6\pdl\drivers/peripheral/scb/cy_scb_uart.h **** #define CY_SCB_UART_RX_INTR        (CY_SCB_RX_INTR_LEVEL | CY_SCB_RX_INTR_OVERFLOW | CY_SCB_RX_INTR
 970:Generated_Source\PSoC6\pdl\drivers/peripheral/scb/cy_scb_uart.h ****                                     CY_SCB_RX_INTR_UART_PARITY_ERROR | CY_SCB_RX_INTR_UART_BREAK_DE
 971:Generated_Source\PSoC6\pdl\drivers/peripheral/scb/cy_scb_uart.h **** 
 972:Generated_Source\PSoC6\pdl\drivers/peripheral/scb/cy_scb_uart.h **** #define CY_SCB_UART_RECEIVE_ERR    (CY_SCB_RX_INTR_OVERFLOW | CY_SCB_RX_INTR_UART_FRAME_ERROR | \
 973:Generated_Source\PSoC6\pdl\drivers/peripheral/scb/cy_scb_uart.h ****                                     CY_SCB_RX_INTR_UART_PARITY_ERROR)
 974:Generated_Source\PSoC6\pdl\drivers/peripheral/scb/cy_scb_uart.h **** 
 975:Generated_Source\PSoC6\pdl\drivers/peripheral/scb/cy_scb_uart.h **** #define CY_SCB_UART_TRANSMIT_ERR   (CY_SCB_TX_INTR_UART_NACK | CY_SCB_TX_INTR_UART_ARB_LOST)
 976:Generated_Source\PSoC6\pdl\drivers/peripheral/scb/cy_scb_uart.h **** 
 977:Generated_Source\PSoC6\pdl\drivers/peripheral/scb/cy_scb_uart.h **** #define CY_SCB_UART_INIT_KEY       (0x00ABCDEFUL)
 978:Generated_Source\PSoC6\pdl\drivers/peripheral/scb/cy_scb_uart.h **** 
 979:Generated_Source\PSoC6\pdl\drivers/peripheral/scb/cy_scb_uart.h **** #define CY_SCB_UART_IS_MODE_VALID(mode)     ( (CY_SCB_UART_STANDARD  == (mode)) || \
 980:Generated_Source\PSoC6\pdl\drivers/peripheral/scb/cy_scb_uart.h ****                                               (CY_SCB_UART_SMARTCARD == (mode)) || \
 981:Generated_Source\PSoC6\pdl\drivers/peripheral/scb/cy_scb_uart.h ****                                               (CY_SCB_UART_IRDA      == (mode)) )
 982:Generated_Source\PSoC6\pdl\drivers/peripheral/scb/cy_scb_uart.h **** 
 983:Generated_Source\PSoC6\pdl\drivers/peripheral/scb/cy_scb_uart.h **** #define CY_SCB_UART_IS_STOP_BITS_VALID(stopBits)    ( (CY_SCB_UART_STOP_BITS_1   == (stopBits)) || 
 984:Generated_Source\PSoC6\pdl\drivers/peripheral/scb/cy_scb_uart.h ****                                                       (CY_SCB_UART_STOP_BITS_1_5 == (stopBits)) || 
 985:Generated_Source\PSoC6\pdl\drivers/peripheral/scb/cy_scb_uart.h ****                                                       (CY_SCB_UART_STOP_BITS_2   == (stopBits)) || 
 986:Generated_Source\PSoC6\pdl\drivers/peripheral/scb/cy_scb_uart.h ****                                                       (CY_SCB_UART_STOP_BITS_2_5 == (stopBits)) || 
 987:Generated_Source\PSoC6\pdl\drivers/peripheral/scb/cy_scb_uart.h ****                                                       (CY_SCB_UART_STOP_BITS_3   == (stopBits)) || 
 988:Generated_Source\PSoC6\pdl\drivers/peripheral/scb/cy_scb_uart.h ****                                                       (CY_SCB_UART_STOP_BITS_3_5 == (stopBits)) || 
 989:Generated_Source\PSoC6\pdl\drivers/peripheral/scb/cy_scb_uart.h ****                                                       (CY_SCB_UART_STOP_BITS_4   == (stopBits)) )
 990:Generated_Source\PSoC6\pdl\drivers/peripheral/scb/cy_scb_uart.h **** 
 991:Generated_Source\PSoC6\pdl\drivers/peripheral/scb/cy_scb_uart.h **** #define CY_SCB_UART_IS_PARITY_VALID(parity)         ( (CY_SCB_UART_PARITY_NONE == (parity)) || \
 992:Generated_Source\PSoC6\pdl\drivers/peripheral/scb/cy_scb_uart.h ****                                                       (CY_SCB_UART_PARITY_EVEN == (parity)) || \
 993:Generated_Source\PSoC6\pdl\drivers/peripheral/scb/cy_scb_uart.h ****                                                       (CY_SCB_UART_PARITY_ODD  == (parity)) )
 994:Generated_Source\PSoC6\pdl\drivers/peripheral/scb/cy_scb_uart.h **** 
 995:Generated_Source\PSoC6\pdl\drivers/peripheral/scb/cy_scb_uart.h **** #define CY_SCB_UART_IS_POLARITY_VALID(polarity)     ( (CY_SCB_UART_ACTIVE_LOW  == (polarity)) || \
 996:Generated_Source\PSoC6\pdl\drivers/peripheral/scb/cy_scb_uart.h ****                                                       (CY_SCB_UART_ACTIVE_HIGH == (polarity)) )
 997:Generated_Source\PSoC6\pdl\drivers/peripheral/scb/cy_scb_uart.h **** 
 998:Generated_Source\PSoC6\pdl\drivers/peripheral/scb/cy_scb_uart.h **** #define CY_SCB_UART_IS_IRDA_LP_OVS_VALID(ovs)       ( (CY_SCB_UART_IRDA_LP_OVS16   == (ovs)) || \
 999:Generated_Source\PSoC6\pdl\drivers/peripheral/scb/cy_scb_uart.h ****                                                       (CY_SCB_UART_IRDA_LP_OVS32   == (ovs)) || \
1000:Generated_Source\PSoC6\pdl\drivers/peripheral/scb/cy_scb_uart.h ****                                                       (CY_SCB_UART_IRDA_LP_OVS48   == (ovs)) || \
1001:Generated_Source\PSoC6\pdl\drivers/peripheral/scb/cy_scb_uart.h ****                                                       (CY_SCB_UART_IRDA_LP_OVS96   == (ovs)) || \
1002:Generated_Source\PSoC6\pdl\drivers/peripheral/scb/cy_scb_uart.h ****                                                       (CY_SCB_UART_IRDA_LP_OVS192  == (ovs)) || \
1003:Generated_Source\PSoC6\pdl\drivers/peripheral/scb/cy_scb_uart.h ****                                                       (CY_SCB_UART_IRDA_LP_OVS768  == (ovs)) || \
1004:Generated_Source\PSoC6\pdl\drivers/peripheral/scb/cy_scb_uart.h ****                                                       (CY_SCB_UART_IRDA_LP_OVS1536 == (ovs)) )
1005:Generated_Source\PSoC6\pdl\drivers/peripheral/scb/cy_scb_uart.h **** 
1006:Generated_Source\PSoC6\pdl\drivers/peripheral/scb/cy_scb_uart.h **** #define CY_SCB_UART_IS_ADDRESS_VALID(addr)          ((addr) <= 0xFFUL)
1007:Generated_Source\PSoC6\pdl\drivers/peripheral/scb/cy_scb_uart.h **** #define CY_SCB_UART_IS_ADDRESS_MASK_VALID(mask)     ((mask) <= 0xFFUL)
1008:Generated_Source\PSoC6\pdl\drivers/peripheral/scb/cy_scb_uart.h **** #define CY_SCB_UART_IS_DATA_WIDTH_VALID(width)      ( ((width) >= 5UL) && ((width) <= 9UL) )
1009:Generated_Source\PSoC6\pdl\drivers/peripheral/scb/cy_scb_uart.h **** #define CY_SCB_UART_IS_OVERSAMPLE_VALID(ovs, mode, lpRx)    ( ((CY_SCB_UART_STANDARD  == (mode)) ||
ARM GAS  C:\Users\nicpa\AppData\Local\Temp\ccHOh1Eg.s 			page 30


1010:Generated_Source\PSoC6\pdl\drivers/peripheral/scb/cy_scb_uart.h ****                                                               (((ovs) >= 8UL) && ((ovs) <= 16UL)) :
1011:Generated_Source\PSoC6\pdl\drivers/peripheral/scb/cy_scb_uart.h ****                                                               ((lpRx) ? CY_SCB_UART_IS_IRDA_LP_OVS_
1012:Generated_Source\PSoC6\pdl\drivers/peripheral/scb/cy_scb_uart.h **** 
1013:Generated_Source\PSoC6\pdl\drivers/peripheral/scb/cy_scb_uart.h **** #define CY_SCB_UART_IS_RX_BREAK_WIDTH_VALID(base, width)    ( ((width) >= (_FLD2VAL(SCB_RX_CTRL_DAT
1014:Generated_Source\PSoC6\pdl\drivers/peripheral/scb/cy_scb_uart.h ****                                                               ((width) <= 16UL) )
1015:Generated_Source\PSoC6\pdl\drivers/peripheral/scb/cy_scb_uart.h **** #define CY_SCB_UART_IS_TX_BREAK_WIDTH_VALID(width)          ( ((width) >= 4UL) && ((width) <= 16UL)
1016:Generated_Source\PSoC6\pdl\drivers/peripheral/scb/cy_scb_uart.h **** 
1017:Generated_Source\PSoC6\pdl\drivers/peripheral/scb/cy_scb_uart.h **** #define CY_SCB_UART_IS_MUTLI_PROC_VALID(mp, mode, width, parity)    ( (mp) ? ((CY_SCB_UART_STANDARD
1018:Generated_Source\PSoC6\pdl\drivers/peripheral/scb/cy_scb_uart.h ****                                                                               (CY_SCB_UART_PARITY_N
1019:Generated_Source\PSoC6\pdl\drivers/peripheral/scb/cy_scb_uart.h **** /** \endcond */
1020:Generated_Source\PSoC6\pdl\drivers/peripheral/scb/cy_scb_uart.h **** 
1021:Generated_Source\PSoC6\pdl\drivers/peripheral/scb/cy_scb_uart.h **** /** \} group_scb_uart_macros */
1022:Generated_Source\PSoC6\pdl\drivers/peripheral/scb/cy_scb_uart.h **** 
1023:Generated_Source\PSoC6\pdl\drivers/peripheral/scb/cy_scb_uart.h **** 
1024:Generated_Source\PSoC6\pdl\drivers/peripheral/scb/cy_scb_uart.h **** /*******************************************************************************
1025:Generated_Source\PSoC6\pdl\drivers/peripheral/scb/cy_scb_uart.h **** *                    In-line Function Implementation
1026:Generated_Source\PSoC6\pdl\drivers/peripheral/scb/cy_scb_uart.h **** *******************************************************************************/
1027:Generated_Source\PSoC6\pdl\drivers/peripheral/scb/cy_scb_uart.h **** 
1028:Generated_Source\PSoC6\pdl\drivers/peripheral/scb/cy_scb_uart.h **** /**
1029:Generated_Source\PSoC6\pdl\drivers/peripheral/scb/cy_scb_uart.h **** * \addtogroup group_scb_uart_general_functions
1030:Generated_Source\PSoC6\pdl\drivers/peripheral/scb/cy_scb_uart.h **** * \{
1031:Generated_Source\PSoC6\pdl\drivers/peripheral/scb/cy_scb_uart.h **** */
1032:Generated_Source\PSoC6\pdl\drivers/peripheral/scb/cy_scb_uart.h **** 
1033:Generated_Source\PSoC6\pdl\drivers/peripheral/scb/cy_scb_uart.h **** /*******************************************************************************
1034:Generated_Source\PSoC6\pdl\drivers/peripheral/scb/cy_scb_uart.h **** * Function Name: Cy_SCB_UART_Enable
1035:Generated_Source\PSoC6\pdl\drivers/peripheral/scb/cy_scb_uart.h **** ****************************************************************************//**
1036:Generated_Source\PSoC6\pdl\drivers/peripheral/scb/cy_scb_uart.h **** *
1037:Generated_Source\PSoC6\pdl\drivers/peripheral/scb/cy_scb_uart.h **** * Enables the SCB block for the UART operation.
1038:Generated_Source\PSoC6\pdl\drivers/peripheral/scb/cy_scb_uart.h **** *
1039:Generated_Source\PSoC6\pdl\drivers/peripheral/scb/cy_scb_uart.h **** * \param base
1040:Generated_Source\PSoC6\pdl\drivers/peripheral/scb/cy_scb_uart.h **** * The pointer to the UART SCB instance.
1041:Generated_Source\PSoC6\pdl\drivers/peripheral/scb/cy_scb_uart.h **** *
1042:Generated_Source\PSoC6\pdl\drivers/peripheral/scb/cy_scb_uart.h **** *******************************************************************************/
1043:Generated_Source\PSoC6\pdl\drivers/peripheral/scb/cy_scb_uart.h **** __STATIC_INLINE void Cy_SCB_UART_Enable(CySCB_Type *base)
1044:Generated_Source\PSoC6\pdl\drivers/peripheral/scb/cy_scb_uart.h **** {
1045:Generated_Source\PSoC6\pdl\drivers/peripheral/scb/cy_scb_uart.h ****     SCB_CTRL(base) |= SCB_CTRL_ENABLED_Msk;
1046:Generated_Source\PSoC6\pdl\drivers/peripheral/scb/cy_scb_uart.h **** }
1047:Generated_Source\PSoC6\pdl\drivers/peripheral/scb/cy_scb_uart.h **** 
1048:Generated_Source\PSoC6\pdl\drivers/peripheral/scb/cy_scb_uart.h **** 
1049:Generated_Source\PSoC6\pdl\drivers/peripheral/scb/cy_scb_uart.h **** /*******************************************************************************
1050:Generated_Source\PSoC6\pdl\drivers/peripheral/scb/cy_scb_uart.h **** * Function Name: Cy_SCB_UART_EnableCts
1051:Generated_Source\PSoC6\pdl\drivers/peripheral/scb/cy_scb_uart.h **** ****************************************************************************//**
1052:Generated_Source\PSoC6\pdl\drivers/peripheral/scb/cy_scb_uart.h **** *
1053:Generated_Source\PSoC6\pdl\drivers/peripheral/scb/cy_scb_uart.h **** * Enables the Clear to Send (CTS) input for the UART. The UART will not transmit
1054:Generated_Source\PSoC6\pdl\drivers/peripheral/scb/cy_scb_uart.h **** * data while this signal is inactive.
1055:Generated_Source\PSoC6\pdl\drivers/peripheral/scb/cy_scb_uart.h **** *
1056:Generated_Source\PSoC6\pdl\drivers/peripheral/scb/cy_scb_uart.h **** * \param base
1057:Generated_Source\PSoC6\pdl\drivers/peripheral/scb/cy_scb_uart.h **** * The pointer to the UART SCB instance.
1058:Generated_Source\PSoC6\pdl\drivers/peripheral/scb/cy_scb_uart.h **** *
1059:Generated_Source\PSoC6\pdl\drivers/peripheral/scb/cy_scb_uart.h **** *******************************************************************************/
1060:Generated_Source\PSoC6\pdl\drivers/peripheral/scb/cy_scb_uart.h **** __STATIC_INLINE void Cy_SCB_UART_EnableCts(CySCB_Type *base)
1061:Generated_Source\PSoC6\pdl\drivers/peripheral/scb/cy_scb_uart.h **** {
1062:Generated_Source\PSoC6\pdl\drivers/peripheral/scb/cy_scb_uart.h ****     SCB_UART_FLOW_CTRL(base) |= SCB_UART_FLOW_CTRL_CTS_ENABLED_Msk;
1063:Generated_Source\PSoC6\pdl\drivers/peripheral/scb/cy_scb_uart.h **** }
1064:Generated_Source\PSoC6\pdl\drivers/peripheral/scb/cy_scb_uart.h **** 
1065:Generated_Source\PSoC6\pdl\drivers/peripheral/scb/cy_scb_uart.h **** 
1066:Generated_Source\PSoC6\pdl\drivers/peripheral/scb/cy_scb_uart.h **** /*******************************************************************************
ARM GAS  C:\Users\nicpa\AppData\Local\Temp\ccHOh1Eg.s 			page 31


1067:Generated_Source\PSoC6\pdl\drivers/peripheral/scb/cy_scb_uart.h **** * Function Name: Cy_SCB_UART_DisableCts
1068:Generated_Source\PSoC6\pdl\drivers/peripheral/scb/cy_scb_uart.h **** ****************************************************************************//**
1069:Generated_Source\PSoC6\pdl\drivers/peripheral/scb/cy_scb_uart.h **** *
1070:Generated_Source\PSoC6\pdl\drivers/peripheral/scb/cy_scb_uart.h **** * Disables the Clear to Send (CTS) input for the UART.
1071:Generated_Source\PSoC6\pdl\drivers/peripheral/scb/cy_scb_uart.h **** * See \ref Cy_SCB_UART_EnableCts for the details.
1072:Generated_Source\PSoC6\pdl\drivers/peripheral/scb/cy_scb_uart.h **** *
1073:Generated_Source\PSoC6\pdl\drivers/peripheral/scb/cy_scb_uart.h **** * \param base
1074:Generated_Source\PSoC6\pdl\drivers/peripheral/scb/cy_scb_uart.h **** * The pointer to the UART SCB instance.
1075:Generated_Source\PSoC6\pdl\drivers/peripheral/scb/cy_scb_uart.h **** *
1076:Generated_Source\PSoC6\pdl\drivers/peripheral/scb/cy_scb_uart.h **** *******************************************************************************/
1077:Generated_Source\PSoC6\pdl\drivers/peripheral/scb/cy_scb_uart.h **** __STATIC_INLINE void Cy_SCB_UART_DisableCts(CySCB_Type *base)
1078:Generated_Source\PSoC6\pdl\drivers/peripheral/scb/cy_scb_uart.h **** {
1079:Generated_Source\PSoC6\pdl\drivers/peripheral/scb/cy_scb_uart.h ****     SCB_UART_FLOW_CTRL(base) &= (uint32_t) ~SCB_UART_FLOW_CTRL_CTS_ENABLED_Msk;
1080:Generated_Source\PSoC6\pdl\drivers/peripheral/scb/cy_scb_uart.h **** }
1081:Generated_Source\PSoC6\pdl\drivers/peripheral/scb/cy_scb_uart.h **** 
1082:Generated_Source\PSoC6\pdl\drivers/peripheral/scb/cy_scb_uart.h **** 
1083:Generated_Source\PSoC6\pdl\drivers/peripheral/scb/cy_scb_uart.h **** /*******************************************************************************
1084:Generated_Source\PSoC6\pdl\drivers/peripheral/scb/cy_scb_uart.h **** * Function Name: Cy_SCB_UART_SetRtsFifoLevel
1085:Generated_Source\PSoC6\pdl\drivers/peripheral/scb/cy_scb_uart.h **** ****************************************************************************//**
1086:Generated_Source\PSoC6\pdl\drivers/peripheral/scb/cy_scb_uart.h **** *
1087:Generated_Source\PSoC6\pdl\drivers/peripheral/scb/cy_scb_uart.h **** * Sets a level for the Ready To Send (RTS) signal activation.
1088:Generated_Source\PSoC6\pdl\drivers/peripheral/scb/cy_scb_uart.h **** * When the number of data elements in the receive FIFO is below this level,
1089:Generated_Source\PSoC6\pdl\drivers/peripheral/scb/cy_scb_uart.h **** * then the RTS output is active. Otherwise, the RTS signal is inactive.
1090:Generated_Source\PSoC6\pdl\drivers/peripheral/scb/cy_scb_uart.h **** * To disable the RTS signal generation, set this level to zero.
1091:Generated_Source\PSoC6\pdl\drivers/peripheral/scb/cy_scb_uart.h **** *
1092:Generated_Source\PSoC6\pdl\drivers/peripheral/scb/cy_scb_uart.h **** * \param base
1093:Generated_Source\PSoC6\pdl\drivers/peripheral/scb/cy_scb_uart.h **** * The pointer to the UART SCB instance.
1094:Generated_Source\PSoC6\pdl\drivers/peripheral/scb/cy_scb_uart.h **** *
1095:Generated_Source\PSoC6\pdl\drivers/peripheral/scb/cy_scb_uart.h **** * \param level
1096:Generated_Source\PSoC6\pdl\drivers/peripheral/scb/cy_scb_uart.h **** * The level in the RX FIFO for RTS signal activation.
1097:Generated_Source\PSoC6\pdl\drivers/peripheral/scb/cy_scb_uart.h **** *
1098:Generated_Source\PSoC6\pdl\drivers/peripheral/scb/cy_scb_uart.h **** *******************************************************************************/
1099:Generated_Source\PSoC6\pdl\drivers/peripheral/scb/cy_scb_uart.h **** __STATIC_INLINE void Cy_SCB_UART_SetRtsFifoLevel(CySCB_Type *base, uint32_t level)
1100:Generated_Source\PSoC6\pdl\drivers/peripheral/scb/cy_scb_uart.h **** {
1101:Generated_Source\PSoC6\pdl\drivers/peripheral/scb/cy_scb_uart.h ****     CY_ASSERT_L2(CY_SCB_IS_TRIGGER_LEVEL_VALID(base, level));
1102:Generated_Source\PSoC6\pdl\drivers/peripheral/scb/cy_scb_uart.h **** 
1103:Generated_Source\PSoC6\pdl\drivers/peripheral/scb/cy_scb_uart.h ****     CY_REG32_CLR_SET(SCB_UART_FLOW_CTRL(base), SCB_UART_FLOW_CTRL_TRIGGER_LEVEL, level);
1104:Generated_Source\PSoC6\pdl\drivers/peripheral/scb/cy_scb_uart.h **** }
1105:Generated_Source\PSoC6\pdl\drivers/peripheral/scb/cy_scb_uart.h **** 
1106:Generated_Source\PSoC6\pdl\drivers/peripheral/scb/cy_scb_uart.h **** 
1107:Generated_Source\PSoC6\pdl\drivers/peripheral/scb/cy_scb_uart.h **** /*******************************************************************************
1108:Generated_Source\PSoC6\pdl\drivers/peripheral/scb/cy_scb_uart.h **** * Function Name: Cy_SCB_UART_GetRtsFifoLevel
1109:Generated_Source\PSoC6\pdl\drivers/peripheral/scb/cy_scb_uart.h **** ****************************************************************************//**
1110:Generated_Source\PSoC6\pdl\drivers/peripheral/scb/cy_scb_uart.h **** *
1111:Generated_Source\PSoC6\pdl\drivers/peripheral/scb/cy_scb_uart.h **** * Returns the level in the RX FIFO for the RTS signal activation.
1112:Generated_Source\PSoC6\pdl\drivers/peripheral/scb/cy_scb_uart.h **** *
1113:Generated_Source\PSoC6\pdl\drivers/peripheral/scb/cy_scb_uart.h **** * \param base
1114:Generated_Source\PSoC6\pdl\drivers/peripheral/scb/cy_scb_uart.h **** * The pointer to the UART SCB instance.
1115:Generated_Source\PSoC6\pdl\drivers/peripheral/scb/cy_scb_uart.h **** *
1116:Generated_Source\PSoC6\pdl\drivers/peripheral/scb/cy_scb_uart.h **** * \return
1117:Generated_Source\PSoC6\pdl\drivers/peripheral/scb/cy_scb_uart.h **** * The level in the RX FIFO for RTS signal activation.
1118:Generated_Source\PSoC6\pdl\drivers/peripheral/scb/cy_scb_uart.h **** *
1119:Generated_Source\PSoC6\pdl\drivers/peripheral/scb/cy_scb_uart.h **** *******************************************************************************/
1120:Generated_Source\PSoC6\pdl\drivers/peripheral/scb/cy_scb_uart.h **** __STATIC_INLINE uint32_t Cy_SCB_UART_GetRtsFifoLevel(CySCB_Type const *base)
1121:Generated_Source\PSoC6\pdl\drivers/peripheral/scb/cy_scb_uart.h **** {
1122:Generated_Source\PSoC6\pdl\drivers/peripheral/scb/cy_scb_uart.h ****     return _FLD2VAL(SCB_UART_FLOW_CTRL_TRIGGER_LEVEL, SCB_UART_FLOW_CTRL(base));
1123:Generated_Source\PSoC6\pdl\drivers/peripheral/scb/cy_scb_uart.h **** }
ARM GAS  C:\Users\nicpa\AppData\Local\Temp\ccHOh1Eg.s 			page 32


1124:Generated_Source\PSoC6\pdl\drivers/peripheral/scb/cy_scb_uart.h **** 
1125:Generated_Source\PSoC6\pdl\drivers/peripheral/scb/cy_scb_uart.h **** 
1126:Generated_Source\PSoC6\pdl\drivers/peripheral/scb/cy_scb_uart.h **** /*******************************************************************************
1127:Generated_Source\PSoC6\pdl\drivers/peripheral/scb/cy_scb_uart.h **** * Function Name: Cy_SCB_UART_EnableSkipStart
1128:Generated_Source\PSoC6\pdl\drivers/peripheral/scb/cy_scb_uart.h **** ****************************************************************************//**
1129:Generated_Source\PSoC6\pdl\drivers/peripheral/scb/cy_scb_uart.h **** *
1130:Generated_Source\PSoC6\pdl\drivers/peripheral/scb/cy_scb_uart.h **** * Enables the skip start-bit functionality.
1131:Generated_Source\PSoC6\pdl\drivers/peripheral/scb/cy_scb_uart.h **** * When skip start is enabled the UART hardware does not synchronize to a 
1132:Generated_Source\PSoC6\pdl\drivers/peripheral/scb/cy_scb_uart.h **** * start bit but synchronizes to the first rising edge. To create a rising edge, 
1133:Generated_Source\PSoC6\pdl\drivers/peripheral/scb/cy_scb_uart.h **** * the first data bit must be a 1. This feature is useful when the start bit 
1134:Generated_Source\PSoC6\pdl\drivers/peripheral/scb/cy_scb_uart.h **** * falling edge is used to wake the device through a GPIO interrupt.
1135:Generated_Source\PSoC6\pdl\drivers/peripheral/scb/cy_scb_uart.h **** *
1136:Generated_Source\PSoC6\pdl\drivers/peripheral/scb/cy_scb_uart.h **** * \param base
1137:Generated_Source\PSoC6\pdl\drivers/peripheral/scb/cy_scb_uart.h **** * The pointer to the UART SCB instance.
1138:Generated_Source\PSoC6\pdl\drivers/peripheral/scb/cy_scb_uart.h **** *
1139:Generated_Source\PSoC6\pdl\drivers/peripheral/scb/cy_scb_uart.h **** * \note
1140:Generated_Source\PSoC6\pdl\drivers/peripheral/scb/cy_scb_uart.h **** * When skip start-bit feature is enabled, it is applied (UART synchronizes 
1141:Generated_Source\PSoC6\pdl\drivers/peripheral/scb/cy_scb_uart.h **** * to the first rising edge after start bit) whenever the SCB is enabled. 
1142:Generated_Source\PSoC6\pdl\drivers/peripheral/scb/cy_scb_uart.h **** * This can cause incorrect UART synchronization and data reception when 
1143:Generated_Source\PSoC6\pdl\drivers/peripheral/scb/cy_scb_uart.h **** * the first data bit is not a 1. Therefore, disable the skip start-bit 
1144:Generated_Source\PSoC6\pdl\drivers/peripheral/scb/cy_scb_uart.h **** * when it should not be applied.
1145:Generated_Source\PSoC6\pdl\drivers/peripheral/scb/cy_scb_uart.h **** * Note that SCB is disabled before enter Deep Sleep mode or after calling 
1146:Generated_Source\PSoC6\pdl\drivers/peripheral/scb/cy_scb_uart.h **** * \ref Cy_SCB_UART_Disable.
1147:Generated_Source\PSoC6\pdl\drivers/peripheral/scb/cy_scb_uart.h **** *
1148:Generated_Source\PSoC6\pdl\drivers/peripheral/scb/cy_scb_uart.h **** *******************************************************************************/
1149:Generated_Source\PSoC6\pdl\drivers/peripheral/scb/cy_scb_uart.h **** __STATIC_INLINE void Cy_SCB_UART_EnableSkipStart(CySCB_Type *base)
1150:Generated_Source\PSoC6\pdl\drivers/peripheral/scb/cy_scb_uart.h **** {
1151:Generated_Source\PSoC6\pdl\drivers/peripheral/scb/cy_scb_uart.h ****     SCB_UART_RX_CTRL(base) |= SCB_UART_RX_CTRL_SKIP_START_Msk;
1152:Generated_Source\PSoC6\pdl\drivers/peripheral/scb/cy_scb_uart.h **** }
1153:Generated_Source\PSoC6\pdl\drivers/peripheral/scb/cy_scb_uart.h **** 
1154:Generated_Source\PSoC6\pdl\drivers/peripheral/scb/cy_scb_uart.h **** 
1155:Generated_Source\PSoC6\pdl\drivers/peripheral/scb/cy_scb_uart.h **** /*******************************************************************************
1156:Generated_Source\PSoC6\pdl\drivers/peripheral/scb/cy_scb_uart.h **** * Function Name: Cy_SCB_UART_DisableSkipStart
1157:Generated_Source\PSoC6\pdl\drivers/peripheral/scb/cy_scb_uart.h **** ****************************************************************************//**
1158:Generated_Source\PSoC6\pdl\drivers/peripheral/scb/cy_scb_uart.h **** *
1159:Generated_Source\PSoC6\pdl\drivers/peripheral/scb/cy_scb_uart.h **** * Disable the skip start-bit functionality.
1160:Generated_Source\PSoC6\pdl\drivers/peripheral/scb/cy_scb_uart.h **** * See \ref Cy_SCB_UART_EnableSkipStart for the details.
1161:Generated_Source\PSoC6\pdl\drivers/peripheral/scb/cy_scb_uart.h **** *
1162:Generated_Source\PSoC6\pdl\drivers/peripheral/scb/cy_scb_uart.h **** * \param base
1163:Generated_Source\PSoC6\pdl\drivers/peripheral/scb/cy_scb_uart.h **** * The pointer to the UART SCB instance.
1164:Generated_Source\PSoC6\pdl\drivers/peripheral/scb/cy_scb_uart.h **** *
1165:Generated_Source\PSoC6\pdl\drivers/peripheral/scb/cy_scb_uart.h **** *******************************************************************************/
1166:Generated_Source\PSoC6\pdl\drivers/peripheral/scb/cy_scb_uart.h **** __STATIC_INLINE void Cy_SCB_UART_DisableSkipStart(CySCB_Type *base)
1167:Generated_Source\PSoC6\pdl\drivers/peripheral/scb/cy_scb_uart.h **** {
1168:Generated_Source\PSoC6\pdl\drivers/peripheral/scb/cy_scb_uart.h ****     SCB_UART_RX_CTRL(base) &= (uint32_t) ~SCB_UART_RX_CTRL_SKIP_START_Msk;
1169:Generated_Source\PSoC6\pdl\drivers/peripheral/scb/cy_scb_uart.h **** }
1170:Generated_Source\PSoC6\pdl\drivers/peripheral/scb/cy_scb_uart.h **** /** \} group_scb_uart_general_functions */
1171:Generated_Source\PSoC6\pdl\drivers/peripheral/scb/cy_scb_uart.h **** 
1172:Generated_Source\PSoC6\pdl\drivers/peripheral/scb/cy_scb_uart.h **** 
1173:Generated_Source\PSoC6\pdl\drivers/peripheral/scb/cy_scb_uart.h **** /**
1174:Generated_Source\PSoC6\pdl\drivers/peripheral/scb/cy_scb_uart.h **** * \addtogroup group_scb_uart_low_level_functions
1175:Generated_Source\PSoC6\pdl\drivers/peripheral/scb/cy_scb_uart.h **** * \{
1176:Generated_Source\PSoC6\pdl\drivers/peripheral/scb/cy_scb_uart.h **** */
1177:Generated_Source\PSoC6\pdl\drivers/peripheral/scb/cy_scb_uart.h **** /*******************************************************************************
1178:Generated_Source\PSoC6\pdl\drivers/peripheral/scb/cy_scb_uart.h **** * Function Name: Cy_SCB_UART_Get
1179:Generated_Source\PSoC6\pdl\drivers/peripheral/scb/cy_scb_uart.h **** ****************************************************************************//**
1180:Generated_Source\PSoC6\pdl\drivers/peripheral/scb/cy_scb_uart.h **** *
ARM GAS  C:\Users\nicpa\AppData\Local\Temp\ccHOh1Eg.s 			page 33


1181:Generated_Source\PSoC6\pdl\drivers/peripheral/scb/cy_scb_uart.h **** * Reads a single data element from the UART RX FIFO.
1182:Generated_Source\PSoC6\pdl\drivers/peripheral/scb/cy_scb_uart.h **** * This function does not check whether the RX FIFO has data before reading it.
1183:Generated_Source\PSoC6\pdl\drivers/peripheral/scb/cy_scb_uart.h **** * If the RX FIFO is empty, the function returns \ref CY_SCB_UART_RX_NO_DATA.
1184:Generated_Source\PSoC6\pdl\drivers/peripheral/scb/cy_scb_uart.h **** *
1185:Generated_Source\PSoC6\pdl\drivers/peripheral/scb/cy_scb_uart.h **** * \param base
1186:Generated_Source\PSoC6\pdl\drivers/peripheral/scb/cy_scb_uart.h **** * The pointer to the UART SCB instance.
1187:Generated_Source\PSoC6\pdl\drivers/peripheral/scb/cy_scb_uart.h **** *
1188:Generated_Source\PSoC6\pdl\drivers/peripheral/scb/cy_scb_uart.h **** * \return
1189:Generated_Source\PSoC6\pdl\drivers/peripheral/scb/cy_scb_uart.h **** * Data from the RX FIFO.
1190:Generated_Source\PSoC6\pdl\drivers/peripheral/scb/cy_scb_uart.h **** * The data element size is defined by the configured data width.
1191:Generated_Source\PSoC6\pdl\drivers/peripheral/scb/cy_scb_uart.h **** *
1192:Generated_Source\PSoC6\pdl\drivers/peripheral/scb/cy_scb_uart.h **** *******************************************************************************/
1193:Generated_Source\PSoC6\pdl\drivers/peripheral/scb/cy_scb_uart.h **** __STATIC_INLINE uint32_t Cy_SCB_UART_Get(CySCB_Type const *base)
1194:Generated_Source\PSoC6\pdl\drivers/peripheral/scb/cy_scb_uart.h **** {
1195:Generated_Source\PSoC6\pdl\drivers/peripheral/scb/cy_scb_uart.h ****     return Cy_SCB_ReadRxFifo(base);
1196:Generated_Source\PSoC6\pdl\drivers/peripheral/scb/cy_scb_uart.h **** }
1197:Generated_Source\PSoC6\pdl\drivers/peripheral/scb/cy_scb_uart.h **** 
1198:Generated_Source\PSoC6\pdl\drivers/peripheral/scb/cy_scb_uart.h **** 
1199:Generated_Source\PSoC6\pdl\drivers/peripheral/scb/cy_scb_uart.h **** /*******************************************************************************
1200:Generated_Source\PSoC6\pdl\drivers/peripheral/scb/cy_scb_uart.h **** * Function Name: Cy_SCB_UART_GetArray
1201:Generated_Source\PSoC6\pdl\drivers/peripheral/scb/cy_scb_uart.h **** ****************************************************************************//**
1202:Generated_Source\PSoC6\pdl\drivers/peripheral/scb/cy_scb_uart.h **** *
1203:Generated_Source\PSoC6\pdl\drivers/peripheral/scb/cy_scb_uart.h **** * Reads an array of data out of the UART RX FIFO.
1204:Generated_Source\PSoC6\pdl\drivers/peripheral/scb/cy_scb_uart.h **** * This function does not block. It returns how many data elements were read
1205:Generated_Source\PSoC6\pdl\drivers/peripheral/scb/cy_scb_uart.h **** * from the RX FIFO.
1206:Generated_Source\PSoC6\pdl\drivers/peripheral/scb/cy_scb_uart.h **** *
1207:Generated_Source\PSoC6\pdl\drivers/peripheral/scb/cy_scb_uart.h **** * \param base
1208:Generated_Source\PSoC6\pdl\drivers/peripheral/scb/cy_scb_uart.h **** * The pointer to the UART SCB instance.
1209:Generated_Source\PSoC6\pdl\drivers/peripheral/scb/cy_scb_uart.h **** *
1210:Generated_Source\PSoC6\pdl\drivers/peripheral/scb/cy_scb_uart.h **** * \param buffer
1211:Generated_Source\PSoC6\pdl\drivers/peripheral/scb/cy_scb_uart.h **** * The pointer to the location to place the data read from the RX FIFO.
1212:Generated_Source\PSoC6\pdl\drivers/peripheral/scb/cy_scb_uart.h **** * The element size is defined by the data type, which depends on the configured
1213:Generated_Source\PSoC6\pdl\drivers/peripheral/scb/cy_scb_uart.h **** * data width.
1214:Generated_Source\PSoC6\pdl\drivers/peripheral/scb/cy_scb_uart.h **** *
1215:Generated_Source\PSoC6\pdl\drivers/peripheral/scb/cy_scb_uart.h **** * \param size
1216:Generated_Source\PSoC6\pdl\drivers/peripheral/scb/cy_scb_uart.h **** * The number of data elements to read from the RX FIFO.
1217:Generated_Source\PSoC6\pdl\drivers/peripheral/scb/cy_scb_uart.h **** *
1218:Generated_Source\PSoC6\pdl\drivers/peripheral/scb/cy_scb_uart.h **** * \return
1219:Generated_Source\PSoC6\pdl\drivers/peripheral/scb/cy_scb_uart.h **** * The number of data elements read from the RX FIFO.
1220:Generated_Source\PSoC6\pdl\drivers/peripheral/scb/cy_scb_uart.h **** *
1221:Generated_Source\PSoC6\pdl\drivers/peripheral/scb/cy_scb_uart.h **** *******************************************************************************/
1222:Generated_Source\PSoC6\pdl\drivers/peripheral/scb/cy_scb_uart.h **** __STATIC_INLINE uint32_t Cy_SCB_UART_GetArray(CySCB_Type const *base, void *buffer, uint32_t size)
1223:Generated_Source\PSoC6\pdl\drivers/peripheral/scb/cy_scb_uart.h **** {
1224:Generated_Source\PSoC6\pdl\drivers/peripheral/scb/cy_scb_uart.h ****     CY_ASSERT_L1(CY_SCB_IS_BUFFER_VALID(buffer, size));
1225:Generated_Source\PSoC6\pdl\drivers/peripheral/scb/cy_scb_uart.h **** 
1226:Generated_Source\PSoC6\pdl\drivers/peripheral/scb/cy_scb_uart.h ****     return Cy_SCB_ReadArray(base, buffer, size);
1227:Generated_Source\PSoC6\pdl\drivers/peripheral/scb/cy_scb_uart.h **** }
1228:Generated_Source\PSoC6\pdl\drivers/peripheral/scb/cy_scb_uart.h **** 
1229:Generated_Source\PSoC6\pdl\drivers/peripheral/scb/cy_scb_uart.h **** 
1230:Generated_Source\PSoC6\pdl\drivers/peripheral/scb/cy_scb_uart.h **** /*******************************************************************************
1231:Generated_Source\PSoC6\pdl\drivers/peripheral/scb/cy_scb_uart.h **** * Function Name: Cy_SCB_UART_GetArrayBlocking
1232:Generated_Source\PSoC6\pdl\drivers/peripheral/scb/cy_scb_uart.h **** ****************************************************************************//**
1233:Generated_Source\PSoC6\pdl\drivers/peripheral/scb/cy_scb_uart.h **** *
1234:Generated_Source\PSoC6\pdl\drivers/peripheral/scb/cy_scb_uart.h **** * Reads an array of data out of the UART RX FIFO.
1235:Generated_Source\PSoC6\pdl\drivers/peripheral/scb/cy_scb_uart.h **** * This function blocks until the number of data elements specified by the
1236:Generated_Source\PSoC6\pdl\drivers/peripheral/scb/cy_scb_uart.h **** * size has been read from the RX FIFO.
1237:Generated_Source\PSoC6\pdl\drivers/peripheral/scb/cy_scb_uart.h **** *
ARM GAS  C:\Users\nicpa\AppData\Local\Temp\ccHOh1Eg.s 			page 34


1238:Generated_Source\PSoC6\pdl\drivers/peripheral/scb/cy_scb_uart.h **** * \param base
1239:Generated_Source\PSoC6\pdl\drivers/peripheral/scb/cy_scb_uart.h **** * The pointer to the UART SCB instance.
1240:Generated_Source\PSoC6\pdl\drivers/peripheral/scb/cy_scb_uart.h **** *
1241:Generated_Source\PSoC6\pdl\drivers/peripheral/scb/cy_scb_uart.h **** * \param buffer
1242:Generated_Source\PSoC6\pdl\drivers/peripheral/scb/cy_scb_uart.h **** * The pointer to the location to place the data read from the RX FIFO.
1243:Generated_Source\PSoC6\pdl\drivers/peripheral/scb/cy_scb_uart.h **** * The element size is defined by the data type, which depends on the configured
1244:Generated_Source\PSoC6\pdl\drivers/peripheral/scb/cy_scb_uart.h **** * data width.
1245:Generated_Source\PSoC6\pdl\drivers/peripheral/scb/cy_scb_uart.h **** *
1246:Generated_Source\PSoC6\pdl\drivers/peripheral/scb/cy_scb_uart.h **** * \param size
1247:Generated_Source\PSoC6\pdl\drivers/peripheral/scb/cy_scb_uart.h **** * The number of data elements to read from the RX FIFO.
1248:Generated_Source\PSoC6\pdl\drivers/peripheral/scb/cy_scb_uart.h **** *
1249:Generated_Source\PSoC6\pdl\drivers/peripheral/scb/cy_scb_uart.h **** *******************************************************************************/
1250:Generated_Source\PSoC6\pdl\drivers/peripheral/scb/cy_scb_uart.h **** __STATIC_INLINE void Cy_SCB_UART_GetArrayBlocking(CySCB_Type const *base, void *buffer, uint32_t si
1251:Generated_Source\PSoC6\pdl\drivers/peripheral/scb/cy_scb_uart.h **** {
1252:Generated_Source\PSoC6\pdl\drivers/peripheral/scb/cy_scb_uart.h ****     CY_ASSERT_L1(CY_SCB_IS_BUFFER_VALID(buffer, size));
1253:Generated_Source\PSoC6\pdl\drivers/peripheral/scb/cy_scb_uart.h **** 
1254:Generated_Source\PSoC6\pdl\drivers/peripheral/scb/cy_scb_uart.h ****     Cy_SCB_ReadArrayBlocking(base, buffer, size);
1255:Generated_Source\PSoC6\pdl\drivers/peripheral/scb/cy_scb_uart.h **** }
1256:Generated_Source\PSoC6\pdl\drivers/peripheral/scb/cy_scb_uart.h **** 
1257:Generated_Source\PSoC6\pdl\drivers/peripheral/scb/cy_scb_uart.h **** 
1258:Generated_Source\PSoC6\pdl\drivers/peripheral/scb/cy_scb_uart.h **** /*******************************************************************************
1259:Generated_Source\PSoC6\pdl\drivers/peripheral/scb/cy_scb_uart.h **** * Function Name: Cy_SCB_UART_GetRxFifoStatus
1260:Generated_Source\PSoC6\pdl\drivers/peripheral/scb/cy_scb_uart.h **** ****************************************************************************//**
1261:Generated_Source\PSoC6\pdl\drivers/peripheral/scb/cy_scb_uart.h **** *
1262:Generated_Source\PSoC6\pdl\drivers/peripheral/scb/cy_scb_uart.h **** * Returns the current status of the RX FIFO.
1263:Generated_Source\PSoC6\pdl\drivers/peripheral/scb/cy_scb_uart.h **** *
1264:Generated_Source\PSoC6\pdl\drivers/peripheral/scb/cy_scb_uart.h **** * \param base
1265:Generated_Source\PSoC6\pdl\drivers/peripheral/scb/cy_scb_uart.h **** * The pointer to the UART SCB instance.
1266:Generated_Source\PSoC6\pdl\drivers/peripheral/scb/cy_scb_uart.h **** *
1267:Generated_Source\PSoC6\pdl\drivers/peripheral/scb/cy_scb_uart.h **** * \return
1268:Generated_Source\PSoC6\pdl\drivers/peripheral/scb/cy_scb_uart.h **** * \ref group_scb_uart_macros_rx_fifo_status
1269:Generated_Source\PSoC6\pdl\drivers/peripheral/scb/cy_scb_uart.h **** *
1270:Generated_Source\PSoC6\pdl\drivers/peripheral/scb/cy_scb_uart.h **** *******************************************************************************/
1271:Generated_Source\PSoC6\pdl\drivers/peripheral/scb/cy_scb_uart.h **** __STATIC_INLINE uint32_t Cy_SCB_UART_GetRxFifoStatus(CySCB_Type const *base)
1272:Generated_Source\PSoC6\pdl\drivers/peripheral/scb/cy_scb_uart.h **** {
1273:Generated_Source\PSoC6\pdl\drivers/peripheral/scb/cy_scb_uart.h ****     return (Cy_SCB_GetRxInterruptStatus(base) & CY_SCB_UART_RX_INTR_MASK);
1274:Generated_Source\PSoC6\pdl\drivers/peripheral/scb/cy_scb_uart.h **** }
1275:Generated_Source\PSoC6\pdl\drivers/peripheral/scb/cy_scb_uart.h **** 
1276:Generated_Source\PSoC6\pdl\drivers/peripheral/scb/cy_scb_uart.h **** 
1277:Generated_Source\PSoC6\pdl\drivers/peripheral/scb/cy_scb_uart.h **** /*******************************************************************************
1278:Generated_Source\PSoC6\pdl\drivers/peripheral/scb/cy_scb_uart.h **** * Function Name: Cy_SCB_UART_ClearRxFifoStatus
1279:Generated_Source\PSoC6\pdl\drivers/peripheral/scb/cy_scb_uart.h **** ****************************************************************************//**
1280:Generated_Source\PSoC6\pdl\drivers/peripheral/scb/cy_scb_uart.h **** *
1281:Generated_Source\PSoC6\pdl\drivers/peripheral/scb/cy_scb_uart.h **** * Clears the selected statuses of the RX FIFO.
1282:Generated_Source\PSoC6\pdl\drivers/peripheral/scb/cy_scb_uart.h **** *
1283:Generated_Source\PSoC6\pdl\drivers/peripheral/scb/cy_scb_uart.h **** * \param base
1284:Generated_Source\PSoC6\pdl\drivers/peripheral/scb/cy_scb_uart.h **** * The pointer to the UART SCB instance.
1285:Generated_Source\PSoC6\pdl\drivers/peripheral/scb/cy_scb_uart.h **** *
1286:Generated_Source\PSoC6\pdl\drivers/peripheral/scb/cy_scb_uart.h **** * \param clearMask
1287:Generated_Source\PSoC6\pdl\drivers/peripheral/scb/cy_scb_uart.h **** * The mask whose statuses to clear.
1288:Generated_Source\PSoC6\pdl\drivers/peripheral/scb/cy_scb_uart.h **** * See \ref group_scb_uart_macros_rx_fifo_status for the set of constants.
1289:Generated_Source\PSoC6\pdl\drivers/peripheral/scb/cy_scb_uart.h **** *
1290:Generated_Source\PSoC6\pdl\drivers/peripheral/scb/cy_scb_uart.h **** * \note
1291:Generated_Source\PSoC6\pdl\drivers/peripheral/scb/cy_scb_uart.h **** * * This status is also used for interrupt generation, so clearing it also
1292:Generated_Source\PSoC6\pdl\drivers/peripheral/scb/cy_scb_uart.h **** *   clears the interrupt sources.
1293:Generated_Source\PSoC6\pdl\drivers/peripheral/scb/cy_scb_uart.h **** * * Level-sensitive statuses such as \ref CY_SCB_UART_RX_TRIGGER,
1294:Generated_Source\PSoC6\pdl\drivers/peripheral/scb/cy_scb_uart.h **** *   \ref CY_SCB_UART_RX_NOT_EMPTY and \ref CY_SCB_UART_RX_FULL are set high again after
ARM GAS  C:\Users\nicpa\AppData\Local\Temp\ccHOh1Eg.s 			page 35


1295:Generated_Source\PSoC6\pdl\drivers/peripheral/scb/cy_scb_uart.h **** *   being cleared if the condition remains true.
1296:Generated_Source\PSoC6\pdl\drivers/peripheral/scb/cy_scb_uart.h **** *
1297:Generated_Source\PSoC6\pdl\drivers/peripheral/scb/cy_scb_uart.h **** *******************************************************************************/
1298:Generated_Source\PSoC6\pdl\drivers/peripheral/scb/cy_scb_uart.h **** __STATIC_INLINE void Cy_SCB_UART_ClearRxFifoStatus(CySCB_Type *base, uint32_t clearMask)
1299:Generated_Source\PSoC6\pdl\drivers/peripheral/scb/cy_scb_uart.h **** {
1300:Generated_Source\PSoC6\pdl\drivers/peripheral/scb/cy_scb_uart.h ****     CY_ASSERT_L2(CY_SCB_IS_INTR_VALID(clearMask, CY_SCB_UART_RX_INTR_MASK));
1301:Generated_Source\PSoC6\pdl\drivers/peripheral/scb/cy_scb_uart.h **** 
1302:Generated_Source\PSoC6\pdl\drivers/peripheral/scb/cy_scb_uart.h ****     Cy_SCB_ClearRxInterrupt(base, clearMask);
1303:Generated_Source\PSoC6\pdl\drivers/peripheral/scb/cy_scb_uart.h **** }
1304:Generated_Source\PSoC6\pdl\drivers/peripheral/scb/cy_scb_uart.h **** 
1305:Generated_Source\PSoC6\pdl\drivers/peripheral/scb/cy_scb_uart.h **** 
1306:Generated_Source\PSoC6\pdl\drivers/peripheral/scb/cy_scb_uart.h **** /*******************************************************************************
1307:Generated_Source\PSoC6\pdl\drivers/peripheral/scb/cy_scb_uart.h **** * Function Name: Cy_SCB_UART_GetNumInRxFifo
1308:Generated_Source\PSoC6\pdl\drivers/peripheral/scb/cy_scb_uart.h **** ****************************************************************************//**
1309:Generated_Source\PSoC6\pdl\drivers/peripheral/scb/cy_scb_uart.h **** *
1310:Generated_Source\PSoC6\pdl\drivers/peripheral/scb/cy_scb_uart.h **** * Returns the number of data elements in the UART RX FIFO.
1311:Generated_Source\PSoC6\pdl\drivers/peripheral/scb/cy_scb_uart.h **** *
1312:Generated_Source\PSoC6\pdl\drivers/peripheral/scb/cy_scb_uart.h **** * \param base
1313:Generated_Source\PSoC6\pdl\drivers/peripheral/scb/cy_scb_uart.h **** * The pointer to the UART SCB instance.
1314:Generated_Source\PSoC6\pdl\drivers/peripheral/scb/cy_scb_uart.h **** *
1315:Generated_Source\PSoC6\pdl\drivers/peripheral/scb/cy_scb_uart.h **** * \return
1316:Generated_Source\PSoC6\pdl\drivers/peripheral/scb/cy_scb_uart.h **** * The number of data elements in the RX FIFO.
1317:Generated_Source\PSoC6\pdl\drivers/peripheral/scb/cy_scb_uart.h **** * The size of date element defined by the configured data width.
1318:Generated_Source\PSoC6\pdl\drivers/peripheral/scb/cy_scb_uart.h **** *
1319:Generated_Source\PSoC6\pdl\drivers/peripheral/scb/cy_scb_uart.h **** *******************************************************************************/
1320:Generated_Source\PSoC6\pdl\drivers/peripheral/scb/cy_scb_uart.h **** __STATIC_INLINE uint32_t Cy_SCB_UART_GetNumInRxFifo(CySCB_Type const *base)
1321:Generated_Source\PSoC6\pdl\drivers/peripheral/scb/cy_scb_uart.h **** {
1322:Generated_Source\PSoC6\pdl\drivers/peripheral/scb/cy_scb_uart.h ****     return Cy_SCB_GetNumInRxFifo(base);
1323:Generated_Source\PSoC6\pdl\drivers/peripheral/scb/cy_scb_uart.h **** }
1324:Generated_Source\PSoC6\pdl\drivers/peripheral/scb/cy_scb_uart.h **** 
1325:Generated_Source\PSoC6\pdl\drivers/peripheral/scb/cy_scb_uart.h **** /*******************************************************************************
1326:Generated_Source\PSoC6\pdl\drivers/peripheral/scb/cy_scb_uart.h **** * Function Name: Cy_SCB_UART_ClearRxFifo
1327:Generated_Source\PSoC6\pdl\drivers/peripheral/scb/cy_scb_uart.h **** ****************************************************************************//**
1328:Generated_Source\PSoC6\pdl\drivers/peripheral/scb/cy_scb_uart.h **** *
1329:Generated_Source\PSoC6\pdl\drivers/peripheral/scb/cy_scb_uart.h **** * Clears all data out of the UART RX FIFO.
1330:Generated_Source\PSoC6\pdl\drivers/peripheral/scb/cy_scb_uart.h **** *
1331:Generated_Source\PSoC6\pdl\drivers/peripheral/scb/cy_scb_uart.h **** * \param base
1332:Generated_Source\PSoC6\pdl\drivers/peripheral/scb/cy_scb_uart.h **** * The pointer to the UART SCB instance.
1333:Generated_Source\PSoC6\pdl\drivers/peripheral/scb/cy_scb_uart.h **** *
1334:Generated_Source\PSoC6\pdl\drivers/peripheral/scb/cy_scb_uart.h **** * \sideeffect
1335:Generated_Source\PSoC6\pdl\drivers/peripheral/scb/cy_scb_uart.h **** * Any data currently in the shifter is cleared and lost.
1336:Generated_Source\PSoC6\pdl\drivers/peripheral/scb/cy_scb_uart.h **** *
1337:Generated_Source\PSoC6\pdl\drivers/peripheral/scb/cy_scb_uart.h **** *******************************************************************************/
1338:Generated_Source\PSoC6\pdl\drivers/peripheral/scb/cy_scb_uart.h **** __STATIC_INLINE void Cy_SCB_UART_ClearRxFifo(CySCB_Type *base)
1339:Generated_Source\PSoC6\pdl\drivers/peripheral/scb/cy_scb_uart.h **** {
1340:Generated_Source\PSoC6\pdl\drivers/peripheral/scb/cy_scb_uart.h ****     Cy_SCB_ClearRxFifo(base);
1341:Generated_Source\PSoC6\pdl\drivers/peripheral/scb/cy_scb_uart.h **** }
1342:Generated_Source\PSoC6\pdl\drivers/peripheral/scb/cy_scb_uart.h **** 
1343:Generated_Source\PSoC6\pdl\drivers/peripheral/scb/cy_scb_uart.h **** 
1344:Generated_Source\PSoC6\pdl\drivers/peripheral/scb/cy_scb_uart.h **** /*******************************************************************************
1345:Generated_Source\PSoC6\pdl\drivers/peripheral/scb/cy_scb_uart.h **** * Function Name: Cy_SCB_UART_Put
1346:Generated_Source\PSoC6\pdl\drivers/peripheral/scb/cy_scb_uart.h **** ****************************************************************************//**
1347:Generated_Source\PSoC6\pdl\drivers/peripheral/scb/cy_scb_uart.h **** *
1348:Generated_Source\PSoC6\pdl\drivers/peripheral/scb/cy_scb_uart.h **** * Places a single data element in the UART TX FIFO.
1349:Generated_Source\PSoC6\pdl\drivers/peripheral/scb/cy_scb_uart.h **** * This function does not block and returns how many data elements were placed
1350:Generated_Source\PSoC6\pdl\drivers/peripheral/scb/cy_scb_uart.h **** * in the TX FIFO.
1351:Generated_Source\PSoC6\pdl\drivers/peripheral/scb/cy_scb_uart.h **** *
ARM GAS  C:\Users\nicpa\AppData\Local\Temp\ccHOh1Eg.s 			page 36


1352:Generated_Source\PSoC6\pdl\drivers/peripheral/scb/cy_scb_uart.h **** * \param base
1353:Generated_Source\PSoC6\pdl\drivers/peripheral/scb/cy_scb_uart.h **** * The pointer to the UART SCB instance.
1354:Generated_Source\PSoC6\pdl\drivers/peripheral/scb/cy_scb_uart.h **** *
1355:Generated_Source\PSoC6\pdl\drivers/peripheral/scb/cy_scb_uart.h **** * \param data
1356:Generated_Source\PSoC6\pdl\drivers/peripheral/scb/cy_scb_uart.h **** * Data to put in the TX FIFO.
1357:Generated_Source\PSoC6\pdl\drivers/peripheral/scb/cy_scb_uart.h **** * The element size is defined by the data type, which depends on the configured
1358:Generated_Source\PSoC6\pdl\drivers/peripheral/scb/cy_scb_uart.h **** * data width.
1359:Generated_Source\PSoC6\pdl\drivers/peripheral/scb/cy_scb_uart.h **** *
1360:Generated_Source\PSoC6\pdl\drivers/peripheral/scb/cy_scb_uart.h **** * \return
1361:Generated_Source\PSoC6\pdl\drivers/peripheral/scb/cy_scb_uart.h **** * The number of data elements placed in the TX FIFO: 0 or 1.
1362:Generated_Source\PSoC6\pdl\drivers/peripheral/scb/cy_scb_uart.h **** *
1363:Generated_Source\PSoC6\pdl\drivers/peripheral/scb/cy_scb_uart.h **** *******************************************************************************/
1364:Generated_Source\PSoC6\pdl\drivers/peripheral/scb/cy_scb_uart.h **** __STATIC_INLINE uint32_t Cy_SCB_UART_Put(CySCB_Type *base, uint32_t data)
1365:Generated_Source\PSoC6\pdl\drivers/peripheral/scb/cy_scb_uart.h **** {
1366:Generated_Source\PSoC6\pdl\drivers/peripheral/scb/cy_scb_uart.h ****     return Cy_SCB_Write(base, data);
1367:Generated_Source\PSoC6\pdl\drivers/peripheral/scb/cy_scb_uart.h **** }
1368:Generated_Source\PSoC6\pdl\drivers/peripheral/scb/cy_scb_uart.h **** 
1369:Generated_Source\PSoC6\pdl\drivers/peripheral/scb/cy_scb_uart.h **** 
1370:Generated_Source\PSoC6\pdl\drivers/peripheral/scb/cy_scb_uart.h **** /*******************************************************************************
1371:Generated_Source\PSoC6\pdl\drivers/peripheral/scb/cy_scb_uart.h **** * Function Name: Cy_SCB_UART_PutArray
1372:Generated_Source\PSoC6\pdl\drivers/peripheral/scb/cy_scb_uart.h **** ****************************************************************************//**
1373:Generated_Source\PSoC6\pdl\drivers/peripheral/scb/cy_scb_uart.h **** *
1374:Generated_Source\PSoC6\pdl\drivers/peripheral/scb/cy_scb_uart.h **** * Places an array of data in the UART TX FIFO.
1375:Generated_Source\PSoC6\pdl\drivers/peripheral/scb/cy_scb_uart.h **** * This function does not block. It returns how many data elements were
1376:Generated_Source\PSoC6\pdl\drivers/peripheral/scb/cy_scb_uart.h **** * placed in the TX FIFO.
1377:Generated_Source\PSoC6\pdl\drivers/peripheral/scb/cy_scb_uart.h **** *
1378:Generated_Source\PSoC6\pdl\drivers/peripheral/scb/cy_scb_uart.h **** * \param base
1379:Generated_Source\PSoC6\pdl\drivers/peripheral/scb/cy_scb_uart.h **** * The pointer to the UART SCB instance.
1380:Generated_Source\PSoC6\pdl\drivers/peripheral/scb/cy_scb_uart.h **** *
1381:Generated_Source\PSoC6\pdl\drivers/peripheral/scb/cy_scb_uart.h **** * \param buffer
1382:Generated_Source\PSoC6\pdl\drivers/peripheral/scb/cy_scb_uart.h **** * The pointer to data to place in the TX FIFO.
1383:Generated_Source\PSoC6\pdl\drivers/peripheral/scb/cy_scb_uart.h **** * The element size is defined by the data type, which depends on the configured
1384:Generated_Source\PSoC6\pdl\drivers/peripheral/scb/cy_scb_uart.h **** * TX data width.
1385:Generated_Source\PSoC6\pdl\drivers/peripheral/scb/cy_scb_uart.h **** *
1386:Generated_Source\PSoC6\pdl\drivers/peripheral/scb/cy_scb_uart.h **** * \param size
1387:Generated_Source\PSoC6\pdl\drivers/peripheral/scb/cy_scb_uart.h **** * The number of data elements to TX.
1388:Generated_Source\PSoC6\pdl\drivers/peripheral/scb/cy_scb_uart.h **** *
1389:Generated_Source\PSoC6\pdl\drivers/peripheral/scb/cy_scb_uart.h **** * \return
1390:Generated_Source\PSoC6\pdl\drivers/peripheral/scb/cy_scb_uart.h **** * The number of data elements placed in the TX FIFO.
1391:Generated_Source\PSoC6\pdl\drivers/peripheral/scb/cy_scb_uart.h **** *
1392:Generated_Source\PSoC6\pdl\drivers/peripheral/scb/cy_scb_uart.h **** *******************************************************************************/
1393:Generated_Source\PSoC6\pdl\drivers/peripheral/scb/cy_scb_uart.h **** __STATIC_INLINE uint32_t Cy_SCB_UART_PutArray(CySCB_Type *base, void *buffer, uint32_t size)
1394:Generated_Source\PSoC6\pdl\drivers/peripheral/scb/cy_scb_uart.h **** {
1395:Generated_Source\PSoC6\pdl\drivers/peripheral/scb/cy_scb_uart.h ****     CY_ASSERT_L1(CY_SCB_IS_BUFFER_VALID(buffer, size));
1396:Generated_Source\PSoC6\pdl\drivers/peripheral/scb/cy_scb_uart.h **** 
1397:Generated_Source\PSoC6\pdl\drivers/peripheral/scb/cy_scb_uart.h ****     return Cy_SCB_WriteArray(base, buffer, size);
1398:Generated_Source\PSoC6\pdl\drivers/peripheral/scb/cy_scb_uart.h **** }
1399:Generated_Source\PSoC6\pdl\drivers/peripheral/scb/cy_scb_uart.h **** 
1400:Generated_Source\PSoC6\pdl\drivers/peripheral/scb/cy_scb_uart.h **** 
1401:Generated_Source\PSoC6\pdl\drivers/peripheral/scb/cy_scb_uart.h **** /*******************************************************************************
1402:Generated_Source\PSoC6\pdl\drivers/peripheral/scb/cy_scb_uart.h **** * Function Name: Cy_SCB_UART_PutArrayBlocking
1403:Generated_Source\PSoC6\pdl\drivers/peripheral/scb/cy_scb_uart.h **** ****************************************************************************//**
1404:Generated_Source\PSoC6\pdl\drivers/peripheral/scb/cy_scb_uart.h **** *
1405:Generated_Source\PSoC6\pdl\drivers/peripheral/scb/cy_scb_uart.h **** * Places an array of data in the UART TX FIFO.
1406:Generated_Source\PSoC6\pdl\drivers/peripheral/scb/cy_scb_uart.h **** * This function blocks until the number of data elements specified by the size
1407:Generated_Source\PSoC6\pdl\drivers/peripheral/scb/cy_scb_uart.h **** * is placed in the TX FIFO.
1408:Generated_Source\PSoC6\pdl\drivers/peripheral/scb/cy_scb_uart.h **** *
ARM GAS  C:\Users\nicpa\AppData\Local\Temp\ccHOh1Eg.s 			page 37


1409:Generated_Source\PSoC6\pdl\drivers/peripheral/scb/cy_scb_uart.h **** * \param base
1410:Generated_Source\PSoC6\pdl\drivers/peripheral/scb/cy_scb_uart.h **** * The pointer to the UART SCB instance.
1411:Generated_Source\PSoC6\pdl\drivers/peripheral/scb/cy_scb_uart.h **** *
1412:Generated_Source\PSoC6\pdl\drivers/peripheral/scb/cy_scb_uart.h **** * \param buffer
1413:Generated_Source\PSoC6\pdl\drivers/peripheral/scb/cy_scb_uart.h **** * The pointer to data to place in the TX FIFO.
1414:Generated_Source\PSoC6\pdl\drivers/peripheral/scb/cy_scb_uart.h **** * The element size is defined by the data type, which depends on the configured
1415:Generated_Source\PSoC6\pdl\drivers/peripheral/scb/cy_scb_uart.h **** * data width.
1416:Generated_Source\PSoC6\pdl\drivers/peripheral/scb/cy_scb_uart.h **** *
1417:Generated_Source\PSoC6\pdl\drivers/peripheral/scb/cy_scb_uart.h **** * \param size
1418:Generated_Source\PSoC6\pdl\drivers/peripheral/scb/cy_scb_uart.h **** * The number of data elements to write into the TX FIFO.
1419:Generated_Source\PSoC6\pdl\drivers/peripheral/scb/cy_scb_uart.h **** *
1420:Generated_Source\PSoC6\pdl\drivers/peripheral/scb/cy_scb_uart.h **** *******************************************************************************/
1421:Generated_Source\PSoC6\pdl\drivers/peripheral/scb/cy_scb_uart.h **** __STATIC_INLINE void Cy_SCB_UART_PutArrayBlocking(CySCB_Type *base, void *buffer, uint32_t size)
1422:Generated_Source\PSoC6\pdl\drivers/peripheral/scb/cy_scb_uart.h **** {
1423:Generated_Source\PSoC6\pdl\drivers/peripheral/scb/cy_scb_uart.h ****     CY_ASSERT_L1(CY_SCB_IS_BUFFER_VALID(buffer, size));
1424:Generated_Source\PSoC6\pdl\drivers/peripheral/scb/cy_scb_uart.h **** 
1425:Generated_Source\PSoC6\pdl\drivers/peripheral/scb/cy_scb_uart.h ****     Cy_SCB_WriteArrayBlocking(base, buffer, size);
1426:Generated_Source\PSoC6\pdl\drivers/peripheral/scb/cy_scb_uart.h **** }
1427:Generated_Source\PSoC6\pdl\drivers/peripheral/scb/cy_scb_uart.h **** 
1428:Generated_Source\PSoC6\pdl\drivers/peripheral/scb/cy_scb_uart.h **** 
1429:Generated_Source\PSoC6\pdl\drivers/peripheral/scb/cy_scb_uart.h **** /*******************************************************************************
1430:Generated_Source\PSoC6\pdl\drivers/peripheral/scb/cy_scb_uart.h **** * Function Name: Cy_SCB_UART_PutString
1431:Generated_Source\PSoC6\pdl\drivers/peripheral/scb/cy_scb_uart.h **** ****************************************************************************//**
1432:Generated_Source\PSoC6\pdl\drivers/peripheral/scb/cy_scb_uart.h **** *
1433:Generated_Source\PSoC6\pdl\drivers/peripheral/scb/cy_scb_uart.h **** * Places a NULL terminated string in the UART TX FIFO.
1434:Generated_Source\PSoC6\pdl\drivers/peripheral/scb/cy_scb_uart.h **** * This function blocks until the entire string is placed in the TX FIFO.
1435:Generated_Source\PSoC6\pdl\drivers/peripheral/scb/cy_scb_uart.h **** *
1436:Generated_Source\PSoC6\pdl\drivers/peripheral/scb/cy_scb_uart.h **** * \param base
1437:Generated_Source\PSoC6\pdl\drivers/peripheral/scb/cy_scb_uart.h **** * The pointer to the UART SCB instance.
1438:Generated_Source\PSoC6\pdl\drivers/peripheral/scb/cy_scb_uart.h **** *
1439:Generated_Source\PSoC6\pdl\drivers/peripheral/scb/cy_scb_uart.h **** * \param string
1440:Generated_Source\PSoC6\pdl\drivers/peripheral/scb/cy_scb_uart.h **** * The pointer to the null terminated string array.
1441:Generated_Source\PSoC6\pdl\drivers/peripheral/scb/cy_scb_uart.h **** *
1442:Generated_Source\PSoC6\pdl\drivers/peripheral/scb/cy_scb_uart.h **** *******************************************************************************/
1443:Generated_Source\PSoC6\pdl\drivers/peripheral/scb/cy_scb_uart.h **** __STATIC_INLINE void Cy_SCB_UART_PutString(CySCB_Type *base, char_t const string[])
1444:Generated_Source\PSoC6\pdl\drivers/peripheral/scb/cy_scb_uart.h **** {
1445:Generated_Source\PSoC6\pdl\drivers/peripheral/scb/cy_scb_uart.h ****     CY_ASSERT_L1(CY_SCB_IS_BUFFER_VALID(string, 1UL));
1446:Generated_Source\PSoC6\pdl\drivers/peripheral/scb/cy_scb_uart.h **** 
1447:Generated_Source\PSoC6\pdl\drivers/peripheral/scb/cy_scb_uart.h ****     Cy_SCB_WriteString(base, string);
 419              		.loc 2 1447 0
 420 0118 05A9     		add	r1, sp, #20
 421              	.LVL36:
 422 011a 5F48     		ldr	r0, .L40+80
 423 011c FFF7FEFF 		bl	Cy_SCB_WriteString
 424              	.LVL37:
 425              	.LBE19:
 426              	.LBE18:
 427              	.LBE17:
 221:Traitement_Signal.c ****                 UART_PutString(displayStr);
 222:Traitement_Signal.c **** 
 223:Traitement_Signal.c **** 
 224:Traitement_Signal.c ****                 float32 indice[4]={};
 428              		.loc 1 224 0
 429 0120 0022     		movs	r2, #0
 430 0122 0192     		str	r2, [sp, #4]
 431 0124 0292     		str	r2, [sp, #8]
 432 0126 0392     		str	r2, [sp, #12]
ARM GAS  C:\Users\nicpa\AppData\Local\Temp\ccHOh1Eg.s 			page 38


 433 0128 0492     		str	r2, [sp, #16]
 434              	.LVL38:
 435              	.LBB20:
 225:Traitement_Signal.c ****                 BPM = 0;
 226:Traitement_Signal.c ****                 int j= 0;
 227:Traitement_Signal.c ****                
 228:Traitement_Signal.c ****                 //Positionnement des pics d'amplitude
 229:Traitement_Signal.c ****                 for (int i=500; i<1000; i++)
 436              		.loc 1 229 0
 437 012a 4FF4FA73 		mov	r3, #500
 438              	.LBE20:
 226:Traitement_Signal.c ****                
 439              		.loc 1 226 0
 440 012e 1046     		mov	r0, r2
 441              	.LBB21:
 442              		.loc 1 229 0
 443 0130 51E0     		b	.L22
 444              	.LVL39:
 445              	.L31:
 230:Traitement_Signal.c ****                 {
 231:Traitement_Signal.c ****                     if(signal_R[i]> signal_R[i-1] && signal_R[i]> signal_R[i+1] && signal_R[i]> sig
 446              		.loc 1 231 0
 447 0132 4E4A     		ldr	r2, .L40+36
 448 0134 02EB8301 		add	r1, r2, r3, lsl #2
 449 0138 D1ED007A 		vldr.32	s15, [r1]
 450 013c 591E     		subs	r1, r3, #1
 451 013e 02EB8102 		add	r2, r2, r1, lsl #2
 452 0142 92ED007A 		vldr.32	s14, [r2]
 453 0146 F4EEC77A 		vcmpe.f32	s15, s14
 454 014a F1EE10FA 		vmrs	APSR_nzcv, FPSCR
 455 014e 3FDD     		ble	.L23
 456              		.loc 1 231 0 is_stmt 0 discriminator 1
 457 0150 5A1C     		adds	r2, r3, #1
 458 0152 4649     		ldr	r1, .L40+36
 459 0154 01EB8202 		add	r2, r1, r2, lsl #2
 460 0158 92ED007A 		vldr.32	s14, [r2]
 461 015c F4EEC77A 		vcmpe.f32	s15, s14
 462 0160 F1EE10FA 		vmrs	APSR_nzcv, FPSCR
 463 0164 34DD     		ble	.L23
 464              		.loc 1 231 0 discriminator 2
 465 0166 5A1F     		subs	r2, r3, #5
 466 0168 01EB8202 		add	r2, r1, r2, lsl #2
 467 016c 92ED007A 		vldr.32	s14, [r2]
 468 0170 F4EEC77A 		vcmpe.f32	s15, s14
 469 0174 F1EE10FA 		vmrs	APSR_nzcv, FPSCR
 470 0178 2ADD     		ble	.L23
 471              		.loc 1 231 0 discriminator 3
 472 017a 5A1D     		adds	r2, r3, #5
 473 017c 01EB8202 		add	r2, r1, r2, lsl #2
 474 0180 92ED007A 		vldr.32	s14, [r2]
 475 0184 F4EEC77A 		vcmpe.f32	s15, s14
 476 0188 F1EE10FA 		vmrs	APSR_nzcv, FPSCR
 477 018c 20DD     		ble	.L23
 478              		.loc 1 231 0 discriminator 4
 479 018e A3F11402 		sub	r2, r3, #20
 480 0192 01EB8202 		add	r2, r1, r2, lsl #2
 481 0196 92ED007A 		vldr.32	s14, [r2]
ARM GAS  C:\Users\nicpa\AppData\Local\Temp\ccHOh1Eg.s 			page 39


 482 019a F4EEC77A 		vcmpe.f32	s15, s14
 483 019e F1EE10FA 		vmrs	APSR_nzcv, FPSCR
 484 01a2 15DD     		ble	.L23
 485              		.loc 1 231 0 discriminator 5
 486 01a4 03F11401 		add	r1, r3, #20
 487 01a8 304A     		ldr	r2, .L40+36
 488 01aa 02EB8102 		add	r2, r2, r1, lsl #2
 489 01ae 92ED007A 		vldr.32	s14, [r2]
 490 01b2 F4EEC77A 		vcmpe.f32	s15, s14
 491 01b6 F1EE10FA 		vmrs	APSR_nzcv, FPSCR
 492 01ba 09DD     		ble	.L23
 232:Traitement_Signal.c ****                     {
 233:Traitement_Signal.c ****                         indice[j] = i;
 493              		.loc 1 233 0 is_stmt 1
 494 01bc 12AA     		add	r2, sp, #72
 495 01be 02EB8002 		add	r2, r2, r0, lsl #2
 496 01c2 07EE903A 		vmov	s15, r3	@ int
 497 01c6 F8EEE77A 		vcvt.f32.s32	s15, s15
 498 01ca 42ED117A 		vstr.32	s15, [r2, #-68]
 234:Traitement_Signal.c ****                         j++;
 499              		.loc 1 234 0
 500 01ce 0130     		adds	r0, r0, #1
 501              	.LVL40:
 502              	.L23:
 235:Traitement_Signal.c ****                     } 
 236:Traitement_Signal.c ****                     if(j==5)
 503              		.loc 1 236 0
 504 01d0 0528     		cmp	r0, #5
 505 01d2 03D0     		beq	.L30
 229:Traitement_Signal.c ****                 {
 506              		.loc 1 229 0
 507 01d4 0133     		adds	r3, r3, #1
 508              	.LVL41:
 509              	.L22:
 229:Traitement_Signal.c ****                 {
 510              		.loc 1 229 0 is_stmt 0 discriminator 1
 511 01d6 B3F57A7F 		cmp	r3, #1000
 512 01da AADB     		blt	.L31
 513              	.L30:
 514              	.LBE21:
 237:Traitement_Signal.c ****                     {
 238:Traitement_Signal.c ****                         break;
 239:Traitement_Signal.c ****                     }
 240:Traitement_Signal.c ****                     else
 241:Traitement_Signal.c ****                     {
 242:Traitement_Signal.c ****                         continue;
 243:Traitement_Signal.c ****                     }
 244:Traitement_Signal.c ****                 }
 245:Traitement_Signal.c **** 
 246:Traitement_Signal.c ****                 //Calcul du HR
 247:Traitement_Signal.c ****                 BPM += (60*100)/(indice[1]-indice[0]);
 515              		.loc 1 247 0 is_stmt 1
 516 01dc 9DED027A 		vldr.32	s14, [sp, #8]
 517 01e0 9DED016A 		vldr.32	s12, [sp, #4]
 518 01e4 37EE466A 		vsub.f32	s12, s14, s12
 519 01e8 DFED2C6A 		vldr.32	s13, .L40+84
 520 01ec C6EE867A 		vdiv.f32	s15, s13, s12
ARM GAS  C:\Users\nicpa\AppData\Local\Temp\ccHOh1Eg.s 			page 40


 521 01f0 9FED2B6A 		vldr.32	s12, .L40+88
 522 01f4 77EE867A 		vadd.f32	s15, s15, s12
 248:Traitement_Signal.c ****                 BPM += (60*100)/(indice[2]-indice[1]);
 523              		.loc 1 248 0
 524 01f8 9DED036A 		vldr.32	s12, [sp, #12]
 525 01fc 36EE477A 		vsub.f32	s14, s12, s14
 526 0200 C6EE875A 		vdiv.f32	s11, s13, s14
 527 0204 77EEA57A 		vadd.f32	s15, s15, s11
 249:Traitement_Signal.c ****                 BPM += (60*100)/(indice[3]-indice[2]);
 528              		.loc 1 249 0
 529 0208 9DED047A 		vldr.32	s14, [sp, #16]
 530 020c 37EE467A 		vsub.f32	s14, s14, s12
 531 0210 86EE876A 		vdiv.f32	s12, s13, s14
 532 0214 77EE867A 		vadd.f32	s15, s15, s12
 250:Traitement_Signal.c ****                 BPM = BPM/3;
 533              		.loc 1 250 0
 534 0218 F0EE086A 		vmov.f32	s13, #3.0e+0
 535 021c 87EEA67A 		vdiv.f32	s14, s15, s13
 536 0220 204B     		ldr	r3, .L40+92
 537              	.LVL42:
 538 0222 83ED007A 		vstr.32	s14, [r3]
 251:Traitement_Signal.c ****                 vTaskDelay(pdMS_TO_TICKS(2000));
 539              		.loc 1 251 0
 540 0226 4FF4FA60 		mov	r0, #2000
 541              	.LVL43:
 542 022a FFF7FEFF 		bl	vTaskDelay
 543              	.LVL44:
 544 022e 03E0     		b	.L19
 545              	.L18:
 546              	.LBE15:
 252:Traitement_Signal.c ****             
 253:Traitement_Signal.c **** 
 254:Traitement_Signal.c ****             
 255:Traitement_Signal.c ****             }
 256:Traitement_Signal.c ****         }
 257:Traitement_Signal.c ****         else
 258:Traitement_Signal.c ****         {
 259:Traitement_Signal.c ****             vTaskDelay(pdMS_TO_TICKS(1000));
 547              		.loc 1 259 0
 548 0230 4FF47A70 		mov	r0, #1000
 549 0234 FFF7FEFF 		bl	vTaskDelay
 550              	.LVL45:
 551              	.L19:
 260:Traitement_Signal.c ****         }
 261:Traitement_Signal.c ****         
 262:Traitement_Signal.c ****         read_flag_MAX = false;
 552              		.loc 1 262 0
 553 0238 0022     		movs	r2, #0
 554 023a 0B4B     		ldr	r3, .L40+32
 555 023c 1A70     		strb	r2, [r3]
 263:Traitement_Signal.c ****         vTaskDelay(pdMS_TO_TICKS(2000));
 556              		.loc 1 263 0
 557 023e 4FF4FA60 		mov	r0, #2000
 558 0242 FFF7FEFF 		bl	vTaskDelay
 559              	.LVL46:
 264:Traitement_Signal.c ****     }
 560              		.loc 1 264 0
ARM GAS  C:\Users\nicpa\AppData\Local\Temp\ccHOh1Eg.s 			page 41


 561 0246 EAE6     		b	.L32
 562              	.L41:
 563              		.align	2
 564              	.L40:
 565 0248 00000000 		.word	R
 566 024c 00000000 		.word	S
 567 0250 00000000 		.word	DC_R
 568 0254 00000000 		.word	DC_IF
 569 0258 00000000 		.word	AC_R
 570 025c 00000000 		.word	currentpage
 571 0260 00000000 		.word	PAGE_SIGNAL_IR
 572 0264 00000000 		.word	PAGE_SIGNAL_R
 573 0268 00000000 		.word	read_flag_MAX
 574 026c 00000000 		.word	signal_R
 575 0270 00000000 		.word	red_data
 576 0274 00000000 		.word	signal_IF
 577 0278 00000000 		.word	ir_data
 578 027c 00000000 		.word	signal_AC_R
 579 0280 00000000 		.word	signal_AC_IF
 580 0284 00000000 		.word	AC_IF
 581 0288 000029C0 		.word	-1071054848
 582 028c 00405A40 		.word	1079656448
 583 0290 00007A44 		.word	1148846080
 584 0294 00000000 		.word	.LC1
 585 0298 00006640 		.word	1080426496
 586 029c 0080BB45 		.word	1169915904
 587 02a0 00000000 		.word	0
 588 02a4 00000000 		.word	BPM
 589              		.cfi_endproc
 590              	.LFE702:
 591              		.size	traitement_task, .-traitement_task
 592              		.comm	moyenne_DC,4,4
 593              		.comm	DC,4,4
 594              		.global	AC_1000
 595              		.comm	k,4,4
 596              		.comm	indexmin_AC,4,4
 597              		.comm	min_AC,4,4
 598              		.comm	indexmax_AC,4,4
 599              		.comm	max_AC,4,4
 600              		.comm	AC_valeur,4,4
 601              		.global	numBlocks
 602              		.global	blockSize
 603              		.comm	BPM,4,4
 604              		.comm	R,4,4
 605              		.comm	S,4,4
 606              		.comm	DC_IF,4,4
 607              		.comm	DC_R,4,4
 608              		.comm	AC_IF,4,4
 609              		.comm	AC_R,4,4
 610              		.comm	signal_AC_IF,4000,4
 611              		.comm	signal_AC_R,4000,4
 612              		.comm	signal_IF,4000,4
 613              		.comm	signal_R,4000,4
 614              		.comm	hrmin,4,4
 615              		.comm	hrmax,4,4
 616              		.comm	maxormin,1,1
 617              		.comm	LED,4,4
ARM GAS  C:\Users\nicpa\AppData\Local\Temp\ccHOh1Eg.s 			page 42


 618              		.comm	alerte,1,1
 619              		.comm	currenttouch,1,1
 620              		.comm	currentpage,1,1
 621              		.comm	write_idx_MAX,4,4
 622              		.comm	read_flag_MAX,1,1
 623              		.comm	ir_data,4000,4
 624              		.comm	red_data,4000,4
 625              		.section	.rodata
 626              		.align	2
 627              		.set	.LANCHOR0,. + 0
 628              	.LC0:
 629 0000 00000000 		.word	0
 630 0004 38AED539 		.word	970305080
 631 0008 B8256A3A 		.word	980035000
 632 000c 4F5BC03A 		.word	985684815
 633 0010 327A073B 		.word	990345778
 634 0014 C534263B 		.word	992359621
 635 0018 FAD52C3B 		.word	992794106
 636 001c 1989093B 		.word	990480665
 637 0020 303E343A 		.word	976502320
 638 0024 19C4DEBA 		.word	-1159805927
 639 0028 0C51A2BB 		.word	-1146990324
 640 002c 5A790EBC 		.word	-1139902118
 641 0030 280C49BC 		.word	-1136063448
 642 0034 F26A72BC 		.word	-1133352206
 643 0038 DA367ABC 		.word	-1132841254
 644 003c 64BA50BC 		.word	-1135560092
 645 0040 8CB3D3BB 		.word	-1143753844
 646 0044 1C49803B 		.word	998263068
 647 0048 1142953C 		.word	1016414737
 648 004c E44A123D 		.word	1024608996
 649 0050 FACC613D 		.word	1029819642
 650 0054 EC1E993D 		.word	1033445100
 651 0058 49ECBD3D 		.word	1035856969
 652 005c 5A81DB3D 		.word	1037795674
 653 0060 49ADEE3D 		.word	1039052105
 654 0064 C050F53D 		.word	1039487168
 655 0068 49ADEE3D 		.word	1039052105
 656 006c 5A81DB3D 		.word	1037795674
 657 0070 49ECBD3D 		.word	1035856969
 658 0074 EC1E993D 		.word	1033445100
 659 0078 FACC613D 		.word	1029819642
 660 007c E44A123D 		.word	1024608996
 661 0080 1142953C 		.word	1016414737
 662 0084 1C49803B 		.word	998263068
 663 0088 8CB3D3BB 		.word	-1143753844
 664 008c 64BA50BC 		.word	-1135560092
 665 0090 DA367ABC 		.word	-1132841254
 666 0094 F26A72BC 		.word	-1133352206
 667 0098 280C49BC 		.word	-1136063448
 668 009c 5A790EBC 		.word	-1139902118
 669 00a0 0C51A2BB 		.word	-1146990324
 670 00a4 19C4DEBA 		.word	-1159805927
 671 00a8 303E343A 		.word	976502320
 672 00ac 1989093B 		.word	990480665
 673 00b0 FAD52C3B 		.word	992794106
 674 00b4 C534263B 		.word	992359621
ARM GAS  C:\Users\nicpa\AppData\Local\Temp\ccHOh1Eg.s 			page 43


 675 00b8 327A073B 		.word	990345778
 676 00bc 4F5BC03A 		.word	985684815
 677 00c0 B8256A3A 		.word	980035000
 678 00c4 38AED539 		.word	970305080
 679 00c8 00000000 		.word	0
 680              		.data
 681              		.align	2
 682              		.set	.LANCHOR2,. + 0
 683              		.type	blockSize, %object
 684              		.size	blockSize, 4
 685              	blockSize:
 686 0000 01000000 		.word	1
 687              		.type	numBlocks, %object
 688              		.size	numBlocks, 4
 689              	numBlocks:
 690 0004 E8030000 		.word	1000
 691              		.section	.rodata.str1.4,"aMS",%progbits,1
 692              		.align	2
 693              	.LC1:
 694 0000 5F5F5F5F 		.ascii	"____%i,____\000"
 694      25692C5F 
 694      5F5F5F00 
 695              		.bss
 696              		.align	2
 697              		.set	.LANCHOR1,. + 0
 698              		.type	firStateF32, %object
 699              		.size	firStateF32, 204
 700              	firStateF32:
 701 0000 00000000 		.space	204
 701      00000000 
 701      00000000 
 701      00000000 
 701      00000000 
 702              		.type	AC_1000, %object
 703              		.size	AC_1000, 4000
 704              	AC_1000:
 705 00cc 00000000 		.space	4000
 705      00000000 
 705      00000000 
 705      00000000 
 705      00000000 
 706              		.text
 707              	.Letext0:
 708              		.file 3 "c:\\program files (x86)\\cypress\\psoc creator\\4.4\\psoc creator\\import\\gnu\\arm\\5.4.
 709              		.file 4 "c:\\program files (x86)\\cypress\\psoc creator\\4.4\\psoc creator\\import\\gnu\\arm\\5.4.
 710              		.file 5 "Generated_Source\\PSoC6\\pdl\\devices/psoc6/include/ip/cyip_scb.h"
 711              		.file 6 "Generated_Source\\PSoC6\\pdl\\devices/psoc6/include/psoc6_01_config.h"
 712              		.file 7 "Generated_Source\\PSoC6\\pdl\\drivers/peripheral/device/cy_device.h"
 713              		.file 8 "Generated_Source\\PSoC6\\pdl\\drivers/peripheral/syslib/cy_syslib.h"
 714              		.file 9 "Generated_Source\\PSoC6\\pdl\\drivers/peripheral/scb/cy_scb_i2c.h"
 715              		.file 10 "Generated_Source\\PSoC6\\pdl\\drivers/peripheral/scb/cy_scb_spi.h"
 716              		.file 11 "Generated_Source\\PSoC6\\pdl\\drivers/peripheral/tcpwm/cy_tcpwm_counter.h"
 717              		.file 12 ".\\CMSIS\\DSP\\Include/arm_math.h"
 718              		.file 13 "Generated_Source\\PSoC6\\pdl\\rtos/FreeRTOS/10.0.1/Source/portable/GCC/CM4F/portmacro.h"
 719              		.file 14 "Generated_Source\\PSoC6/UART.h"
 720              		.file 15 ".\\CMSIS\\Core\\Include/core_cm4.h"
 721              		.file 16 "Generated_Source\\PSoC6/CY_EINK_SPIM.h"
ARM GAS  C:\Users\nicpa\AppData\Local\Temp\ccHOh1Eg.s 			page 44


 722              		.file 17 "Generated_Source\\PSoC6/CY_EINK_Timer.h"
 723              		.file 18 "Generated_Source\\PSoC6/I2C_MAX.h"
 724              		.file 19 "Generated_Source\\PSoC6/I2Cm.h"
 725              		.file 20 "MAX30102_functions.h"
 726              		.file 21 "global_variables.h"
 727              		.file 22 "master.h"
 728              		.file 23 "Generated_Source\\PSoC6\\pdl\\drivers/peripheral/scb/cy_scb_common.h"
 729              		.file 24 "c:\\program files (x86)\\cypress\\psoc creator\\4.4\\psoc creator\\import\\gnu\\arm\\5.4
 730              		.file 25 "Generated_Source\\PSoC6\\pdl\\rtos/FreeRTOS/10.0.1/Source/include/task.h"
 731              		.section	.debug_info,"",%progbits
 732              	.Ldebug_info0:
 733 0000 E2150000 		.4byte	0x15e2
 734 0004 0400     		.2byte	0x4
 735 0006 00000000 		.4byte	.Ldebug_abbrev0
 736 000a 04       		.byte	0x4
 737 000b 01       		.uleb128 0x1
 738 000c 08030000 		.4byte	.LASF319
 739 0010 0C       		.byte	0xc
 740 0011 1D000000 		.4byte	.LASF320
 741 0015 36050000 		.4byte	.LASF321
 742 0019 18000000 		.4byte	.Ldebug_ranges0+0x18
 743 001d 00000000 		.4byte	0
 744 0021 00000000 		.4byte	.Ldebug_line0
 745 0025 02       		.uleb128 0x2
 746 0026 04       		.byte	0x4
 747 0027 05       		.byte	0x5
 748 0028 696E7400 		.ascii	"int\000"
 749 002c 03       		.uleb128 0x3
 750 002d 04       		.byte	0x4
 751 002e 04       		.byte	0x4
 752 002f A5040000 		.4byte	.LASF0
 753 0033 03       		.uleb128 0x3
 754 0034 02       		.byte	0x2
 755 0035 05       		.byte	0x5
 756 0036 B90A0000 		.4byte	.LASF1
 757 003a 03       		.uleb128 0x3
 758 003b 01       		.byte	0x1
 759 003c 06       		.byte	0x6
 760 003d 14100000 		.4byte	.LASF2
 761 0041 04       		.uleb128 0x4
 762 0042 F10D0000 		.4byte	.LASF4
 763 0046 03       		.byte	0x3
 764 0047 1D       		.byte	0x1d
 765 0048 4C000000 		.4byte	0x4c
 766 004c 03       		.uleb128 0x3
 767 004d 01       		.byte	0x1
 768 004e 08       		.byte	0x8
 769 004f 040F0000 		.4byte	.LASF3
 770 0053 04       		.uleb128 0x4
 771 0054 070A0000 		.4byte	.LASF5
 772 0058 03       		.byte	0x3
 773 0059 29       		.byte	0x29
 774 005a 33000000 		.4byte	0x33
 775 005e 04       		.uleb128 0x4
 776 005f C8070000 		.4byte	.LASF6
 777 0063 03       		.byte	0x3
 778 0064 2B       		.byte	0x2b
ARM GAS  C:\Users\nicpa\AppData\Local\Temp\ccHOh1Eg.s 			page 45


 779 0065 69000000 		.4byte	0x69
 780 0069 03       		.uleb128 0x3
 781 006a 02       		.byte	0x2
 782 006b 07       		.byte	0x7
 783 006c 7A0B0000 		.4byte	.LASF7
 784 0070 04       		.uleb128 0x4
 785 0071 D0010000 		.4byte	.LASF8
 786 0075 03       		.byte	0x3
 787 0076 3F       		.byte	0x3f
 788 0077 7B000000 		.4byte	0x7b
 789 007b 03       		.uleb128 0x3
 790 007c 04       		.byte	0x4
 791 007d 05       		.byte	0x5
 792 007e 120D0000 		.4byte	.LASF9
 793 0082 04       		.uleb128 0x4
 794 0083 120F0000 		.4byte	.LASF10
 795 0087 03       		.byte	0x3
 796 0088 41       		.byte	0x41
 797 0089 8D000000 		.4byte	0x8d
 798 008d 03       		.uleb128 0x3
 799 008e 04       		.byte	0x4
 800 008f 07       		.byte	0x7
 801 0090 9D0E0000 		.4byte	.LASF11
 802 0094 03       		.uleb128 0x3
 803 0095 08       		.byte	0x8
 804 0096 05       		.byte	0x5
 805 0097 87090000 		.4byte	.LASF12
 806 009b 03       		.uleb128 0x3
 807 009c 08       		.byte	0x8
 808 009d 07       		.byte	0x7
 809 009e 8E040000 		.4byte	.LASF13
 810 00a2 03       		.uleb128 0x3
 811 00a3 04       		.byte	0x4
 812 00a4 07       		.byte	0x7
 813 00a5 250E0000 		.4byte	.LASF14
 814 00a9 04       		.uleb128 0x4
 815 00aa D4080000 		.4byte	.LASF15
 816 00ae 04       		.byte	0x4
 817 00af 18       		.byte	0x18
 818 00b0 41000000 		.4byte	0x41
 819 00b4 04       		.uleb128 0x4
 820 00b5 F8040000 		.4byte	.LASF16
 821 00b9 04       		.byte	0x4
 822 00ba 20       		.byte	0x20
 823 00bb 53000000 		.4byte	0x53
 824 00bf 04       		.uleb128 0x4
 825 00c0 AB0B0000 		.4byte	.LASF17
 826 00c4 04       		.byte	0x4
 827 00c5 24       		.byte	0x24
 828 00c6 5E000000 		.4byte	0x5e
 829 00ca 04       		.uleb128 0x4
 830 00cb C90E0000 		.4byte	.LASF18
 831 00cf 04       		.byte	0x4
 832 00d0 2C       		.byte	0x2c
 833 00d1 70000000 		.4byte	0x70
 834 00d5 04       		.uleb128 0x4
 835 00d6 5A040000 		.4byte	.LASF19
ARM GAS  C:\Users\nicpa\AppData\Local\Temp\ccHOh1Eg.s 			page 46


 836 00da 04       		.byte	0x4
 837 00db 30       		.byte	0x30
 838 00dc 82000000 		.4byte	0x82
 839 00e0 03       		.uleb128 0x3
 840 00e1 04       		.byte	0x4
 841 00e2 07       		.byte	0x7
 842 00e3 390C0000 		.4byte	.LASF20
 843 00e7 05       		.uleb128 0x5
 844 00e8 D5000000 		.4byte	0xd5
 845 00ec 06       		.uleb128 0x6
 846 00ed E7000000 		.4byte	0xe7
 847 00f1 07       		.uleb128 0x7
 848 00f2 EC000000 		.4byte	0xec
 849 00f6 01010000 		.4byte	0x101
 850 00fa 08       		.uleb128 0x8
 851 00fb E0000000 		.4byte	0xe0
 852 00ff 03       		.byte	0x3
 853 0100 00       		.byte	0
 854 0101 07       		.uleb128 0x7
 855 0102 EC000000 		.4byte	0xec
 856 0106 11010000 		.4byte	0x111
 857 010a 08       		.uleb128 0x8
 858 010b E0000000 		.4byte	0xe0
 859 010f 05       		.byte	0x5
 860 0110 00       		.byte	0
 861 0111 07       		.uleb128 0x7
 862 0112 EC000000 		.4byte	0xec
 863 0116 21010000 		.4byte	0x121
 864 011a 08       		.uleb128 0x8
 865 011b E0000000 		.4byte	0xe0
 866 011f 7F       		.byte	0x7f
 867 0120 00       		.byte	0
 868 0121 07       		.uleb128 0x7
 869 0122 EC000000 		.4byte	0xec
 870 0126 31010000 		.4byte	0x131
 871 012a 08       		.uleb128 0x8
 872 012b E0000000 		.4byte	0xe0
 873 012f 0C       		.byte	0xc
 874 0130 00       		.byte	0
 875 0131 07       		.uleb128 0x7
 876 0132 EC000000 		.4byte	0xec
 877 0136 41010000 		.4byte	0x141
 878 013a 08       		.uleb128 0x8
 879 013b E0000000 		.4byte	0xe0
 880 013f 1E       		.byte	0x1e
 881 0140 00       		.byte	0
 882 0141 07       		.uleb128 0x7
 883 0142 EC000000 		.4byte	0xec
 884 0146 51010000 		.4byte	0x151
 885 014a 08       		.uleb128 0x8
 886 014b E0000000 		.4byte	0xe0
 887 014f 02       		.byte	0x2
 888 0150 00       		.byte	0
 889 0151 07       		.uleb128 0x7
 890 0152 EC000000 		.4byte	0xec
 891 0156 61010000 		.4byte	0x161
 892 015a 08       		.uleb128 0x8
ARM GAS  C:\Users\nicpa\AppData\Local\Temp\ccHOh1Eg.s 			page 47


 893 015b E0000000 		.4byte	0xe0
 894 015f 0B       		.byte	0xb
 895 0160 00       		.byte	0
 896 0161 07       		.uleb128 0x7
 897 0162 EC000000 		.4byte	0xec
 898 0166 71010000 		.4byte	0x171
 899 016a 08       		.uleb128 0x8
 900 016b E0000000 		.4byte	0xe0
 901 016f 0A       		.byte	0xa
 902 0170 00       		.byte	0
 903 0171 07       		.uleb128 0x7
 904 0172 EC000000 		.4byte	0xec
 905 0176 81010000 		.4byte	0x181
 906 017a 08       		.uleb128 0x8
 907 017b E0000000 		.4byte	0xe0
 908 017f 2E       		.byte	0x2e
 909 0180 00       		.byte	0
 910 0181 07       		.uleb128 0x7
 911 0182 EC000000 		.4byte	0xec
 912 0186 91010000 		.4byte	0x191
 913 018a 08       		.uleb128 0x8
 914 018b E0000000 		.4byte	0xe0
 915 018f 2D       		.byte	0x2d
 916 0190 00       		.byte	0
 917 0191 07       		.uleb128 0x7
 918 0192 E7000000 		.4byte	0xe7
 919 0196 A2010000 		.4byte	0x1a2
 920 019a 09       		.uleb128 0x9
 921 019b E0000000 		.4byte	0xe0
 922 019f FF01     		.2byte	0x1ff
 923 01a1 00       		.byte	0
 924 01a2 07       		.uleb128 0x7
 925 01a3 EC000000 		.4byte	0xec
 926 01a7 B2010000 		.4byte	0x1b2
 927 01ab 08       		.uleb128 0x8
 928 01ac E0000000 		.4byte	0xe0
 929 01b0 62       		.byte	0x62
 930 01b1 00       		.byte	0
 931 01b2 0A       		.uleb128 0xa
 932 01b3 D00F     		.2byte	0xfd0
 933 01b5 05       		.byte	0x5
 934 01b6 21       		.byte	0x21
 935 01b7 1C050000 		.4byte	0x51c
 936 01bb 0B       		.uleb128 0xb
 937 01bc CD110000 		.4byte	.LASF21
 938 01c0 05       		.byte	0x5
 939 01c1 22       		.byte	0x22
 940 01c2 E7000000 		.4byte	0xe7
 941 01c6 00       		.byte	0
 942 01c7 0B       		.uleb128 0xb
 943 01c8 16110000 		.4byte	.LASF22
 944 01cc 05       		.byte	0x5
 945 01cd 23       		.byte	0x23
 946 01ce EC000000 		.4byte	0xec
 947 01d2 04       		.byte	0x4
 948 01d3 0B       		.uleb128 0xb
 949 01d4 7F100000 		.4byte	.LASF23
ARM GAS  C:\Users\nicpa\AppData\Local\Temp\ccHOh1Eg.s 			page 48


 950 01d8 05       		.byte	0x5
 951 01d9 24       		.byte	0x24
 952 01da E7000000 		.4byte	0xe7
 953 01de 08       		.byte	0x8
 954 01df 0B       		.uleb128 0xb
 955 01e0 D7000000 		.4byte	.LASF24
 956 01e4 05       		.byte	0x5
 957 01e5 25       		.byte	0x25
 958 01e6 EC000000 		.4byte	0xec
 959 01ea 0C       		.byte	0xc
 960 01eb 0B       		.uleb128 0xb
 961 01ec 14000000 		.4byte	.LASF25
 962 01f0 05       		.byte	0x5
 963 01f1 26       		.byte	0x26
 964 01f2 21050000 		.4byte	0x521
 965 01f6 10       		.byte	0x10
 966 01f7 0B       		.uleb128 0xb
 967 01f8 320E0000 		.4byte	.LASF26
 968 01fc 05       		.byte	0x5
 969 01fd 27       		.byte	0x27
 970 01fe E7000000 		.4byte	0xe7
 971 0202 20       		.byte	0x20
 972 0203 0B       		.uleb128 0xb
 973 0204 F90E0000 		.4byte	.LASF27
 974 0208 05       		.byte	0x5
 975 0209 28       		.byte	0x28
 976 020a EC000000 		.4byte	0xec
 977 020e 24       		.byte	0x24
 978 020f 0B       		.uleb128 0xb
 979 0210 FD100000 		.4byte	.LASF28
 980 0214 05       		.byte	0x5
 981 0215 29       		.byte	0x29
 982 0216 2B050000 		.4byte	0x52b
 983 021a 28       		.byte	0x28
 984 021b 0B       		.uleb128 0xb
 985 021c 32100000 		.4byte	.LASF29
 986 0220 05       		.byte	0x5
 987 0221 2A       		.byte	0x2a
 988 0222 E7000000 		.4byte	0xe7
 989 0226 40       		.byte	0x40
 990 0227 0B       		.uleb128 0xb
 991 0228 5D060000 		.4byte	.LASF30
 992 022c 05       		.byte	0x5
 993 022d 2B       		.byte	0x2b
 994 022e E7000000 		.4byte	0xe7
 995 0232 44       		.byte	0x44
 996 0233 0B       		.uleb128 0xb
 997 0234 DE030000 		.4byte	.LASF31
 998 0238 05       		.byte	0x5
 999 0239 2C       		.byte	0x2c
 1000 023a E7000000 		.4byte	0xe7
 1001 023e 48       		.byte	0x48
 1002 023f 0B       		.uleb128 0xb
 1003 0240 AE0D0000 		.4byte	.LASF32
 1004 0244 05       		.byte	0x5
 1005 0245 2D       		.byte	0x2d
 1006 0246 EC000000 		.4byte	0xec
ARM GAS  C:\Users\nicpa\AppData\Local\Temp\ccHOh1Eg.s 			page 49


 1007 024a 4C       		.byte	0x4c
 1008 024b 0B       		.uleb128 0xb
 1009 024c 110A0000 		.4byte	.LASF33
 1010 0250 05       		.byte	0x5
 1011 0251 2E       		.byte	0x2e
 1012 0252 E7000000 		.4byte	0xe7
 1013 0256 50       		.byte	0x50
 1014 0257 0B       		.uleb128 0xb
 1015 0258 840C0000 		.4byte	.LASF34
 1016 025c 05       		.byte	0x5
 1017 025d 2F       		.byte	0x2f
 1018 025e 35050000 		.4byte	0x535
 1019 0262 54       		.byte	0x54
 1020 0263 0B       		.uleb128 0xb
 1021 0264 870E0000 		.4byte	.LASF35
 1022 0268 05       		.byte	0x5
 1023 0269 30       		.byte	0x30
 1024 026a E7000000 		.4byte	0xe7
 1025 026e 60       		.byte	0x60
 1026 026f 0B       		.uleb128 0xb
 1027 0270 2D0D0000 		.4byte	.LASF36
 1028 0274 05       		.byte	0x5
 1029 0275 31       		.byte	0x31
 1030 0276 EC000000 		.4byte	0xec
 1031 027a 64       		.byte	0x64
 1032 027b 0B       		.uleb128 0xb
 1033 027c 080E0000 		.4byte	.LASF37
 1034 0280 05       		.byte	0x5
 1035 0281 32       		.byte	0x32
 1036 0282 E7000000 		.4byte	0xe7
 1037 0286 68       		.byte	0x68
 1038 0287 0B       		.uleb128 0xb
 1039 0288 420C0000 		.4byte	.LASF38
 1040 028c 05       		.byte	0x5
 1041 028d 33       		.byte	0x33
 1042 028e E7000000 		.4byte	0xe7
 1043 0292 6C       		.byte	0x6c
 1044 0293 0B       		.uleb128 0xb
 1045 0294 2D040000 		.4byte	.LASF39
 1046 0298 05       		.byte	0x5
 1047 0299 34       		.byte	0x34
 1048 029a E7000000 		.4byte	0xe7
 1049 029e 70       		.byte	0x70
 1050 029f 0B       		.uleb128 0xb
 1051 02a0 8E0C0000 		.4byte	.LASF40
 1052 02a4 05       		.byte	0x5
 1053 02a5 35       		.byte	0x35
 1054 02a6 3F050000 		.4byte	0x53f
 1055 02aa 74       		.byte	0x74
 1056 02ab 0C       		.uleb128 0xc
 1057 02ac 38060000 		.4byte	.LASF41
 1058 02b0 05       		.byte	0x5
 1059 02b1 36       		.byte	0x36
 1060 02b2 E7000000 		.4byte	0xe7
 1061 02b6 0002     		.2byte	0x200
 1062 02b8 0C       		.uleb128 0xc
 1063 02b9 FB0D0000 		.4byte	.LASF42
ARM GAS  C:\Users\nicpa\AppData\Local\Temp\ccHOh1Eg.s 			page 50


 1064 02bd 05       		.byte	0x5
 1065 02be 37       		.byte	0x37
 1066 02bf E7000000 		.4byte	0xe7
 1067 02c3 0402     		.2byte	0x204
 1068 02c5 0C       		.uleb128 0xc
 1069 02c6 37010000 		.4byte	.LASF43
 1070 02ca 05       		.byte	0x5
 1071 02cb 38       		.byte	0x38
 1072 02cc EC000000 		.4byte	0xec
 1073 02d0 0802     		.2byte	0x208
 1074 02d2 0C       		.uleb128 0xc
 1075 02d3 980C0000 		.4byte	.LASF44
 1076 02d7 05       		.byte	0x5
 1077 02d8 39       		.byte	0x39
 1078 02d9 49050000 		.4byte	0x549
 1079 02dd 0C02     		.2byte	0x20c
 1080 02df 0C       		.uleb128 0xc
 1081 02e0 D50F0000 		.4byte	.LASF45
 1082 02e4 05       		.byte	0x5
 1083 02e5 3A       		.byte	0x3a
 1084 02e6 E7000000 		.4byte	0xe7
 1085 02ea 4002     		.2byte	0x240
 1086 02ec 0C       		.uleb128 0xc
 1087 02ed A20C0000 		.4byte	.LASF46
 1088 02f1 05       		.byte	0x5
 1089 02f2 3B       		.byte	0x3b
 1090 02f3 53050000 		.4byte	0x553
 1091 02f7 4402     		.2byte	0x244
 1092 02f9 0C       		.uleb128 0xc
 1093 02fa 690E0000 		.4byte	.LASF47
 1094 02fe 05       		.byte	0x5
 1095 02ff 3C       		.byte	0x3c
 1096 0300 E7000000 		.4byte	0xe7
 1097 0304 0003     		.2byte	0x300
 1098 0306 0C       		.uleb128 0xc
 1099 0307 C3010000 		.4byte	.LASF48
 1100 030b 05       		.byte	0x5
 1101 030c 3D       		.byte	0x3d
 1102 030d E7000000 		.4byte	0xe7
 1103 0311 0403     		.2byte	0x304
 1104 0313 0C       		.uleb128 0xc
 1105 0314 A80F0000 		.4byte	.LASF49
 1106 0318 05       		.byte	0x5
 1107 0319 3E       		.byte	0x3e
 1108 031a EC000000 		.4byte	0xec
 1109 031e 0803     		.2byte	0x308
 1110 0320 0C       		.uleb128 0xc
 1111 0321 AC0C0000 		.4byte	.LASF50
 1112 0325 05       		.byte	0x5
 1113 0326 3F       		.byte	0x3f
 1114 0327 EC000000 		.4byte	0xec
 1115 032b 0C03     		.2byte	0x30c
 1116 032d 0C       		.uleb128 0xc
 1117 032e 02070000 		.4byte	.LASF51
 1118 0332 05       		.byte	0x5
 1119 0333 40       		.byte	0x40
 1120 0334 E7000000 		.4byte	0xe7
ARM GAS  C:\Users\nicpa\AppData\Local\Temp\ccHOh1Eg.s 			page 51


 1121 0338 1003     		.2byte	0x310
 1122 033a 0C       		.uleb128 0xc
 1123 033b B60C0000 		.4byte	.LASF52
 1124 033f 05       		.byte	0x5
 1125 0340 41       		.byte	0x41
 1126 0341 5D050000 		.4byte	0x55d
 1127 0345 1403     		.2byte	0x314
 1128 0347 0C       		.uleb128 0xc
 1129 0348 59090000 		.4byte	.LASF53
 1130 034c 05       		.byte	0x5
 1131 034d 42       		.byte	0x42
 1132 034e EC000000 		.4byte	0xec
 1133 0352 4003     		.2byte	0x340
 1134 0354 0C       		.uleb128 0xc
 1135 0355 EB090000 		.4byte	.LASF54
 1136 0359 05       		.byte	0x5
 1137 035a 43       		.byte	0x43
 1138 035b EC000000 		.4byte	0xec
 1139 035f 4403     		.2byte	0x344
 1140 0361 0C       		.uleb128 0xc
 1141 0362 C00C0000 		.4byte	.LASF55
 1142 0366 05       		.byte	0x5
 1143 0367 44       		.byte	0x44
 1144 0368 67050000 		.4byte	0x567
 1145 036c 4803     		.2byte	0x348
 1146 036e 0C       		.uleb128 0xc
 1147 036f A0110000 		.4byte	.LASF56
 1148 0373 05       		.byte	0x5
 1149 0374 45       		.byte	0x45
 1150 0375 6C050000 		.4byte	0x56c
 1151 0379 0004     		.2byte	0x400
 1152 037b 0C       		.uleb128 0xc
 1153 037c CA0C0000 		.4byte	.LASF57
 1154 0380 05       		.byte	0x5
 1155 0381 46       		.byte	0x46
 1156 0382 76050000 		.4byte	0x576
 1157 0386 000C     		.2byte	0xc00
 1158 0388 0C       		.uleb128 0xc
 1159 0389 80010000 		.4byte	.LASF58
 1160 038d 05       		.byte	0x5
 1161 038e 47       		.byte	0x47
 1162 038f EC000000 		.4byte	0xec
 1163 0393 000E     		.2byte	0xe00
 1164 0395 0C       		.uleb128 0xc
 1165 0396 4F0F0000 		.4byte	.LASF59
 1166 039a 05       		.byte	0x5
 1167 039b 48       		.byte	0x48
 1168 039c 80050000 		.4byte	0x580
 1169 03a0 040E     		.2byte	0xe04
 1170 03a2 0C       		.uleb128 0xc
 1171 03a3 5E070000 		.4byte	.LASF60
 1172 03a7 05       		.byte	0x5
 1173 03a8 49       		.byte	0x49
 1174 03a9 E7000000 		.4byte	0xe7
 1175 03ad 800E     		.2byte	0xe80
 1176 03af 0C       		.uleb128 0xc
 1177 03b0 5A0F0000 		.4byte	.LASF61
ARM GAS  C:\Users\nicpa\AppData\Local\Temp\ccHOh1Eg.s 			page 52


 1178 03b4 05       		.byte	0x5
 1179 03b5 4A       		.byte	0x4a
 1180 03b6 EC000000 		.4byte	0xec
 1181 03ba 840E     		.2byte	0xe84
 1182 03bc 0C       		.uleb128 0xc
 1183 03bd B40B0000 		.4byte	.LASF62
 1184 03c1 05       		.byte	0x5
 1185 03c2 4B       		.byte	0x4b
 1186 03c3 E7000000 		.4byte	0xe7
 1187 03c7 880E     		.2byte	0xe88
 1188 03c9 0C       		.uleb128 0xc
 1189 03ca 6F080000 		.4byte	.LASF63
 1190 03ce 05       		.byte	0x5
 1191 03cf 4C       		.byte	0x4c
 1192 03d0 EC000000 		.4byte	0xec
 1193 03d4 8C0E     		.2byte	0xe8c
 1194 03d6 0C       		.uleb128 0xc
 1195 03d7 650F0000 		.4byte	.LASF64
 1196 03db 05       		.byte	0x5
 1197 03dc 4D       		.byte	0x4d
 1198 03dd 8A050000 		.4byte	0x58a
 1199 03e1 900E     		.2byte	0xe90
 1200 03e3 0C       		.uleb128 0xc
 1201 03e4 B6060000 		.4byte	.LASF65
 1202 03e8 05       		.byte	0x5
 1203 03e9 4E       		.byte	0x4e
 1204 03ea E7000000 		.4byte	0xe7
 1205 03ee C00E     		.2byte	0xec0
 1206 03f0 0C       		.uleb128 0xc
 1207 03f1 700F0000 		.4byte	.LASF66
 1208 03f5 05       		.byte	0x5
 1209 03f6 4F       		.byte	0x4f
 1210 03f7 EC000000 		.4byte	0xec
 1211 03fb C40E     		.2byte	0xec4
 1212 03fd 0C       		.uleb128 0xc
 1213 03fe 280C0000 		.4byte	.LASF67
 1214 0402 05       		.byte	0x5
 1215 0403 50       		.byte	0x50
 1216 0404 E7000000 		.4byte	0xe7
 1217 0408 C80E     		.2byte	0xec8
 1218 040a 0C       		.uleb128 0xc
 1219 040b 120E0000 		.4byte	.LASF68
 1220 040f 05       		.byte	0x5
 1221 0410 51       		.byte	0x51
 1222 0411 EC000000 		.4byte	0xec
 1223 0415 CC0E     		.2byte	0xecc
 1224 0417 0C       		.uleb128 0xc
 1225 0418 7B0F0000 		.4byte	.LASF69
 1226 041c 05       		.byte	0x5
 1227 041d 52       		.byte	0x52
 1228 041e 94050000 		.4byte	0x594
 1229 0422 D00E     		.2byte	0xed0
 1230 0424 0C       		.uleb128 0xc
 1231 0425 AF0E0000 		.4byte	.LASF70
 1232 0429 05       		.byte	0x5
 1233 042a 53       		.byte	0x53
 1234 042b E7000000 		.4byte	0xe7
ARM GAS  C:\Users\nicpa\AppData\Local\Temp\ccHOh1Eg.s 			page 53


 1235 042f 000F     		.2byte	0xf00
 1236 0431 0C       		.uleb128 0xc
 1237 0432 63040000 		.4byte	.LASF71
 1238 0436 05       		.byte	0x5
 1239 0437 54       		.byte	0x54
 1240 0438 E7000000 		.4byte	0xe7
 1241 043c 040F     		.2byte	0xf04
 1242 043e 0C       		.uleb128 0xc
 1243 043f E60E0000 		.4byte	.LASF72
 1244 0443 05       		.byte	0x5
 1245 0444 55       		.byte	0x55
 1246 0445 E7000000 		.4byte	0xe7
 1247 0449 080F     		.2byte	0xf08
 1248 044b 0C       		.uleb128 0xc
 1249 044c B5040000 		.4byte	.LASF73
 1250 0450 05       		.byte	0x5
 1251 0451 56       		.byte	0x56
 1252 0452 EC000000 		.4byte	0xec
 1253 0456 0C0F     		.2byte	0xf0c
 1254 0458 0C       		.uleb128 0xc
 1255 0459 860F0000 		.4byte	.LASF74
 1256 045d 05       		.byte	0x5
 1257 045e 57       		.byte	0x57
 1258 045f 9E050000 		.4byte	0x59e
 1259 0463 100F     		.2byte	0xf10
 1260 0465 0C       		.uleb128 0xc
 1261 0466 C20E0000 		.4byte	.LASF75
 1262 046a 05       		.byte	0x5
 1263 046b 58       		.byte	0x58
 1264 046c E7000000 		.4byte	0xe7
 1265 0470 400F     		.2byte	0xf40
 1266 0472 0C       		.uleb128 0xc
 1267 0473 FD010000 		.4byte	.LASF76
 1268 0477 05       		.byte	0x5
 1269 0478 59       		.byte	0x59
 1270 0479 E7000000 		.4byte	0xe7
 1271 047d 440F     		.2byte	0xf44
 1272 047f 0C       		.uleb128 0xc
 1273 0480 38080000 		.4byte	.LASF77
 1274 0484 05       		.byte	0x5
 1275 0485 5A       		.byte	0x5a
 1276 0486 E7000000 		.4byte	0xe7
 1277 048a 480F     		.2byte	0xf48
 1278 048c 0C       		.uleb128 0xc
 1279 048d 6A070000 		.4byte	.LASF78
 1280 0491 05       		.byte	0x5
 1281 0492 5B       		.byte	0x5b
 1282 0493 EC000000 		.4byte	0xec
 1283 0497 4C0F     		.2byte	0xf4c
 1284 0499 0C       		.uleb128 0xc
 1285 049a 910F0000 		.4byte	.LASF79
 1286 049e 05       		.byte	0x5
 1287 049f 5C       		.byte	0x5c
 1288 04a0 A8050000 		.4byte	0x5a8
 1289 04a4 500F     		.2byte	0xf50
 1290 04a6 0C       		.uleb128 0xc
 1291 04a7 A60D0000 		.4byte	.LASF80
ARM GAS  C:\Users\nicpa\AppData\Local\Temp\ccHOh1Eg.s 			page 54


 1292 04ab 05       		.byte	0x5
 1293 04ac 5D       		.byte	0x5d
 1294 04ad E7000000 		.4byte	0xe7
 1295 04b1 800F     		.2byte	0xf80
 1296 04b3 0C       		.uleb128 0xc
 1297 04b4 40060000 		.4byte	.LASF81
 1298 04b8 05       		.byte	0x5
 1299 04b9 5E       		.byte	0x5e
 1300 04ba E7000000 		.4byte	0xe7
 1301 04be 840F     		.2byte	0xf84
 1302 04c0 0C       		.uleb128 0xc
 1303 04c1 E7000000 		.4byte	.LASF82
 1304 04c5 05       		.byte	0x5
 1305 04c6 5F       		.byte	0x5f
 1306 04c7 E7000000 		.4byte	0xe7
 1307 04cb 880F     		.2byte	0xf88
 1308 04cd 0C       		.uleb128 0xc
 1309 04ce 5B0D0000 		.4byte	.LASF83
 1310 04d2 05       		.byte	0x5
 1311 04d3 60       		.byte	0x60
 1312 04d4 EC000000 		.4byte	0xec
 1313 04d8 8C0F     		.2byte	0xf8c
 1314 04da 0C       		.uleb128 0xc
 1315 04db EF050000 		.4byte	.LASF84
 1316 04df 05       		.byte	0x5
 1317 04e0 61       		.byte	0x61
 1318 04e1 B2050000 		.4byte	0x5b2
 1319 04e5 900F     		.2byte	0xf90
 1320 04e7 0C       		.uleb128 0xc
 1321 04e8 190B0000 		.4byte	.LASF85
 1322 04ec 05       		.byte	0x5
 1323 04ed 62       		.byte	0x62
 1324 04ee E7000000 		.4byte	0xe7
 1325 04f2 C00F     		.2byte	0xfc0
 1326 04f4 0C       		.uleb128 0xc
 1327 04f5 F1100000 		.4byte	.LASF86
 1328 04f9 05       		.byte	0x5
 1329 04fa 63       		.byte	0x63
 1330 04fb E7000000 		.4byte	0xe7
 1331 04ff C40F     		.2byte	0xfc4
 1332 0501 0C       		.uleb128 0xc
 1333 0502 4A100000 		.4byte	.LASF87
 1334 0506 05       		.byte	0x5
 1335 0507 64       		.byte	0x64
 1336 0508 E7000000 		.4byte	0xe7
 1337 050c C80F     		.2byte	0xfc8
 1338 050e 0C       		.uleb128 0xc
 1339 050f 26020000 		.4byte	.LASF88
 1340 0513 05       		.byte	0x5
 1341 0514 65       		.byte	0x65
 1342 0515 EC000000 		.4byte	0xec
 1343 0519 CC0F     		.2byte	0xfcc
 1344 051b 00       		.byte	0
 1345 051c 05       		.uleb128 0x5
 1346 051d F1000000 		.4byte	0xf1
 1347 0521 06       		.uleb128 0x6
 1348 0522 1C050000 		.4byte	0x51c
ARM GAS  C:\Users\nicpa\AppData\Local\Temp\ccHOh1Eg.s 			page 55


 1349 0526 05       		.uleb128 0x5
 1350 0527 01010000 		.4byte	0x101
 1351 052b 06       		.uleb128 0x6
 1352 052c 26050000 		.4byte	0x526
 1353 0530 05       		.uleb128 0x5
 1354 0531 41010000 		.4byte	0x141
 1355 0535 06       		.uleb128 0x6
 1356 0536 30050000 		.4byte	0x530
 1357 053a 05       		.uleb128 0x5
 1358 053b A2010000 		.4byte	0x1a2
 1359 053f 06       		.uleb128 0x6
 1360 0540 3A050000 		.4byte	0x53a
 1361 0544 05       		.uleb128 0x5
 1362 0545 21010000 		.4byte	0x121
 1363 0549 06       		.uleb128 0x6
 1364 054a 44050000 		.4byte	0x544
 1365 054e 05       		.uleb128 0x5
 1366 054f 71010000 		.4byte	0x171
 1367 0553 06       		.uleb128 0x6
 1368 0554 4E050000 		.4byte	0x54e
 1369 0558 05       		.uleb128 0x5
 1370 0559 61010000 		.4byte	0x161
 1371 055d 06       		.uleb128 0x6
 1372 055e 58050000 		.4byte	0x558
 1373 0562 05       		.uleb128 0x5
 1374 0563 81010000 		.4byte	0x181
 1375 0567 06       		.uleb128 0x6
 1376 0568 62050000 		.4byte	0x562
 1377 056c 05       		.uleb128 0x5
 1378 056d 91010000 		.4byte	0x191
 1379 0571 05       		.uleb128 0x5
 1380 0572 11010000 		.4byte	0x111
 1381 0576 06       		.uleb128 0x6
 1382 0577 71050000 		.4byte	0x571
 1383 057b 05       		.uleb128 0x5
 1384 057c 31010000 		.4byte	0x131
 1385 0580 06       		.uleb128 0x6
 1386 0581 7B050000 		.4byte	0x57b
 1387 0585 05       		.uleb128 0x5
 1388 0586 51010000 		.4byte	0x151
 1389 058a 06       		.uleb128 0x6
 1390 058b 85050000 		.4byte	0x585
 1391 058f 05       		.uleb128 0x5
 1392 0590 51010000 		.4byte	0x151
 1393 0594 06       		.uleb128 0x6
 1394 0595 8F050000 		.4byte	0x58f
 1395 0599 05       		.uleb128 0x5
 1396 059a 51010000 		.4byte	0x151
 1397 059e 06       		.uleb128 0x6
 1398 059f 99050000 		.4byte	0x599
 1399 05a3 05       		.uleb128 0x5
 1400 05a4 51010000 		.4byte	0x151
 1401 05a8 06       		.uleb128 0x6
 1402 05a9 A3050000 		.4byte	0x5a3
 1403 05ad 05       		.uleb128 0x5
 1404 05ae 51010000 		.4byte	0x151
 1405 05b2 06       		.uleb128 0x6
ARM GAS  C:\Users\nicpa\AppData\Local\Temp\ccHOh1Eg.s 			page 56


 1406 05b3 AD050000 		.4byte	0x5ad
 1407 05b7 04       		.uleb128 0x4
 1408 05b8 10080000 		.4byte	.LASF89
 1409 05bc 05       		.byte	0x5
 1410 05bd 66       		.byte	0x66
 1411 05be B2010000 		.4byte	0x1b2
 1412 05c2 0D       		.uleb128 0xd
 1413 05c3 22040000 		.4byte	.LASF90
 1414 05c7 06       		.byte	0x6
 1415 05c8 4F06     		.2byte	0x64f
 1416 05ca B7050000 		.4byte	0x5b7
 1417 05ce 03       		.uleb128 0x3
 1418 05cf 08       		.byte	0x8
 1419 05d0 04       		.byte	0x4
 1420 05d1 970B0000 		.4byte	.LASF91
 1421 05d5 0E       		.uleb128 0xe
 1422 05d6 B8       		.byte	0xb8
 1423 05d7 07       		.byte	0x7
 1424 05d8 34       		.byte	0x34
 1425 05d9 E6090000 		.4byte	0x9e6
 1426 05dd 0B       		.uleb128 0xb
 1427 05de DA010000 		.4byte	.LASF92
 1428 05e2 07       		.byte	0x7
 1429 05e3 37       		.byte	0x37
 1430 05e4 D5000000 		.4byte	0xd5
 1431 05e8 00       		.byte	0
 1432 05e9 0B       		.uleb128 0xb
 1433 05ea 00080000 		.4byte	.LASF93
 1434 05ee 07       		.byte	0x7
 1435 05ef 38       		.byte	0x38
 1436 05f0 D5000000 		.4byte	0xd5
 1437 05f4 04       		.byte	0x4
 1438 05f5 0B       		.uleb128 0xb
 1439 05f6 44080000 		.4byte	.LASF94
 1440 05fa 07       		.byte	0x7
 1441 05fb 39       		.byte	0x39
 1442 05fc D5000000 		.4byte	0xd5
 1443 0600 08       		.byte	0x8
 1444 0601 0B       		.uleb128 0xb
 1445 0602 D5050000 		.4byte	.LASF95
 1446 0606 07       		.byte	0x7
 1447 0607 3A       		.byte	0x3a
 1448 0608 D5000000 		.4byte	0xd5
 1449 060c 0C       		.byte	0xc
 1450 060d 0B       		.uleb128 0xb
 1451 060e C50B0000 		.4byte	.LASF96
 1452 0612 07       		.byte	0x7
 1453 0613 3B       		.byte	0x3b
 1454 0614 D5000000 		.4byte	0xd5
 1455 0618 10       		.byte	0x10
 1456 0619 0B       		.uleb128 0xb
 1457 061a 200A0000 		.4byte	.LASF97
 1458 061e 07       		.byte	0x7
 1459 061f 3C       		.byte	0x3c
 1460 0620 D5000000 		.4byte	0xd5
 1461 0624 14       		.byte	0x14
 1462 0625 0B       		.uleb128 0xb
ARM GAS  C:\Users\nicpa\AppData\Local\Temp\ccHOh1Eg.s 			page 57


 1463 0626 1D0F0000 		.4byte	.LASF98
 1464 062a 07       		.byte	0x7
 1465 062b 3D       		.byte	0x3d
 1466 062c D5000000 		.4byte	0xd5
 1467 0630 18       		.byte	0x18
 1468 0631 0B       		.uleb128 0xb
 1469 0632 CB100000 		.4byte	.LASF99
 1470 0636 07       		.byte	0x7
 1471 0637 3E       		.byte	0x3e
 1472 0638 D5000000 		.4byte	0xd5
 1473 063c 1C       		.byte	0x1c
 1474 063d 0B       		.uleb128 0xb
 1475 063e 95090000 		.4byte	.LASF100
 1476 0642 07       		.byte	0x7
 1477 0643 3F       		.byte	0x3f
 1478 0644 D5000000 		.4byte	0xd5
 1479 0648 20       		.byte	0x20
 1480 0649 0B       		.uleb128 0xb
 1481 064a B3090000 		.4byte	.LASF101
 1482 064e 07       		.byte	0x7
 1483 064f 40       		.byte	0x40
 1484 0650 D5000000 		.4byte	0xd5
 1485 0654 24       		.byte	0x24
 1486 0655 0B       		.uleb128 0xb
 1487 0656 1B0D0000 		.4byte	.LASF102
 1488 065a 07       		.byte	0x7
 1489 065b 43       		.byte	0x43
 1490 065c A9000000 		.4byte	0xa9
 1491 0660 28       		.byte	0x28
 1492 0661 0B       		.uleb128 0xb
 1493 0662 040D0000 		.4byte	.LASF103
 1494 0666 07       		.byte	0x7
 1495 0667 44       		.byte	0x44
 1496 0668 A9000000 		.4byte	0xa9
 1497 066c 29       		.byte	0x29
 1498 066d 0B       		.uleb128 0xb
 1499 066e 7F070000 		.4byte	.LASF104
 1500 0672 07       		.byte	0x7
 1501 0673 45       		.byte	0x45
 1502 0674 A9000000 		.4byte	0xa9
 1503 0678 2A       		.byte	0x2a
 1504 0679 0B       		.uleb128 0xb
 1505 067a 6A0D0000 		.4byte	.LASF105
 1506 067e 07       		.byte	0x7
 1507 067f 46       		.byte	0x46
 1508 0680 A9000000 		.4byte	0xa9
 1509 0684 2B       		.byte	0x2b
 1510 0685 0B       		.uleb128 0xb
 1511 0686 470D0000 		.4byte	.LASF106
 1512 068a 07       		.byte	0x7
 1513 068b 47       		.byte	0x47
 1514 068c A9000000 		.4byte	0xa9
 1515 0690 2C       		.byte	0x2c
 1516 0691 0B       		.uleb128 0xb
 1517 0692 900E0000 		.4byte	.LASF107
 1518 0696 07       		.byte	0x7
 1519 0697 48       		.byte	0x48
ARM GAS  C:\Users\nicpa\AppData\Local\Temp\ccHOh1Eg.s 			page 58


 1520 0698 A9000000 		.4byte	0xa9
 1521 069c 2D       		.byte	0x2d
 1522 069d 0B       		.uleb128 0xb
 1523 069e A8110000 		.4byte	.LASF108
 1524 06a2 07       		.byte	0x7
 1525 06a3 49       		.byte	0x49
 1526 06a4 A9000000 		.4byte	0xa9
 1527 06a8 2E       		.byte	0x2e
 1528 06a9 0B       		.uleb128 0xb
 1529 06aa 9D100000 		.4byte	.LASF109
 1530 06ae 07       		.byte	0x7
 1531 06af 4A       		.byte	0x4a
 1532 06b0 A9000000 		.4byte	0xa9
 1533 06b4 2F       		.byte	0x2f
 1534 06b5 0B       		.uleb128 0xb
 1535 06b6 BB030000 		.4byte	.LASF110
 1536 06ba 07       		.byte	0x7
 1537 06bb 4B       		.byte	0x4b
 1538 06bc A9000000 		.4byte	0xa9
 1539 06c0 30       		.byte	0x30
 1540 06c1 0B       		.uleb128 0xb
 1541 06c2 AE0A0000 		.4byte	.LASF111
 1542 06c6 07       		.byte	0x7
 1543 06c7 4E       		.byte	0x4e
 1544 06c8 A9000000 		.4byte	0xa9
 1545 06cc 31       		.byte	0x31
 1546 06cd 0B       		.uleb128 0xb
 1547 06ce 3C100000 		.4byte	.LASF112
 1548 06d2 07       		.byte	0x7
 1549 06d3 4F       		.byte	0x4f
 1550 06d4 A9000000 		.4byte	0xa9
 1551 06d8 32       		.byte	0x32
 1552 06d9 0B       		.uleb128 0xb
 1553 06da 810A0000 		.4byte	.LASF113
 1554 06de 07       		.byte	0x7
 1555 06df 50       		.byte	0x50
 1556 06e0 A9000000 		.4byte	0xa9
 1557 06e4 33       		.byte	0x33
 1558 06e5 0B       		.uleb128 0xb
 1559 06e6 E2070000 		.4byte	.LASF114
 1560 06ea 07       		.byte	0x7
 1561 06eb 51       		.byte	0x51
 1562 06ec A9000000 		.4byte	0xa9
 1563 06f0 34       		.byte	0x34
 1564 06f1 0B       		.uleb128 0xb
 1565 06f2 B6050000 		.4byte	.LASF115
 1566 06f6 07       		.byte	0x7
 1567 06f7 52       		.byte	0x52
 1568 06f8 B4000000 		.4byte	0xb4
 1569 06fc 36       		.byte	0x36
 1570 06fd 0B       		.uleb128 0xb
 1571 06fe F2010000 		.4byte	.LASF116
 1572 0702 07       		.byte	0x7
 1573 0703 53       		.byte	0x53
 1574 0704 B4000000 		.4byte	0xb4
 1575 0708 38       		.byte	0x38
 1576 0709 0B       		.uleb128 0xb
ARM GAS  C:\Users\nicpa\AppData\Local\Temp\ccHOh1Eg.s 			page 59


 1577 070a 450A0000 		.4byte	.LASF117
 1578 070e 07       		.byte	0x7
 1579 070f 54       		.byte	0x54
 1580 0710 B4000000 		.4byte	0xb4
 1581 0714 3A       		.byte	0x3a
 1582 0715 0B       		.uleb128 0xb
 1583 0716 07110000 		.4byte	.LASF118
 1584 071a 07       		.byte	0x7
 1585 071b 55       		.byte	0x55
 1586 071c A9000000 		.4byte	0xa9
 1587 0720 3C       		.byte	0x3c
 1588 0721 0B       		.uleb128 0xb
 1589 0722 AB060000 		.4byte	.LASF119
 1590 0726 07       		.byte	0x7
 1591 0727 56       		.byte	0x56
 1592 0728 A9000000 		.4byte	0xa9
 1593 072c 3D       		.byte	0x3d
 1594 072d 0B       		.uleb128 0xb
 1595 072e F50B0000 		.4byte	.LASF120
 1596 0732 07       		.byte	0x7
 1597 0733 57       		.byte	0x57
 1598 0734 A9000000 		.4byte	0xa9
 1599 0738 3E       		.byte	0x3e
 1600 0739 0B       		.uleb128 0xb
 1601 073a 93000000 		.4byte	.LASF121
 1602 073e 07       		.byte	0x7
 1603 073f 58       		.byte	0x58
 1604 0740 A9000000 		.4byte	0xa9
 1605 0744 3F       		.byte	0x3f
 1606 0745 0B       		.uleb128 0xb
 1607 0746 8B010000 		.4byte	.LASF122
 1608 074a 07       		.byte	0x7
 1609 074b 59       		.byte	0x59
 1610 074c A9000000 		.4byte	0xa9
 1611 0750 40       		.byte	0x40
 1612 0751 0B       		.uleb128 0xb
 1613 0752 CD0A0000 		.4byte	.LASF123
 1614 0756 07       		.byte	0x7
 1615 0757 5A       		.byte	0x5a
 1616 0758 A9000000 		.4byte	0xa9
 1617 075c 41       		.byte	0x41
 1618 075d 0B       		.uleb128 0xb
 1619 075e C3040000 		.4byte	.LASF124
 1620 0762 07       		.byte	0x7
 1621 0763 5B       		.byte	0x5b
 1622 0764 A9000000 		.4byte	0xa9
 1623 0768 42       		.byte	0x42
 1624 0769 0B       		.uleb128 0xb
 1625 076a 9F070000 		.4byte	.LASF125
 1626 076e 07       		.byte	0x7
 1627 076f 5C       		.byte	0x5c
 1628 0770 A9000000 		.4byte	0xa9
 1629 0774 43       		.byte	0x43
 1630 0775 0B       		.uleb128 0xb
 1631 0776 4D080000 		.4byte	.LASF126
 1632 077a 07       		.byte	0x7
 1633 077b 5D       		.byte	0x5d
ARM GAS  C:\Users\nicpa\AppData\Local\Temp\ccHOh1Eg.s 			page 60


 1634 077c A9000000 		.4byte	0xa9
 1635 0780 44       		.byte	0x44
 1636 0781 0B       		.uleb128 0xb
 1637 0782 780D0000 		.4byte	.LASF127
 1638 0786 07       		.byte	0x7
 1639 0787 5E       		.byte	0x5e
 1640 0788 D5000000 		.4byte	0xd5
 1641 078c 48       		.byte	0x48
 1642 078d 0B       		.uleb128 0xb
 1643 078e A1020000 		.4byte	.LASF128
 1644 0792 07       		.byte	0x7
 1645 0793 5F       		.byte	0x5f
 1646 0794 D5000000 		.4byte	0xd5
 1647 0798 4C       		.byte	0x4c
 1648 0799 0B       		.uleb128 0xb
 1649 079a 690B0000 		.4byte	.LASF129
 1650 079e 07       		.byte	0x7
 1651 079f 60       		.byte	0x60
 1652 07a0 A9000000 		.4byte	0xa9
 1653 07a4 50       		.byte	0x50
 1654 07a5 0B       		.uleb128 0xb
 1655 07a6 C2060000 		.4byte	.LASF130
 1656 07aa 07       		.byte	0x7
 1657 07ab 61       		.byte	0x61
 1658 07ac A9000000 		.4byte	0xa9
 1659 07b0 51       		.byte	0x51
 1660 07b1 0B       		.uleb128 0xb
 1661 07b2 CC090000 		.4byte	.LASF131
 1662 07b6 07       		.byte	0x7
 1663 07b7 62       		.byte	0x62
 1664 07b8 A9000000 		.4byte	0xa9
 1665 07bc 52       		.byte	0x52
 1666 07bd 0B       		.uleb128 0xb
 1667 07be 320B0000 		.4byte	.LASF132
 1668 07c2 07       		.byte	0x7
 1669 07c3 63       		.byte	0x63
 1670 07c4 A9000000 		.4byte	0xa9
 1671 07c8 53       		.byte	0x53
 1672 07c9 0B       		.uleb128 0xb
 1673 07ca 78060000 		.4byte	.LASF133
 1674 07ce 07       		.byte	0x7
 1675 07cf 64       		.byte	0x64
 1676 07d0 A9000000 		.4byte	0xa9
 1677 07d4 54       		.byte	0x54
 1678 07d5 0B       		.uleb128 0xb
 1679 07d6 27070000 		.4byte	.LASF134
 1680 07da 07       		.byte	0x7
 1681 07db 65       		.byte	0x65
 1682 07dc A9000000 		.4byte	0xa9
 1683 07e0 55       		.byte	0x55
 1684 07e1 0B       		.uleb128 0xb
 1685 07e2 00000000 		.4byte	.LASF135
 1686 07e6 07       		.byte	0x7
 1687 07e7 66       		.byte	0x66
 1688 07e8 A9000000 		.4byte	0xa9
 1689 07ec 56       		.byte	0x56
 1690 07ed 0B       		.uleb128 0xb
ARM GAS  C:\Users\nicpa\AppData\Local\Temp\ccHOh1Eg.s 			page 61


 1691 07ee DD100000 		.4byte	.LASF136
 1692 07f2 07       		.byte	0x7
 1693 07f3 67       		.byte	0x67
 1694 07f4 A9000000 		.4byte	0xa9
 1695 07f8 57       		.byte	0x57
 1696 07f9 0B       		.uleb128 0xb
 1697 07fa 97060000 		.4byte	.LASF137
 1698 07fe 07       		.byte	0x7
 1699 07ff 68       		.byte	0x68
 1700 0800 A9000000 		.4byte	0xa9
 1701 0804 58       		.byte	0x58
 1702 0805 0B       		.uleb128 0xb
 1703 0806 36110000 		.4byte	.LASF138
 1704 080a 07       		.byte	0x7
 1705 080b 69       		.byte	0x69
 1706 080c A9000000 		.4byte	0xa9
 1707 0810 59       		.byte	0x59
 1708 0811 0B       		.uleb128 0xb
 1709 0812 27100000 		.4byte	.LASF139
 1710 0816 07       		.byte	0x7
 1711 0817 6E       		.byte	0x6e
 1712 0818 BF000000 		.4byte	0xbf
 1713 081c 5A       		.byte	0x5a
 1714 081d 0B       		.uleb128 0xb
 1715 081e 1E010000 		.4byte	.LASF140
 1716 0822 07       		.byte	0x7
 1717 0823 6F       		.byte	0x6f
 1718 0824 BF000000 		.4byte	0xbf
 1719 0828 5C       		.byte	0x5c
 1720 0829 0B       		.uleb128 0xb
 1721 082a 9D090000 		.4byte	.LASF141
 1722 082e 07       		.byte	0x7
 1723 082f 70       		.byte	0x70
 1724 0830 A9000000 		.4byte	0xa9
 1725 0834 5E       		.byte	0x5e
 1726 0835 0B       		.uleb128 0xb
 1727 0836 57100000 		.4byte	.LASF142
 1728 083a 07       		.byte	0x7
 1729 083b 71       		.byte	0x71
 1730 083c A9000000 		.4byte	0xa9
 1731 0840 5F       		.byte	0x5f
 1732 0841 0B       		.uleb128 0xb
 1733 0842 B7070000 		.4byte	.LASF143
 1734 0846 07       		.byte	0x7
 1735 0847 72       		.byte	0x72
 1736 0848 A9000000 		.4byte	0xa9
 1737 084c 60       		.byte	0x60
 1738 084d 0B       		.uleb128 0xb
 1739 084e BD080000 		.4byte	.LASF144
 1740 0852 07       		.byte	0x7
 1741 0853 73       		.byte	0x73
 1742 0854 D5000000 		.4byte	0xd5
 1743 0858 64       		.byte	0x64
 1744 0859 0B       		.uleb128 0xb
 1745 085a B3110000 		.4byte	.LASF145
 1746 085e 07       		.byte	0x7
 1747 085f 76       		.byte	0x76
ARM GAS  C:\Users\nicpa\AppData\Local\Temp\ccHOh1Eg.s 			page 62


 1748 0860 BF000000 		.4byte	0xbf
 1749 0864 68       		.byte	0x68
 1750 0865 0B       		.uleb128 0xb
 1751 0866 D60B0000 		.4byte	.LASF146
 1752 086a 07       		.byte	0x7
 1753 086b 77       		.byte	0x77
 1754 086c BF000000 		.4byte	0xbf
 1755 0870 6A       		.byte	0x6a
 1756 0871 0B       		.uleb128 0xb
 1757 0872 360A0000 		.4byte	.LASF147
 1758 0876 07       		.byte	0x7
 1759 0877 78       		.byte	0x78
 1760 0878 BF000000 		.4byte	0xbf
 1761 087c 6C       		.byte	0x6c
 1762 087d 0B       		.uleb128 0xb
 1763 087e 7E020000 		.4byte	.LASF148
 1764 0882 07       		.byte	0x7
 1765 0883 79       		.byte	0x79
 1766 0884 BF000000 		.4byte	0xbf
 1767 0888 6E       		.byte	0x6e
 1768 0889 0B       		.uleb128 0xb
 1769 088a F4080000 		.4byte	.LASF149
 1770 088e 07       		.byte	0x7
 1771 088f 7B       		.byte	0x7b
 1772 0890 A9000000 		.4byte	0xa9
 1773 0894 70       		.byte	0x70
 1774 0895 0B       		.uleb128 0xb
 1775 0896 F7030000 		.4byte	.LASF150
 1776 089a 07       		.byte	0x7
 1777 089b 7C       		.byte	0x7c
 1778 089c A9000000 		.4byte	0xa9
 1779 08a0 71       		.byte	0x71
 1780 08a1 0B       		.uleb128 0xb
 1781 08a2 8B020000 		.4byte	.LASF151
 1782 08a6 07       		.byte	0x7
 1783 08a7 7D       		.byte	0x7d
 1784 08a8 A9000000 		.4byte	0xa9
 1785 08ac 72       		.byte	0x72
 1786 08ad 0B       		.uleb128 0xb
 1787 08ae 98010000 		.4byte	.LASF152
 1788 08b2 07       		.byte	0x7
 1789 08b3 7E       		.byte	0x7e
 1790 08b4 A9000000 		.4byte	0xa9
 1791 08b8 73       		.byte	0x73
 1792 08b9 0B       		.uleb128 0xb
 1793 08ba 720C0000 		.4byte	.LASF153
 1794 08be 07       		.byte	0x7
 1795 08bf 80       		.byte	0x80
 1796 08c0 BF000000 		.4byte	0xbf
 1797 08c4 74       		.byte	0x74
 1798 08c5 0B       		.uleb128 0xb
 1799 08c6 440B0000 		.4byte	.LASF154
 1800 08ca 07       		.byte	0x7
 1801 08cb 81       		.byte	0x81
 1802 08cc BF000000 		.4byte	0xbf
 1803 08d0 76       		.byte	0x76
 1804 08d1 0B       		.uleb128 0xb
ARM GAS  C:\Users\nicpa\AppData\Local\Temp\ccHOh1Eg.s 			page 63


 1805 08d2 1D090000 		.4byte	.LASF155
 1806 08d6 07       		.byte	0x7
 1807 08d7 82       		.byte	0x82
 1808 08d8 BF000000 		.4byte	0xbf
 1809 08dc 78       		.byte	0x78
 1810 08dd 0B       		.uleb128 0xb
 1811 08de 8D050000 		.4byte	.LASF156
 1812 08e2 07       		.byte	0x7
 1813 08e3 83       		.byte	0x83
 1814 08e4 BF000000 		.4byte	0xbf
 1815 08e8 7A       		.byte	0x7a
 1816 08e9 0B       		.uleb128 0xb
 1817 08ea 08090000 		.4byte	.LASF157
 1818 08ee 07       		.byte	0x7
 1819 08ef 86       		.byte	0x86
 1820 08f0 A9000000 		.4byte	0xa9
 1821 08f4 7C       		.byte	0x7c
 1822 08f5 0B       		.uleb128 0xb
 1823 08f6 F60F0000 		.4byte	.LASF158
 1824 08fa 07       		.byte	0x7
 1825 08fb 87       		.byte	0x87
 1826 08fc A9000000 		.4byte	0xa9
 1827 0900 7D       		.byte	0x7d
 1828 0901 0B       		.uleb128 0xb
 1829 0902 10050000 		.4byte	.LASF159
 1830 0906 07       		.byte	0x7
 1831 0907 88       		.byte	0x88
 1832 0908 A9000000 		.4byte	0xa9
 1833 090c 7E       		.byte	0x7e
 1834 090d 0B       		.uleb128 0xb
 1835 090e 7A040000 		.4byte	.LASF160
 1836 0912 07       		.byte	0x7
 1837 0913 89       		.byte	0x89
 1838 0914 A9000000 		.4byte	0xa9
 1839 0918 7F       		.byte	0x7f
 1840 0919 0B       		.uleb128 0xb
 1841 091a A2050000 		.4byte	.LASF161
 1842 091e 07       		.byte	0x7
 1843 091f 8A       		.byte	0x8a
 1844 0920 A9000000 		.4byte	0xa9
 1845 0924 80       		.byte	0x80
 1846 0925 0B       		.uleb128 0xb
 1847 0926 7C000000 		.4byte	.LASF162
 1848 092a 07       		.byte	0x7
 1849 092b 8D       		.byte	0x8d
 1850 092c D5000000 		.4byte	0xd5
 1851 0930 84       		.byte	0x84
 1852 0931 0B       		.uleb128 0xb
 1853 0932 3B0E0000 		.4byte	.LASF163
 1854 0936 07       		.byte	0x7
 1855 0937 8E       		.byte	0x8e
 1856 0938 D5000000 		.4byte	0xd5
 1857 093c 88       		.byte	0x88
 1858 093d 0B       		.uleb128 0xb
 1859 093e 14060000 		.4byte	.LASF164
 1860 0942 07       		.byte	0x7
 1861 0943 8F       		.byte	0x8f
ARM GAS  C:\Users\nicpa\AppData\Local\Temp\ccHOh1Eg.s 			page 64


 1862 0944 D5000000 		.4byte	0xd5
 1863 0948 8C       		.byte	0x8c
 1864 0949 0B       		.uleb128 0xb
 1865 094a 71110000 		.4byte	.LASF165
 1866 094e 07       		.byte	0x7
 1867 094f 90       		.byte	0x90
 1868 0950 D5000000 		.4byte	0xd5
 1869 0954 90       		.byte	0x90
 1870 0955 0B       		.uleb128 0xb
 1871 0956 DC0D0000 		.4byte	.LASF166
 1872 095a 07       		.byte	0x7
 1873 095b 91       		.byte	0x91
 1874 095c D5000000 		.4byte	0xd5
 1875 0960 94       		.byte	0x94
 1876 0961 0B       		.uleb128 0xb
 1877 0962 0C040000 		.4byte	.LASF167
 1878 0966 07       		.byte	0x7
 1879 0967 92       		.byte	0x92
 1880 0968 D5000000 		.4byte	0xd5
 1881 096c 98       		.byte	0x98
 1882 096d 0B       		.uleb128 0xb
 1883 096e 710E0000 		.4byte	.LASF168
 1884 0972 07       		.byte	0x7
 1885 0973 93       		.byte	0x93
 1886 0974 D5000000 		.4byte	0xd5
 1887 0978 9C       		.byte	0x9c
 1888 0979 0B       		.uleb128 0xb
 1889 097a 89070000 		.4byte	.LASF169
 1890 097e 07       		.byte	0x7
 1891 097f 94       		.byte	0x94
 1892 0980 D5000000 		.4byte	0xd5
 1893 0984 A0       		.byte	0xa0
 1894 0985 0B       		.uleb128 0xb
 1895 0986 09010000 		.4byte	.LASF170
 1896 098a 07       		.byte	0x7
 1897 098b 95       		.byte	0x95
 1898 098c BF000000 		.4byte	0xbf
 1899 0990 A4       		.byte	0xa4
 1900 0991 0B       		.uleb128 0xb
 1901 0992 4C0C0000 		.4byte	.LASF171
 1902 0996 07       		.byte	0x7
 1903 0997 96       		.byte	0x96
 1904 0998 BF000000 		.4byte	0xbf
 1905 099c A6       		.byte	0xa6
 1906 099d 0B       		.uleb128 0xb
 1907 099e B60E0000 		.4byte	.LASF172
 1908 09a2 07       		.byte	0x7
 1909 09a3 97       		.byte	0x97
 1910 09a4 BF000000 		.4byte	0xbf
 1911 09a8 A8       		.byte	0xa8
 1912 09a9 0B       		.uleb128 0xb
 1913 09aa 79090000 		.4byte	.LASF173
 1914 09ae 07       		.byte	0x7
 1915 09af 98       		.byte	0x98
 1916 09b0 BF000000 		.4byte	0xbf
 1917 09b4 AA       		.byte	0xaa
 1918 09b5 0B       		.uleb128 0xb
ARM GAS  C:\Users\nicpa\AppData\Local\Temp\ccHOh1Eg.s 			page 65


 1919 09b6 AF020000 		.4byte	.LASF174
 1920 09ba 07       		.byte	0x7
 1921 09bb 99       		.byte	0x99
 1922 09bc BF000000 		.4byte	0xbf
 1923 09c0 AC       		.byte	0xac
 1924 09c1 0B       		.uleb128 0xb
 1925 09c2 EE0A0000 		.4byte	.LASF175
 1926 09c6 07       		.byte	0x7
 1927 09c7 9A       		.byte	0x9a
 1928 09c8 BF000000 		.4byte	0xbf
 1929 09cc AE       		.byte	0xae
 1930 09cd 0B       		.uleb128 0xb
 1931 09ce BD020000 		.4byte	.LASF176
 1932 09d2 07       		.byte	0x7
 1933 09d3 9D       		.byte	0x9d
 1934 09d4 BF000000 		.4byte	0xbf
 1935 09d8 B0       		.byte	0xb0
 1936 09d9 0B       		.uleb128 0xb
 1937 09da 260F0000 		.4byte	.LASF177
 1938 09de 07       		.byte	0x7
 1939 09df 9E       		.byte	0x9e
 1940 09e0 D5000000 		.4byte	0xd5
 1941 09e4 B4       		.byte	0xb4
 1942 09e5 00       		.byte	0
 1943 09e6 04       		.uleb128 0x4
 1944 09e7 8D100000 		.4byte	.LASF178
 1945 09eb 07       		.byte	0x7
 1946 09ec 9F       		.byte	0x9f
 1947 09ed D5050000 		.4byte	0x5d5
 1948 09f1 0D       		.uleb128 0xd
 1949 09f2 9F0D0000 		.4byte	.LASF179
 1950 09f6 08       		.byte	0x8
 1951 09f7 F601     		.2byte	0x1f6
 1952 09f9 FD090000 		.4byte	0x9fd
 1953 09fd 03       		.uleb128 0x3
 1954 09fe 01       		.byte	0x1
 1955 09ff 08       		.byte	0x8
 1956 0a00 0B080000 		.4byte	.LASF180
 1957 0a04 0D       		.uleb128 0xd
 1958 0a05 FA050000 		.4byte	.LASF181
 1959 0a09 08       		.byte	0x8
 1960 0a0a F701     		.2byte	0x1f7
 1961 0a0c 2C000000 		.4byte	0x2c
 1962 0a10 03       		.uleb128 0x3
 1963 0a11 08       		.byte	0x8
 1964 0a12 04       		.byte	0x4
 1965 0a13 E8060000 		.4byte	.LASF182
 1966 0a17 0D       		.uleb128 0xd
 1967 0a18 B8100000 		.4byte	.LASF183
 1968 0a1c 08       		.byte	0x8
 1969 0a1d EA03     		.2byte	0x3ea
 1970 0a1f A9000000 		.4byte	0xa9
 1971 0a23 0D       		.uleb128 0xd
 1972 0a24 A6080000 		.4byte	.LASF184
 1973 0a28 08       		.byte	0x8
 1974 0a29 F003     		.2byte	0x3f0
 1975 0a2b 2C000000 		.4byte	0x2c
ARM GAS  C:\Users\nicpa\AppData\Local\Temp\ccHOh1Eg.s 			page 66


 1976 0a2f 0F       		.uleb128 0xf
 1977 0a30 04       		.byte	0x4
 1978 0a31 03       		.uleb128 0x3
 1979 0a32 01       		.byte	0x1
 1980 0a33 02       		.byte	0x2
 1981 0a34 B1070000 		.4byte	.LASF185
 1982 0a38 10       		.uleb128 0x10
 1983 0a39 01       		.byte	0x1
 1984 0a3a 4C000000 		.4byte	0x4c
 1985 0a3e 09       		.byte	0x9
 1986 0a3f 2402     		.2byte	0x224
 1987 0a41 520A0000 		.4byte	0xa52
 1988 0a45 11       		.uleb128 0x11
 1989 0a46 35020000 		.4byte	.LASF186
 1990 0a4a 00       		.byte	0
 1991 0a4b 11       		.uleb128 0x11
 1992 0a4c CB020000 		.4byte	.LASF187
 1993 0a50 01       		.byte	0x1
 1994 0a51 00       		.byte	0
 1995 0a52 0D       		.uleb128 0xd
 1996 0a53 66020000 		.4byte	.LASF188
 1997 0a57 09       		.byte	0x9
 1998 0a58 2702     		.2byte	0x227
 1999 0a5a 380A0000 		.4byte	0xa38
 2000 0a5e 0D       		.uleb128 0xd
 2001 0a5f 52010000 		.4byte	.LASF189
 2002 0a63 09       		.byte	0x9
 2003 0a64 3902     		.2byte	0x239
 2004 0a66 6A0A0000 		.4byte	0xa6a
 2005 0a6a 12       		.uleb128 0x12
 2006 0a6b 04       		.byte	0x4
 2007 0a6c 700A0000 		.4byte	0xa70
 2008 0a70 13       		.uleb128 0x13
 2009 0a71 7B0A0000 		.4byte	0xa7b
 2010 0a75 14       		.uleb128 0x14
 2011 0a76 D5000000 		.4byte	0xd5
 2012 0a7a 00       		.byte	0
 2013 0a7b 0D       		.uleb128 0xd
 2014 0a7c DA020000 		.4byte	.LASF190
 2015 0a80 09       		.byte	0x9
 2016 0a81 4402     		.2byte	0x244
 2017 0a83 870A0000 		.4byte	0xa87
 2018 0a87 12       		.uleb128 0x12
 2019 0a88 04       		.byte	0x4
 2020 0a89 8D0A0000 		.4byte	0xa8d
 2021 0a8d 15       		.uleb128 0x15
 2022 0a8e 520A0000 		.4byte	0xa52
 2023 0a92 9C0A0000 		.4byte	0xa9c
 2024 0a96 14       		.uleb128 0x14
 2025 0a97 D5000000 		.4byte	0xd5
 2026 0a9b 00       		.byte	0
 2027 0a9c 16       		.uleb128 0x16
 2028 0a9d C7030000 		.4byte	.LASF214
 2029 0aa1 4C       		.byte	0x4c
 2030 0aa2 09       		.byte	0x9
 2031 0aa3 C302     		.2byte	0x2c3
 2032 0aa5 BB0B0000 		.4byte	0xbbb
ARM GAS  C:\Users\nicpa\AppData\Local\Temp\ccHOh1Eg.s 			page 67


 2033 0aa9 17       		.uleb128 0x17
 2034 0aaa 3B070000 		.4byte	.LASF191
 2035 0aae 09       		.byte	0x9
 2036 0aaf C602     		.2byte	0x2c6
 2037 0ab1 310A0000 		.4byte	0xa31
 2038 0ab5 00       		.byte	0
 2039 0ab6 17       		.uleb128 0x17
 2040 0ab7 FD090000 		.4byte	.LASF192
 2041 0abb 09       		.byte	0x9
 2042 0abc C702     		.2byte	0x2c7
 2043 0abe 310A0000 		.4byte	0xa31
 2044 0ac2 01       		.byte	0x1
 2045 0ac3 17       		.uleb128 0x17
 2046 0ac4 C10F0000 		.4byte	.LASF193
 2047 0ac8 09       		.byte	0x9
 2048 0ac9 C902     		.2byte	0x2c9
 2049 0acb E7000000 		.4byte	0xe7
 2050 0acf 04       		.byte	0x4
 2051 0ad0 17       		.uleb128 0x17
 2052 0ad1 9F000000 		.4byte	.LASF194
 2053 0ad5 09       		.byte	0x9
 2054 0ad6 CB02     		.2byte	0x2cb
 2055 0ad8 E7000000 		.4byte	0xe7
 2056 0adc 08       		.byte	0x8
 2057 0add 17       		.uleb128 0x17
 2058 0ade FC0A0000 		.4byte	.LASF195
 2059 0ae2 09       		.byte	0x9
 2060 0ae3 CC02     		.2byte	0x2cc
 2061 0ae5 310A0000 		.4byte	0xa31
 2062 0ae9 0C       		.byte	0xc
 2063 0aea 17       		.uleb128 0x17
 2064 0aeb 2A0A0000 		.4byte	.LASF196
 2065 0aef 09       		.byte	0x9
 2066 0af0 CD02     		.2byte	0x2cd
 2067 0af2 310A0000 		.4byte	0xa31
 2068 0af6 0D       		.byte	0xd
 2069 0af7 17       		.uleb128 0x17
 2070 0af8 E80B0000 		.4byte	.LASF197
 2071 0afc 09       		.byte	0x9
 2072 0afd CF02     		.2byte	0x2cf
 2073 0aff BB0B0000 		.4byte	0xbbb
 2074 0b03 10       		.byte	0x10
 2075 0b04 17       		.uleb128 0x17
 2076 0b05 5E080000 		.4byte	.LASF198
 2077 0b09 09       		.byte	0x9
 2078 0b0a D002     		.2byte	0x2d0
 2079 0b0c D5000000 		.4byte	0xd5
 2080 0b10 14       		.byte	0x14
 2081 0b11 17       		.uleb128 0x17
 2082 0b12 70010000 		.4byte	.LASF199
 2083 0b16 09       		.byte	0x9
 2084 0b17 D102     		.2byte	0x2d1
 2085 0b19 E7000000 		.4byte	0xe7
 2086 0b1d 18       		.byte	0x18
 2087 0b1e 17       		.uleb128 0x17
 2088 0b1f D3070000 		.4byte	.LASF200
 2089 0b23 09       		.byte	0x9
ARM GAS  C:\Users\nicpa\AppData\Local\Temp\ccHOh1Eg.s 			page 68


 2090 0b24 D202     		.2byte	0x2d2
 2091 0b26 E7000000 		.4byte	0xe7
 2092 0b2a 1C       		.byte	0x1c
 2093 0b2b 17       		.uleb128 0x17
 2094 0b2c 46010000 		.4byte	.LASF201
 2095 0b30 09       		.byte	0x9
 2096 0b31 D402     		.2byte	0x2d4
 2097 0b33 E7000000 		.4byte	0xe7
 2098 0b37 20       		.byte	0x20
 2099 0b38 17       		.uleb128 0x17
 2100 0b39 04060000 		.4byte	.LASF202
 2101 0b3d 09       		.byte	0x9
 2102 0b3e D502     		.2byte	0x2d5
 2103 0b40 C10B0000 		.4byte	0xbc1
 2104 0b44 24       		.byte	0x24
 2105 0b45 17       		.uleb128 0x17
 2106 0b46 35040000 		.4byte	.LASF203
 2107 0b4a 09       		.byte	0x9
 2108 0b4b D702     		.2byte	0x2d7
 2109 0b4d BB0B0000 		.4byte	0xbbb
 2110 0b51 28       		.byte	0x28
 2111 0b52 17       		.uleb128 0x17
 2112 0b53 DD050000 		.4byte	.LASF204
 2113 0b57 09       		.byte	0x9
 2114 0b58 D802     		.2byte	0x2d8
 2115 0b5a D5000000 		.4byte	0xd5
 2116 0b5e 2C       		.byte	0x2c
 2117 0b5f 17       		.uleb128 0x17
 2118 0b60 49040000 		.4byte	.LASF205
 2119 0b64 09       		.byte	0x9
 2120 0b65 D902     		.2byte	0x2d9
 2121 0b67 E7000000 		.4byte	0xe7
 2122 0b6b 30       		.byte	0x30
 2123 0b6c 17       		.uleb128 0x17
 2124 0b6d E3080000 		.4byte	.LASF206
 2125 0b71 09       		.byte	0x9
 2126 0b72 DA02     		.2byte	0x2da
 2127 0b74 E7000000 		.4byte	0xe7
 2128 0b78 34       		.byte	0x34
 2129 0b79 17       		.uleb128 0x17
 2130 0b7a E4010000 		.4byte	.LASF207
 2131 0b7e 09       		.byte	0x9
 2132 0b7f DC02     		.2byte	0x2dc
 2133 0b81 BB0B0000 		.4byte	0xbbb
 2134 0b85 38       		.byte	0x38
 2135 0b86 17       		.uleb128 0x17
 2136 0b87 570B0000 		.4byte	.LASF208
 2137 0b8b 09       		.byte	0x9
 2138 0b8c DD02     		.2byte	0x2dd
 2139 0b8e D5000000 		.4byte	0xd5
 2140 0b92 3C       		.byte	0x3c
 2141 0b93 17       		.uleb128 0x17
 2142 0b94 DD0A0000 		.4byte	.LASF209
 2143 0b98 09       		.byte	0x9
 2144 0b99 DE02     		.2byte	0x2de
 2145 0b9b E7000000 		.4byte	0xe7
 2146 0b9f 40       		.byte	0x40
ARM GAS  C:\Users\nicpa\AppData\Local\Temp\ccHOh1Eg.s 			page 69


 2147 0ba0 17       		.uleb128 0x17
 2148 0ba1 D4060000 		.4byte	.LASF210
 2149 0ba5 09       		.byte	0x9
 2150 0ba6 E402     		.2byte	0x2e4
 2151 0ba8 5E0A0000 		.4byte	0xa5e
 2152 0bac 44       		.byte	0x44
 2153 0bad 17       		.uleb128 0x17
 2154 0bae 1F020000 		.4byte	.LASF211
 2155 0bb2 09       		.byte	0x9
 2156 0bb3 EB02     		.2byte	0x2eb
 2157 0bb5 7B0A0000 		.4byte	0xa7b
 2158 0bb9 48       		.byte	0x48
 2159 0bba 00       		.byte	0
 2160 0bbb 12       		.uleb128 0x12
 2161 0bbc 04       		.byte	0x4
 2162 0bbd A9000000 		.4byte	0xa9
 2163 0bc1 05       		.uleb128 0x5
 2164 0bc2 310A0000 		.4byte	0xa31
 2165 0bc6 0D       		.uleb128 0xd
 2166 0bc7 1D110000 		.4byte	.LASF212
 2167 0bcb 09       		.byte	0x9
 2168 0bcc EE02     		.2byte	0x2ee
 2169 0bce 9C0A0000 		.4byte	0xa9c
 2170 0bd2 0D       		.uleb128 0xd
 2171 0bd3 31000000 		.4byte	.LASF213
 2172 0bd7 0A       		.byte	0xa
 2173 0bd8 F201     		.2byte	0x1f2
 2174 0bda 6A0A0000 		.4byte	0xa6a
 2175 0bde 16       		.uleb128 0x16
 2176 0bdf 520E0000 		.4byte	.LASF215
 2177 0be3 24       		.byte	0x24
 2178 0be4 0A       		.byte	0xa
 2179 0be5 7402     		.2byte	0x274
 2180 0be7 610C0000 		.4byte	0xc61
 2181 0beb 17       		.uleb128 0x17
 2182 0bec DC080000 		.4byte	.LASF216
 2183 0bf0 0A       		.byte	0xa
 2184 0bf1 7702     		.2byte	0x277
 2185 0bf3 E7000000 		.4byte	0xe7
 2186 0bf7 00       		.byte	0
 2187 0bf8 17       		.uleb128 0x17
 2188 0bf9 91060000 		.4byte	.LASF217
 2189 0bfd 0A       		.byte	0xa
 2190 0bfe 7902     		.2byte	0x279
 2191 0c00 2F0A0000 		.4byte	0xa2f
 2192 0c04 04       		.byte	0x4
 2193 0c05 17       		.uleb128 0x17
 2194 0c06 C3110000 		.4byte	.LASF218
 2195 0c0a 0A       		.byte	0xa
 2196 0c0b 7A02     		.2byte	0x27a
 2197 0c0d D5000000 		.4byte	0xd5
 2198 0c11 08       		.byte	0x8
 2199 0c12 17       		.uleb128 0x17
 2200 0c13 C3050000 		.4byte	.LASF219
 2201 0c17 0A       		.byte	0xa
 2202 0c18 7B02     		.2byte	0x27b
 2203 0c1a E7000000 		.4byte	0xe7
ARM GAS  C:\Users\nicpa\AppData\Local\Temp\ccHOh1Eg.s 			page 70


 2204 0c1e 0C       		.byte	0xc
 2205 0c1f 17       		.uleb128 0x17
 2206 0c20 210B0000 		.4byte	.LASF220
 2207 0c24 0A       		.byte	0xa
 2208 0c25 7D02     		.2byte	0x27d
 2209 0c27 2F0A0000 		.4byte	0xa2f
 2210 0c2b 10       		.byte	0x10
 2211 0c2c 17       		.uleb128 0x17
 2212 0c2d A40A0000 		.4byte	.LASF221
 2213 0c31 0A       		.byte	0xa
 2214 0c32 7E02     		.2byte	0x27e
 2215 0c34 D5000000 		.4byte	0xd5
 2216 0c38 14       		.byte	0x14
 2217 0c39 17       		.uleb128 0x17
 2218 0c3a AF010000 		.4byte	.LASF222
 2219 0c3e 0A       		.byte	0xa
 2220 0c3f 7F02     		.2byte	0x27f
 2221 0c41 E7000000 		.4byte	0xe7
 2222 0c45 18       		.byte	0x18
 2223 0c46 17       		.uleb128 0x17
 2224 0c47 D4060000 		.4byte	.LASF210
 2225 0c4b 0A       		.byte	0xa
 2226 0c4c 8502     		.2byte	0x285
 2227 0c4e D20B0000 		.4byte	0xbd2
 2228 0c52 1C       		.byte	0x1c
 2229 0c53 17       		.uleb128 0x17
 2230 0c54 A9100000 		.4byte	.LASF223
 2231 0c58 0A       		.byte	0xa
 2232 0c59 8802     		.2byte	0x288
 2233 0c5b D5000000 		.4byte	0xd5
 2234 0c5f 20       		.byte	0x20
 2235 0c60 00       		.byte	0
 2236 0c61 0D       		.uleb128 0xd
 2237 0c62 5A0A0000 		.4byte	.LASF224
 2238 0c66 0A       		.byte	0xa
 2239 0c67 8B02     		.2byte	0x28b
 2240 0c69 DE0B0000 		.4byte	0xbde
 2241 0c6d 0D       		.uleb128 0xd
 2242 0c6e 32090000 		.4byte	.LASF225
 2243 0c72 02       		.byte	0x2
 2244 0c73 D901     		.2byte	0x1d9
 2245 0c75 6A0A0000 		.4byte	0xa6a
 2246 0c79 16       		.uleb128 0x16
 2247 0c7a D4040000 		.4byte	.LASF226
 2248 0c7e 38       		.byte	0x38
 2249 0c7f 02       		.byte	0x2
 2250 0c80 7502     		.2byte	0x275
 2251 0c82 3D0D0000 		.4byte	0xd3d
 2252 0c86 17       		.uleb128 0x17
 2253 0c87 CE000000 		.4byte	.LASF227
 2254 0c8b 02       		.byte	0x2
 2255 0c8c 7802     		.2byte	0x278
 2256 0c8e E7000000 		.4byte	0xe7
 2257 0c92 00       		.byte	0
 2258 0c93 17       		.uleb128 0x17
 2259 0c94 88060000 		.4byte	.LASF228
 2260 0c98 02       		.byte	0x2
ARM GAS  C:\Users\nicpa\AppData\Local\Temp\ccHOh1Eg.s 			page 71


 2261 0c99 7902     		.2byte	0x279
 2262 0c9b E7000000 		.4byte	0xe7
 2263 0c9f 04       		.byte	0x4
 2264 0ca0 17       		.uleb128 0x17
 2265 0ca1 8D0B0000 		.4byte	.LASF229
 2266 0ca5 02       		.byte	0x2
 2267 0ca6 7B02     		.2byte	0x27b
 2268 0ca8 2F0A0000 		.4byte	0xa2f
 2269 0cac 08       		.byte	0x8
 2270 0cad 17       		.uleb128 0x17
 2271 0cae 4E020000 		.4byte	.LASF230
 2272 0cb2 02       		.byte	0x2
 2273 0cb3 7C02     		.2byte	0x27c
 2274 0cb5 D5000000 		.4byte	0xd5
 2275 0cb9 0C       		.byte	0xc
 2276 0cba 17       		.uleb128 0x17
 2277 0cbb 730A0000 		.4byte	.LASF231
 2278 0cbf 02       		.byte	0x2
 2279 0cc0 7D02     		.2byte	0x27d
 2280 0cc2 E7000000 		.4byte	0xe7
 2281 0cc6 10       		.byte	0x10
 2282 0cc7 17       		.uleb128 0x17
 2283 0cc8 1E080000 		.4byte	.LASF232
 2284 0ccc 02       		.byte	0x2
 2285 0ccd 7E02     		.2byte	0x27e
 2286 0ccf E7000000 		.4byte	0xe7
 2287 0cd3 14       		.byte	0x14
 2288 0cd4 17       		.uleb128 0x17
 2289 0cd5 91060000 		.4byte	.LASF217
 2290 0cd9 02       		.byte	0x2
 2291 0cda 8002     		.2byte	0x280
 2292 0cdc 2F0A0000 		.4byte	0xa2f
 2293 0ce0 18       		.byte	0x18
 2294 0ce1 17       		.uleb128 0x17
 2295 0ce2 C3110000 		.4byte	.LASF218
 2296 0ce6 02       		.byte	0x2
 2297 0ce7 8102     		.2byte	0x281
 2298 0ce9 D5000000 		.4byte	0xd5
 2299 0ced 1C       		.byte	0x1c
 2300 0cee 17       		.uleb128 0x17
 2301 0cef C3050000 		.4byte	.LASF219
 2302 0cf3 02       		.byte	0x2
 2303 0cf4 8202     		.2byte	0x282
 2304 0cf6 E7000000 		.4byte	0xe7
 2305 0cfa 20       		.byte	0x20
 2306 0cfb 17       		.uleb128 0x17
 2307 0cfc 210B0000 		.4byte	.LASF220
 2308 0d00 02       		.byte	0x2
 2309 0d01 8402     		.2byte	0x284
 2310 0d03 2F0A0000 		.4byte	0xa2f
 2311 0d07 24       		.byte	0x24
 2312 0d08 17       		.uleb128 0x17
 2313 0d09 A40A0000 		.4byte	.LASF221
 2314 0d0d 02       		.byte	0x2
 2315 0d0e 8502     		.2byte	0x285
 2316 0d10 D5000000 		.4byte	0xd5
 2317 0d14 28       		.byte	0x28
ARM GAS  C:\Users\nicpa\AppData\Local\Temp\ccHOh1Eg.s 			page 72


 2318 0d15 17       		.uleb128 0x17
 2319 0d16 BD0D0000 		.4byte	.LASF233
 2320 0d1a 02       		.byte	0x2
 2321 0d1b 8602     		.2byte	0x286
 2322 0d1d E7000000 		.4byte	0xe7
 2323 0d21 2C       		.byte	0x2c
 2324 0d22 17       		.uleb128 0x17
 2325 0d23 D4060000 		.4byte	.LASF210
 2326 0d27 02       		.byte	0x2
 2327 0d28 8B02     		.2byte	0x28b
 2328 0d2a 6D0C0000 		.4byte	0xc6d
 2329 0d2e 30       		.byte	0x30
 2330 0d2f 17       		.uleb128 0x17
 2331 0d30 A9100000 		.4byte	.LASF223
 2332 0d34 02       		.byte	0x2
 2333 0d35 8E02     		.2byte	0x28e
 2334 0d37 D5000000 		.4byte	0xd5
 2335 0d3b 34       		.byte	0x34
 2336 0d3c 00       		.byte	0
 2337 0d3d 0D       		.uleb128 0xd
 2338 0d3e 86110000 		.4byte	.LASF234
 2339 0d42 02       		.byte	0x2
 2340 0d43 9102     		.2byte	0x291
 2341 0d45 790C0000 		.4byte	0xc79
 2342 0d49 18       		.uleb128 0x18
 2343 0d4a 0B070000 		.4byte	.LASF235
 2344 0d4e 4C       		.byte	0x4c
 2345 0d4f 0B       		.byte	0xb
 2346 0d50 2F       		.byte	0x2f
 2347 0d51 3A0E0000 		.4byte	0xe3a
 2348 0d55 0B       		.uleb128 0xb
 2349 0d56 20100000 		.4byte	.LASF236
 2350 0d5a 0B       		.byte	0xb
 2351 0d5b 31       		.byte	0x31
 2352 0d5c D5000000 		.4byte	0xd5
 2353 0d60 00       		.byte	0
 2354 0d61 0B       		.uleb128 0xb
 2355 0d62 82080000 		.4byte	.LASF237
 2356 0d66 0B       		.byte	0xb
 2357 0d67 33       		.byte	0x33
 2358 0d68 D5000000 		.4byte	0xd5
 2359 0d6c 04       		.byte	0x4
 2360 0d6d 0B       		.uleb128 0xb
 2361 0d6e CE0B0000 		.4byte	.LASF238
 2362 0d72 0B       		.byte	0xb
 2363 0d73 34       		.byte	0x34
 2364 0d74 D5000000 		.4byte	0xd5
 2365 0d78 08       		.byte	0x8
 2366 0d79 0B       		.uleb128 0xb
 2367 0d7a 8A0D0000 		.4byte	.LASF239
 2368 0d7e 0B       		.byte	0xb
 2369 0d7f 35       		.byte	0x35
 2370 0d80 D5000000 		.4byte	0xd5
 2371 0d84 0C       		.byte	0xc
 2372 0d85 0B       		.uleb128 0xb
 2373 0d86 610C0000 		.4byte	.LASF240
 2374 0d8a 0B       		.byte	0xb
ARM GAS  C:\Users\nicpa\AppData\Local\Temp\ccHOh1Eg.s 			page 73


 2375 0d8b 37       		.byte	0x37
 2376 0d8c D5000000 		.4byte	0xd5
 2377 0d90 10       		.byte	0x10
 2378 0d91 0B       		.uleb128 0xb
 2379 0d92 F6020000 		.4byte	.LASF241
 2380 0d96 0B       		.byte	0xb
 2381 0d97 38       		.byte	0x38
 2382 0d98 D5000000 		.4byte	0xd5
 2383 0d9c 14       		.byte	0x14
 2384 0d9d 0B       		.uleb128 0xb
 2385 0d9e FF020000 		.4byte	.LASF242
 2386 0da2 0B       		.byte	0xb
 2387 0da3 39       		.byte	0x39
 2388 0da4 D5000000 		.4byte	0xd5
 2389 0da8 18       		.byte	0x18
 2390 0da9 0B       		.uleb128 0xb
 2391 0daa E50C0000 		.4byte	.LASF243
 2392 0dae 0B       		.byte	0xb
 2393 0daf 3A       		.byte	0x3a
 2394 0db0 310A0000 		.4byte	0xa31
 2395 0db4 1C       		.byte	0x1c
 2396 0db5 0B       		.uleb128 0xb
 2397 0db6 D40C0000 		.4byte	.LASF244
 2398 0dba 0B       		.byte	0xb
 2399 0dbb 3C       		.byte	0x3c
 2400 0dbc D5000000 		.4byte	0xd5
 2401 0dc0 20       		.byte	0x20
 2402 0dc1 0B       		.uleb128 0xb
 2403 0dc2 4C060000 		.4byte	.LASF245
 2404 0dc6 0B       		.byte	0xb
 2405 0dc7 3D       		.byte	0x3d
 2406 0dc8 D5000000 		.4byte	0xd5
 2407 0dcc 24       		.byte	0x24
 2408 0dcd 0B       		.uleb128 0xb
 2409 0dce F3070000 		.4byte	.LASF246
 2410 0dd2 0B       		.byte	0xb
 2411 0dd3 3F       		.byte	0x3f
 2412 0dd4 D5000000 		.4byte	0xd5
 2413 0dd8 28       		.byte	0x28
 2414 0dd9 0B       		.uleb128 0xb
 2415 0dda 8D0A0000 		.4byte	.LASF247
 2416 0dde 0B       		.byte	0xb
 2417 0ddf 40       		.byte	0x40
 2418 0de0 D5000000 		.4byte	0xd5
 2419 0de4 2C       		.byte	0x2c
 2420 0de5 0B       		.uleb128 0xb
 2421 0de6 EC040000 		.4byte	.LASF248
 2422 0dea 0B       		.byte	0xb
 2423 0deb 42       		.byte	0x42
 2424 0dec D5000000 		.4byte	0xd5
 2425 0df0 30       		.byte	0x30
 2426 0df1 0B       		.uleb128 0xb
 2427 0df2 29060000 		.4byte	.LASF249
 2428 0df6 0B       		.byte	0xb
 2429 0df7 43       		.byte	0x43
 2430 0df8 D5000000 		.4byte	0xd5
 2431 0dfc 34       		.byte	0x34
ARM GAS  C:\Users\nicpa\AppData\Local\Temp\ccHOh1Eg.s 			page 74


 2432 0dfd 0B       		.uleb128 0xb
 2433 0dfe B8010000 		.4byte	.LASF250
 2434 0e02 0B       		.byte	0xb
 2435 0e03 45       		.byte	0x45
 2436 0e04 D5000000 		.4byte	0xd5
 2437 0e08 38       		.byte	0x38
 2438 0e09 0B       		.uleb128 0xb
 2439 0e0a 4F000000 		.4byte	.LASF251
 2440 0e0e 0B       		.byte	0xb
 2441 0e0f 46       		.byte	0x46
 2442 0e10 D5000000 		.4byte	0xd5
 2443 0e14 3C       		.byte	0x3c
 2444 0e15 0B       		.uleb128 0xb
 2445 0e16 44020000 		.4byte	.LASF252
 2446 0e1a 0B       		.byte	0xb
 2447 0e1b 48       		.byte	0x48
 2448 0e1c D5000000 		.4byte	0xd5
 2449 0e20 40       		.byte	0x40
 2450 0e21 0B       		.uleb128 0xb
 2451 0e22 380D0000 		.4byte	.LASF253
 2452 0e26 0B       		.byte	0xb
 2453 0e27 49       		.byte	0x49
 2454 0e28 D5000000 		.4byte	0xd5
 2455 0e2c 44       		.byte	0x44
 2456 0e2d 0B       		.uleb128 0xb
 2457 0e2e 440F0000 		.4byte	.LASF254
 2458 0e32 0B       		.byte	0xb
 2459 0e33 4B       		.byte	0x4b
 2460 0e34 D5000000 		.4byte	0xd5
 2461 0e38 48       		.byte	0x48
 2462 0e39 00       		.byte	0
 2463 0e3a 04       		.uleb128 0x4
 2464 0e3b 030C0000 		.4byte	.LASF255
 2465 0e3f 0B       		.byte	0xb
 2466 0e40 4C       		.byte	0x4c
 2467 0e41 490D0000 		.4byte	0xd49
 2468 0e45 19       		.uleb128 0x19
 2469 0e46 0C       		.byte	0xc
 2470 0e47 0C       		.byte	0xc
 2471 0e48 1004     		.2byte	0x410
 2472 0e4a 760E0000 		.4byte	0xe76
 2473 0e4e 17       		.uleb128 0x17
 2474 0e4f 51090000 		.4byte	.LASF256
 2475 0e53 0C       		.byte	0xc
 2476 0e54 1204     		.2byte	0x412
 2477 0e56 BF000000 		.4byte	0xbf
 2478 0e5a 00       		.byte	0
 2479 0e5b 17       		.uleb128 0x17
 2480 0e5c AC090000 		.4byte	.LASF257
 2481 0e60 0C       		.byte	0xc
 2482 0e61 1304     		.2byte	0x413
 2483 0e63 760E0000 		.4byte	0xe76
 2484 0e67 04       		.byte	0x4
 2485 0e68 17       		.uleb128 0x17
 2486 0e69 EF060000 		.4byte	.LASF258
 2487 0e6d 0C       		.byte	0xc
 2488 0e6e 1404     		.2byte	0x414
ARM GAS  C:\Users\nicpa\AppData\Local\Temp\ccHOh1Eg.s 			page 75


 2489 0e70 760E0000 		.4byte	0xe76
 2490 0e74 08       		.byte	0x8
 2491 0e75 00       		.byte	0
 2492 0e76 12       		.uleb128 0x12
 2493 0e77 04       		.byte	0x4
 2494 0e78 040A0000 		.4byte	0xa04
 2495 0e7c 0D       		.uleb128 0xd
 2496 0e7d D10E0000 		.4byte	.LASF259
 2497 0e81 0C       		.byte	0xc
 2498 0e82 1504     		.2byte	0x415
 2499 0e84 450E0000 		.4byte	0xe45
 2500 0e88 06       		.uleb128 0x6
 2501 0e89 040A0000 		.4byte	0xa04
 2502 0e8d 04       		.uleb128 0x4
 2503 0e8e 270B0000 		.4byte	.LASF260
 2504 0e92 0D       		.byte	0xd
 2505 0e93 3F       		.byte	0x3f
 2506 0e94 D5000000 		.4byte	0xd5
 2507 0e98 1A       		.uleb128 0x1a
 2508 0e99 AE080000 		.4byte	.LASF267
 2509 0e9d 0E       		.byte	0xe
 2510 0e9e BA01     		.2byte	0x1ba
 2511 0ea0 03       		.byte	0x3
 2512 0ea1 B20E0000 		.4byte	0xeb2
 2513 0ea5 1B       		.uleb128 0x1b
 2514 0ea6 78070000 		.4byte	.LASF269
 2515 0eaa 0E       		.byte	0xe
 2516 0eab BA01     		.2byte	0x1ba
 2517 0ead B20E0000 		.4byte	0xeb2
 2518 0eb1 00       		.byte	0
 2519 0eb2 12       		.uleb128 0x12
 2520 0eb3 04       		.byte	0x4
 2521 0eb4 B80E0000 		.4byte	0xeb8
 2522 0eb8 06       		.uleb128 0x6
 2523 0eb9 F1090000 		.4byte	0x9f1
 2524 0ebd 1C       		.uleb128 0x1c
 2525 0ebe D4100000 		.4byte	.LASF322
 2526 0ec2 01       		.byte	0x1
 2527 0ec3 2E       		.byte	0x2e
 2528 0ec4 00000000 		.4byte	.LFB699
 2529 0ec8 58000000 		.4byte	.LFE699-.LFB699
 2530 0ecc 01       		.uleb128 0x1
 2531 0ecd 9C       		.byte	0x9c
 2532 0ece 980F0000 		.4byte	0xf98
 2533 0ed2 1D       		.uleb128 0x1d
 2534 0ed3 02010000 		.4byte	.LASF261
 2535 0ed7 01       		.byte	0x1
 2536 0ed8 2E       		.byte	0x2e
 2537 0ed9 980F0000 		.4byte	0xf98
 2538 0edd 00000000 		.4byte	.LLST0
 2539 0ee1 1D       		.uleb128 0x1d
 2540 0ee2 6A060000 		.4byte	.LASF262
 2541 0ee6 01       		.byte	0x1
 2542 0ee7 2E       		.byte	0x2e
 2543 0ee8 980F0000 		.4byte	0xf98
 2544 0eec 2C000000 		.4byte	.LLST1
 2545 0ef0 1E       		.uleb128 0x1e
ARM GAS  C:\Users\nicpa\AppData\Local\Temp\ccHOh1Eg.s 			page 76


 2546 0ef1 08020000 		.4byte	.LASF263
 2547 0ef5 01       		.byte	0x1
 2548 0ef6 30       		.byte	0x30
 2549 0ef7 AE0F0000 		.4byte	0xfae
 2550 0efb 03       		.uleb128 0x3
 2551 0efc 91       		.byte	0x91
 2552 0efd A47E     		.sleb128 -220
 2553 0eff 1F       		.uleb128 0x1f
 2554 0f00 6900     		.ascii	"i\000"
 2555 0f02 01       		.byte	0x1
 2556 0f03 32       		.byte	0x32
 2557 0f04 D5000000 		.4byte	0xd5
 2558 0f08 58000000 		.4byte	.LLST2
 2559 0f0c 20       		.uleb128 0x20
 2560 0f0d 5300     		.ascii	"S\000"
 2561 0f0f 01       		.byte	0x1
 2562 0f10 33       		.byte	0x33
 2563 0f11 7C0E0000 		.4byte	0xe7c
 2564 0f15 03       		.uleb128 0x3
 2565 0f16 91       		.byte	0x91
 2566 0f17 987E     		.sleb128 -232
 2567 0f19 21       		.uleb128 0x21
 2568 0f1a 73000000 		.4byte	.LASF264
 2569 0f1e 01       		.byte	0x1
 2570 0f1f 34       		.byte	0x34
 2571 0f20 760E0000 		.4byte	0xe76
 2572 0f24 77000000 		.4byte	.LLST3
 2573 0f28 21       		.uleb128 0x21
 2574 0f29 5C020000 		.4byte	.LASF265
 2575 0f2d 01       		.byte	0x1
 2576 0f2e 35       		.byte	0x35
 2577 0f2f 760E0000 		.4byte	0xe76
 2578 0f33 98000000 		.4byte	.LLST4
 2579 0f37 22       		.uleb128 0x22
 2580 0f38 12000000 		.4byte	.LVL3
 2581 0f3c 8A150000 		.4byte	0x158a
 2582 0f40 5B0F0000 		.4byte	0xf5b
 2583 0f44 23       		.uleb128 0x23
 2584 0f45 01       		.uleb128 0x1
 2585 0f46 50       		.byte	0x50
 2586 0f47 03       		.uleb128 0x3
 2587 0f48 91       		.byte	0x91
 2588 0f49 A47E     		.sleb128 -220
 2589 0f4b 23       		.uleb128 0x23
 2590 0f4c 01       		.uleb128 0x1
 2591 0f4d 51       		.byte	0x51
 2592 0f4e 05       		.uleb128 0x5
 2593 0f4f 03       		.byte	0x3
 2594 0f50 00000000 		.4byte	.LANCHOR0
 2595 0f54 23       		.uleb128 0x23
 2596 0f55 01       		.uleb128 0x1
 2597 0f56 52       		.byte	0x52
 2598 0f57 02       		.uleb128 0x2
 2599 0f58 08       		.byte	0x8
 2600 0f59 CC       		.byte	0xcc
 2601 0f5a 00       		.byte	0
 2602 0f5b 22       		.uleb128 0x22
ARM GAS  C:\Users\nicpa\AppData\Local\Temp\ccHOh1Eg.s 			page 77


 2603 0f5c 24000000 		.4byte	.LVL4
 2604 0f60 93150000 		.4byte	0x1593
 2605 0f64 860F0000 		.4byte	0xf86
 2606 0f68 23       		.uleb128 0x23
 2607 0f69 01       		.uleb128 0x1
 2608 0f6a 50       		.byte	0x50
 2609 0f6b 03       		.uleb128 0x3
 2610 0f6c 91       		.byte	0x91
 2611 0f6d 987E     		.sleb128 -232
 2612 0f6f 23       		.uleb128 0x23
 2613 0f70 01       		.uleb128 0x1
 2614 0f71 51       		.byte	0x51
 2615 0f72 02       		.uleb128 0x2
 2616 0f73 08       		.byte	0x8
 2617 0f74 33       		.byte	0x33
 2618 0f75 23       		.uleb128 0x23
 2619 0f76 01       		.uleb128 0x1
 2620 0f77 52       		.byte	0x52
 2621 0f78 03       		.uleb128 0x3
 2622 0f79 91       		.byte	0x91
 2623 0f7a A47E     		.sleb128 -220
 2624 0f7c 23       		.uleb128 0x23
 2625 0f7d 01       		.uleb128 0x1
 2626 0f7e 53       		.byte	0x53
 2627 0f7f 05       		.uleb128 0x5
 2628 0f80 03       		.byte	0x3
 2629 0f81 00000000 		.4byte	.LANCHOR1
 2630 0f85 00       		.byte	0
 2631 0f86 24       		.uleb128 0x24
 2632 0f87 3C000000 		.4byte	.LVL6
 2633 0f8b 9F150000 		.4byte	0x159f
 2634 0f8f 23       		.uleb128 0x23
 2635 0f90 01       		.uleb128 0x1
 2636 0f91 50       		.byte	0x50
 2637 0f92 03       		.uleb128 0x3
 2638 0f93 91       		.byte	0x91
 2639 0f94 987E     		.sleb128 -232
 2640 0f96 00       		.byte	0
 2641 0f97 00       		.byte	0
 2642 0f98 12       		.uleb128 0x12
 2643 0f99 04       		.byte	0x4
 2644 0f9a 230A0000 		.4byte	0xa23
 2645 0f9e 07       		.uleb128 0x7
 2646 0f9f 880E0000 		.4byte	0xe88
 2647 0fa3 AE0F0000 		.4byte	0xfae
 2648 0fa7 08       		.uleb128 0x8
 2649 0fa8 E0000000 		.4byte	0xe0
 2650 0fac 32       		.byte	0x32
 2651 0fad 00       		.byte	0
 2652 0fae 06       		.uleb128 0x6
 2653 0faf 9E0F0000 		.4byte	0xf9e
 2654 0fb3 25       		.uleb128 0x25
 2655 0fb4 414300   		.ascii	"AC\000"
 2656 0fb7 01       		.byte	0x1
 2657 0fb8 63       		.byte	0x63
 2658 0fb9 230A0000 		.4byte	0xa23
 2659 0fbd 00000000 		.4byte	.LFB700
ARM GAS  C:\Users\nicpa\AppData\Local\Temp\ccHOh1Eg.s 			page 78


 2660 0fc1 74000000 		.4byte	.LFE700-.LFB700
 2661 0fc5 01       		.uleb128 0x1
 2662 0fc6 9C       		.byte	0x9c
 2663 0fc7 28100000 		.4byte	0x1028
 2664 0fcb 1D       		.uleb128 0x1d
 2665 0fcc 02010000 		.4byte	.LASF261
 2666 0fd0 01       		.byte	0x1
 2667 0fd1 63       		.byte	0x63
 2668 0fd2 980F0000 		.4byte	0xf98
 2669 0fd6 B9000000 		.4byte	.LLST5
 2670 0fda 22       		.uleb128 0x22
 2671 0fdb 34000000 		.4byte	.LVL11
 2672 0fdf AB150000 		.4byte	0x15ab
 2673 0fe3 04100000 		.4byte	0x1004
 2674 0fe7 23       		.uleb128 0x23
 2675 0fe8 01       		.uleb128 0x1
 2676 0fe9 50       		.byte	0x50
 2677 0fea 02       		.uleb128 0x2
 2678 0feb 77       		.byte	0x77
 2679 0fec 00       		.sleb128 0
 2680 0fed 23       		.uleb128 0x23
 2681 0fee 01       		.uleb128 0x1
 2682 0fef 51       		.byte	0x51
 2683 0ff0 03       		.uleb128 0x3
 2684 0ff1 0A       		.byte	0xa
 2685 0ff2 F401     		.2byte	0x1f4
 2686 0ff4 23       		.uleb128 0x23
 2687 0ff5 01       		.uleb128 0x1
 2688 0ff6 52       		.byte	0x52
 2689 0ff7 02       		.uleb128 0x2
 2690 0ff8 75       		.byte	0x75
 2691 0ff9 00       		.sleb128 0
 2692 0ffa 23       		.uleb128 0x23
 2693 0ffb 01       		.uleb128 0x1
 2694 0ffc 53       		.byte	0x53
 2695 0ffd 05       		.uleb128 0x5
 2696 0ffe 03       		.byte	0x3
 2697 0fff 00000000 		.4byte	indexmax_AC
 2698 1003 00       		.byte	0
 2699 1004 24       		.uleb128 0x24
 2700 1005 42000000 		.4byte	.LVL12
 2701 1009 B7150000 		.4byte	0x15b7
 2702 100d 23       		.uleb128 0x23
 2703 100e 01       		.uleb128 0x1
 2704 100f 50       		.byte	0x50
 2705 1010 02       		.uleb128 0x2
 2706 1011 77       		.byte	0x77
 2707 1012 00       		.sleb128 0
 2708 1013 23       		.uleb128 0x23
 2709 1014 01       		.uleb128 0x1
 2710 1015 51       		.byte	0x51
 2711 1016 03       		.uleb128 0x3
 2712 1017 0A       		.byte	0xa
 2713 1018 F401     		.2byte	0x1f4
 2714 101a 23       		.uleb128 0x23
 2715 101b 01       		.uleb128 0x1
 2716 101c 52       		.byte	0x52
ARM GAS  C:\Users\nicpa\AppData\Local\Temp\ccHOh1Eg.s 			page 79


 2717 101d 02       		.uleb128 0x2
 2718 101e 74       		.byte	0x74
 2719 101f 00       		.sleb128 0
 2720 1020 23       		.uleb128 0x23
 2721 1021 01       		.uleb128 0x1
 2722 1022 53       		.byte	0x53
 2723 1023 02       		.uleb128 0x2
 2724 1024 78       		.byte	0x78
 2725 1025 00       		.sleb128 0
 2726 1026 00       		.byte	0
 2727 1027 00       		.byte	0
 2728 1028 26       		.uleb128 0x26
 2729 1029 9D0A0000 		.4byte	.LASF266
 2730 102d 01       		.byte	0x1
 2731 102e 89       		.byte	0x89
 2732 102f 230A0000 		.4byte	0xa23
 2733 1033 00000000 		.4byte	.LFB701
 2734 1037 54000000 		.4byte	.LFE701-.LFB701
 2735 103b 01       		.uleb128 0x1
 2736 103c 9C       		.byte	0x9c
 2737 103d 68100000 		.4byte	0x1068
 2738 1041 1D       		.uleb128 0x1d
 2739 1042 02010000 		.4byte	.LASF261
 2740 1046 01       		.byte	0x1
 2741 1047 89       		.byte	0x89
 2742 1048 980F0000 		.4byte	0xf98
 2743 104c F6000000 		.4byte	.LLST6
 2744 1050 27       		.uleb128 0x27
 2745 1051 0A000000 		.4byte	.LBB7
 2746 1055 24000000 		.4byte	.LBE7-.LBB7
 2747 1059 1F       		.uleb128 0x1f
 2748 105a 6900     		.ascii	"i\000"
 2749 105c 01       		.byte	0x1
 2750 105d 8D       		.byte	0x8d
 2751 105e 25000000 		.4byte	0x25
 2752 1062 17010000 		.4byte	.LLST7
 2753 1066 00       		.byte	0
 2754 1067 00       		.byte	0
 2755 1068 1A       		.uleb128 0x1a
 2756 1069 4F110000 		.4byte	.LASF268
 2757 106d 02       		.byte	0x2
 2758 106e A305     		.2byte	0x5a3
 2759 1070 03       		.byte	0x3
 2760 1071 8E100000 		.4byte	0x108e
 2761 1075 1B       		.uleb128 0x1b
 2762 1076 CF040000 		.4byte	.LASF270
 2763 107a 02       		.byte	0x2
 2764 107b A305     		.2byte	0x5a3
 2765 107d 8E100000 		.4byte	0x108e
 2766 1081 1B       		.uleb128 0x1b
 2767 1082 78070000 		.4byte	.LASF269
 2768 1086 02       		.byte	0x2
 2769 1087 A305     		.2byte	0x5a3
 2770 1089 B20E0000 		.4byte	0xeb2
 2771 108d 00       		.byte	0
 2772 108e 12       		.uleb128 0x12
 2773 108f 04       		.byte	0x4
ARM GAS  C:\Users\nicpa\AppData\Local\Temp\ccHOh1Eg.s 			page 80


 2774 1090 C2050000 		.4byte	0x5c2
 2775 1094 28       		.uleb128 0x28
 2776 1095 00050000 		.4byte	.LASF271
 2777 1099 01       		.byte	0x1
 2778 109a AB       		.byte	0xab
 2779 109b 00000000 		.4byte	.LFB702
 2780 109f A8020000 		.4byte	.LFE702-.LFB702
 2781 10a3 01       		.uleb128 0x1
 2782 10a4 9C       		.byte	0x9c
 2783 10a5 6E120000 		.4byte	0x126e
 2784 10a9 1D       		.uleb128 0x1d
 2785 10aa F70C0000 		.4byte	.LASF272
 2786 10ae 01       		.byte	0x1
 2787 10af AB       		.byte	0xab
 2788 10b0 2F0A0000 		.4byte	0xa2f
 2789 10b4 38010000 		.4byte	.LLST8
 2790 10b8 29       		.uleb128 0x29
 2791 10b9 3E000000 		.4byte	.LBB15
 2792 10bd F2010000 		.4byte	.LBE15-.LBB15
 2793 10c1 47120000 		.4byte	0x1247
 2794 10c5 1E       		.uleb128 0x1e
 2795 10c6 F7060000 		.4byte	.LASF273
 2796 10ca 01       		.byte	0x1
 2797 10cb DB       		.byte	0xdb
 2798 10cc 6E120000 		.4byte	0x126e
 2799 10d0 03       		.uleb128 0x3
 2800 10d1 91       		.byte	0x91
 2801 10d2 B47F     		.sleb128 -76
 2802 10d4 1E       		.uleb128 0x1e
 2803 10d5 210C0000 		.4byte	.LASF274
 2804 10d9 01       		.byte	0x1
 2805 10da E0       		.byte	0xe0
 2806 10db 7E120000 		.4byte	0x127e
 2807 10df 03       		.uleb128 0x3
 2808 10e0 91       		.byte	0x91
 2809 10e1 A47F     		.sleb128 -92
 2810 10e3 1F       		.uleb128 0x1f
 2811 10e4 6A00     		.ascii	"j\000"
 2812 10e6 01       		.byte	0x1
 2813 10e7 E2       		.byte	0xe2
 2814 10e8 25000000 		.4byte	0x25
 2815 10ec 59010000 		.4byte	.LLST9
 2816 10f0 29       		.uleb128 0x29
 2817 10f1 6A000000 		.4byte	.LBB16
 2818 10f5 3C000000 		.4byte	.LBE16-.LBB16
 2819 10f9 0B110000 		.4byte	0x110b
 2820 10fd 1F       		.uleb128 0x1f
 2821 10fe 6900     		.ascii	"i\000"
 2822 1100 01       		.byte	0x1
 2823 1101 CB       		.byte	0xcb
 2824 1102 25000000 		.4byte	0x25
 2825 1106 78010000 		.4byte	.LLST10
 2826 110a 00       		.byte	0
 2827 110b 2A       		.uleb128 0x2a
 2828 110c 980E0000 		.4byte	0xe98
 2829 1110 18010000 		.4byte	.LBB17
 2830 1114 08000000 		.4byte	.LBE17-.LBB17
ARM GAS  C:\Users\nicpa\AppData\Local\Temp\ccHOh1Eg.s 			page 81


 2831 1118 01       		.byte	0x1
 2832 1119 DD       		.byte	0xdd
 2833 111a 65110000 		.4byte	0x1165
 2834 111e 2B       		.uleb128 0x2b
 2835 111f A50E0000 		.4byte	0xea5
 2836 1123 97010000 		.4byte	.LLST11
 2837 1127 2C       		.uleb128 0x2c
 2838 1128 68100000 		.4byte	0x1068
 2839 112c 18010000 		.4byte	.LBB18
 2840 1130 08000000 		.4byte	.LBE18-.LBB18
 2841 1134 0E       		.byte	0xe
 2842 1135 BC01     		.2byte	0x1bc
 2843 1137 2B       		.uleb128 0x2b
 2844 1138 81100000 		.4byte	0x1081
 2845 113c 97010000 		.4byte	.LLST11
 2846 1140 2B       		.uleb128 0x2b
 2847 1141 75100000 		.4byte	0x1075
 2848 1145 C6010000 		.4byte	.LLST13
 2849 1149 24       		.uleb128 0x24
 2850 114a 20010000 		.4byte	.LVL37
 2851 114e C3150000 		.4byte	0x15c3
 2852 1152 23       		.uleb128 0x23
 2853 1153 01       		.uleb128 0x1
 2854 1154 50       		.byte	0x50
 2855 1155 05       		.uleb128 0x5
 2856 1156 0C       		.byte	0xc
 2857 1157 00006640 		.4byte	0x40660000
 2858 115b 23       		.uleb128 0x23
 2859 115c 01       		.uleb128 0x1
 2860 115d 51       		.byte	0x51
 2861 115e 03       		.uleb128 0x3
 2862 115f 91       		.byte	0x91
 2863 1160 B47F     		.sleb128 -76
 2864 1162 00       		.byte	0
 2865 1163 00       		.byte	0
 2866 1164 00       		.byte	0
 2867 1165 2D       		.uleb128 0x2d
 2868 1166 00000000 		.4byte	.Ldebug_ranges0+0
 2869 116a 7C110000 		.4byte	0x117c
 2870 116e 1F       		.uleb128 0x1f
 2871 116f 6900     		.ascii	"i\000"
 2872 1171 01       		.byte	0x1
 2873 1172 E5       		.byte	0xe5
 2874 1173 25000000 		.4byte	0x25
 2875 1177 DE010000 		.4byte	.LLST14
 2876 117b 00       		.byte	0
 2877 117c 22       		.uleb128 0x22
 2878 117d 48000000 		.4byte	.LVL22
 2879 1181 BD0E0000 		.4byte	0xebd
 2880 1185 99110000 		.4byte	0x1199
 2881 1189 23       		.uleb128 0x23
 2882 118a 01       		.uleb128 0x1
 2883 118b 50       		.byte	0x50
 2884 118c 05       		.uleb128 0x5
 2885 118d 03       		.byte	0x3
 2886 118e 00000000 		.4byte	red_data
 2887 1192 23       		.uleb128 0x23
ARM GAS  C:\Users\nicpa\AppData\Local\Temp\ccHOh1Eg.s 			page 82


 2888 1193 01       		.uleb128 0x1
 2889 1194 51       		.byte	0x51
 2890 1195 02       		.uleb128 0x2
 2891 1196 75       		.byte	0x75
 2892 1197 00       		.sleb128 0
 2893 1198 00       		.byte	0
 2894 1199 22       		.uleb128 0x22
 2895 119a 52000000 		.4byte	.LVL23
 2896 119e BD0E0000 		.4byte	0xebd
 2897 11a2 B6110000 		.4byte	0x11b6
 2898 11a6 23       		.uleb128 0x23
 2899 11a7 01       		.uleb128 0x1
 2900 11a8 50       		.byte	0x50
 2901 11a9 05       		.uleb128 0x5
 2902 11aa 03       		.byte	0x3
 2903 11ab 00000000 		.4byte	ir_data
 2904 11af 23       		.uleb128 0x23
 2905 11b0 01       		.uleb128 0x1
 2906 11b1 51       		.byte	0x51
 2907 11b2 02       		.uleb128 0x2
 2908 11b3 74       		.byte	0x74
 2909 11b4 00       		.sleb128 0
 2910 11b5 00       		.byte	0
 2911 11b6 22       		.uleb128 0x22
 2912 11b7 58000000 		.4byte	.LVL24
 2913 11bb 28100000 		.4byte	0x1028
 2914 11bf CA110000 		.4byte	0x11ca
 2915 11c3 23       		.uleb128 0x23
 2916 11c4 01       		.uleb128 0x1
 2917 11c5 50       		.byte	0x50
 2918 11c6 02       		.uleb128 0x2
 2919 11c7 75       		.byte	0x75
 2920 11c8 00       		.sleb128 0
 2921 11c9 00       		.byte	0
 2922 11ca 22       		.uleb128 0x22
 2923 11cb 62000000 		.4byte	.LVL25
 2924 11cf 28100000 		.4byte	0x1028
 2925 11d3 DE110000 		.4byte	0x11de
 2926 11d7 23       		.uleb128 0x23
 2927 11d8 01       		.uleb128 0x1
 2928 11d9 50       		.byte	0x50
 2929 11da 02       		.uleb128 0x2
 2930 11db 74       		.byte	0x74
 2931 11dc 00       		.sleb128 0
 2932 11dd 00       		.byte	0
 2933 11de 22       		.uleb128 0x22
 2934 11df AC000000 		.4byte	.LVL29
 2935 11e3 B30F0000 		.4byte	0xfb3
 2936 11e7 F5110000 		.4byte	0x11f5
 2937 11eb 23       		.uleb128 0x23
 2938 11ec 01       		.uleb128 0x1
 2939 11ed 50       		.byte	0x50
 2940 11ee 05       		.uleb128 0x5
 2941 11ef 03       		.byte	0x3
 2942 11f0 00000000 		.4byte	signal_AC_R
 2943 11f4 00       		.byte	0
 2944 11f5 22       		.uleb128 0x22
ARM GAS  C:\Users\nicpa\AppData\Local\Temp\ccHOh1Eg.s 			page 83


 2945 11f6 B6000000 		.4byte	.LVL30
 2946 11fa B30F0000 		.4byte	0xfb3
 2947 11fe 0C120000 		.4byte	0x120c
 2948 1202 23       		.uleb128 0x23
 2949 1203 01       		.uleb128 0x1
 2950 1204 50       		.byte	0x50
 2951 1205 05       		.uleb128 0x5
 2952 1206 03       		.byte	0x3
 2953 1207 00000000 		.4byte	signal_AC_IF
 2954 120b 00       		.byte	0
 2955 120c 22       		.uleb128 0x22
 2956 120d 18010000 		.4byte	.LVL35
 2957 1211 CE150000 		.4byte	0x15ce
 2958 1215 35120000 		.4byte	0x1235
 2959 1219 23       		.uleb128 0x23
 2960 121a 01       		.uleb128 0x1
 2961 121b 50       		.byte	0x50
 2962 121c 03       		.uleb128 0x3
 2963 121d 91       		.byte	0x91
 2964 121e B47F     		.sleb128 -76
 2965 1220 23       		.uleb128 0x23
 2966 1221 01       		.uleb128 0x1
 2967 1222 51       		.byte	0x51
 2968 1223 05       		.uleb128 0x5
 2969 1224 03       		.byte	0x3
 2970 1225 00000000 		.4byte	.LC1
 2971 1229 23       		.uleb128 0x23
 2972 122a 01       		.uleb128 0x1
 2973 122b 52       		.byte	0x52
 2974 122c 07       		.uleb128 0x7
 2975 122d F5       		.byte	0xf5
 2976 122e 50       		.uleb128 0x50
 2977 122f 2C       		.uleb128 0x2c
 2978 1230 F7       		.byte	0xf7
 2979 1231 25       		.uleb128 0x25
 2980 1232 F7       		.byte	0xf7
 2981 1233 00       		.uleb128 0
 2982 1234 00       		.byte	0
 2983 1235 24       		.uleb128 0x24
 2984 1236 2E020000 		.4byte	.LVL44
 2985 123a D9150000 		.4byte	0x15d9
 2986 123e 23       		.uleb128 0x23
 2987 123f 01       		.uleb128 0x1
 2988 1240 50       		.byte	0x50
 2989 1241 03       		.uleb128 0x3
 2990 1242 0A       		.byte	0xa
 2991 1243 D007     		.2byte	0x7d0
 2992 1245 00       		.byte	0
 2993 1246 00       		.byte	0
 2994 1247 22       		.uleb128 0x22
 2995 1248 38020000 		.4byte	.LVL45
 2996 124c D9150000 		.4byte	0x15d9
 2997 1250 5C120000 		.4byte	0x125c
 2998 1254 23       		.uleb128 0x23
 2999 1255 01       		.uleb128 0x1
 3000 1256 50       		.byte	0x50
 3001 1257 03       		.uleb128 0x3
ARM GAS  C:\Users\nicpa\AppData\Local\Temp\ccHOh1Eg.s 			page 84


 3002 1258 0A       		.byte	0xa
 3003 1259 E803     		.2byte	0x3e8
 3004 125b 00       		.byte	0
 3005 125c 24       		.uleb128 0x24
 3006 125d 46020000 		.4byte	.LVL46
 3007 1261 D9150000 		.4byte	0x15d9
 3008 1265 23       		.uleb128 0x23
 3009 1266 01       		.uleb128 0x1
 3010 1267 50       		.byte	0x50
 3011 1268 03       		.uleb128 0x3
 3012 1269 0A       		.byte	0xa
 3013 126a D007     		.2byte	0x7d0
 3014 126c 00       		.byte	0
 3015 126d 00       		.byte	0
 3016 126e 07       		.uleb128 0x7
 3017 126f FD090000 		.4byte	0x9fd
 3018 1273 7E120000 		.4byte	0x127e
 3019 1277 08       		.uleb128 0x8
 3020 1278 E0000000 		.4byte	0xe0
 3021 127c 31       		.byte	0x31
 3022 127d 00       		.byte	0
 3023 127e 07       		.uleb128 0x7
 3024 127f 230A0000 		.4byte	0xa23
 3025 1283 8E120000 		.4byte	0x128e
 3026 1287 08       		.uleb128 0x8
 3027 1288 E0000000 		.4byte	0xe0
 3028 128c 03       		.byte	0x3
 3029 128d 00       		.byte	0
 3030 128e 07       		.uleb128 0x7
 3031 128f 040A0000 		.4byte	0xa04
 3032 1293 9E120000 		.4byte	0x129e
 3033 1297 08       		.uleb128 0x8
 3034 1298 E0000000 		.4byte	0xe0
 3035 129c 32       		.byte	0x32
 3036 129d 00       		.byte	0
 3037 129e 1E       		.uleb128 0x1e
 3038 129f 52070000 		.4byte	.LASF275
 3039 12a3 01       		.byte	0x1
 3040 12a4 14       		.byte	0x14
 3041 12a5 8E120000 		.4byte	0x128e
 3042 12a9 05       		.uleb128 0x5
 3043 12aa 03       		.byte	0x3
 3044 12ab 00000000 		.4byte	firStateF32
 3045 12af 2E       		.uleb128 0x2e
 3046 12b0 45070000 		.4byte	.LASF276
 3047 12b4 0F       		.byte	0xf
 3048 12b5 0108     		.2byte	0x801
 3049 12b7 BB120000 		.4byte	0x12bb
 3050 12bb 05       		.uleb128 0x5
 3051 12bc CA000000 		.4byte	0xca
 3052 12c0 2F       		.uleb128 0x2f
 3053 12c1 5D000000 		.4byte	.LASF277
 3054 12c5 07       		.byte	0x7
 3055 12c6 A7       		.byte	0xa7
 3056 12c7 CB120000 		.4byte	0x12cb
 3057 12cb 12       		.uleb128 0x12
 3058 12cc 04       		.byte	0x4
ARM GAS  C:\Users\nicpa\AppData\Local\Temp\ccHOh1Eg.s 			page 85


 3059 12cd D1120000 		.4byte	0x12d1
 3060 12d1 06       		.uleb128 0x6
 3061 12d2 E6090000 		.4byte	0x9e6
 3062 12d6 2F       		.uleb128 0x2f
 3063 12d7 AC000000 		.4byte	.LASF278
 3064 12db 10       		.byte	0x10
 3065 12dc 5E       		.byte	0x5e
 3066 12dd 610C0000 		.4byte	0xc61
 3067 12e1 2F       		.uleb128 0x2f
 3068 12e2 64090000 		.4byte	.LASF279
 3069 12e6 11       		.byte	0x11
 3070 12e7 1F       		.byte	0x1f
 3071 12e8 EC120000 		.4byte	0x12ec
 3072 12ec 06       		.uleb128 0x6
 3073 12ed 3A0E0000 		.4byte	0xe3a
 3074 12f1 2F       		.uleb128 0x2f
 3075 12f2 27010000 		.4byte	.LASF280
 3076 12f6 12       		.byte	0x12
 3077 12f7 7F       		.byte	0x7f
 3078 12f8 C60B0000 		.4byte	0xbc6
 3079 12fc 2F       		.uleb128 0x2f
 3080 12fd BE100000 		.4byte	.LASF281
 3081 1301 13       		.byte	0x13
 3082 1302 7F       		.byte	0x7f
 3083 1303 C60B0000 		.4byte	0xbc6
 3084 1307 2F       		.uleb128 0x2f
 3085 1308 07100000 		.4byte	.LASF282
 3086 130c 0E       		.byte	0xe
 3087 130d 87       		.byte	0x87
 3088 130e 3D0D0000 		.4byte	0xd3d
 3089 1312 07       		.uleb128 0x7
 3090 1313 230A0000 		.4byte	0xa23
 3091 1317 23130000 		.4byte	0x1323
 3092 131b 09       		.uleb128 0x9
 3093 131c E0000000 		.4byte	0xe0
 3094 1320 E703     		.2byte	0x3e7
 3095 1322 00       		.byte	0
 3096 1323 30       		.uleb128 0x30
 3097 1324 91080000 		.4byte	.LASF283
 3098 1328 14       		.byte	0x14
 3099 1329 17       		.byte	0x17
 3100 132a 12130000 		.4byte	0x1312
 3101 132e 05       		.uleb128 0x5
 3102 132f 03       		.byte	0x3
 3103 1330 00000000 		.4byte	red_data
 3104 1334 30       		.uleb128 0x30
 3105 1335 C4090000 		.4byte	.LASF284
 3106 1339 14       		.byte	0x14
 3107 133a 18       		.byte	0x18
 3108 133b 12130000 		.4byte	0x1312
 3109 133f 05       		.uleb128 0x5
 3110 1340 03       		.byte	0x3
 3111 1341 00000000 		.4byte	ir_data
 3112 1345 30       		.uleb128 0x30
 3113 1346 F4000000 		.4byte	.LASF285
 3114 134a 14       		.byte	0x14
 3115 134b 19       		.byte	0x19
ARM GAS  C:\Users\nicpa\AppData\Local\Temp\ccHOh1Eg.s 			page 86


 3116 134c 310A0000 		.4byte	0xa31
 3117 1350 05       		.uleb128 0x5
 3118 1351 03       		.byte	0x3
 3119 1352 00000000 		.4byte	read_flag_MAX
 3120 1356 30       		.uleb128 0x30
 3121 1357 C70F0000 		.4byte	.LASF286
 3122 135b 14       		.byte	0x14
 3123 135c 1A       		.byte	0x1a
 3124 135d 25000000 		.4byte	0x25
 3125 1361 05       		.uleb128 0x5
 3126 1362 03       		.byte	0x3
 3127 1363 00000000 		.4byte	write_idx_MAX
 3128 1367 2F       		.uleb128 0x2f
 3129 1368 DC090000 		.4byte	.LASF287
 3130 136c 15       		.byte	0x15
 3131 136d 19       		.byte	0x19
 3132 136e 72130000 		.4byte	0x1372
 3133 1372 06       		.uleb128 0x6
 3134 1373 A9000000 		.4byte	0xa9
 3135 1377 2F       		.uleb128 0x2f
 3136 1378 CE0D0000 		.4byte	.LASF288
 3137 137c 15       		.byte	0x15
 3138 137d 1A       		.byte	0x1a
 3139 137e 72130000 		.4byte	0x1372
 3140 1382 30       		.uleb128 0x30
 3141 1383 65110000 		.4byte	.LASF289
 3142 1387 15       		.byte	0x15
 3143 1388 27       		.byte	0x27
 3144 1389 A9000000 		.4byte	0xa9
 3145 138d 05       		.uleb128 0x5
 3146 138e 03       		.byte	0x3
 3147 138f 00000000 		.4byte	currentpage
 3148 1393 30       		.uleb128 0x30
 3149 1394 C1000000 		.4byte	.LASF290
 3150 1398 15       		.byte	0x15
 3151 1399 28       		.byte	0x28
 3152 139a A9000000 		.4byte	0xa9
 3153 139e 05       		.uleb128 0x5
 3154 139f 03       		.byte	0x3
 3155 13a0 00000000 		.4byte	currenttouch
 3156 13a4 30       		.uleb128 0x30
 3157 13a5 F20E0000 		.4byte	.LASF291
 3158 13a9 15       		.byte	0x15
 3159 13aa 29       		.byte	0x29
 3160 13ab 310A0000 		.4byte	0xa31
 3161 13af 05       		.uleb128 0x5
 3162 13b0 03       		.byte	0x3
 3163 13b1 00000000 		.4byte	alerte
 3164 13b5 31       		.uleb128 0x31
 3165 13b6 4C454400 		.ascii	"LED\000"
 3166 13ba 15       		.byte	0x15
 3167 13bb 2C       		.byte	0x2c
 3168 13bc D5000000 		.4byte	0xd5
 3169 13c0 05       		.uleb128 0x5
 3170 13c1 03       		.byte	0x3
 3171 13c2 00000000 		.4byte	LED
 3172 13c6 30       		.uleb128 0x30
ARM GAS  C:\Users\nicpa\AppData\Local\Temp\ccHOh1Eg.s 			page 87


 3173 13c7 CC050000 		.4byte	.LASF292
 3174 13cb 15       		.byte	0x15
 3175 13cc 2F       		.byte	0x2f
 3176 13cd 310A0000 		.4byte	0xa31
 3177 13d1 05       		.uleb128 0x5
 3178 13d2 03       		.byte	0x3
 3179 13d3 00000000 		.4byte	maxormin
 3180 13d7 30       		.uleb128 0x30
 3181 13d8 43040000 		.4byte	.LASF293
 3182 13dc 15       		.byte	0x15
 3183 13dd 30       		.byte	0x30
 3184 13de D5000000 		.4byte	0xd5
 3185 13e2 05       		.uleb128 0x5
 3186 13e3 03       		.byte	0x3
 3187 13e4 00000000 		.4byte	hrmax
 3188 13e8 30       		.uleb128 0x30
 3189 13e9 990D0000 		.4byte	.LASF294
 3190 13ed 15       		.byte	0x15
 3191 13ee 31       		.byte	0x31
 3192 13ef D5000000 		.4byte	0xd5
 3193 13f3 05       		.uleb128 0x5
 3194 13f4 03       		.byte	0x3
 3195 13f5 00000000 		.4byte	hrmin
 3196 13f9 07       		.uleb128 0x7
 3197 13fa 040A0000 		.4byte	0xa04
 3198 13fe 0A140000 		.4byte	0x140a
 3199 1402 09       		.uleb128 0x9
 3200 1403 E0000000 		.4byte	0xe0
 3201 1407 E703     		.2byte	0x3e7
 3202 1409 00       		.byte	0
 3203 140a 30       		.uleb128 0x30
 3204 140b ED0F0000 		.4byte	.LASF295
 3205 140f 16       		.byte	0x16
 3206 1410 16       		.byte	0x16
 3207 1411 F9130000 		.4byte	0x13f9
 3208 1415 05       		.uleb128 0x5
 3209 1416 03       		.byte	0x3
 3210 1417 00000000 		.4byte	signal_R
 3211 141b 30       		.uleb128 0x30
 3212 141c AB040000 		.4byte	.LASF296
 3213 1420 16       		.byte	0x16
 3214 1421 17       		.byte	0x17
 3215 1422 F9130000 		.4byte	0x13f9
 3216 1426 05       		.uleb128 0x5
 3217 1427 03       		.byte	0x3
 3218 1428 00000000 		.4byte	signal_IF
 3219 142c 30       		.uleb128 0x30
 3220 142d 67000000 		.4byte	.LASF297
 3221 1431 16       		.byte	0x16
 3222 1432 18       		.byte	0x18
 3223 1433 F9130000 		.4byte	0x13f9
 3224 1437 05       		.uleb128 0x5
 3225 1438 03       		.byte	0x3
 3226 1439 00000000 		.4byte	signal_AC_R
 3227 143d 30       		.uleb128 0x30
 3228 143e E00F0000 		.4byte	.LASF298
 3229 1442 16       		.byte	0x16
ARM GAS  C:\Users\nicpa\AppData\Local\Temp\ccHOh1Eg.s 			page 88


 3230 1443 19       		.byte	0x19
 3231 1444 F9130000 		.4byte	0x13f9
 3232 1448 05       		.uleb128 0x5
 3233 1449 03       		.byte	0x3
 3234 144a 00000000 		.4byte	signal_AC_IF
 3235 144e 30       		.uleb128 0x30
 3236 144f 4A110000 		.4byte	.LASF299
 3237 1453 16       		.byte	0x16
 3238 1454 1B       		.byte	0x1b
 3239 1455 230A0000 		.4byte	0xa23
 3240 1459 05       		.uleb128 0x5
 3241 145a 03       		.byte	0x3
 3242 145b 00000000 		.4byte	AC_R
 3243 145f 30       		.uleb128 0x30
 3244 1460 BE090000 		.4byte	.LASF300
 3245 1464 16       		.byte	0x16
 3246 1465 1C       		.byte	0x1c
 3247 1466 230A0000 		.4byte	0xa23
 3248 146a 05       		.uleb128 0x5
 3249 146b 03       		.byte	0x3
 3250 146c 00000000 		.4byte	AC_IF
 3251 1470 30       		.uleb128 0x30
 3252 1471 280D0000 		.4byte	.LASF301
 3253 1475 16       		.byte	0x16
 3254 1476 1D       		.byte	0x1d
 3255 1477 230A0000 		.4byte	0xa23
 3256 147b 05       		.uleb128 0x5
 3257 147c 03       		.byte	0x3
 3258 147d 00000000 		.4byte	DC_R
 3259 1481 30       		.uleb128 0x30
 3260 1482 CE080000 		.4byte	.LASF302
 3261 1486 16       		.byte	0x16
 3262 1487 1E       		.byte	0x1e
 3263 1488 230A0000 		.4byte	0xa23
 3264 148c 05       		.uleb128 0x5
 3265 148d 03       		.byte	0x3
 3266 148e 00000000 		.4byte	DC_IF
 3267 1492 31       		.uleb128 0x31
 3268 1493 5300     		.ascii	"S\000"
 3269 1495 16       		.byte	0x16
 3270 1496 1F       		.byte	0x1f
 3271 1497 230A0000 		.4byte	0xa23
 3272 149b 05       		.uleb128 0x5
 3273 149c 03       		.byte	0x3
 3274 149d 00000000 		.4byte	S
 3275 14a1 31       		.uleb128 0x31
 3276 14a2 5200     		.ascii	"R\000"
 3277 14a4 16       		.byte	0x16
 3278 14a5 20       		.byte	0x20
 3279 14a6 230A0000 		.4byte	0xa23
 3280 14aa 05       		.uleb128 0x5
 3281 14ab 03       		.byte	0x3
 3282 14ac 00000000 		.4byte	R
 3283 14b0 31       		.uleb128 0x31
 3284 14b1 42504D00 		.ascii	"BPM\000"
 3285 14b5 16       		.byte	0x16
 3286 14b6 23       		.byte	0x23
ARM GAS  C:\Users\nicpa\AppData\Local\Temp\ccHOh1Eg.s 			page 89


 3287 14b7 230A0000 		.4byte	0xa23
 3288 14bb 05       		.uleb128 0x5
 3289 14bc 03       		.byte	0x3
 3290 14bd 00000000 		.4byte	BPM
 3291 14c1 30       		.uleb128 0x30
 3292 14c2 C30A0000 		.4byte	.LASF303
 3293 14c6 01       		.byte	0x1
 3294 14c7 16       		.byte	0x16
 3295 14c8 D5000000 		.4byte	0xd5
 3296 14cc 05       		.uleb128 0x5
 3297 14cd 03       		.byte	0x3
 3298 14ce 00000000 		.4byte	blockSize
 3299 14d2 30       		.uleb128 0x30
 3300 14d3 B70F0000 		.4byte	.LASF304
 3301 14d7 01       		.byte	0x1
 3302 14d8 17       		.byte	0x17
 3303 14d9 D5000000 		.4byte	0xd5
 3304 14dd 05       		.uleb128 0x5
 3305 14de 03       		.byte	0x3
 3306 14df 00000000 		.4byte	numBlocks
 3307 14e3 30       		.uleb128 0x30
 3308 14e4 3A0F0000 		.4byte	.LASF305
 3309 14e8 01       		.byte	0x1
 3310 14e9 46       		.byte	0x46
 3311 14ea 230A0000 		.4byte	0xa23
 3312 14ee 05       		.uleb128 0x5
 3313 14ef 03       		.byte	0x3
 3314 14f0 00000000 		.4byte	AC_valeur
 3315 14f4 30       		.uleb128 0x30
 3316 14f5 B1100000 		.4byte	.LASF306
 3317 14f9 01       		.byte	0x1
 3318 14fa 47       		.byte	0x47
 3319 14fb 2C000000 		.4byte	0x2c
 3320 14ff 05       		.uleb128 0x5
 3321 1500 03       		.byte	0x3
 3322 1501 00000000 		.4byte	max_AC
 3323 1505 30       		.uleb128 0x30
 3324 1506 2C080000 		.4byte	.LASF307
 3325 150a 01       		.byte	0x1
 3326 150b 48       		.byte	0x48
 3327 150c D5000000 		.4byte	0xd5
 3328 1510 05       		.uleb128 0x5
 3329 1511 03       		.byte	0x3
 3330 1512 00000000 		.4byte	indexmax_AC
 3331 1516 30       		.uleb128 0x30
 3332 1517 AA070000 		.4byte	.LASF308
 3333 151b 01       		.byte	0x1
 3334 151c 49       		.byte	0x49
 3335 151d 2C000000 		.4byte	0x2c
 3336 1521 05       		.uleb128 0x5
 3337 1522 03       		.byte	0x3
 3338 1523 00000000 		.4byte	min_AC
 3339 1527 30       		.uleb128 0x30
 3340 1528 9C0F0000 		.4byte	.LASF309
 3341 152c 01       		.byte	0x1
 3342 152d 4A       		.byte	0x4a
 3343 152e D5000000 		.4byte	0xd5
ARM GAS  C:\Users\nicpa\AppData\Local\Temp\ccHOh1Eg.s 			page 90


 3344 1532 05       		.uleb128 0x5
 3345 1533 03       		.byte	0x3
 3346 1534 00000000 		.4byte	indexmin_AC
 3347 1538 31       		.uleb128 0x31
 3348 1539 6B00     		.ascii	"k\000"
 3349 153b 01       		.byte	0x1
 3350 153c 4B       		.byte	0x4b
 3351 153d 25000000 		.4byte	0x25
 3352 1541 05       		.uleb128 0x5
 3353 1542 03       		.byte	0x3
 3354 1543 00000000 		.4byte	k
 3355 1547 07       		.uleb128 0x7
 3356 1548 2C000000 		.4byte	0x2c
 3357 154c 58150000 		.4byte	0x1558
 3358 1550 09       		.uleb128 0x9
 3359 1551 E0000000 		.4byte	0xe0
 3360 1555 E703     		.2byte	0x3e7
 3361 1557 00       		.byte	0
 3362 1558 30       		.uleb128 0x30
 3363 1559 530D0000 		.4byte	.LASF310
 3364 155d 01       		.byte	0x1
 3365 155e 4C       		.byte	0x4c
 3366 155f 47150000 		.4byte	0x1547
 3367 1563 05       		.uleb128 0x5
 3368 1564 03       		.byte	0x3
 3369 1565 00000000 		.4byte	AC_1000
 3370 1569 31       		.uleb128 0x31
 3371 156a 444300   		.ascii	"DC\000"
 3372 156d 01       		.byte	0x1
 3373 156e 75       		.byte	0x75
 3374 156f 230A0000 		.4byte	0xa23
 3375 1573 05       		.uleb128 0x5
 3376 1574 03       		.byte	0x3
 3377 1575 00000000 		.4byte	DC
 3378 1579 30       		.uleb128 0x30
 3379 157a 74100000 		.4byte	.LASF311
 3380 157e 01       		.byte	0x1
 3381 157f 76       		.byte	0x76
 3382 1580 230A0000 		.4byte	0xa23
 3383 1584 05       		.uleb128 0x5
 3384 1585 03       		.byte	0x3
 3385 1586 00000000 		.4byte	moyenne_DC
 3386 158a 32       		.uleb128 0x32
 3387 158b 6D100000 		.4byte	.LASF323
 3388 158f 6D100000 		.4byte	.LASF323
 3389 1593 33       		.uleb128 0x33
 3390 1594 080B0000 		.4byte	.LASF312
 3391 1598 080B0000 		.4byte	.LASF312
 3392 159c 0C       		.byte	0xc
 3393 159d A604     		.2byte	0x4a6
 3394 159f 33       		.uleb128 0x33
 3395 15a0 6E040000 		.4byte	.LASF313
 3396 15a4 6E040000 		.4byte	.LASF313
 3397 15a8 0C       		.byte	0xc
 3398 15a9 9704     		.2byte	0x497
 3399 15ab 33       		.uleb128 0x33
 3400 15ac EB030000 		.4byte	.LASF314
ARM GAS  C:\Users\nicpa\AppData\Local\Temp\ccHOh1Eg.s 			page 91


 3401 15b0 EB030000 		.4byte	.LASF314
 3402 15b4 0C       		.byte	0xc
 3403 15b5 7619     		.2byte	0x1976
 3404 15b7 33       		.uleb128 0x33
 3405 15b8 9A080000 		.4byte	.LASF315
 3406 15bc 9A080000 		.4byte	.LASF315
 3407 15c0 0C       		.byte	0xc
 3408 15c1 3E19     		.2byte	0x193e
 3409 15c3 34       		.uleb128 0x34
 3410 15c4 23050000 		.4byte	.LASF316
 3411 15c8 23050000 		.4byte	.LASF316
 3412 15cc 17       		.byte	0x17
 3413 15cd E3       		.byte	0xe3
 3414 15ce 34       		.uleb128 0x34
 3415 15cf A30B0000 		.4byte	.LASF317
 3416 15d3 A30B0000 		.4byte	.LASF317
 3417 15d7 18       		.byte	0x18
 3418 15d8 E7       		.byte	0xe7
 3419 15d9 33       		.uleb128 0x33
 3420 15da DD060000 		.4byte	.LASF318
 3421 15de DD060000 		.4byte	.LASF318
 3422 15e2 19       		.byte	0x19
 3423 15e3 ED02     		.2byte	0x2ed
 3424 15e5 00       		.byte	0
 3425              		.section	.debug_abbrev,"",%progbits
 3426              	.Ldebug_abbrev0:
 3427 0000 01       		.uleb128 0x1
 3428 0001 11       		.uleb128 0x11
 3429 0002 01       		.byte	0x1
 3430 0003 25       		.uleb128 0x25
 3431 0004 0E       		.uleb128 0xe
 3432 0005 13       		.uleb128 0x13
 3433 0006 0B       		.uleb128 0xb
 3434 0007 03       		.uleb128 0x3
 3435 0008 0E       		.uleb128 0xe
 3436 0009 1B       		.uleb128 0x1b
 3437 000a 0E       		.uleb128 0xe
 3438 000b 55       		.uleb128 0x55
 3439 000c 17       		.uleb128 0x17
 3440 000d 11       		.uleb128 0x11
 3441 000e 01       		.uleb128 0x1
 3442 000f 10       		.uleb128 0x10
 3443 0010 17       		.uleb128 0x17
 3444 0011 00       		.byte	0
 3445 0012 00       		.byte	0
 3446 0013 02       		.uleb128 0x2
 3447 0014 24       		.uleb128 0x24
 3448 0015 00       		.byte	0
 3449 0016 0B       		.uleb128 0xb
 3450 0017 0B       		.uleb128 0xb
 3451 0018 3E       		.uleb128 0x3e
 3452 0019 0B       		.uleb128 0xb
 3453 001a 03       		.uleb128 0x3
 3454 001b 08       		.uleb128 0x8
 3455 001c 00       		.byte	0
 3456 001d 00       		.byte	0
 3457 001e 03       		.uleb128 0x3
ARM GAS  C:\Users\nicpa\AppData\Local\Temp\ccHOh1Eg.s 			page 92


 3458 001f 24       		.uleb128 0x24
 3459 0020 00       		.byte	0
 3460 0021 0B       		.uleb128 0xb
 3461 0022 0B       		.uleb128 0xb
 3462 0023 3E       		.uleb128 0x3e
 3463 0024 0B       		.uleb128 0xb
 3464 0025 03       		.uleb128 0x3
 3465 0026 0E       		.uleb128 0xe
 3466 0027 00       		.byte	0
 3467 0028 00       		.byte	0
 3468 0029 04       		.uleb128 0x4
 3469 002a 16       		.uleb128 0x16
 3470 002b 00       		.byte	0
 3471 002c 03       		.uleb128 0x3
 3472 002d 0E       		.uleb128 0xe
 3473 002e 3A       		.uleb128 0x3a
 3474 002f 0B       		.uleb128 0xb
 3475 0030 3B       		.uleb128 0x3b
 3476 0031 0B       		.uleb128 0xb
 3477 0032 49       		.uleb128 0x49
 3478 0033 13       		.uleb128 0x13
 3479 0034 00       		.byte	0
 3480 0035 00       		.byte	0
 3481 0036 05       		.uleb128 0x5
 3482 0037 35       		.uleb128 0x35
 3483 0038 00       		.byte	0
 3484 0039 49       		.uleb128 0x49
 3485 003a 13       		.uleb128 0x13
 3486 003b 00       		.byte	0
 3487 003c 00       		.byte	0
 3488 003d 06       		.uleb128 0x6
 3489 003e 26       		.uleb128 0x26
 3490 003f 00       		.byte	0
 3491 0040 49       		.uleb128 0x49
 3492 0041 13       		.uleb128 0x13
 3493 0042 00       		.byte	0
 3494 0043 00       		.byte	0
 3495 0044 07       		.uleb128 0x7
 3496 0045 01       		.uleb128 0x1
 3497 0046 01       		.byte	0x1
 3498 0047 49       		.uleb128 0x49
 3499 0048 13       		.uleb128 0x13
 3500 0049 01       		.uleb128 0x1
 3501 004a 13       		.uleb128 0x13
 3502 004b 00       		.byte	0
 3503 004c 00       		.byte	0
 3504 004d 08       		.uleb128 0x8
 3505 004e 21       		.uleb128 0x21
 3506 004f 00       		.byte	0
 3507 0050 49       		.uleb128 0x49
 3508 0051 13       		.uleb128 0x13
 3509 0052 2F       		.uleb128 0x2f
 3510 0053 0B       		.uleb128 0xb
 3511 0054 00       		.byte	0
 3512 0055 00       		.byte	0
 3513 0056 09       		.uleb128 0x9
 3514 0057 21       		.uleb128 0x21
ARM GAS  C:\Users\nicpa\AppData\Local\Temp\ccHOh1Eg.s 			page 93


 3515 0058 00       		.byte	0
 3516 0059 49       		.uleb128 0x49
 3517 005a 13       		.uleb128 0x13
 3518 005b 2F       		.uleb128 0x2f
 3519 005c 05       		.uleb128 0x5
 3520 005d 00       		.byte	0
 3521 005e 00       		.byte	0
 3522 005f 0A       		.uleb128 0xa
 3523 0060 13       		.uleb128 0x13
 3524 0061 01       		.byte	0x1
 3525 0062 0B       		.uleb128 0xb
 3526 0063 05       		.uleb128 0x5
 3527 0064 3A       		.uleb128 0x3a
 3528 0065 0B       		.uleb128 0xb
 3529 0066 3B       		.uleb128 0x3b
 3530 0067 0B       		.uleb128 0xb
 3531 0068 01       		.uleb128 0x1
 3532 0069 13       		.uleb128 0x13
 3533 006a 00       		.byte	0
 3534 006b 00       		.byte	0
 3535 006c 0B       		.uleb128 0xb
 3536 006d 0D       		.uleb128 0xd
 3537 006e 00       		.byte	0
 3538 006f 03       		.uleb128 0x3
 3539 0070 0E       		.uleb128 0xe
 3540 0071 3A       		.uleb128 0x3a
 3541 0072 0B       		.uleb128 0xb
 3542 0073 3B       		.uleb128 0x3b
 3543 0074 0B       		.uleb128 0xb
 3544 0075 49       		.uleb128 0x49
 3545 0076 13       		.uleb128 0x13
 3546 0077 38       		.uleb128 0x38
 3547 0078 0B       		.uleb128 0xb
 3548 0079 00       		.byte	0
 3549 007a 00       		.byte	0
 3550 007b 0C       		.uleb128 0xc
 3551 007c 0D       		.uleb128 0xd
 3552 007d 00       		.byte	0
 3553 007e 03       		.uleb128 0x3
 3554 007f 0E       		.uleb128 0xe
 3555 0080 3A       		.uleb128 0x3a
 3556 0081 0B       		.uleb128 0xb
 3557 0082 3B       		.uleb128 0x3b
 3558 0083 0B       		.uleb128 0xb
 3559 0084 49       		.uleb128 0x49
 3560 0085 13       		.uleb128 0x13
 3561 0086 38       		.uleb128 0x38
 3562 0087 05       		.uleb128 0x5
 3563 0088 00       		.byte	0
 3564 0089 00       		.byte	0
 3565 008a 0D       		.uleb128 0xd
 3566 008b 16       		.uleb128 0x16
 3567 008c 00       		.byte	0
 3568 008d 03       		.uleb128 0x3
 3569 008e 0E       		.uleb128 0xe
 3570 008f 3A       		.uleb128 0x3a
 3571 0090 0B       		.uleb128 0xb
ARM GAS  C:\Users\nicpa\AppData\Local\Temp\ccHOh1Eg.s 			page 94


 3572 0091 3B       		.uleb128 0x3b
 3573 0092 05       		.uleb128 0x5
 3574 0093 49       		.uleb128 0x49
 3575 0094 13       		.uleb128 0x13
 3576 0095 00       		.byte	0
 3577 0096 00       		.byte	0
 3578 0097 0E       		.uleb128 0xe
 3579 0098 13       		.uleb128 0x13
 3580 0099 01       		.byte	0x1
 3581 009a 0B       		.uleb128 0xb
 3582 009b 0B       		.uleb128 0xb
 3583 009c 3A       		.uleb128 0x3a
 3584 009d 0B       		.uleb128 0xb
 3585 009e 3B       		.uleb128 0x3b
 3586 009f 0B       		.uleb128 0xb
 3587 00a0 01       		.uleb128 0x1
 3588 00a1 13       		.uleb128 0x13
 3589 00a2 00       		.byte	0
 3590 00a3 00       		.byte	0
 3591 00a4 0F       		.uleb128 0xf
 3592 00a5 0F       		.uleb128 0xf
 3593 00a6 00       		.byte	0
 3594 00a7 0B       		.uleb128 0xb
 3595 00a8 0B       		.uleb128 0xb
 3596 00a9 00       		.byte	0
 3597 00aa 00       		.byte	0
 3598 00ab 10       		.uleb128 0x10
 3599 00ac 04       		.uleb128 0x4
 3600 00ad 01       		.byte	0x1
 3601 00ae 0B       		.uleb128 0xb
 3602 00af 0B       		.uleb128 0xb
 3603 00b0 49       		.uleb128 0x49
 3604 00b1 13       		.uleb128 0x13
 3605 00b2 3A       		.uleb128 0x3a
 3606 00b3 0B       		.uleb128 0xb
 3607 00b4 3B       		.uleb128 0x3b
 3608 00b5 05       		.uleb128 0x5
 3609 00b6 01       		.uleb128 0x1
 3610 00b7 13       		.uleb128 0x13
 3611 00b8 00       		.byte	0
 3612 00b9 00       		.byte	0
 3613 00ba 11       		.uleb128 0x11
 3614 00bb 28       		.uleb128 0x28
 3615 00bc 00       		.byte	0
 3616 00bd 03       		.uleb128 0x3
 3617 00be 0E       		.uleb128 0xe
 3618 00bf 1C       		.uleb128 0x1c
 3619 00c0 0B       		.uleb128 0xb
 3620 00c1 00       		.byte	0
 3621 00c2 00       		.byte	0
 3622 00c3 12       		.uleb128 0x12
 3623 00c4 0F       		.uleb128 0xf
 3624 00c5 00       		.byte	0
 3625 00c6 0B       		.uleb128 0xb
 3626 00c7 0B       		.uleb128 0xb
 3627 00c8 49       		.uleb128 0x49
 3628 00c9 13       		.uleb128 0x13
ARM GAS  C:\Users\nicpa\AppData\Local\Temp\ccHOh1Eg.s 			page 95


 3629 00ca 00       		.byte	0
 3630 00cb 00       		.byte	0
 3631 00cc 13       		.uleb128 0x13
 3632 00cd 15       		.uleb128 0x15
 3633 00ce 01       		.byte	0x1
 3634 00cf 27       		.uleb128 0x27
 3635 00d0 19       		.uleb128 0x19
 3636 00d1 01       		.uleb128 0x1
 3637 00d2 13       		.uleb128 0x13
 3638 00d3 00       		.byte	0
 3639 00d4 00       		.byte	0
 3640 00d5 14       		.uleb128 0x14
 3641 00d6 05       		.uleb128 0x5
 3642 00d7 00       		.byte	0
 3643 00d8 49       		.uleb128 0x49
 3644 00d9 13       		.uleb128 0x13
 3645 00da 00       		.byte	0
 3646 00db 00       		.byte	0
 3647 00dc 15       		.uleb128 0x15
 3648 00dd 15       		.uleb128 0x15
 3649 00de 01       		.byte	0x1
 3650 00df 27       		.uleb128 0x27
 3651 00e0 19       		.uleb128 0x19
 3652 00e1 49       		.uleb128 0x49
 3653 00e2 13       		.uleb128 0x13
 3654 00e3 01       		.uleb128 0x1
 3655 00e4 13       		.uleb128 0x13
 3656 00e5 00       		.byte	0
 3657 00e6 00       		.byte	0
 3658 00e7 16       		.uleb128 0x16
 3659 00e8 13       		.uleb128 0x13
 3660 00e9 01       		.byte	0x1
 3661 00ea 03       		.uleb128 0x3
 3662 00eb 0E       		.uleb128 0xe
 3663 00ec 0B       		.uleb128 0xb
 3664 00ed 0B       		.uleb128 0xb
 3665 00ee 3A       		.uleb128 0x3a
 3666 00ef 0B       		.uleb128 0xb
 3667 00f0 3B       		.uleb128 0x3b
 3668 00f1 05       		.uleb128 0x5
 3669 00f2 01       		.uleb128 0x1
 3670 00f3 13       		.uleb128 0x13
 3671 00f4 00       		.byte	0
 3672 00f5 00       		.byte	0
 3673 00f6 17       		.uleb128 0x17
 3674 00f7 0D       		.uleb128 0xd
 3675 00f8 00       		.byte	0
 3676 00f9 03       		.uleb128 0x3
 3677 00fa 0E       		.uleb128 0xe
 3678 00fb 3A       		.uleb128 0x3a
 3679 00fc 0B       		.uleb128 0xb
 3680 00fd 3B       		.uleb128 0x3b
 3681 00fe 05       		.uleb128 0x5
 3682 00ff 49       		.uleb128 0x49
 3683 0100 13       		.uleb128 0x13
 3684 0101 38       		.uleb128 0x38
 3685 0102 0B       		.uleb128 0xb
ARM GAS  C:\Users\nicpa\AppData\Local\Temp\ccHOh1Eg.s 			page 96


 3686 0103 00       		.byte	0
 3687 0104 00       		.byte	0
 3688 0105 18       		.uleb128 0x18
 3689 0106 13       		.uleb128 0x13
 3690 0107 01       		.byte	0x1
 3691 0108 03       		.uleb128 0x3
 3692 0109 0E       		.uleb128 0xe
 3693 010a 0B       		.uleb128 0xb
 3694 010b 0B       		.uleb128 0xb
 3695 010c 3A       		.uleb128 0x3a
 3696 010d 0B       		.uleb128 0xb
 3697 010e 3B       		.uleb128 0x3b
 3698 010f 0B       		.uleb128 0xb
 3699 0110 01       		.uleb128 0x1
 3700 0111 13       		.uleb128 0x13
 3701 0112 00       		.byte	0
 3702 0113 00       		.byte	0
 3703 0114 19       		.uleb128 0x19
 3704 0115 13       		.uleb128 0x13
 3705 0116 01       		.byte	0x1
 3706 0117 0B       		.uleb128 0xb
 3707 0118 0B       		.uleb128 0xb
 3708 0119 3A       		.uleb128 0x3a
 3709 011a 0B       		.uleb128 0xb
 3710 011b 3B       		.uleb128 0x3b
 3711 011c 05       		.uleb128 0x5
 3712 011d 01       		.uleb128 0x1
 3713 011e 13       		.uleb128 0x13
 3714 011f 00       		.byte	0
 3715 0120 00       		.byte	0
 3716 0121 1A       		.uleb128 0x1a
 3717 0122 2E       		.uleb128 0x2e
 3718 0123 01       		.byte	0x1
 3719 0124 03       		.uleb128 0x3
 3720 0125 0E       		.uleb128 0xe
 3721 0126 3A       		.uleb128 0x3a
 3722 0127 0B       		.uleb128 0xb
 3723 0128 3B       		.uleb128 0x3b
 3724 0129 05       		.uleb128 0x5
 3725 012a 27       		.uleb128 0x27
 3726 012b 19       		.uleb128 0x19
 3727 012c 20       		.uleb128 0x20
 3728 012d 0B       		.uleb128 0xb
 3729 012e 01       		.uleb128 0x1
 3730 012f 13       		.uleb128 0x13
 3731 0130 00       		.byte	0
 3732 0131 00       		.byte	0
 3733 0132 1B       		.uleb128 0x1b
 3734 0133 05       		.uleb128 0x5
 3735 0134 00       		.byte	0
 3736 0135 03       		.uleb128 0x3
 3737 0136 0E       		.uleb128 0xe
 3738 0137 3A       		.uleb128 0x3a
 3739 0138 0B       		.uleb128 0xb
 3740 0139 3B       		.uleb128 0x3b
 3741 013a 05       		.uleb128 0x5
 3742 013b 49       		.uleb128 0x49
ARM GAS  C:\Users\nicpa\AppData\Local\Temp\ccHOh1Eg.s 			page 97


 3743 013c 13       		.uleb128 0x13
 3744 013d 00       		.byte	0
 3745 013e 00       		.byte	0
 3746 013f 1C       		.uleb128 0x1c
 3747 0140 2E       		.uleb128 0x2e
 3748 0141 01       		.byte	0x1
 3749 0142 3F       		.uleb128 0x3f
 3750 0143 19       		.uleb128 0x19
 3751 0144 03       		.uleb128 0x3
 3752 0145 0E       		.uleb128 0xe
 3753 0146 3A       		.uleb128 0x3a
 3754 0147 0B       		.uleb128 0xb
 3755 0148 3B       		.uleb128 0x3b
 3756 0149 0B       		.uleb128 0xb
 3757 014a 27       		.uleb128 0x27
 3758 014b 19       		.uleb128 0x19
 3759 014c 11       		.uleb128 0x11
 3760 014d 01       		.uleb128 0x1
 3761 014e 12       		.uleb128 0x12
 3762 014f 06       		.uleb128 0x6
 3763 0150 40       		.uleb128 0x40
 3764 0151 18       		.uleb128 0x18
 3765 0152 9742     		.uleb128 0x2117
 3766 0154 19       		.uleb128 0x19
 3767 0155 01       		.uleb128 0x1
 3768 0156 13       		.uleb128 0x13
 3769 0157 00       		.byte	0
 3770 0158 00       		.byte	0
 3771 0159 1D       		.uleb128 0x1d
 3772 015a 05       		.uleb128 0x5
 3773 015b 00       		.byte	0
 3774 015c 03       		.uleb128 0x3
 3775 015d 0E       		.uleb128 0xe
 3776 015e 3A       		.uleb128 0x3a
 3777 015f 0B       		.uleb128 0xb
 3778 0160 3B       		.uleb128 0x3b
 3779 0161 0B       		.uleb128 0xb
 3780 0162 49       		.uleb128 0x49
 3781 0163 13       		.uleb128 0x13
 3782 0164 02       		.uleb128 0x2
 3783 0165 17       		.uleb128 0x17
 3784 0166 00       		.byte	0
 3785 0167 00       		.byte	0
 3786 0168 1E       		.uleb128 0x1e
 3787 0169 34       		.uleb128 0x34
 3788 016a 00       		.byte	0
 3789 016b 03       		.uleb128 0x3
 3790 016c 0E       		.uleb128 0xe
 3791 016d 3A       		.uleb128 0x3a
 3792 016e 0B       		.uleb128 0xb
 3793 016f 3B       		.uleb128 0x3b
 3794 0170 0B       		.uleb128 0xb
 3795 0171 49       		.uleb128 0x49
 3796 0172 13       		.uleb128 0x13
 3797 0173 02       		.uleb128 0x2
 3798 0174 18       		.uleb128 0x18
 3799 0175 00       		.byte	0
ARM GAS  C:\Users\nicpa\AppData\Local\Temp\ccHOh1Eg.s 			page 98


 3800 0176 00       		.byte	0
 3801 0177 1F       		.uleb128 0x1f
 3802 0178 34       		.uleb128 0x34
 3803 0179 00       		.byte	0
 3804 017a 03       		.uleb128 0x3
 3805 017b 08       		.uleb128 0x8
 3806 017c 3A       		.uleb128 0x3a
 3807 017d 0B       		.uleb128 0xb
 3808 017e 3B       		.uleb128 0x3b
 3809 017f 0B       		.uleb128 0xb
 3810 0180 49       		.uleb128 0x49
 3811 0181 13       		.uleb128 0x13
 3812 0182 02       		.uleb128 0x2
 3813 0183 17       		.uleb128 0x17
 3814 0184 00       		.byte	0
 3815 0185 00       		.byte	0
 3816 0186 20       		.uleb128 0x20
 3817 0187 34       		.uleb128 0x34
 3818 0188 00       		.byte	0
 3819 0189 03       		.uleb128 0x3
 3820 018a 08       		.uleb128 0x8
 3821 018b 3A       		.uleb128 0x3a
 3822 018c 0B       		.uleb128 0xb
 3823 018d 3B       		.uleb128 0x3b
 3824 018e 0B       		.uleb128 0xb
 3825 018f 49       		.uleb128 0x49
 3826 0190 13       		.uleb128 0x13
 3827 0191 02       		.uleb128 0x2
 3828 0192 18       		.uleb128 0x18
 3829 0193 00       		.byte	0
 3830 0194 00       		.byte	0
 3831 0195 21       		.uleb128 0x21
 3832 0196 34       		.uleb128 0x34
 3833 0197 00       		.byte	0
 3834 0198 03       		.uleb128 0x3
 3835 0199 0E       		.uleb128 0xe
 3836 019a 3A       		.uleb128 0x3a
 3837 019b 0B       		.uleb128 0xb
 3838 019c 3B       		.uleb128 0x3b
 3839 019d 0B       		.uleb128 0xb
 3840 019e 49       		.uleb128 0x49
 3841 019f 13       		.uleb128 0x13
 3842 01a0 02       		.uleb128 0x2
 3843 01a1 17       		.uleb128 0x17
 3844 01a2 00       		.byte	0
 3845 01a3 00       		.byte	0
 3846 01a4 22       		.uleb128 0x22
 3847 01a5 898201   		.uleb128 0x4109
 3848 01a8 01       		.byte	0x1
 3849 01a9 11       		.uleb128 0x11
 3850 01aa 01       		.uleb128 0x1
 3851 01ab 31       		.uleb128 0x31
 3852 01ac 13       		.uleb128 0x13
 3853 01ad 01       		.uleb128 0x1
 3854 01ae 13       		.uleb128 0x13
 3855 01af 00       		.byte	0
 3856 01b0 00       		.byte	0
ARM GAS  C:\Users\nicpa\AppData\Local\Temp\ccHOh1Eg.s 			page 99


 3857 01b1 23       		.uleb128 0x23
 3858 01b2 8A8201   		.uleb128 0x410a
 3859 01b5 00       		.byte	0
 3860 01b6 02       		.uleb128 0x2
 3861 01b7 18       		.uleb128 0x18
 3862 01b8 9142     		.uleb128 0x2111
 3863 01ba 18       		.uleb128 0x18
 3864 01bb 00       		.byte	0
 3865 01bc 00       		.byte	0
 3866 01bd 24       		.uleb128 0x24
 3867 01be 898201   		.uleb128 0x4109
 3868 01c1 01       		.byte	0x1
 3869 01c2 11       		.uleb128 0x11
 3870 01c3 01       		.uleb128 0x1
 3871 01c4 31       		.uleb128 0x31
 3872 01c5 13       		.uleb128 0x13
 3873 01c6 00       		.byte	0
 3874 01c7 00       		.byte	0
 3875 01c8 25       		.uleb128 0x25
 3876 01c9 2E       		.uleb128 0x2e
 3877 01ca 01       		.byte	0x1
 3878 01cb 3F       		.uleb128 0x3f
 3879 01cc 19       		.uleb128 0x19
 3880 01cd 03       		.uleb128 0x3
 3881 01ce 08       		.uleb128 0x8
 3882 01cf 3A       		.uleb128 0x3a
 3883 01d0 0B       		.uleb128 0xb
 3884 01d1 3B       		.uleb128 0x3b
 3885 01d2 0B       		.uleb128 0xb
 3886 01d3 27       		.uleb128 0x27
 3887 01d4 19       		.uleb128 0x19
 3888 01d5 49       		.uleb128 0x49
 3889 01d6 13       		.uleb128 0x13
 3890 01d7 11       		.uleb128 0x11
 3891 01d8 01       		.uleb128 0x1
 3892 01d9 12       		.uleb128 0x12
 3893 01da 06       		.uleb128 0x6
 3894 01db 40       		.uleb128 0x40
 3895 01dc 18       		.uleb128 0x18
 3896 01dd 9742     		.uleb128 0x2117
 3897 01df 19       		.uleb128 0x19
 3898 01e0 01       		.uleb128 0x1
 3899 01e1 13       		.uleb128 0x13
 3900 01e2 00       		.byte	0
 3901 01e3 00       		.byte	0
 3902 01e4 26       		.uleb128 0x26
 3903 01e5 2E       		.uleb128 0x2e
 3904 01e6 01       		.byte	0x1
 3905 01e7 3F       		.uleb128 0x3f
 3906 01e8 19       		.uleb128 0x19
 3907 01e9 03       		.uleb128 0x3
 3908 01ea 0E       		.uleb128 0xe
 3909 01eb 3A       		.uleb128 0x3a
 3910 01ec 0B       		.uleb128 0xb
 3911 01ed 3B       		.uleb128 0x3b
 3912 01ee 0B       		.uleb128 0xb
 3913 01ef 27       		.uleb128 0x27
ARM GAS  C:\Users\nicpa\AppData\Local\Temp\ccHOh1Eg.s 			page 100


 3914 01f0 19       		.uleb128 0x19
 3915 01f1 49       		.uleb128 0x49
 3916 01f2 13       		.uleb128 0x13
 3917 01f3 11       		.uleb128 0x11
 3918 01f4 01       		.uleb128 0x1
 3919 01f5 12       		.uleb128 0x12
 3920 01f6 06       		.uleb128 0x6
 3921 01f7 40       		.uleb128 0x40
 3922 01f8 18       		.uleb128 0x18
 3923 01f9 9742     		.uleb128 0x2117
 3924 01fb 19       		.uleb128 0x19
 3925 01fc 01       		.uleb128 0x1
 3926 01fd 13       		.uleb128 0x13
 3927 01fe 00       		.byte	0
 3928 01ff 00       		.byte	0
 3929 0200 27       		.uleb128 0x27
 3930 0201 0B       		.uleb128 0xb
 3931 0202 01       		.byte	0x1
 3932 0203 11       		.uleb128 0x11
 3933 0204 01       		.uleb128 0x1
 3934 0205 12       		.uleb128 0x12
 3935 0206 06       		.uleb128 0x6
 3936 0207 00       		.byte	0
 3937 0208 00       		.byte	0
 3938 0209 28       		.uleb128 0x28
 3939 020a 2E       		.uleb128 0x2e
 3940 020b 01       		.byte	0x1
 3941 020c 3F       		.uleb128 0x3f
 3942 020d 19       		.uleb128 0x19
 3943 020e 03       		.uleb128 0x3
 3944 020f 0E       		.uleb128 0xe
 3945 0210 3A       		.uleb128 0x3a
 3946 0211 0B       		.uleb128 0xb
 3947 0212 3B       		.uleb128 0x3b
 3948 0213 0B       		.uleb128 0xb
 3949 0214 27       		.uleb128 0x27
 3950 0215 19       		.uleb128 0x19
 3951 0216 8701     		.uleb128 0x87
 3952 0218 19       		.uleb128 0x19
 3953 0219 11       		.uleb128 0x11
 3954 021a 01       		.uleb128 0x1
 3955 021b 12       		.uleb128 0x12
 3956 021c 06       		.uleb128 0x6
 3957 021d 40       		.uleb128 0x40
 3958 021e 18       		.uleb128 0x18
 3959 021f 9642     		.uleb128 0x2116
 3960 0221 19       		.uleb128 0x19
 3961 0222 01       		.uleb128 0x1
 3962 0223 13       		.uleb128 0x13
 3963 0224 00       		.byte	0
 3964 0225 00       		.byte	0
 3965 0226 29       		.uleb128 0x29
 3966 0227 0B       		.uleb128 0xb
 3967 0228 01       		.byte	0x1
 3968 0229 11       		.uleb128 0x11
 3969 022a 01       		.uleb128 0x1
 3970 022b 12       		.uleb128 0x12
ARM GAS  C:\Users\nicpa\AppData\Local\Temp\ccHOh1Eg.s 			page 101


 3971 022c 06       		.uleb128 0x6
 3972 022d 01       		.uleb128 0x1
 3973 022e 13       		.uleb128 0x13
 3974 022f 00       		.byte	0
 3975 0230 00       		.byte	0
 3976 0231 2A       		.uleb128 0x2a
 3977 0232 1D       		.uleb128 0x1d
 3978 0233 01       		.byte	0x1
 3979 0234 31       		.uleb128 0x31
 3980 0235 13       		.uleb128 0x13
 3981 0236 11       		.uleb128 0x11
 3982 0237 01       		.uleb128 0x1
 3983 0238 12       		.uleb128 0x12
 3984 0239 06       		.uleb128 0x6
 3985 023a 58       		.uleb128 0x58
 3986 023b 0B       		.uleb128 0xb
 3987 023c 59       		.uleb128 0x59
 3988 023d 0B       		.uleb128 0xb
 3989 023e 01       		.uleb128 0x1
 3990 023f 13       		.uleb128 0x13
 3991 0240 00       		.byte	0
 3992 0241 00       		.byte	0
 3993 0242 2B       		.uleb128 0x2b
 3994 0243 05       		.uleb128 0x5
 3995 0244 00       		.byte	0
 3996 0245 31       		.uleb128 0x31
 3997 0246 13       		.uleb128 0x13
 3998 0247 02       		.uleb128 0x2
 3999 0248 17       		.uleb128 0x17
 4000 0249 00       		.byte	0
 4001 024a 00       		.byte	0
 4002 024b 2C       		.uleb128 0x2c
 4003 024c 1D       		.uleb128 0x1d
 4004 024d 01       		.byte	0x1
 4005 024e 31       		.uleb128 0x31
 4006 024f 13       		.uleb128 0x13
 4007 0250 11       		.uleb128 0x11
 4008 0251 01       		.uleb128 0x1
 4009 0252 12       		.uleb128 0x12
 4010 0253 06       		.uleb128 0x6
 4011 0254 58       		.uleb128 0x58
 4012 0255 0B       		.uleb128 0xb
 4013 0256 59       		.uleb128 0x59
 4014 0257 05       		.uleb128 0x5
 4015 0258 00       		.byte	0
 4016 0259 00       		.byte	0
 4017 025a 2D       		.uleb128 0x2d
 4018 025b 0B       		.uleb128 0xb
 4019 025c 01       		.byte	0x1
 4020 025d 55       		.uleb128 0x55
 4021 025e 17       		.uleb128 0x17
 4022 025f 01       		.uleb128 0x1
 4023 0260 13       		.uleb128 0x13
 4024 0261 00       		.byte	0
 4025 0262 00       		.byte	0
 4026 0263 2E       		.uleb128 0x2e
 4027 0264 34       		.uleb128 0x34
ARM GAS  C:\Users\nicpa\AppData\Local\Temp\ccHOh1Eg.s 			page 102


 4028 0265 00       		.byte	0
 4029 0266 03       		.uleb128 0x3
 4030 0267 0E       		.uleb128 0xe
 4031 0268 3A       		.uleb128 0x3a
 4032 0269 0B       		.uleb128 0xb
 4033 026a 3B       		.uleb128 0x3b
 4034 026b 05       		.uleb128 0x5
 4035 026c 49       		.uleb128 0x49
 4036 026d 13       		.uleb128 0x13
 4037 026e 3F       		.uleb128 0x3f
 4038 026f 19       		.uleb128 0x19
 4039 0270 3C       		.uleb128 0x3c
 4040 0271 19       		.uleb128 0x19
 4041 0272 00       		.byte	0
 4042 0273 00       		.byte	0
 4043 0274 2F       		.uleb128 0x2f
 4044 0275 34       		.uleb128 0x34
 4045 0276 00       		.byte	0
 4046 0277 03       		.uleb128 0x3
 4047 0278 0E       		.uleb128 0xe
 4048 0279 3A       		.uleb128 0x3a
 4049 027a 0B       		.uleb128 0xb
 4050 027b 3B       		.uleb128 0x3b
 4051 027c 0B       		.uleb128 0xb
 4052 027d 49       		.uleb128 0x49
 4053 027e 13       		.uleb128 0x13
 4054 027f 3F       		.uleb128 0x3f
 4055 0280 19       		.uleb128 0x19
 4056 0281 3C       		.uleb128 0x3c
 4057 0282 19       		.uleb128 0x19
 4058 0283 00       		.byte	0
 4059 0284 00       		.byte	0
 4060 0285 30       		.uleb128 0x30
 4061 0286 34       		.uleb128 0x34
 4062 0287 00       		.byte	0
 4063 0288 03       		.uleb128 0x3
 4064 0289 0E       		.uleb128 0xe
 4065 028a 3A       		.uleb128 0x3a
 4066 028b 0B       		.uleb128 0xb
 4067 028c 3B       		.uleb128 0x3b
 4068 028d 0B       		.uleb128 0xb
 4069 028e 49       		.uleb128 0x49
 4070 028f 13       		.uleb128 0x13
 4071 0290 3F       		.uleb128 0x3f
 4072 0291 19       		.uleb128 0x19
 4073 0292 02       		.uleb128 0x2
 4074 0293 18       		.uleb128 0x18
 4075 0294 00       		.byte	0
 4076 0295 00       		.byte	0
 4077 0296 31       		.uleb128 0x31
 4078 0297 34       		.uleb128 0x34
 4079 0298 00       		.byte	0
 4080 0299 03       		.uleb128 0x3
 4081 029a 08       		.uleb128 0x8
 4082 029b 3A       		.uleb128 0x3a
 4083 029c 0B       		.uleb128 0xb
 4084 029d 3B       		.uleb128 0x3b
ARM GAS  C:\Users\nicpa\AppData\Local\Temp\ccHOh1Eg.s 			page 103


 4085 029e 0B       		.uleb128 0xb
 4086 029f 49       		.uleb128 0x49
 4087 02a0 13       		.uleb128 0x13
 4088 02a1 3F       		.uleb128 0x3f
 4089 02a2 19       		.uleb128 0x19
 4090 02a3 02       		.uleb128 0x2
 4091 02a4 18       		.uleb128 0x18
 4092 02a5 00       		.byte	0
 4093 02a6 00       		.byte	0
 4094 02a7 32       		.uleb128 0x32
 4095 02a8 2E       		.uleb128 0x2e
 4096 02a9 00       		.byte	0
 4097 02aa 3F       		.uleb128 0x3f
 4098 02ab 19       		.uleb128 0x19
 4099 02ac 3C       		.uleb128 0x3c
 4100 02ad 19       		.uleb128 0x19
 4101 02ae 6E       		.uleb128 0x6e
 4102 02af 0E       		.uleb128 0xe
 4103 02b0 03       		.uleb128 0x3
 4104 02b1 0E       		.uleb128 0xe
 4105 02b2 00       		.byte	0
 4106 02b3 00       		.byte	0
 4107 02b4 33       		.uleb128 0x33
 4108 02b5 2E       		.uleb128 0x2e
 4109 02b6 00       		.byte	0
 4110 02b7 3F       		.uleb128 0x3f
 4111 02b8 19       		.uleb128 0x19
 4112 02b9 3C       		.uleb128 0x3c
 4113 02ba 19       		.uleb128 0x19
 4114 02bb 6E       		.uleb128 0x6e
 4115 02bc 0E       		.uleb128 0xe
 4116 02bd 03       		.uleb128 0x3
 4117 02be 0E       		.uleb128 0xe
 4118 02bf 3A       		.uleb128 0x3a
 4119 02c0 0B       		.uleb128 0xb
 4120 02c1 3B       		.uleb128 0x3b
 4121 02c2 05       		.uleb128 0x5
 4122 02c3 00       		.byte	0
 4123 02c4 00       		.byte	0
 4124 02c5 34       		.uleb128 0x34
 4125 02c6 2E       		.uleb128 0x2e
 4126 02c7 00       		.byte	0
 4127 02c8 3F       		.uleb128 0x3f
 4128 02c9 19       		.uleb128 0x19
 4129 02ca 3C       		.uleb128 0x3c
 4130 02cb 19       		.uleb128 0x19
 4131 02cc 6E       		.uleb128 0x6e
 4132 02cd 0E       		.uleb128 0xe
 4133 02ce 03       		.uleb128 0x3
 4134 02cf 0E       		.uleb128 0xe
 4135 02d0 3A       		.uleb128 0x3a
 4136 02d1 0B       		.uleb128 0xb
 4137 02d2 3B       		.uleb128 0x3b
 4138 02d3 0B       		.uleb128 0xb
 4139 02d4 00       		.byte	0
 4140 02d5 00       		.byte	0
 4141 02d6 00       		.byte	0
ARM GAS  C:\Users\nicpa\AppData\Local\Temp\ccHOh1Eg.s 			page 104


 4142              		.section	.debug_loc,"",%progbits
 4143              	.Ldebug_loc0:
 4144              	.LLST0:
 4145 0000 00000000 		.4byte	.LVL0
 4146 0004 0E000000 		.4byte	.LVL2
 4147 0008 0100     		.2byte	0x1
 4148 000a 50       		.byte	0x50
 4149 000b 0E000000 		.4byte	.LVL2
 4150 000f 4A000000 		.4byte	.LVL8
 4151 0013 0100     		.2byte	0x1
 4152 0015 56       		.byte	0x56
 4153 0016 4A000000 		.4byte	.LVL8
 4154 001a 58000000 		.4byte	.LFE699
 4155 001e 0400     		.2byte	0x4
 4156 0020 F3       		.byte	0xf3
 4157 0021 01       		.uleb128 0x1
 4158 0022 50       		.byte	0x50
 4159 0023 9F       		.byte	0x9f
 4160 0024 00000000 		.4byte	0
 4161 0028 00000000 		.4byte	0
 4162              	.LLST1:
 4163 002c 00000000 		.4byte	.LVL0
 4164 0030 0C000000 		.4byte	.LVL1
 4165 0034 0100     		.2byte	0x1
 4166 0036 51       		.byte	0x51
 4167 0037 0C000000 		.4byte	.LVL1
 4168 003b 4A000000 		.4byte	.LVL8
 4169 003f 0100     		.2byte	0x1
 4170 0041 55       		.byte	0x55
 4171 0042 4A000000 		.4byte	.LVL8
 4172 0046 58000000 		.4byte	.LFE699
 4173 004a 0400     		.2byte	0x4
 4174 004c F3       		.byte	0xf3
 4175 004d 01       		.uleb128 0x1
 4176 004e 51       		.byte	0x51
 4177 004f 9F       		.byte	0x9f
 4178 0050 00000000 		.4byte	0
 4179 0054 00000000 		.4byte	0
 4180              	.LLST2:
 4181 0058 24000000 		.4byte	.LVL4
 4182 005c 28000000 		.4byte	.LVL5
 4183 0060 0200     		.2byte	0x2
 4184 0062 30       		.byte	0x30
 4185 0063 9F       		.byte	0x9f
 4186 0064 28000000 		.4byte	.LVL5
 4187 0068 4A000000 		.4byte	.LVL8
 4188 006c 0100     		.2byte	0x1
 4189 006e 54       		.byte	0x54
 4190 006f 00000000 		.4byte	0
 4191 0073 00000000 		.4byte	0
 4192              	.LLST3:
 4193 0077 12000000 		.4byte	.LVL3
 4194 007b 4A000000 		.4byte	.LVL8
 4195 007f 0100     		.2byte	0x1
 4196 0081 56       		.byte	0x56
 4197 0082 4A000000 		.4byte	.LVL8
 4198 0086 58000000 		.4byte	.LFE699
ARM GAS  C:\Users\nicpa\AppData\Local\Temp\ccHOh1Eg.s 			page 105


 4199 008a 0400     		.2byte	0x4
 4200 008c F3       		.byte	0xf3
 4201 008d 01       		.uleb128 0x1
 4202 008e 50       		.byte	0x50
 4203 008f 9F       		.byte	0x9f
 4204 0090 00000000 		.4byte	0
 4205 0094 00000000 		.4byte	0
 4206              	.LLST4:
 4207 0098 12000000 		.4byte	.LVL3
 4208 009c 4A000000 		.4byte	.LVL8
 4209 00a0 0100     		.2byte	0x1
 4210 00a2 55       		.byte	0x55
 4211 00a3 4A000000 		.4byte	.LVL8
 4212 00a7 58000000 		.4byte	.LFE699
 4213 00ab 0400     		.2byte	0x4
 4214 00ad F3       		.byte	0xf3
 4215 00ae 01       		.uleb128 0x1
 4216 00af 51       		.byte	0x51
 4217 00b0 9F       		.byte	0x9f
 4218 00b1 00000000 		.4byte	0
 4219 00b5 00000000 		.4byte	0
 4220              	.LLST5:
 4221 00b9 00000000 		.4byte	.LVL9
 4222 00bd 30000000 		.4byte	.LVL10
 4223 00c1 0100     		.2byte	0x1
 4224 00c3 50       		.byte	0x50
 4225 00c4 30000000 		.4byte	.LVL10
 4226 00c8 33000000 		.4byte	.LVL11-1
 4227 00cc 0400     		.2byte	0x4
 4228 00ce 70       		.byte	0x70
 4229 00cf B070     		.sleb128 -2000
 4230 00d1 9F       		.byte	0x9f
 4231 00d2 33000000 		.4byte	.LVL11-1
 4232 00d6 5A000000 		.4byte	.LVL13
 4233 00da 0400     		.2byte	0x4
 4234 00dc 77       		.byte	0x77
 4235 00dd B070     		.sleb128 -2000
 4236 00df 9F       		.byte	0x9f
 4237 00e0 5A000000 		.4byte	.LVL13
 4238 00e4 74000000 		.4byte	.LFE700
 4239 00e8 0400     		.2byte	0x4
 4240 00ea F3       		.byte	0xf3
 4241 00eb 01       		.uleb128 0x1
 4242 00ec 50       		.byte	0x50
 4243 00ed 9F       		.byte	0x9f
 4244 00ee 00000000 		.4byte	0
 4245 00f2 00000000 		.4byte	0
 4246              	.LLST6:
 4247 00f6 00000000 		.4byte	.LVL14
 4248 00fa 46000000 		.4byte	.LVL19
 4249 00fe 0100     		.2byte	0x1
 4250 0100 50       		.byte	0x50
 4251 0101 46000000 		.4byte	.LVL19
 4252 0105 54000000 		.4byte	.LFE701
 4253 0109 0400     		.2byte	0x4
 4254 010b F3       		.byte	0xf3
 4255 010c 01       		.uleb128 0x1
ARM GAS  C:\Users\nicpa\AppData\Local\Temp\ccHOh1Eg.s 			page 106


 4256 010d 50       		.byte	0x50
 4257 010e 9F       		.byte	0x9f
 4258 010f 00000000 		.4byte	0
 4259 0113 00000000 		.4byte	0
 4260              	.LLST7:
 4261 0117 0A000000 		.4byte	.LVL15
 4262 011b 10000000 		.4byte	.LVL16
 4263 011f 0400     		.2byte	0x4
 4264 0121 0A       		.byte	0xa
 4265 0122 F401     		.2byte	0x1f4
 4266 0124 9F       		.byte	0x9f
 4267 0125 10000000 		.4byte	.LVL16
 4268 0129 30000000 		.4byte	.LVL18
 4269 012d 0100     		.2byte	0x1
 4270 012f 53       		.byte	0x53
 4271 0130 00000000 		.4byte	0
 4272 0134 00000000 		.4byte	0
 4273              	.LLST8:
 4274 0138 00000000 		.4byte	.LVL20
 4275 013c 1E000000 		.4byte	.LVL21
 4276 0140 0100     		.2byte	0x1
 4277 0142 50       		.byte	0x50
 4278 0143 1E000000 		.4byte	.LVL21
 4279 0147 A8020000 		.4byte	.LFE702
 4280 014b 0400     		.2byte	0x4
 4281 014d F3       		.byte	0xf3
 4282 014e 01       		.uleb128 0x1
 4283 014f 50       		.byte	0x50
 4284 0150 9F       		.byte	0x9f
 4285 0151 00000000 		.4byte	0
 4286 0155 00000000 		.4byte	0
 4287              	.LLST9:
 4288 0159 2A010000 		.4byte	.LVL38
 4289 015d 32010000 		.4byte	.LVL39
 4290 0161 0200     		.2byte	0x2
 4291 0163 30       		.byte	0x30
 4292 0164 9F       		.byte	0x9f
 4293 0165 32010000 		.4byte	.LVL39
 4294 0169 2A020000 		.4byte	.LVL43
 4295 016d 0100     		.2byte	0x1
 4296 016f 50       		.byte	0x50
 4297 0170 00000000 		.4byte	0
 4298 0174 00000000 		.4byte	0
 4299              	.LLST10:
 4300 0178 6A000000 		.4byte	.LVL26
 4301 017c 6E000000 		.4byte	.LVL27
 4302 0180 0200     		.2byte	0x2
 4303 0182 30       		.byte	0x30
 4304 0183 9F       		.byte	0x9f
 4305 0184 6E000000 		.4byte	.LVL27
 4306 0188 AB000000 		.4byte	.LVL29-1
 4307 018c 0100     		.2byte	0x1
 4308 018e 52       		.byte	0x52
 4309 018f 00000000 		.4byte	0
 4310 0193 00000000 		.4byte	0
 4311              	.LLST11:
 4312 0197 18010000 		.4byte	.LVL35
ARM GAS  C:\Users\nicpa\AppData\Local\Temp\ccHOh1Eg.s 			page 107


 4313 019b 1A010000 		.4byte	.LVL36
 4314 019f 0400     		.2byte	0x4
 4315 01a1 91       		.byte	0x91
 4316 01a2 B47F     		.sleb128 -76
 4317 01a4 9F       		.byte	0x9f
 4318 01a5 1A010000 		.4byte	.LVL36
 4319 01a9 1F010000 		.4byte	.LVL37-1
 4320 01ad 0100     		.2byte	0x1
 4321 01af 51       		.byte	0x51
 4322 01b0 1F010000 		.4byte	.LVL37-1
 4323 01b4 20010000 		.4byte	.LVL37
 4324 01b8 0400     		.2byte	0x4
 4325 01ba 91       		.byte	0x91
 4326 01bb B47F     		.sleb128 -76
 4327 01bd 9F       		.byte	0x9f
 4328 01be 00000000 		.4byte	0
 4329 01c2 00000000 		.4byte	0
 4330              	.LLST13:
 4331 01c6 18010000 		.4byte	.LVL35
 4332 01ca 20010000 		.4byte	.LVL37
 4333 01ce 0600     		.2byte	0x6
 4334 01d0 0C       		.byte	0xc
 4335 01d1 00006640 		.4byte	0x40660000
 4336 01d5 9F       		.byte	0x9f
 4337 01d6 00000000 		.4byte	0
 4338 01da 00000000 		.4byte	0
 4339              	.LLST14:
 4340 01de 2A010000 		.4byte	.LVL38
 4341 01e2 32010000 		.4byte	.LVL39
 4342 01e6 0400     		.2byte	0x4
 4343 01e8 0A       		.byte	0xa
 4344 01e9 F401     		.2byte	0x1f4
 4345 01eb 9F       		.byte	0x9f
 4346 01ec 32010000 		.4byte	.LVL39
 4347 01f0 22020000 		.4byte	.LVL42
 4348 01f4 0100     		.2byte	0x1
 4349 01f6 53       		.byte	0x53
 4350 01f7 00000000 		.4byte	0
 4351 01fb 00000000 		.4byte	0
 4352              		.section	.debug_aranges,"",%progbits
 4353 0000 34000000 		.4byte	0x34
 4354 0004 0200     		.2byte	0x2
 4355 0006 00000000 		.4byte	.Ldebug_info0
 4356 000a 04       		.byte	0x4
 4357 000b 00       		.byte	0
 4358 000c 0000     		.2byte	0
 4359 000e 0000     		.2byte	0
 4360 0010 00000000 		.4byte	.LFB699
 4361 0014 58000000 		.4byte	.LFE699-.LFB699
 4362 0018 00000000 		.4byte	.LFB700
 4363 001c 74000000 		.4byte	.LFE700-.LFB700
 4364 0020 00000000 		.4byte	.LFB701
 4365 0024 54000000 		.4byte	.LFE701-.LFB701
 4366 0028 00000000 		.4byte	.LFB702
 4367 002c A8020000 		.4byte	.LFE702-.LFB702
 4368 0030 00000000 		.4byte	0
 4369 0034 00000000 		.4byte	0
ARM GAS  C:\Users\nicpa\AppData\Local\Temp\ccHOh1Eg.s 			page 108


 4370              		.section	.debug_ranges,"",%progbits
 4371              	.Ldebug_ranges0:
 4372 0000 2A010000 		.4byte	.LBB20
 4373 0004 2E010000 		.4byte	.LBE20
 4374 0008 30010000 		.4byte	.LBB21
 4375 000c DC010000 		.4byte	.LBE21
 4376 0010 00000000 		.4byte	0
 4377 0014 00000000 		.4byte	0
 4378 0018 00000000 		.4byte	.LFB699
 4379 001c 58000000 		.4byte	.LFE699
 4380 0020 00000000 		.4byte	.LFB700
 4381 0024 74000000 		.4byte	.LFE700
 4382 0028 00000000 		.4byte	.LFB701
 4383 002c 54000000 		.4byte	.LFE701
 4384 0030 00000000 		.4byte	.LFB702
 4385 0034 A8020000 		.4byte	.LFE702
 4386 0038 00000000 		.4byte	0
 4387 003c 00000000 		.4byte	0
 4388              		.section	.debug_line,"",%progbits
 4389              	.Ldebug_line0:
 4390 0000 D6050000 		.section	.debug_str,"MS",%progbits,1
 4390      0200E704 
 4390      00000201 
 4390      FB0E0D00 
 4390      01010101 
 4391              	.LASF135:
 4392 0000 666C6173 		.ascii	"flashCtlMainWs1Freq\000"
 4392      6843746C 
 4392      4D61696E 
 4392      57733146 
 4392      72657100 
 4393              	.LASF25:
 4394 0014 52455345 		.ascii	"RESERVED\000"
 4394      52564544 
 4394      00
 4395              	.LASF320:
 4396 001d 54726169 		.ascii	"Traitement_Signal.c\000"
 4396      74656D65 
 4396      6E745F53 
 4396      69676E61 
 4396      6C2E6300 
 4397              	.LASF213:
 4398 0031 63795F63 		.ascii	"cy_cb_scb_spi_handle_events_t\000"
 4398      625F7363 
 4398      625F7370 
 4398      695F6861 
 4398      6E646C65 
 4399              	.LASF251:
 4400 004f 73746F70 		.ascii	"stopInputMode\000"
 4400      496E7075 
 4400      744D6F64 
 4400      6500
 4401              	.LASF277:
 4402 005d 63795F64 		.ascii	"cy_device\000"
 4402      65766963 
 4402      6500
 4403              	.LASF297:
ARM GAS  C:\Users\nicpa\AppData\Local\Temp\ccHOh1Eg.s 			page 109


 4404 0067 7369676E 		.ascii	"signal_AC_R\000"
 4404      616C5F41 
 4404      435F5200 
 4405              	.LASF264:
 4406 0073 696E7075 		.ascii	"inputF32\000"
 4406      74463332 
 4406      00
 4407              	.LASF162:
 4408 007c 63707573 		.ascii	"cpussCm0ClockCtlOffset\000"
 4408      73436D30 
 4408      436C6F63 
 4408      6B43746C 
 4408      4F666673 
 4409              	.LASF121:
 4410 0093 70657269 		.ascii	"periClockNr\000"
 4410      436C6F63 
 4410      6B4E7200 
 4411              	.LASF194:
 4412 009f 6D617374 		.ascii	"masterStatus\000"
 4412      65725374 
 4412      61747573 
 4412      00
 4413              	.LASF278:
 4414 00ac 43595F45 		.ascii	"CY_EINK_SPIM_context\000"
 4414      494E4B5F 
 4414      5350494D 
 4414      5F636F6E 
 4414      74657874 
 4415              	.LASF290:
 4416 00c1 63757272 		.ascii	"currenttouch\000"
 4416      656E7474 
 4416      6F756368 
 4416      00
 4417              	.LASF227:
 4418 00ce 74785374 		.ascii	"txStatus\000"
 4418      61747573 
 4418      00
 4419              	.LASF24:
 4420 00d7 434D445F 		.ascii	"CMD_RESP_STATUS\000"
 4420      52455350 
 4420      5F535441 
 4420      54555300 
 4421              	.LASF82:
 4422 00e7 494E5452 		.ascii	"INTR_TX_MASK\000"
 4422      5F54585F 
 4422      4D41534B 
 4422      00
 4423              	.LASF285:
 4424 00f4 72656164 		.ascii	"read_flag_MAX\000"
 4424      5F666C61 
 4424      675F4D41 
 4424      5800
 4425              	.LASF261:
 4426 0102 7369676E 		.ascii	"signal\000"
 4426      616C00
 4427              	.LASF170:
 4428 0109 63707573 		.ascii	"cpussCm0NmiCtlOffset\000"
ARM GAS  C:\Users\nicpa\AppData\Local\Temp\ccHOh1Eg.s 			page 110


 4428      73436D30 
 4428      4E6D6943 
 4428      746C4F66 
 4428      66736574 
 4429              	.LASF140:
 4430 011e 64774368 		.ascii	"dwChSize\000"
 4430      53697A65 
 4430      00
 4431              	.LASF280:
 4432 0127 4932435F 		.ascii	"I2C_MAX_context\000"
 4432      4D41585F 
 4432      636F6E74 
 4432      65787400 
 4433              	.LASF43:
 4434 0137 54585F46 		.ascii	"TX_FIFO_STATUS\000"
 4434      49464F5F 
 4434      53544154 
 4434      555300
 4435              	.LASF201:
 4436 0146 736C6176 		.ascii	"slaveStatus\000"
 4436      65537461 
 4436      74757300 
 4437              	.LASF189:
 4438 0152 63795F63 		.ascii	"cy_cb_scb_i2c_handle_events_t\000"
 4438      625F7363 
 4438      625F6932 
 4438      635F6861 
 4438      6E646C65 
 4439              	.LASF199:
 4440 0170 6D617374 		.ascii	"masterBufferIdx\000"
 4440      65724275 
 4440      66666572 
 4440      49647800 
 4441              	.LASF58:
 4442 0180 494E5452 		.ascii	"INTR_CAUSE\000"
 4442      5F434155 
 4442      534500
 4443              	.LASF122:
 4444 018b 736D6966 		.ascii	"smifDeviceNr\000"
 4444      44657669 
 4444      63654E72 
 4444      00
 4445              	.LASF152:
 4446 0198 70657269 		.ascii	"periDivCmdPaTypeSelPos\000"
 4446      44697643 
 4446      6D645061 
 4446      54797065 
 4446      53656C50 
 4447              	.LASF222:
 4448 01af 74784275 		.ascii	"txBufIdx\000"
 4448      66496478 
 4448      00
 4449              	.LASF250:
 4450 01b8 73746172 		.ascii	"startInput\000"
 4450      74496E70 
 4450      757400
 4451              	.LASF48:
ARM GAS  C:\Users\nicpa\AppData\Local\Temp\ccHOh1Eg.s 			page 111


 4452 01c3 52585F46 		.ascii	"RX_FIFO_CTRL\000"
 4452      49464F5F 
 4452      4354524C 
 4452      00
 4453              	.LASF8:
 4454 01d0 5F5F696E 		.ascii	"__int32_t\000"
 4454      7433325F 
 4454      7400
 4455              	.LASF92:
 4456 01da 63707573 		.ascii	"cpussBase\000"
 4456      73426173 
 4456      6500
 4457              	.LASF207:
 4458 01e4 736C6176 		.ascii	"slaveRxBuffer\000"
 4458      65527842 
 4458      75666665 
 4458      7200
 4459              	.LASF116:
 4460 01f2 63707573 		.ascii	"cpussFmIrq\000"
 4460      73466D49 
 4460      727100
 4461              	.LASF76:
 4462 01fd 494E5452 		.ascii	"INTR_S_SET\000"
 4462      5F535F53 
 4462      455400
 4463              	.LASF263:
 4464 0208 66697243 		.ascii	"firCoeffs32PasseBasBPM\000"
 4464      6F656666 
 4464      73333250 
 4464      61737365 
 4464      42617342 
 4465              	.LASF211:
 4466 021f 63624164 		.ascii	"cbAddr\000"
 4466      647200
 4467              	.LASF88:
 4468 0226 494E5452 		.ascii	"INTR_RX_MASKED\000"
 4468      5F52585F 
 4468      4D41534B 
 4468      454400
 4469              	.LASF186:
 4470 0235 43595F53 		.ascii	"CY_SCB_I2C_ACK\000"
 4470      43425F49 
 4470      32435F41 
 4470      434B00
 4471              	.LASF252:
 4472 0244 73746F70 		.ascii	"stopInput\000"
 4472      496E7075 
 4472      7400
 4473              	.LASF230:
 4474 024e 72785269 		.ascii	"rxRingBufSize\000"
 4474      6E674275 
 4474      6653697A 
 4474      6500
 4475              	.LASF265:
 4476 025c 6F757470 		.ascii	"outputF32\000"
 4476      75744633 
 4476      3200
ARM GAS  C:\Users\nicpa\AppData\Local\Temp\ccHOh1Eg.s 			page 112


 4477              	.LASF188:
 4478 0266 63795F65 		.ascii	"cy_en_scb_i2c_command_t\000"
 4478      6E5F7363 
 4478      625F6932 
 4478      635F636F 
 4478      6D6D616E 
 4479              	.LASF148:
 4480 027e 70657269 		.ascii	"periTrGrSize\000"
 4480      54724772 
 4480      53697A65 
 4480      00
 4481              	.LASF151:
 4482 028b 70657269 		.ascii	"periDivCmdPaDivSelPos\000"
 4482      44697643 
 4482      6D645061 
 4482      44697653 
 4482      656C506F 
 4483              	.LASF128:
 4484 02a1 63727970 		.ascii	"cryptoMemSize\000"
 4484      746F4D65 
 4484      6D53697A 
 4484      6500
 4485              	.LASF174:
 4486 02af 63707573 		.ascii	"cpussRam1Ctl0\000"
 4486      7352616D 
 4486      3143746C 
 4486      3000
 4487              	.LASF176:
 4488 02bd 69706353 		.ascii	"ipcStructSize\000"
 4488      74727563 
 4488      7453697A 
 4488      6500
 4489              	.LASF187:
 4490 02cb 43595F53 		.ascii	"CY_SCB_I2C_NAK\000"
 4490      43425F49 
 4490      32435F4E 
 4490      414B00
 4491              	.LASF190:
 4492 02da 63795F63 		.ascii	"cy_cb_scb_i2c_handle_addr_t\000"
 4492      625F7363 
 4492      625F6932 
 4492      635F6861 
 4492      6E646C65 
 4493              	.LASF241:
 4494 02f6 636F6D70 		.ascii	"compare0\000"
 4494      61726530 
 4494      00
 4495              	.LASF242:
 4496 02ff 636F6D70 		.ascii	"compare1\000"
 4496      61726531 
 4496      00
 4497              	.LASF319:
 4498 0308 474E5520 		.ascii	"GNU C11 5.4.1 20160609 (release) [ARM/embedded-5-br"
 4498      43313120 
 4498      352E342E 
 4498      31203230 
 4498      31363036 
ARM GAS  C:\Users\nicpa\AppData\Local\Temp\ccHOh1Eg.s 			page 113


 4499 033b 616E6368 		.ascii	"anch revision 237715] -mcpu=cortex-m4 -mfloat-abi=s"
 4499      20726576 
 4499      6973696F 
 4499      6E203233 
 4499      37373135 
 4500 036e 6F667466 		.ascii	"oftfp -mfpu=fpv4-sp-d16 -mthumb -g -Og -ffunction-s"
 4500      70202D6D 
 4500      6670753D 
 4500      66707634 
 4500      2D73702D 
 4501 03a1 65637469 		.ascii	"ections -ffat-lto-objects\000"
 4501      6F6E7320 
 4501      2D666661 
 4501      742D6C74 
 4501      6F2D6F62 
 4502              	.LASF110:
 4503 03bb 70726F74 		.ascii	"protVersion\000"
 4503      56657273 
 4503      696F6E00 
 4504              	.LASF214:
 4505 03c7 63795F73 		.ascii	"cy_stc_scb_i2c_context\000"
 4505      74635F73 
 4505      63625F69 
 4505      32635F63 
 4505      6F6E7465 
 4506              	.LASF31:
 4507 03de 55415254 		.ascii	"UART_RX_CTRL\000"
 4507      5F52585F 
 4507      4354524C 
 4507      00
 4508              	.LASF314:
 4509 03eb 61726D5F 		.ascii	"arm_max_f32\000"
 4509      6D61785F 
 4509      66333200 
 4510              	.LASF150:
 4511 03f7 70657269 		.ascii	"periDivCmdTypeSelPos\000"
 4511      44697643 
 4511      6D645479 
 4511      70655365 
 4511      6C506F73 
 4512              	.LASF167:
 4513 040c 63707573 		.ascii	"cpussTrimRamCtlOffset\000"
 4513      73547269 
 4513      6D52616D 
 4513      43746C4F 
 4513      66667365 
 4514              	.LASF90:
 4515 0422 43795343 		.ascii	"CySCB_Type\000"
 4515      425F5479 
 4515      706500
 4516              	.LASF39:
 4517 042d 4932435F 		.ascii	"I2C_CFG\000"
 4517      43464700 
 4518              	.LASF203:
 4519 0435 736C6176 		.ascii	"slaveTxBuffer\000"
 4519      65547842 
 4519      75666665 
ARM GAS  C:\Users\nicpa\AppData\Local\Temp\ccHOh1Eg.s 			page 114


 4519      7200
 4520              	.LASF293:
 4521 0443 68726D61 		.ascii	"hrmax\000"
 4521      7800
 4522              	.LASF205:
 4523 0449 736C6176 		.ascii	"slaveTxBufferIdx\000"
 4523      65547842 
 4523      75666665 
 4523      72496478 
 4523      00
 4524              	.LASF19:
 4525 045a 75696E74 		.ascii	"uint32_t\000"
 4525      33325F74 
 4525      00
 4526              	.LASF71:
 4527 0463 494E5452 		.ascii	"INTR_M_SET\000"
 4527      5F4D5F53 
 4527      455400
 4528              	.LASF313:
 4529 046e 61726D5F 		.ascii	"arm_fir_f32\000"
 4529      6669725F 
 4529      66333200 
 4530              	.LASF160:
 4531 047a 6770696F 		.ascii	"gpioPrtCfgOutOffset\000"
 4531      50727443 
 4531      66674F75 
 4531      744F6666 
 4531      73657400 
 4532              	.LASF13:
 4533 048e 6C6F6E67 		.ascii	"long long unsigned int\000"
 4533      206C6F6E 
 4533      6720756E 
 4533      7369676E 
 4533      65642069 
 4534              	.LASF0:
 4535 04a5 666C6F61 		.ascii	"float\000"
 4535      7400
 4536              	.LASF296:
 4537 04ab 7369676E 		.ascii	"signal_IF\000"
 4537      616C5F49 
 4537      4600
 4538              	.LASF73:
 4539 04b5 494E5452 		.ascii	"INTR_M_MASKED\000"
 4539      5F4D5F4D 
 4539      41534B45 
 4539      4400
 4540              	.LASF124:
 4541 04c3 65704D6F 		.ascii	"epMonitorNr\000"
 4541      6E69746F 
 4541      724E7200 
 4542              	.LASF270:
 4543 04cf 62617365 		.ascii	"base\000"
 4543      00
 4544              	.LASF226:
 4545 04d4 63795F73 		.ascii	"cy_stc_scb_uart_context\000"
 4545      74635F73 
 4545      63625F75 
ARM GAS  C:\Users\nicpa\AppData\Local\Temp\ccHOh1Eg.s 			page 115


 4545      6172745F 
 4545      636F6E74 
 4546              	.LASF248:
 4547 04ec 72656C6F 		.ascii	"reloadInput\000"
 4547      6164496E 
 4547      70757400 
 4548              	.LASF16:
 4549 04f8 696E7431 		.ascii	"int16_t\000"
 4549      365F7400 
 4550              	.LASF271:
 4551 0500 74726169 		.ascii	"traitement_task\000"
 4551      74656D65 
 4551      6E745F74 
 4551      61736B00 
 4552              	.LASF159:
 4553 0510 6770696F 		.ascii	"gpioPrtCfgInOffset\000"
 4553      50727443 
 4553      6667496E 
 4553      4F666673 
 4553      657400
 4554              	.LASF316:
 4555 0523 43795F53 		.ascii	"Cy_SCB_WriteString\000"
 4555      43425F57 
 4555      72697465 
 4555      53747269 
 4555      6E6700
 4556              	.LASF321:
 4557 0536 433A5C55 		.ascii	"C:\\Users\\nicpa\\OneDrive\\Documents\\PolyDoc\\GBM"
 4557      73657273 
 4557      5C6E6963 
 4557      70615C4F 
 4557      6E654472 
 4558 0563 32313030 		.ascii	"2100FINAL\\Laboratoire3\\Laboratoire3.cydsn\000"
 4558      46494E41 
 4558      4C5C4C61 
 4558      626F7261 
 4558      746F6972 
 4559              	.LASF156:
 4560 058d 70657269 		.ascii	"periDiv24_5CtlOffset\000"
 4560      44697632 
 4560      345F3543 
 4560      746C4F66 
 4560      66736574 
 4561              	.LASF161:
 4562 05a2 6770696F 		.ascii	"gpioPrtCfgSioOffset\000"
 4562      50727443 
 4562      66675369 
 4562      6F4F6666 
 4562      73657400 
 4563              	.LASF115:
 4564 05b6 63707573 		.ascii	"cpussIpc0Irq\000"
 4564      73497063 
 4564      30497271 
 4564      00
 4565              	.LASF219:
 4566 05c3 72784275 		.ascii	"rxBufIdx\000"
 4566      66496478 
ARM GAS  C:\Users\nicpa\AppData\Local\Temp\ccHOh1Eg.s 			page 116


 4566      00
 4567              	.LASF292:
 4568 05cc 6D61786F 		.ascii	"maxormin\000"
 4568      726D696E 
 4568      00
 4569              	.LASF95:
 4570 05d5 75646242 		.ascii	"udbBase\000"
 4570      61736500 
 4571              	.LASF204:
 4572 05dd 736C6176 		.ascii	"slaveTxBufferSize\000"
 4572      65547842 
 4572      75666665 
 4572      7253697A 
 4572      6500
 4573              	.LASF84:
 4574 05ef 52455345 		.ascii	"RESERVED17\000"
 4574      52564544 
 4574      313700
 4575              	.LASF181:
 4576 05fa 666C6F61 		.ascii	"float32_t\000"
 4576      7433325F 
 4576      7400
 4577              	.LASF202:
 4578 0604 736C6176 		.ascii	"slaveRdBufEmpty\000"
 4578      65526442 
 4578      7566456D 
 4578      70747900 
 4579              	.LASF164:
 4580 0614 63707573 		.ascii	"cpussCm4StatusOffset\000"
 4580      73436D34 
 4580      53746174 
 4580      75734F66 
 4580      66736574 
 4581              	.LASF249:
 4582 0629 73746172 		.ascii	"startInputMode\000"
 4582      74496E70 
 4582      75744D6F 
 4582      646500
 4583              	.LASF41:
 4584 0638 54585F43 		.ascii	"TX_CTRL\000"
 4584      54524C00 
 4585              	.LASF81:
 4586 0640 494E5452 		.ascii	"INTR_TX_SET\000"
 4586      5F54585F 
 4586      53455400 
 4587              	.LASF245:
 4588 064c 63617074 		.ascii	"captureInputMode\000"
 4588      75726549 
 4588      6E707574 
 4588      4D6F6465 
 4588      00
 4589              	.LASF30:
 4590 065d 55415254 		.ascii	"UART_TX_CTRL\000"
 4590      5F54585F 
 4590      4354524C 
 4590      00
 4591              	.LASF262:
ARM GAS  C:\Users\nicpa\AppData\Local\Temp\ccHOh1Eg.s 			page 117


 4592 066a 7369676E 		.ascii	"signal_filtre\000"
 4592      616C5F66 
 4592      696C7472 
 4592      6500
 4593              	.LASF133:
 4594 0678 666C6173 		.ascii	"flashEraseDelay\000"
 4594      68457261 
 4594      73654465 
 4594      6C617900 
 4595              	.LASF228:
 4596 0688 72785374 		.ascii	"rxStatus\000"
 4596      61747573 
 4596      00
 4597              	.LASF217:
 4598 0691 72784275 		.ascii	"rxBuf\000"
 4598      6600
 4599              	.LASF137:
 4600 0697 666C6173 		.ascii	"flashCtlMainWs3Freq\000"
 4600      6843746C 
 4600      4D61696E 
 4600      57733346 
 4600      72657100 
 4601              	.LASF119:
 4602 06ab 73727373 		.ascii	"srssNumPll\000"
 4602      4E756D50 
 4602      6C6C00
 4603              	.LASF65:
 4604 06b6 494E5452 		.ascii	"INTR_SPI_EC\000"
 4604      5F535049 
 4604      5F454300 
 4605              	.LASF130:
 4606 06c2 666C6173 		.ascii	"flashPipeRequired\000"
 4606      68506970 
 4606      65526571 
 4606      75697265 
 4606      6400
 4607              	.LASF210:
 4608 06d4 63624576 		.ascii	"cbEvents\000"
 4608      656E7473 
 4608      00
 4609              	.LASF318:
 4610 06dd 76546173 		.ascii	"vTaskDelay\000"
 4610      6B44656C 
 4610      617900
 4611              	.LASF182:
 4612 06e8 646F7562 		.ascii	"double\000"
 4612      6C6500
 4613              	.LASF258:
 4614 06ef 70436F65 		.ascii	"pCoeffs\000"
 4614      66667300 
 4615              	.LASF273:
 4616 06f7 64697370 		.ascii	"displayStr\000"
 4616      6C617953 
 4616      747200
 4617              	.LASF51:
 4618 0702 52585F4D 		.ascii	"RX_MATCH\000"
 4618      41544348 
ARM GAS  C:\Users\nicpa\AppData\Local\Temp\ccHOh1Eg.s 			page 118


 4618      00
 4619              	.LASF235:
 4620 070b 63795F73 		.ascii	"cy_stc_tcpwm_counter_config\000"
 4620      74635F74 
 4620      6370776D 
 4620      5F636F75 
 4620      6E746572 
 4621              	.LASF134:
 4622 0727 666C6173 		.ascii	"flashCtlMainWs0Freq\000"
 4622      6843746C 
 4622      4D61696E 
 4622      57733046 
 4622      72657100 
 4623              	.LASF191:
 4624 073b 75736552 		.ascii	"useRxFifo\000"
 4624      78466966 
 4624      6F00
 4625              	.LASF276:
 4626 0745 49544D5F 		.ascii	"ITM_RxBuffer\000"
 4626      52784275 
 4626      66666572 
 4626      00
 4627              	.LASF275:
 4628 0752 66697253 		.ascii	"firStateF32\000"
 4628      74617465 
 4628      46333200 
 4629              	.LASF60:
 4630 075e 494E5452 		.ascii	"INTR_I2C_EC\000"
 4630      5F493243 
 4630      5F454300 
 4631              	.LASF78:
 4632 076a 494E5452 		.ascii	"INTR_S_MASKED\000"
 4632      5F535F4D 
 4632      41534B45 
 4632      4400
 4633              	.LASF269:
 4634 0778 73747269 		.ascii	"string\000"
 4634      6E6700
 4635              	.LASF104:
 4636 077f 64775665 		.ascii	"dwVersion\000"
 4636      7273696F 
 4636      6E00
 4637              	.LASF169:
 4638 0789 63707573 		.ascii	"cpussSysTickCtlOffset\000"
 4638      73537973 
 4638      5469636B 
 4638      43746C4F 
 4638      66667365 
 4639              	.LASF125:
 4640 079f 75646250 		.ascii	"udbPresent\000"
 4640      72657365 
 4640      6E7400
 4641              	.LASF308:
 4642 07aa 6D696E5F 		.ascii	"min_AC\000"
 4642      414300
 4643              	.LASF185:
 4644 07b1 5F426F6F 		.ascii	"_Bool\000"
ARM GAS  C:\Users\nicpa\AppData\Local\Temp\ccHOh1Eg.s 			page 119


 4644      6C00
 4645              	.LASF143:
 4646 07b7 64775374 		.ascii	"dwStatusChIdxPos\000"
 4646      61747573 
 4646      43684964 
 4646      78506F73 
 4646      00
 4647              	.LASF6:
 4648 07c8 5F5F7569 		.ascii	"__uint16_t\000"
 4648      6E743136 
 4648      5F7400
 4649              	.LASF200:
 4650 07d3 6D617374 		.ascii	"masterNumBytes\000"
 4650      65724E75 
 4650      6D427974 
 4650      657300
 4651              	.LASF114:
 4652 07e2 63707573 		.ascii	"cpussFlashPaSize\000"
 4652      73466C61 
 4652      73685061 
 4652      53697A65 
 4652      00
 4653              	.LASF246:
 4654 07f3 63617074 		.ascii	"captureInput\000"
 4654      75726549 
 4654      6E707574 
 4654      00
 4655              	.LASF93:
 4656 0800 666C6173 		.ascii	"flashcBase\000"
 4656      68634261 
 4656      736500
 4657              	.LASF180:
 4658 080b 63686172 		.ascii	"char\000"
 4658      00
 4659              	.LASF89:
 4660 0810 43795343 		.ascii	"CySCB_V1_Type\000"
 4660      425F5631 
 4660      5F547970 
 4660      6500
 4661              	.LASF232:
 4662 081e 72785269 		.ascii	"rxRingBufTail\000"
 4662      6E674275 
 4662      66546169 
 4662      6C00
 4663              	.LASF307:
 4664 082c 696E6465 		.ascii	"indexmax_AC\000"
 4664      786D6178 
 4664      5F414300 
 4665              	.LASF77:
 4666 0838 494E5452 		.ascii	"INTR_S_MASK\000"
 4666      5F535F4D 
 4666      41534B00 
 4667              	.LASF94:
 4668 0844 70657269 		.ascii	"periBase\000"
 4668      42617365 
 4668      00
 4669              	.LASF126:
ARM GAS  C:\Users\nicpa\AppData\Local\Temp\ccHOh1Eg.s 			page 120


 4670 084d 73797350 		.ascii	"sysPmSimoPresent\000"
 4670      6D53696D 
 4670      6F507265 
 4670      73656E74 
 4670      00
 4671              	.LASF198:
 4672 085e 6D617374 		.ascii	"masterBufferSize\000"
 4672      65724275 
 4672      66666572 
 4672      53697A65 
 4672      00
 4673              	.LASF63:
 4674 086f 494E5452 		.ascii	"INTR_I2C_EC_MASKED\000"
 4674      5F493243 
 4674      5F45435F 
 4674      4D41534B 
 4674      454400
 4675              	.LASF237:
 4676 0882 636C6F63 		.ascii	"clockPrescaler\000"
 4676      6B507265 
 4676      7363616C 
 4676      657200
 4677              	.LASF283:
 4678 0891 7265645F 		.ascii	"red_data\000"
 4678      64617461 
 4678      00
 4679              	.LASF315:
 4680 089a 61726D5F 		.ascii	"arm_min_f32\000"
 4680      6D696E5F 
 4680      66333200 
 4681              	.LASF184:
 4682 08a6 666C6F61 		.ascii	"float32\000"
 4682      74333200 
 4683              	.LASF267:
 4684 08ae 55415254 		.ascii	"UART_PutString\000"
 4684      5F507574 
 4684      53747269 
 4684      6E6700
 4685              	.LASF144:
 4686 08bd 64775374 		.ascii	"dwStatusChIdxMsk\000"
 4686      61747573 
 4686      43684964 
 4686      784D736B 
 4686      00
 4687              	.LASF302:
 4688 08ce 44435F49 		.ascii	"DC_IF\000"
 4688      4600
 4689              	.LASF15:
 4690 08d4 75696E74 		.ascii	"uint8_t\000"
 4690      385F7400 
 4691              	.LASF216:
 4692 08dc 73746174 		.ascii	"status\000"
 4692      757300
 4693              	.LASF206:
 4694 08e3 736C6176 		.ascii	"slaveTxBufferCnt\000"
 4694      65547842 
 4694      75666665 
ARM GAS  C:\Users\nicpa\AppData\Local\Temp\ccHOh1Eg.s 			page 121


 4694      72436E74 
 4694      00
 4695              	.LASF149:
 4696 08f4 70657269 		.ascii	"periDivCmdDivSelMsk\000"
 4696      44697643 
 4696      6D644469 
 4696      7653656C 
 4696      4D736B00 
 4697              	.LASF157:
 4698 0908 6770696F 		.ascii	"gpioPrtIntrCfgOffset\000"
 4698      50727449 
 4698      6E747243 
 4698      66674F66 
 4698      66736574 
 4699              	.LASF155:
 4700 091d 70657269 		.ascii	"periDiv16_5CtlOffset\000"
 4700      44697631 
 4700      365F3543 
 4700      746C4F66 
 4700      66736574 
 4701              	.LASF225:
 4702 0932 63795F63 		.ascii	"cy_cb_scb_uart_handle_events_t\000"
 4702      625F7363 
 4702      625F7561 
 4702      72745F68 
 4702      616E646C 
 4703              	.LASF256:
 4704 0951 6E756D54 		.ascii	"numTaps\000"
 4704      61707300 
 4705              	.LASF53:
 4706 0959 52585F46 		.ascii	"RX_FIFO_RD\000"
 4706      49464F5F 
 4706      524400
 4707              	.LASF279:
 4708 0964 43595F45 		.ascii	"CY_EINK_Timer_config\000"
 4708      494E4B5F 
 4708      54696D65 
 4708      725F636F 
 4708      6E666967 
 4709              	.LASF173:
 4710 0979 63707573 		.ascii	"cpussRam0Ctl0\000"
 4710      7352616D 
 4710      3043746C 
 4710      3000
 4711              	.LASF12:
 4712 0987 6C6F6E67 		.ascii	"long long int\000"
 4712      206C6F6E 
 4712      6720696E 
 4712      7400
 4713              	.LASF100:
 4714 0995 69706342 		.ascii	"ipcBase\000"
 4714      61736500 
 4715              	.LASF141:
 4716 099d 64774368 		.ascii	"dwChCtlPrioPos\000"
 4716      43746C50 
 4716      72696F50 
 4716      6F7300
ARM GAS  C:\Users\nicpa\AppData\Local\Temp\ccHOh1Eg.s 			page 122


 4717              	.LASF257:
 4718 09ac 70537461 		.ascii	"pState\000"
 4718      746500
 4719              	.LASF101:
 4720 09b3 63727970 		.ascii	"cryptoBase\000"
 4720      746F4261 
 4720      736500
 4721              	.LASF300:
 4722 09be 41435F49 		.ascii	"AC_IF\000"
 4722      4600
 4723              	.LASF284:
 4724 09c4 69725F64 		.ascii	"ir_data\000"
 4724      61746100 
 4725              	.LASF131:
 4726 09cc 666C6173 		.ascii	"flashWriteDelay\000"
 4726      68577269 
 4726      74654465 
 4726      6C617900 
 4727              	.LASF287:
 4728 09dc 50414745 		.ascii	"PAGE_SIGNAL_IR\000"
 4728      5F534947 
 4728      4E414C5F 
 4728      495200
 4729              	.LASF54:
 4730 09eb 52585F46 		.ascii	"RX_FIFO_RD_SILENT\000"
 4730      49464F5F 
 4730      52445F53 
 4730      494C454E 
 4730      5400
 4731              	.LASF192:
 4732 09fd 75736554 		.ascii	"useTxFifo\000"
 4732      78466966 
 4732      6F00
 4733              	.LASF5:
 4734 0a07 5F5F696E 		.ascii	"__int16_t\000"
 4734      7431365F 
 4734      7400
 4735              	.LASF33:
 4736 0a11 55415254 		.ascii	"UART_FLOW_CTRL\000"
 4736      5F464C4F 
 4736      575F4354 
 4736      524C00
 4737              	.LASF97:
 4738 0a20 6873696F 		.ascii	"hsiomBase\000"
 4738      6D426173 
 4738      6500
 4739              	.LASF196:
 4740 0a2a 6D617374 		.ascii	"masterRdDir\000"
 4740      65725264 
 4740      44697200 
 4741              	.LASF147:
 4742 0a36 70657269 		.ascii	"periTrGrOffset\000"
 4742      54724772 
 4742      4F666673 
 4742      657400
 4743              	.LASF117:
 4744 0a45 63707573 		.ascii	"cpussNotConnectedIrq\000"
ARM GAS  C:\Users\nicpa\AppData\Local\Temp\ccHOh1Eg.s 			page 123


 4744      734E6F74 
 4744      436F6E6E 
 4744      65637465 
 4744      64497271 
 4745              	.LASF224:
 4746 0a5a 63795F73 		.ascii	"cy_stc_scb_spi_context_t\000"
 4746      74635F73 
 4746      63625F73 
 4746      70695F63 
 4746      6F6E7465 
 4747              	.LASF231:
 4748 0a73 72785269 		.ascii	"rxRingBufHead\000"
 4748      6E674275 
 4748      66486561 
 4748      6400
 4749              	.LASF113:
 4750 0a81 63707573 		.ascii	"cpussDwChNr\000"
 4750      73447743 
 4750      684E7200 
 4751              	.LASF247:
 4752 0a8d 72656C6F 		.ascii	"reloadInputMode\000"
 4752      6164496E 
 4752      7075744D 
 4752      6F646500 
 4753              	.LASF266:
 4754 0a9d 44435F73 		.ascii	"DC_sum\000"
 4754      756D00
 4755              	.LASF221:
 4756 0aa4 74784275 		.ascii	"txBufSize\000"
 4756      6653697A 
 4756      6500
 4757              	.LASF111:
 4758 0aae 63707573 		.ascii	"cpussIpcNr\000"
 4758      73497063 
 4758      4E7200
 4759              	.LASF1:
 4760 0ab9 73686F72 		.ascii	"short int\000"
 4760      7420696E 
 4760      7400
 4761              	.LASF303:
 4762 0ac3 626C6F63 		.ascii	"blockSize\000"
 4762      6B53697A 
 4762      6500
 4763              	.LASF123:
 4764 0acd 70617373 		.ascii	"passSarChannels\000"
 4764      53617243 
 4764      68616E6E 
 4764      656C7300 
 4765              	.LASF209:
 4766 0add 736C6176 		.ascii	"slaveRxBufferIdx\000"
 4766      65527842 
 4766      75666665 
 4766      72496478 
 4766      00
 4767              	.LASF175:
 4768 0aee 63707573 		.ascii	"cpussRam2Ctl0\000"
 4768      7352616D 
ARM GAS  C:\Users\nicpa\AppData\Local\Temp\ccHOh1Eg.s 			page 124


 4768      3243746C 
 4768      3000
 4769              	.LASF195:
 4770 0afc 6D617374 		.ascii	"masterPause\000"
 4770      65725061 
 4770      75736500 
 4771              	.LASF312:
 4772 0b08 61726D5F 		.ascii	"arm_fir_init_f32\000"
 4772      6669725F 
 4772      696E6974 
 4772      5F663332 
 4772      00
 4773              	.LASF85:
 4774 0b19 494E5452 		.ascii	"INTR_RX\000"
 4774      5F525800 
 4775              	.LASF220:
 4776 0b21 74784275 		.ascii	"txBuf\000"
 4776      6600
 4777              	.LASF260:
 4778 0b27 5469636B 		.ascii	"TickType_t\000"
 4778      54797065 
 4778      5F7400
 4779              	.LASF132:
 4780 0b32 666C6173 		.ascii	"flashProgramDelay\000"
 4780      6850726F 
 4780      6772616D 
 4780      44656C61 
 4780      7900
 4781              	.LASF154:
 4782 0b44 70657269 		.ascii	"periDiv16CtlOffset\000"
 4782      44697631 
 4782      3643746C 
 4782      4F666673 
 4782      657400
 4783              	.LASF208:
 4784 0b57 736C6176 		.ascii	"slaveRxBufferSize\000"
 4784      65527842 
 4784      75666665 
 4784      7253697A 
 4784      6500
 4785              	.LASF129:
 4786 0b69 666C6173 		.ascii	"flashRwwRequired\000"
 4786      68527777 
 4786      52657175 
 4786      69726564 
 4786      00
 4787              	.LASF7:
 4788 0b7a 73686F72 		.ascii	"short unsigned int\000"
 4788      7420756E 
 4788      7369676E 
 4788      65642069 
 4788      6E7400
 4789              	.LASF229:
 4790 0b8d 72785269 		.ascii	"rxRingBuf\000"
 4790      6E674275 
 4790      6600
 4791              	.LASF91:
ARM GAS  C:\Users\nicpa\AppData\Local\Temp\ccHOh1Eg.s 			page 125


 4792 0b97 6C6F6E67 		.ascii	"long double\000"
 4792      20646F75 
 4792      626C6500 
 4793              	.LASF317:
 4794 0ba3 73707269 		.ascii	"sprintf\000"
 4794      6E746600 
 4795              	.LASF17:
 4796 0bab 75696E74 		.ascii	"uint16_t\000"
 4796      31365F74 
 4796      00
 4797              	.LASF62:
 4798 0bb4 494E5452 		.ascii	"INTR_I2C_EC_MASK\000"
 4798      5F493243 
 4798      5F45435F 
 4798      4D41534B 
 4798      00
 4799              	.LASF96:
 4800 0bc5 70726F74 		.ascii	"protBase\000"
 4800      42617365 
 4800      00
 4801              	.LASF238:
 4802 0bce 72756E4D 		.ascii	"runMode\000"
 4802      6F646500 
 4803              	.LASF146:
 4804 0bd6 70657269 		.ascii	"periTrCmdGrSelMsk\000"
 4804      5472436D 
 4804      64477253 
 4804      656C4D73 
 4804      6B00
 4805              	.LASF197:
 4806 0be8 6D617374 		.ascii	"masterBuffer\000"
 4806      65724275 
 4806      66666572 
 4806      00
 4807              	.LASF120:
 4808 0bf5 73727373 		.ascii	"srssNumHfroot\000"
 4808      4E756D48 
 4808      66726F6F 
 4808      7400
 4809              	.LASF255:
 4810 0c03 63795F73 		.ascii	"cy_stc_tcpwm_counter_config_t\000"
 4810      74635F74 
 4810      6370776D 
 4810      5F636F75 
 4810      6E746572 
 4811              	.LASF274:
 4812 0c21 696E6469 		.ascii	"indice\000"
 4812      636500
 4813              	.LASF67:
 4814 0c28 494E5452 		.ascii	"INTR_SPI_EC_MASK\000"
 4814      5F535049 
 4814      5F45435F 
 4814      4D41534B 
 4814      00
 4815              	.LASF20:
 4816 0c39 73697A65 		.ascii	"sizetype\000"
 4816      74797065 
ARM GAS  C:\Users\nicpa\AppData\Local\Temp\ccHOh1Eg.s 			page 126


 4816      00
 4817              	.LASF38:
 4818 0c42 4932435F 		.ascii	"I2C_S_CMD\000"
 4818      535F434D 
 4818      4400
 4819              	.LASF171:
 4820 0c4c 63707573 		.ascii	"cpussCm4NmiCtlOffset\000"
 4820      73436D34 
 4820      4E6D6943 
 4820      746C4F66 
 4820      66736574 
 4821              	.LASF240:
 4822 0c61 636F6D70 		.ascii	"compareOrCapture\000"
 4822      6172654F 
 4822      72436170 
 4822      74757265 
 4822      00
 4823              	.LASF153:
 4824 0c72 70657269 		.ascii	"periDiv8CtlOffset\000"
 4824      44697638 
 4824      43746C4F 
 4824      66667365 
 4824      7400
 4825              	.LASF34:
 4826 0c84 52455345 		.ascii	"RESERVED2\000"
 4826      52564544 
 4826      3200
 4827              	.LASF40:
 4828 0c8e 52455345 		.ascii	"RESERVED3\000"
 4828      52564544 
 4828      3300
 4829              	.LASF44:
 4830 0c98 52455345 		.ascii	"RESERVED4\000"
 4830      52564544 
 4830      3400
 4831              	.LASF46:
 4832 0ca2 52455345 		.ascii	"RESERVED5\000"
 4832      52564544 
 4832      3500
 4833              	.LASF50:
 4834 0cac 52455345 		.ascii	"RESERVED6\000"
 4834      52564544 
 4834      3600
 4835              	.LASF52:
 4836 0cb6 52455345 		.ascii	"RESERVED7\000"
 4836      52564544 
 4836      3700
 4837              	.LASF55:
 4838 0cc0 52455345 		.ascii	"RESERVED8\000"
 4838      52564544 
 4838      3800
 4839              	.LASF57:
 4840 0cca 52455345 		.ascii	"RESERVED9\000"
 4840      52564544 
 4840      3900
 4841              	.LASF244:
 4842 0cd4 696E7465 		.ascii	"interruptSources\000"
ARM GAS  C:\Users\nicpa\AppData\Local\Temp\ccHOh1Eg.s 			page 127


 4842      72727570 
 4842      74536F75 
 4842      72636573 
 4842      00
 4843              	.LASF243:
 4844 0ce5 656E6162 		.ascii	"enableCompareSwap\000"
 4844      6C65436F 
 4844      6D706172 
 4844      65537761 
 4844      7000
 4845              	.LASF272:
 4846 0cf7 70765061 		.ascii	"pvParameters\000"
 4846      72616D65 
 4846      74657273 
 4846      00
 4847              	.LASF103:
 4848 0d04 63727970 		.ascii	"cryptoVersion\000"
 4848      746F5665 
 4848      7273696F 
 4848      6E00
 4849              	.LASF9:
 4850 0d12 6C6F6E67 		.ascii	"long int\000"
 4850      20696E74 
 4850      00
 4851              	.LASF102:
 4852 0d1b 63707573 		.ascii	"cpussVersion\000"
 4852      73566572 
 4852      73696F6E 
 4852      00
 4853              	.LASF301:
 4854 0d28 44435F52 		.ascii	"DC_R\000"
 4854      00
 4855              	.LASF36:
 4856 0d2d 4932435F 		.ascii	"I2C_STATUS\000"
 4856      53544154 
 4856      555300
 4857              	.LASF253:
 4858 0d38 636F756E 		.ascii	"countInputMode\000"
 4858      74496E70 
 4858      75744D6F 
 4858      646500
 4859              	.LASF106:
 4860 0d47 6770696F 		.ascii	"gpioVersion\000"
 4860      56657273 
 4860      696F6E00 
 4861              	.LASF310:
 4862 0d53 41435F31 		.ascii	"AC_1000\000"
 4862      30303000 
 4863              	.LASF83:
 4864 0d5b 494E5452 		.ascii	"INTR_TX_MASKED\000"
 4864      5F54585F 
 4864      4D41534B 
 4864      454400
 4865              	.LASF105:
 4866 0d6a 666C6173 		.ascii	"flashcVersion\000"
 4866      68635665 
 4866      7273696F 
ARM GAS  C:\Users\nicpa\AppData\Local\Temp\ccHOh1Eg.s 			page 128


 4866      6E00
 4867              	.LASF127:
 4868 0d78 70726F74 		.ascii	"protBusMasterMask\000"
 4868      4275734D 
 4868      61737465 
 4868      724D6173 
 4868      6B00
 4869              	.LASF239:
 4870 0d8a 636F756E 		.ascii	"countDirection\000"
 4870      74446972 
 4870      65637469 
 4870      6F6E00
 4871              	.LASF294:
 4872 0d99 68726D69 		.ascii	"hrmin\000"
 4872      6E00
 4873              	.LASF179:
 4874 0d9f 63686172 		.ascii	"char_t\000"
 4874      5F7400
 4875              	.LASF80:
 4876 0da6 494E5452 		.ascii	"INTR_TX\000"
 4876      5F545800 
 4877              	.LASF32:
 4878 0dae 55415254 		.ascii	"UART_RX_STATUS\000"
 4878      5F52585F 
 4878      53544154 
 4878      555300
 4879              	.LASF233:
 4880 0dbd 74784C65 		.ascii	"txLeftToTransmit\000"
 4880      6674546F 
 4880      5472616E 
 4880      736D6974 
 4880      00
 4881              	.LASF288:
 4882 0dce 50414745 		.ascii	"PAGE_SIGNAL_R\000"
 4882      5F534947 
 4882      4E414C5F 
 4882      5200
 4883              	.LASF166:
 4884 0ddc 63707573 		.ascii	"cpussCm4PwrCtlOffset\000"
 4884      73436D34 
 4884      50777243 
 4884      746C4F66 
 4884      66736574 
 4885              	.LASF4:
 4886 0df1 5F5F7569 		.ascii	"__uint8_t\000"
 4886      6E74385F 
 4886      7400
 4887              	.LASF42:
 4888 0dfb 54585F46 		.ascii	"TX_FIFO_CTRL\000"
 4888      49464F5F 
 4888      4354524C 
 4888      00
 4889              	.LASF37:
 4890 0e08 4932435F 		.ascii	"I2C_M_CMD\000"
 4890      4D5F434D 
 4890      4400
 4891              	.LASF68:
ARM GAS  C:\Users\nicpa\AppData\Local\Temp\ccHOh1Eg.s 			page 129


 4892 0e12 494E5452 		.ascii	"INTR_SPI_EC_MASKED\000"
 4892      5F535049 
 4892      5F45435F 
 4892      4D41534B 
 4892      454400
 4893              	.LASF14:
 4894 0e25 756E7369 		.ascii	"unsigned int\000"
 4894      676E6564 
 4894      20696E74 
 4894      00
 4895              	.LASF26:
 4896 0e32 5350495F 		.ascii	"SPI_CTRL\000"
 4896      4354524C 
 4896      00
 4897              	.LASF163:
 4898 0e3b 63707573 		.ascii	"cpussCm4ClockCtlOffset\000"
 4898      73436D34 
 4898      436C6F63 
 4898      6B43746C 
 4898      4F666673 
 4899              	.LASF215:
 4900 0e52 63795F73 		.ascii	"cy_stc_scb_spi_context\000"
 4900      74635F73 
 4900      63625F73 
 4900      70695F63 
 4900      6F6E7465 
 4901              	.LASF47:
 4902 0e69 52585F43 		.ascii	"RX_CTRL\000"
 4902      54524C00 
 4903              	.LASF168:
 4904 0e71 63707573 		.ascii	"cpussTrimRomCtlOffset\000"
 4904      73547269 
 4904      6D526F6D 
 4904      43746C4F 
 4904      66667365 
 4905              	.LASF35:
 4906 0e87 4932435F 		.ascii	"I2C_CTRL\000"
 4906      4354524C 
 4906      00
 4907              	.LASF107:
 4908 0e90 6873696F 		.ascii	"hsiomVersion\000"
 4908      6D566572 
 4908      73696F6E 
 4908      00
 4909              	.LASF11:
 4910 0e9d 6C6F6E67 		.ascii	"long unsigned int\000"
 4910      20756E73 
 4910      69676E65 
 4910      6420696E 
 4910      7400
 4911              	.LASF70:
 4912 0eaf 494E5452 		.ascii	"INTR_M\000"
 4912      5F4D00
 4913              	.LASF172:
 4914 0eb6 63707573 		.ascii	"cpussRomCtl\000"
 4914      73526F6D 
 4914      43746C00 
ARM GAS  C:\Users\nicpa\AppData\Local\Temp\ccHOh1Eg.s 			page 130


 4915              	.LASF75:
 4916 0ec2 494E5452 		.ascii	"INTR_S\000"
 4916      5F5300
 4917              	.LASF18:
 4918 0ec9 696E7433 		.ascii	"int32_t\000"
 4918      325F7400 
 4919              	.LASF259:
 4920 0ed1 61726D5F 		.ascii	"arm_fir_instance_f32\000"
 4920      6669725F 
 4920      696E7374 
 4920      616E6365 
 4920      5F663332 
 4921              	.LASF72:
 4922 0ee6 494E5452 		.ascii	"INTR_M_MASK\000"
 4922      5F4D5F4D 
 4922      41534B00 
 4923              	.LASF291:
 4924 0ef2 616C6572 		.ascii	"alerte\000"
 4924      746500
 4925              	.LASF27:
 4926 0ef9 5350495F 		.ascii	"SPI_STATUS\000"
 4926      53544154 
 4926      555300
 4927              	.LASF3:
 4928 0f04 756E7369 		.ascii	"unsigned char\000"
 4928      676E6564 
 4928      20636861 
 4928      7200
 4929              	.LASF10:
 4930 0f12 5F5F7569 		.ascii	"__uint32_t\000"
 4930      6E743332 
 4930      5F7400
 4931              	.LASF98:
 4932 0f1d 6770696F 		.ascii	"gpioBase\000"
 4932      42617365 
 4932      00
 4933              	.LASF177:
 4934 0f26 6970634C 		.ascii	"ipcLockStatusOffset\000"
 4934      6F636B53 
 4934      74617475 
 4934      734F6666 
 4934      73657400 
 4935              	.LASF305:
 4936 0f3a 41435F76 		.ascii	"AC_valeur\000"
 4936      616C6575 
 4936      7200
 4937              	.LASF254:
 4938 0f44 636F756E 		.ascii	"countInput\000"
 4938      74496E70 
 4938      757400
 4939              	.LASF59:
 4940 0f4f 52455345 		.ascii	"RESERVED10\000"
 4940      52564544 
 4940      313000
 4941              	.LASF61:
 4942 0f5a 52455345 		.ascii	"RESERVED11\000"
 4942      52564544 
ARM GAS  C:\Users\nicpa\AppData\Local\Temp\ccHOh1Eg.s 			page 131


 4942      313100
 4943              	.LASF64:
 4944 0f65 52455345 		.ascii	"RESERVED12\000"
 4944      52564544 
 4944      313200
 4945              	.LASF66:
 4946 0f70 52455345 		.ascii	"RESERVED13\000"
 4946      52564544 
 4946      313300
 4947              	.LASF69:
 4948 0f7b 52455345 		.ascii	"RESERVED14\000"
 4948      52564544 
 4948      313400
 4949              	.LASF74:
 4950 0f86 52455345 		.ascii	"RESERVED15\000"
 4950      52564544 
 4950      313500
 4951              	.LASF79:
 4952 0f91 52455345 		.ascii	"RESERVED16\000"
 4952      52564544 
 4952      313600
 4953              	.LASF309:
 4954 0f9c 696E6465 		.ascii	"indexmin_AC\000"
 4954      786D696E 
 4954      5F414300 
 4955              	.LASF49:
 4956 0fa8 52585F46 		.ascii	"RX_FIFO_STATUS\000"
 4956      49464F5F 
 4956      53544154 
 4956      555300
 4957              	.LASF304:
 4958 0fb7 6E756D42 		.ascii	"numBlocks\000"
 4958      6C6F636B 
 4958      7300
 4959              	.LASF193:
 4960 0fc1 73746174 		.ascii	"state\000"
 4960      6500
 4961              	.LASF286:
 4962 0fc7 77726974 		.ascii	"write_idx_MAX\000"
 4962      655F6964 
 4962      785F4D41 
 4962      5800
 4963              	.LASF45:
 4964 0fd5 54585F46 		.ascii	"TX_FIFO_WR\000"
 4964      49464F5F 
 4964      575200
 4965              	.LASF298:
 4966 0fe0 7369676E 		.ascii	"signal_AC_IF\000"
 4966      616C5F41 
 4966      435F4946 
 4966      00
 4967              	.LASF295:
 4968 0fed 7369676E 		.ascii	"signal_R\000"
 4968      616C5F52 
 4968      00
 4969              	.LASF158:
 4970 0ff6 6770696F 		.ascii	"gpioPrtCfgOffset\000"
ARM GAS  C:\Users\nicpa\AppData\Local\Temp\ccHOh1Eg.s 			page 132


 4970      50727443 
 4970      66674F66 
 4970      66736574 
 4970      00
 4971              	.LASF282:
 4972 1007 55415254 		.ascii	"UART_context\000"
 4972      5F636F6E 
 4972      74657874 
 4972      00
 4973              	.LASF2:
 4974 1014 7369676E 		.ascii	"signed char\000"
 4974      65642063 
 4974      68617200 
 4975              	.LASF236:
 4976 1020 70657269 		.ascii	"period\000"
 4976      6F6400
 4977              	.LASF139:
 4978 1027 64774368 		.ascii	"dwChOffset\000"
 4978      4F666673 
 4978      657400
 4979              	.LASF29:
 4980 1032 55415254 		.ascii	"UART_CTRL\000"
 4980      5F435452 
 4980      4C00
 4981              	.LASF112:
 4982 103c 63707573 		.ascii	"cpussIpcIrqNr\000"
 4982      73497063 
 4982      4972714E 
 4982      7200
 4983              	.LASF87:
 4984 104a 494E5452 		.ascii	"INTR_RX_MASK\000"
 4984      5F52585F 
 4984      4D41534B 
 4984      00
 4985              	.LASF142:
 4986 1057 64774368 		.ascii	"dwChCtlPreemptablePos\000"
 4986      43746C50 
 4986      7265656D 
 4986      70746162 
 4986      6C65506F 
 4987              	.LASF323:
 4988 106d 6D656D63 		.ascii	"memcpy\000"
 4988      707900
 4989              	.LASF311:
 4990 1074 6D6F7965 		.ascii	"moyenne_DC\000"
 4990      6E6E655F 
 4990      444300
 4991              	.LASF23:
 4992 107f 434D445F 		.ascii	"CMD_RESP_CTRL\000"
 4992      52455350 
 4992      5F435452 
 4992      4C00
 4993              	.LASF178:
 4994 108d 63795F73 		.ascii	"cy_stc_device_t\000"
 4994      74635F64 
 4994      65766963 
 4994      655F7400 
ARM GAS  C:\Users\nicpa\AppData\Local\Temp\ccHOh1Eg.s 			page 133


 4995              	.LASF109:
 4996 109d 70657269 		.ascii	"periVersion\000"
 4996      56657273 
 4996      696F6E00 
 4997              	.LASF223:
 4998 10a9 696E6974 		.ascii	"initKey\000"
 4998      4B657900 
 4999              	.LASF306:
 5000 10b1 6D61785F 		.ascii	"max_AC\000"
 5000      414300
 5001              	.LASF183:
 5002 10b8 75696E74 		.ascii	"uint8\000"
 5002      3800
 5003              	.LASF281:
 5004 10be 4932436D 		.ascii	"I2Cm_context\000"
 5004      5F636F6E 
 5004      74657874 
 5004      00
 5005              	.LASF99:
 5006 10cb 70617373 		.ascii	"passBase\000"
 5006      42617365 
 5006      00
 5007              	.LASF322:
 5008 10d4 66696C74 		.ascii	"filtre_6\000"
 5008      72655F36 
 5008      00
 5009              	.LASF136:
 5010 10dd 666C6173 		.ascii	"flashCtlMainWs2Freq\000"
 5010      6843746C 
 5010      4D61696E 
 5010      57733246 
 5010      72657100 
 5011              	.LASF86:
 5012 10f1 494E5452 		.ascii	"INTR_RX_SET\000"
 5012      5F52585F 
 5012      53455400 
 5013              	.LASF28:
 5014 10fd 52455345 		.ascii	"RESERVED1\000"
 5014      52564544 
 5014      3100
 5015              	.LASF118:
 5016 1107 73727373 		.ascii	"srssNumClkpath\000"
 5016      4E756D43 
 5016      6C6B7061 
 5016      746800
 5017              	.LASF22:
 5018 1116 53544154 		.ascii	"STATUS\000"
 5018      555300
 5019              	.LASF212:
 5020 111d 63795F73 		.ascii	"cy_stc_scb_i2c_context_t\000"
 5020      74635F73 
 5020      63625F69 
 5020      32635F63 
 5020      6F6E7465 
 5021              	.LASF138:
 5022 1136 666C6173 		.ascii	"flashCtlMainWs4Freq\000"
 5022      6843746C 
ARM GAS  C:\Users\nicpa\AppData\Local\Temp\ccHOh1Eg.s 			page 134


 5022      4D61696E 
 5022      57733446 
 5022      72657100 
 5023              	.LASF299:
 5024 114a 41435F52 		.ascii	"AC_R\000"
 5024      00
 5025              	.LASF268:
 5026 114f 43795F53 		.ascii	"Cy_SCB_UART_PutString\000"
 5026      43425F55 
 5026      4152545F 
 5026      50757453 
 5026      7472696E 
 5027              	.LASF289:
 5028 1165 63757272 		.ascii	"currentpage\000"
 5028      656E7470 
 5028      61676500 
 5029              	.LASF165:
 5030 1171 63707573 		.ascii	"cpussCm0StatusOffset\000"
 5030      73436D30 
 5030      53746174 
 5030      75734F66 
 5030      66736574 
 5031              	.LASF234:
 5032 1186 63795F73 		.ascii	"cy_stc_scb_uart_context_t\000"
 5032      74635F73 
 5032      63625F75 
 5032      6172745F 
 5032      636F6E74 
 5033              	.LASF56:
 5034 11a0 455A5F44 		.ascii	"EZ_DATA\000"
 5034      41544100 
 5035              	.LASF108:
 5036 11a8 69706356 		.ascii	"ipcVersion\000"
 5036      65727369 
 5036      6F6E00
 5037              	.LASF145:
 5038 11b3 70657269 		.ascii	"periTrCmdOffset\000"
 5038      5472436D 
 5038      644F6666 
 5038      73657400 
 5039              	.LASF218:
 5040 11c3 72784275 		.ascii	"rxBufSize\000"
 5040      6653697A 
 5040      6500
 5041              	.LASF21:
 5042 11cd 4354524C 		.ascii	"CTRL\000"
 5042      00
 5043              		.ident	"GCC: (GNU Tools for ARM Embedded Processors) 5.4.1 20160609 (release) [ARM/embedded-5-bran
